(dp1
S'body'
p2
(dp3
S'type'
p4
S'text'
p5
sS'sortable'
p6
I5
sS'sql'
p7
S'TEXT'
p8
ssS'image_id'
p9
(dp10
g4
S'reference image'
p11
sg6
I2
sg7
S'INTEGER REFERENCES image(id) ON DELETE CASCADE'
p12
ssS'email'
p13
(dp14
g4
S'string'
p15
sg6
I4
sg7
S'CHAR(512)'
p16
ssS'id'
p17
(dp18
g4
g17
sg6
I1
sg7
S'INTEGER PRIMARY KEY AUTOINCREMENT'
p19
ssS'author'
p20
(dp21
g4
g15
sg6
I3
sg7
S'CHAR(512)'
p22
ss.