(dp1
S'output'
p2
S''
sS'layer'
p3
S'/Users/schultzc/workspace/wherespuppet/web2py/applications/wp/controllers/default.py'
p4
sS'code'
p5
S'# -*- coding: utf-8 -*-\n# this file is released under public domain and you can use without limitations\n\n#########################################################################\n## This is a samples controller\n## - index is the default action of any application\n## - user is required for authentication and authorization\n## - download is for downloading files uploaded in the db (does streaming)\n## - call exposes all registered services (none by default)\n#########################################################################\nimport datetime\n\n\ndef index():\n    images = db().select(db.image.ALL, orderby=db.image.title)\n    return dict(images=images)\n    \ndef submit():\n    form = SQLFORM(db.image, submit_button=\'Submit Puppet\', _id = "submission",formstyle="divs")\n    if request.cookies.has_key(\'posLat\') and request.cookies.has_key(\'posLon\') and request.cookies.has_key(\'posAccuracy\'):\n        latitude = request.cookies[\'posLat\'].value\n        longitude = request.cookies[\'posLon\'].value\n        accuracy = request.cookies[\'posAccuracy\'].value\n        ##insert geolocate data to db here: \n        db.image.insert(latitude=latitude)\n        db.image.insert(longitude=longitude)\n        \n        form.vars.latitude = latitude\n        form.vars.longitude = longitude\n        form.vars.accuracy = accuracy\n        \n    else:\n        latitude = 0\n        longitude = 0\n        accuracy = 0\n    if form.accepts(request.vars, session):\n        response.flash = \'form accepted\'\n    elif form.errors:\n        response.flash = \'form has errors\'\n    else:\n        response.flash = \'please fill out the form\'\n\n    return dict(form=form, latitude=latitude, longitude=longitude, accuracy=accuracy)\n   \ndef show():\n    image = db(db.image.id==request.args(0)).select().first()\n    form = SQLFORM(db.comment)\n    form.vars.image_id = image.id\n    if form.accepts(request.vars, session):\n        response.flash = \'your comment is posted\'\n    comments = db(db.comment.image_id==image.id).select()\n    return dict(image=image, comments=comments, form=form)\n\ndef user():\n    """\n    exposes:\n    http://..../[app]/default/user/login\n    http://..../[app]/default/user/logout\n    http://..../[app]/default/user/register\n    http://..../[app]/default/user/profile\n    http://..../[app]/default/user/retrieve_password\n    http://..../[app]/default/user/change_password\n    use @auth.requires_login()\n        @auth.requires_membership(\'group name\')\n        @auth.requires_permission(\'read\',\'table name\',record_id)\n    to decorate functions that need access control\n    """\n    return dict(form=auth())\n\n\ndef download():\n    """\n    allows downloading of uploaded files\n    http://..../[app]/default/download/[filename]\n    """\n    return response.download(request,db)\n\n\ndef call():\n    """\n    exposes services. for example:\n    http://..../[app]/default/call/jsonrpc\n    decorate with @services.jsonrpc the functions to expose\n    supports xml, json, xmlrpc, jsonrpc, amfrpc, rss, csv\n    """\n    return service()\n\n\'\'\'\n@auth.requires_signature()\ndef data():\n    """\n    http://..../[app]/default/data/tables\n    http://..../[app]/default/data/create/[table]\n    http://..../[app]/default/data/read/[table]/[id]\n    http://..../[app]/default/data/update/[table]/[id]\n    http://..../[app]/default/data/delete/[table]/[id[\n    http://..../[app]/default/data/select/[table]\n    http://..../[app]/default/data/search/[table]\n    but URLs bust be signed, i.e. linked with\n      A(\'table\',_href=URL(\'data/tables\',user_signature=True))\n    or with the signed load operator\n      LOAD(\'default\',\'data.load\',args=\'tables\',ajax=True,user_signature=True)\n    """\n    return dict(form=crud())\n\'\'\'\n\nresponse._vars=response._caller(submit)\n'
p6
sS'snapshot'
p7
(dp8
S'exception'
p9
(dp10
S'__getslice__'
p11
S"<method-wrapper '__getslice__' of exceptions.SyntaxError object>"
p12
sS'text'
p13
S'None'
p14
sS'__str__'
p15
S"<method-wrapper '__str__' of exceptions.SyntaxError object>"
p16
sS'__reduce__'
p17
S'<built-in method __reduce__ of exceptions.SyntaxError object>'
p18
sS'__dict__'
p19
S'{}'
p20
sS'__sizeof__'
p21
S'<built-in method __sizeof__ of exceptions.SyntaxError object>'
p22
sS'__init__'
p23
S"<method-wrapper '__init__' of exceptions.SyntaxError object>"
p24
sS'__setattr__'
p25
S"<method-wrapper '__setattr__' of exceptions.SyntaxError object>"
p26
sS'__reduce_ex__'
p27
S'<built-in method __reduce_ex__ of exceptions.SyntaxError object>'
p28
sS'__new__'
p29
S'<built-in method __new__ of type object>'
p30
sS'__format__'
p31
S'<built-in method __format__ of exceptions.SyntaxError object>'
p32
sS'__class__'
p33
S"<type 'exceptions.SyntaxError'>"
p34
sS'filename'
p35
S'None'
p36
sS'lineno'
p37
S'None'
p38
sS'msg'
p39
S"'Field accuracy does not belong to the table'"
p40
sS'__doc__'
p41
S"'Invalid syntax.'"
p42
sS'__getitem__'
p43
S"<method-wrapper '__getitem__' of exceptions.SyntaxError object>"
p44
sS'__setstate__'
p45
S'<built-in method __setstate__ of exceptions.SyntaxError object>'
p46
sS'__getattribute__'
p47
S"<method-wrapper '__getattribute__' of exceptions.SyntaxError object>"
p48
sS'print_file_and_line'
p49
S'None'
p50
sS'args'
p51
S"('Field accuracy does not belong to the table',)"
p52
sS'__subclasshook__'
p53
S'<built-in method __subclasshook__ of type object>'
p54
sS'offset'
p55
S'None'
p56
sS'__unicode__'
p57
S'<built-in method __unicode__ of exceptions.SyntaxError object>'
p58
sS'__delattr__'
p59
S"<method-wrapper '__delattr__' of exceptions.SyntaxError object>"
p60
sS'__repr__'
p61
S"<method-wrapper '__repr__' of exceptions.SyntaxError object>"
p62
sS'__hash__'
p63
S"<method-wrapper '__hash__' of exceptions.SyntaxError object>"
p64
ssS'evalue'
p65
S'Field accuracy does not belong to the table'
p66
sS'request'
p67
ccopy_reg
_reconstructor
p68
(cgluon.html
BEAUTIFY
p69
c__builtin__
object
p70
NtRp71
(dp72
S'attributes'
p73
(dp74
sS'components'
p75
(lp76
g68
(cgluon.html
TABLE
p77
g70
NtRp78
(dp79
g73
(dp80
S'level'
p81
I5
ssS'parent'
p82
Nsg75
(lp83
g68
(cgluon.html
TR
p84
g70
NtRp85
(dp86
g73
(dp87
sg82
g78
sg75
(lp88
g68
(cgluon.html
TD
p89
g70
NtRp90
(dp91
g73
(dp92
S'_style'
p93
S'font-weight:bold;'
p94
ssg82
g85
sg75
(lp95
S'ajax'
p96
asbag68
(g89
g70
NtRp97
(dp98
g73
(dp99
S'_valign'
p100
S'top'
p101
ssg82
g85
sg75
(lp102
S':'
asbag68
(g89
g70
NtRp103
(dp104
g73
(dp105
sg82
g85
sg75
(lp106
g68
(g69
g70
NtRp107
(dp108
g73
(dp109
g81
I5
ssg82
g103
sg75
(lp110
S'False'
p111
asbasbasbag68
(g84
g70
NtRp112
(dp113
g73
(dp114
sg82
g78
sg75
(lp115
g68
(g89
g70
NtRp116
(dp117
g73
(dp118
g93
g94
ssg82
g112
sg75
(lp119
S'application'
p120
asbag68
(g89
g70
NtRp121
(dp122
g73
(dp123
g100
g101
ssg82
g112
sg75
(lp124
S':'
asbag68
(g89
g70
NtRp125
(dp126
g73
(dp127
sg82
g112
sg75
(lp128
g68
(g69
g70
NtRp129
(dp130
g73
(dp131
g81
I5
ssg82
g125
sg75
(lp132
S'wp'
p133
asbasbasbag68
(g84
g70
NtRp134
(dp135
g73
(dp136
sg82
g78
sg75
(lp137
g68
(g89
g70
NtRp138
(dp139
g73
(dp140
g93
g94
ssg82
g134
sg75
(lp141
g51
asbag68
(g89
g70
NtRp142
(dp143
g73
(dp144
g100
g101
ssg82
g134
sg75
(lp145
S':'
asbag68
(g89
g70
NtRp146
(dp147
g73
(dp148
sg82
g134
sg75
(lp149
g68
(g69
g70
NtRp150
(dp151
g73
(dp152
g81
I5
ssg82
g146
sg75
(lp153
g68
(g77
g70
NtRp154
(dp155
g73
(dp156
g81
I4
ssg82
Nsg75
(lp157
sbasbasbasbag68
(g84
g70
NtRp158
(dp159
g73
(dp160
sg82
g78
sg75
(lp161
g68
(g89
g70
NtRp162
(dp163
g73
(dp164
g93
g94
ssg82
g158
sg75
(lp165
S'body'
p166
asbag68
(g89
g70
NtRp167
(dp168
g73
(dp169
g100
g101
ssg82
g158
sg75
(lp170
S':'
asbag68
(g89
g70
NtRp171
(dp172
g73
(dp173
sg82
g158
sg75
(lp174
g68
(g69
g70
NtRp175
(dp176
g73
(dp177
g81
I5
ssg82
g171
sg75
(lp178
S"<open file '<fdopen>', mode 'w+b' at 0x101b55b70>"
p179
asbasbasbag68
(g84
g70
NtRp180
(dp181
g73
(dp182
sg82
g78
sg75
(lp183
g68
(g89
g70
NtRp184
(dp185
g73
(dp186
g93
g94
ssg82
g180
sg75
(lp187
S'client'
p188
asbag68
(g89
g70
NtRp189
(dp190
g73
(dp191
g100
g101
ssg82
g180
sg75
(lp192
S':'
asbag68
(g89
g70
NtRp193
(dp194
g73
(dp195
sg82
g180
sg75
(lp196
g68
(g69
g70
NtRp197
(dp198
g73
(dp199
g81
I5
ssg82
g193
sg75
(lp200
S'127.0.0.1'
p201
asbasbasbag68
(g84
g70
NtRp202
(dp203
g73
(dp204
sg82
g78
sg75
(lp205
g68
(g89
g70
NtRp206
(dp207
g73
(dp208
g93
g94
ssg82
g202
sg75
(lp209
S'controller'
p210
asbag68
(g89
g70
NtRp211
(dp212
g73
(dp213
g100
g101
ssg82
g202
sg75
(lp214
S':'
asbag68
(g89
g70
NtRp215
(dp216
g73
(dp217
sg82
g202
sg75
(lp218
g68
(g69
g70
NtRp219
(dp220
g73
(dp221
g81
I5
ssg82
g215
sg75
(lp222
S'default'
p223
asbasbasbag68
(g84
g70
NtRp224
(dp225
g73
(dp226
sg82
g78
sg75
(lp227
g68
(g89
g70
NtRp228
(dp229
g73
(dp230
g93
g94
ssg82
g224
sg75
(lp231
S'cookies'
p232
asbag68
(g89
g70
NtRp233
(dp234
g73
(dp235
g100
g101
ssg82
g224
sg75
(lp236
S':'
asbag68
(g89
g70
NtRp237
(dp238
g73
(dp239
sg82
g224
sg75
(lp240
g68
(g69
g70
NtRp241
(dp242
g73
(dp243
g81
I5
ssg82
g237
sg75
(lp244
g68
(g77
g70
NtRp245
(dp246
g73
(dp247
g81
I4
ssg82
Nsg75
(lp248
g68
(g84
g70
NtRp249
(dp250
g73
(dp251
sg82
g245
sg75
(lp252
g68
(g89
g70
NtRp253
(dp254
g73
(dp255
g93
g94
ssg82
g249
sg75
(lp256
S'posAccuracy'
p257
asbag68
(g89
g70
NtRp258
(dp259
g73
(dp260
g100
g101
ssg82
g249
sg75
(lp261
S':'
asbag68
(g89
g70
NtRp262
(dp263
g73
(dp264
sg82
g249
sg75
(lp265
g68
(g69
g70
NtRp266
(dp267
g73
(dp268
g81
I4
ssg82
g262
sg75
(lp269
g68
(g77
g70
NtRp270
(dp271
g73
(dp272
g81
I3
ssg82
Nsg75
(lp273
g68
(g84
g70
NtRp274
(dp275
g73
(dp276
sg82
g270
sg75
(lp277
g68
(g89
g70
NtRp278
(dp279
g73
(dp280
g93
g94
ssg82
g274
sg75
(lp281
S'comment'
p282
asbag68
(g89
g70
NtRp283
(dp284
g73
(dp285
g100
g101
ssg82
g274
sg75
(lp286
S':'
asbag68
(g89
g70
NtRp287
(dp288
g73
(dp289
sg82
g274
sg75
(lp290
g68
(g69
g70
NtRp291
(dp292
g73
(dp293
g81
I3
ssg82
g287
sg75
(lp294
S''
asbasbasbag68
(g84
g70
NtRp295
(dp296
g73
(dp297
sg82
g270
sg75
(lp298
g68
(g89
g70
NtRp299
(dp300
g73
(dp301
g93
g94
ssg82
g295
sg75
(lp302
S'domain'
p303
asbag68
(g89
g70
NtRp304
(dp305
g73
(dp306
g100
g101
ssg82
g295
sg75
(lp307
S':'
asbag68
(g89
g70
NtRp308
(dp309
g73
(dp310
sg82
g295
sg75
(lp311
g68
(g69
g70
NtRp312
(dp313
g73
(dp314
g81
I3
ssg82
g308
sg75
(lp315
S''
asbasbasbag68
(g84
g70
NtRp316
(dp317
g73
(dp318
sg82
g270
sg75
(lp319
g68
(g89
g70
NtRp320
(dp321
g73
(dp322
g93
g94
ssg82
g316
sg75
(lp323
S'expires'
p324
asbag68
(g89
g70
NtRp325
(dp326
g73
(dp327
g100
g101
ssg82
g316
sg75
(lp328
S':'
asbag68
(g89
g70
NtRp329
(dp330
g73
(dp331
sg82
g316
sg75
(lp332
g68
(g69
g70
NtRp333
(dp334
g73
(dp335
g81
I3
ssg82
g329
sg75
(lp336
S''
asbasbasbag68
(g84
g70
NtRp337
(dp338
g73
(dp339
sg82
g270
sg75
(lp340
g68
(g89
g70
NtRp341
(dp342
g73
(dp343
g93
g94
ssg82
g337
sg75
(lp344
S'httponly'
p345
asbag68
(g89
g70
NtRp346
(dp347
g73
(dp348
g100
g101
ssg82
g337
sg75
(lp349
S':'
asbag68
(g89
g70
NtRp350
(dp351
g73
(dp352
sg82
g337
sg75
(lp353
g68
(g69
g70
NtRp354
(dp355
g73
(dp356
g81
I3
ssg82
g350
sg75
(lp357
S''
asbasbasbag68
(g84
g70
NtRp358
(dp359
g73
(dp360
sg82
g270
sg75
(lp361
g68
(g89
g70
NtRp362
(dp363
g73
(dp364
g93
g94
ssg82
g358
sg75
(lp365
S'max-age'
p366
asbag68
(g89
g70
NtRp367
(dp368
g73
(dp369
g100
g101
ssg82
g358
sg75
(lp370
S':'
asbag68
(g89
g70
NtRp371
(dp372
g73
(dp373
sg82
g358
sg75
(lp374
g68
(g69
g70
NtRp375
(dp376
g73
(dp377
g81
I3
ssg82
g371
sg75
(lp378
S''
asbasbasbag68
(g84
g70
NtRp379
(dp380
g73
(dp381
sg82
g270
sg75
(lp382
g68
(g89
g70
NtRp383
(dp384
g73
(dp385
g93
g94
ssg82
g379
sg75
(lp386
S'path'
p387
asbag68
(g89
g70
NtRp388
(dp389
g73
(dp390
g100
g101
ssg82
g379
sg75
(lp391
S':'
asbag68
(g89
g70
NtRp392
(dp393
g73
(dp394
sg82
g379
sg75
(lp395
g68
(g69
g70
NtRp396
(dp397
g73
(dp398
g81
I3
ssg82
g392
sg75
(lp399
S''
asbasbasbag68
(g84
g70
NtRp400
(dp401
g73
(dp402
sg82
g270
sg75
(lp403
g68
(g89
g70
NtRp404
(dp405
g73
(dp406
g93
g94
ssg82
g400
sg75
(lp407
S'secure'
p408
asbag68
(g89
g70
NtRp409
(dp410
g73
(dp411
g100
g101
ssg82
g400
sg75
(lp412
S':'
asbag68
(g89
g70
NtRp413
(dp414
g73
(dp415
sg82
g400
sg75
(lp416
g68
(g69
g70
NtRp417
(dp418
g73
(dp419
g81
I3
ssg82
g413
sg75
(lp420
S''
asbasbasbag68
(g84
g70
NtRp421
(dp422
g73
(dp423
sg82
g270
sg75
(lp424
g68
(g89
g70
NtRp425
(dp426
g73
(dp427
g93
g94
ssg82
g421
sg75
(lp428
S'version'
p429
asbag68
(g89
g70
NtRp430
(dp431
g73
(dp432
g100
g101
ssg82
g421
sg75
(lp433
S':'
asbag68
(g89
g70
NtRp434
(dp435
g73
(dp436
sg82
g421
sg75
(lp437
g68
(g69
g70
NtRp438
(dp439
g73
(dp440
g81
I3
ssg82
g434
sg75
(lp441
S''
asbasbasbasbasbasbasbag68
(g84
g70
NtRp442
(dp443
g73
(dp444
sg82
g245
sg75
(lp445
g68
(g89
g70
NtRp446
(dp447
g73
(dp448
g93
g94
ssg82
g442
sg75
(lp449
S'posLat'
p450
asbag68
(g89
g70
NtRp451
(dp452
g73
(dp453
g100
g101
ssg82
g442
sg75
(lp454
S':'
asbag68
(g89
g70
NtRp455
(dp456
g73
(dp457
sg82
g442
sg75
(lp458
g68
(g69
g70
NtRp459
(dp460
g73
(dp461
g81
I4
ssg82
g455
sg75
(lp462
g68
(g77
g70
NtRp463
(dp464
g73
(dp465
g81
I3
ssg82
Nsg75
(lp466
g68
(g84
g70
NtRp467
(dp468
g73
(dp469
sg82
g463
sg75
(lp470
g68
(g89
g70
NtRp471
(dp472
g73
(dp473
g93
g94
ssg82
g467
sg75
(lp474
g282
asbag68
(g89
g70
NtRp475
(dp476
g73
(dp477
g100
g101
ssg82
g467
sg75
(lp478
S':'
asbag68
(g89
g70
NtRp479
(dp480
g73
(dp481
sg82
g467
sg75
(lp482
g68
(g69
g70
NtRp483
(dp484
g73
(dp485
g81
I3
ssg82
g479
sg75
(lp486
S''
asbasbasbag68
(g84
g70
NtRp487
(dp488
g73
(dp489
sg82
g463
sg75
(lp490
g68
(g89
g70
NtRp491
(dp492
g73
(dp493
g93
g94
ssg82
g487
sg75
(lp494
g303
asbag68
(g89
g70
NtRp495
(dp496
g73
(dp497
g100
g101
ssg82
g487
sg75
(lp498
S':'
asbag68
(g89
g70
NtRp499
(dp500
g73
(dp501
sg82
g487
sg75
(lp502
g68
(g69
g70
NtRp503
(dp504
g73
(dp505
g81
I3
ssg82
g499
sg75
(lp506
S''
asbasbasbag68
(g84
g70
NtRp507
(dp508
g73
(dp509
sg82
g463
sg75
(lp510
g68
(g89
g70
NtRp511
(dp512
g73
(dp513
g93
g94
ssg82
g507
sg75
(lp514
g324
asbag68
(g89
g70
NtRp515
(dp516
g73
(dp517
g100
g101
ssg82
g507
sg75
(lp518
S':'
asbag68
(g89
g70
NtRp519
(dp520
g73
(dp521
sg82
g507
sg75
(lp522
g68
(g69
g70
NtRp523
(dp524
g73
(dp525
g81
I3
ssg82
g519
sg75
(lp526
S''
asbasbasbag68
(g84
g70
NtRp527
(dp528
g73
(dp529
sg82
g463
sg75
(lp530
g68
(g89
g70
NtRp531
(dp532
g73
(dp533
g93
g94
ssg82
g527
sg75
(lp534
g345
asbag68
(g89
g70
NtRp535
(dp536
g73
(dp537
g100
g101
ssg82
g527
sg75
(lp538
S':'
asbag68
(g89
g70
NtRp539
(dp540
g73
(dp541
sg82
g527
sg75
(lp542
g68
(g69
g70
NtRp543
(dp544
g73
(dp545
g81
I3
ssg82
g539
sg75
(lp546
S''
asbasbasbag68
(g84
g70
NtRp547
(dp548
g73
(dp549
sg82
g463
sg75
(lp550
g68
(g89
g70
NtRp551
(dp552
g73
(dp553
g93
g94
ssg82
g547
sg75
(lp554
g366
asbag68
(g89
g70
NtRp555
(dp556
g73
(dp557
g100
g101
ssg82
g547
sg75
(lp558
S':'
asbag68
(g89
g70
NtRp559
(dp560
g73
(dp561
sg82
g547
sg75
(lp562
g68
(g69
g70
NtRp563
(dp564
g73
(dp565
g81
I3
ssg82
g559
sg75
(lp566
S''
asbasbasbag68
(g84
g70
NtRp567
(dp568
g73
(dp569
sg82
g463
sg75
(lp570
g68
(g89
g70
NtRp571
(dp572
g73
(dp573
g93
g94
ssg82
g567
sg75
(lp574
g387
asbag68
(g89
g70
NtRp575
(dp576
g73
(dp577
g100
g101
ssg82
g567
sg75
(lp578
S':'
asbag68
(g89
g70
NtRp579
(dp580
g73
(dp581
sg82
g567
sg75
(lp582
g68
(g69
g70
NtRp583
(dp584
g73
(dp585
g81
I3
ssg82
g579
sg75
(lp586
S''
asbasbasbag68
(g84
g70
NtRp587
(dp588
g73
(dp589
sg82
g463
sg75
(lp590
g68
(g89
g70
NtRp591
(dp592
g73
(dp593
g93
g94
ssg82
g587
sg75
(lp594
g408
asbag68
(g89
g70
NtRp595
(dp596
g73
(dp597
g100
g101
ssg82
g587
sg75
(lp598
S':'
asbag68
(g89
g70
NtRp599
(dp600
g73
(dp601
sg82
g587
sg75
(lp602
g68
(g69
g70
NtRp603
(dp604
g73
(dp605
g81
I3
ssg82
g599
sg75
(lp606
S''
asbasbasbag68
(g84
g70
NtRp607
(dp608
g73
(dp609
sg82
g463
sg75
(lp610
g68
(g89
g70
NtRp611
(dp612
g73
(dp613
g93
g94
ssg82
g607
sg75
(lp614
g429
asbag68
(g89
g70
NtRp615
(dp616
g73
(dp617
g100
g101
ssg82
g607
sg75
(lp618
S':'
asbag68
(g89
g70
NtRp619
(dp620
g73
(dp621
sg82
g607
sg75
(lp622
g68
(g69
g70
NtRp623
(dp624
g73
(dp625
g81
I3
ssg82
g619
sg75
(lp626
S''
asbasbasbasbasbasbasbag68
(g84
g70
NtRp627
(dp628
g73
(dp629
sg82
g245
sg75
(lp630
g68
(g89
g70
NtRp631
(dp632
g73
(dp633
g93
g94
ssg82
g627
sg75
(lp634
S'posLon'
p635
asbag68
(g89
g70
NtRp636
(dp637
g73
(dp638
g100
g101
ssg82
g627
sg75
(lp639
S':'
asbag68
(g89
g70
NtRp640
(dp641
g73
(dp642
sg82
g627
sg75
(lp643
g68
(g69
g70
NtRp644
(dp645
g73
(dp646
g81
I4
ssg82
g640
sg75
(lp647
g68
(g77
g70
NtRp648
(dp649
g73
(dp650
g81
I3
ssg82
Nsg75
(lp651
g68
(g84
g70
NtRp652
(dp653
g73
(dp654
sg82
g648
sg75
(lp655
g68
(g89
g70
NtRp656
(dp657
g73
(dp658
g93
g94
ssg82
g652
sg75
(lp659
g282
asbag68
(g89
g70
NtRp660
(dp661
g73
(dp662
g100
g101
ssg82
g652
sg75
(lp663
S':'
asbag68
(g89
g70
NtRp664
(dp665
g73
(dp666
sg82
g652
sg75
(lp667
g68
(g69
g70
NtRp668
(dp669
g73
(dp670
g81
I3
ssg82
g664
sg75
(lp671
S''
asbasbasbag68
(g84
g70
NtRp672
(dp673
g73
(dp674
sg82
g648
sg75
(lp675
g68
(g89
g70
NtRp676
(dp677
g73
(dp678
g93
g94
ssg82
g672
sg75
(lp679
g303
asbag68
(g89
g70
NtRp680
(dp681
g73
(dp682
g100
g101
ssg82
g672
sg75
(lp683
S':'
asbag68
(g89
g70
NtRp684
(dp685
g73
(dp686
sg82
g672
sg75
(lp687
g68
(g69
g70
NtRp688
(dp689
g73
(dp690
g81
I3
ssg82
g684
sg75
(lp691
S''
asbasbasbag68
(g84
g70
NtRp692
(dp693
g73
(dp694
sg82
g648
sg75
(lp695
g68
(g89
g70
NtRp696
(dp697
g73
(dp698
g93
g94
ssg82
g692
sg75
(lp699
g324
asbag68
(g89
g70
NtRp700
(dp701
g73
(dp702
g100
g101
ssg82
g692
sg75
(lp703
S':'
asbag68
(g89
g70
NtRp704
(dp705
g73
(dp706
sg82
g692
sg75
(lp707
g68
(g69
g70
NtRp708
(dp709
g73
(dp710
g81
I3
ssg82
g704
sg75
(lp711
S''
asbasbasbag68
(g84
g70
NtRp712
(dp713
g73
(dp714
sg82
g648
sg75
(lp715
g68
(g89
g70
NtRp716
(dp717
g73
(dp718
g93
g94
ssg82
g712
sg75
(lp719
g345
asbag68
(g89
g70
NtRp720
(dp721
g73
(dp722
g100
g101
ssg82
g712
sg75
(lp723
S':'
asbag68
(g89
g70
NtRp724
(dp725
g73
(dp726
sg82
g712
sg75
(lp727
g68
(g69
g70
NtRp728
(dp729
g73
(dp730
g81
I3
ssg82
g724
sg75
(lp731
S''
asbasbasbag68
(g84
g70
NtRp732
(dp733
g73
(dp734
sg82
g648
sg75
(lp735
g68
(g89
g70
NtRp736
(dp737
g73
(dp738
g93
g94
ssg82
g732
sg75
(lp739
g366
asbag68
(g89
g70
NtRp740
(dp741
g73
(dp742
g100
g101
ssg82
g732
sg75
(lp743
S':'
asbag68
(g89
g70
NtRp744
(dp745
g73
(dp746
sg82
g732
sg75
(lp747
g68
(g69
g70
NtRp748
(dp749
g73
(dp750
g81
I3
ssg82
g744
sg75
(lp751
S''
asbasbasbag68
(g84
g70
NtRp752
(dp753
g73
(dp754
sg82
g648
sg75
(lp755
g68
(g89
g70
NtRp756
(dp757
g73
(dp758
g93
g94
ssg82
g752
sg75
(lp759
g387
asbag68
(g89
g70
NtRp760
(dp761
g73
(dp762
g100
g101
ssg82
g752
sg75
(lp763
S':'
asbag68
(g89
g70
NtRp764
(dp765
g73
(dp766
sg82
g752
sg75
(lp767
g68
(g69
g70
NtRp768
(dp769
g73
(dp770
g81
I3
ssg82
g764
sg75
(lp771
S''
asbasbasbag68
(g84
g70
NtRp772
(dp773
g73
(dp774
sg82
g648
sg75
(lp775
g68
(g89
g70
NtRp776
(dp777
g73
(dp778
g93
g94
ssg82
g772
sg75
(lp779
g408
asbag68
(g89
g70
NtRp780
(dp781
g73
(dp782
g100
g101
ssg82
g772
sg75
(lp783
S':'
asbag68
(g89
g70
NtRp784
(dp785
g73
(dp786
sg82
g772
sg75
(lp787
g68
(g69
g70
NtRp788
(dp789
g73
(dp790
g81
I3
ssg82
g784
sg75
(lp791
S''
asbasbasbag68
(g84
g70
NtRp792
(dp793
g73
(dp794
sg82
g648
sg75
(lp795
g68
(g89
g70
NtRp796
(dp797
g73
(dp798
g93
g94
ssg82
g792
sg75
(lp799
g429
asbag68
(g89
g70
NtRp800
(dp801
g73
(dp802
g100
g101
ssg82
g792
sg75
(lp803
S':'
asbag68
(g89
g70
NtRp804
(dp805
g73
(dp806
sg82
g792
sg75
(lp807
g68
(g69
g70
NtRp808
(dp809
g73
(dp810
g81
I3
ssg82
g804
sg75
(lp811
S''
asbasbasbasbasbasbasbag68
(g84
g70
NtRp812
(dp813
g73
(dp814
sg82
g245
sg75
(lp815
g68
(g89
g70
NtRp816
(dp817
g73
(dp818
g93
g94
ssg82
g812
sg75
(lp819
S'posTimestamp'
p820
asbag68
(g89
g70
NtRp821
(dp822
g73
(dp823
g100
g101
ssg82
g812
sg75
(lp824
S':'
asbag68
(g89
g70
NtRp825
(dp826
g73
(dp827
sg82
g812
sg75
(lp828
g68
(g69
g70
NtRp829
(dp830
g73
(dp831
g81
I4
ssg82
g825
sg75
(lp832
g68
(g77
g70
NtRp833
(dp834
g73
(dp835
g81
I3
ssg82
Nsg75
(lp836
g68
(g84
g70
NtRp837
(dp838
g73
(dp839
sg82
g833
sg75
(lp840
g68
(g89
g70
NtRp841
(dp842
g73
(dp843
g93
g94
ssg82
g837
sg75
(lp844
g282
asbag68
(g89
g70
NtRp845
(dp846
g73
(dp847
g100
g101
ssg82
g837
sg75
(lp848
S':'
asbag68
(g89
g70
NtRp849
(dp850
g73
(dp851
sg82
g837
sg75
(lp852
g68
(g69
g70
NtRp853
(dp854
g73
(dp855
g81
I3
ssg82
g849
sg75
(lp856
S''
asbasbasbag68
(g84
g70
NtRp857
(dp858
g73
(dp859
sg82
g833
sg75
(lp860
g68
(g89
g70
NtRp861
(dp862
g73
(dp863
g93
g94
ssg82
g857
sg75
(lp864
g303
asbag68
(g89
g70
NtRp865
(dp866
g73
(dp867
g100
g101
ssg82
g857
sg75
(lp868
S':'
asbag68
(g89
g70
NtRp869
(dp870
g73
(dp871
sg82
g857
sg75
(lp872
g68
(g69
g70
NtRp873
(dp874
g73
(dp875
g81
I3
ssg82
g869
sg75
(lp876
S''
asbasbasbag68
(g84
g70
NtRp877
(dp878
g73
(dp879
sg82
g833
sg75
(lp880
g68
(g89
g70
NtRp881
(dp882
g73
(dp883
g93
g94
ssg82
g877
sg75
(lp884
g324
asbag68
(g89
g70
NtRp885
(dp886
g73
(dp887
g100
g101
ssg82
g877
sg75
(lp888
S':'
asbag68
(g89
g70
NtRp889
(dp890
g73
(dp891
sg82
g877
sg75
(lp892
g68
(g69
g70
NtRp893
(dp894
g73
(dp895
g81
I3
ssg82
g889
sg75
(lp896
S''
asbasbasbag68
(g84
g70
NtRp897
(dp898
g73
(dp899
sg82
g833
sg75
(lp900
g68
(g89
g70
NtRp901
(dp902
g73
(dp903
g93
g94
ssg82
g897
sg75
(lp904
g345
asbag68
(g89
g70
NtRp905
(dp906
g73
(dp907
g100
g101
ssg82
g897
sg75
(lp908
S':'
asbag68
(g89
g70
NtRp909
(dp910
g73
(dp911
sg82
g897
sg75
(lp912
g68
(g69
g70
NtRp913
(dp914
g73
(dp915
g81
I3
ssg82
g909
sg75
(lp916
S''
asbasbasbag68
(g84
g70
NtRp917
(dp918
g73
(dp919
sg82
g833
sg75
(lp920
g68
(g89
g70
NtRp921
(dp922
g73
(dp923
g93
g94
ssg82
g917
sg75
(lp924
g366
asbag68
(g89
g70
NtRp925
(dp926
g73
(dp927
g100
g101
ssg82
g917
sg75
(lp928
S':'
asbag68
(g89
g70
NtRp929
(dp930
g73
(dp931
sg82
g917
sg75
(lp932
g68
(g69
g70
NtRp933
(dp934
g73
(dp935
g81
I3
ssg82
g929
sg75
(lp936
S''
asbasbasbag68
(g84
g70
NtRp937
(dp938
g73
(dp939
sg82
g833
sg75
(lp940
g68
(g89
g70
NtRp941
(dp942
g73
(dp943
g93
g94
ssg82
g937
sg75
(lp944
g387
asbag68
(g89
g70
NtRp945
(dp946
g73
(dp947
g100
g101
ssg82
g937
sg75
(lp948
S':'
asbag68
(g89
g70
NtRp949
(dp950
g73
(dp951
sg82
g937
sg75
(lp952
g68
(g69
g70
NtRp953
(dp954
g73
(dp955
g81
I3
ssg82
g949
sg75
(lp956
S''
asbasbasbag68
(g84
g70
NtRp957
(dp958
g73
(dp959
sg82
g833
sg75
(lp960
g68
(g89
g70
NtRp961
(dp962
g73
(dp963
g93
g94
ssg82
g957
sg75
(lp964
g408
asbag68
(g89
g70
NtRp965
(dp966
g73
(dp967
g100
g101
ssg82
g957
sg75
(lp968
S':'
asbag68
(g89
g70
NtRp969
(dp970
g73
(dp971
sg82
g957
sg75
(lp972
g68
(g69
g70
NtRp973
(dp974
g73
(dp975
g81
I3
ssg82
g969
sg75
(lp976
S''
asbasbasbag68
(g84
g70
NtRp977
(dp978
g73
(dp979
sg82
g833
sg75
(lp980
g68
(g89
g70
NtRp981
(dp982
g73
(dp983
g93
g94
ssg82
g977
sg75
(lp984
g429
asbag68
(g89
g70
NtRp985
(dp986
g73
(dp987
g100
g101
ssg82
g977
sg75
(lp988
S':'
asbag68
(g89
g70
NtRp989
(dp990
g73
(dp991
sg82
g977
sg75
(lp992
g68
(g69
g70
NtRp993
(dp994
g73
(dp995
g81
I3
ssg82
g989
sg75
(lp996
S''
asbasbasbasbasbasbasbag68
(g84
g70
NtRp997
(dp998
g73
(dp999
sg82
g245
sg75
(lp1000
g68
(g89
g70
NtRp1001
(dp1002
g73
(dp1003
g93
g94
ssg82
g997
sg75
(lp1004
S'session_id_admin'
p1005
asbag68
(g89
g70
NtRp1006
(dp1007
g73
(dp1008
g100
g101
ssg82
g997
sg75
(lp1009
S':'
asbag68
(g89
g70
NtRp1010
(dp1011
g73
(dp1012
sg82
g997
sg75
(lp1013
g68
(g69
g70
NtRp1014
(dp1015
g73
(dp1016
g81
I4
ssg82
g1010
sg75
(lp1017
g68
(g77
g70
NtRp1018
(dp1019
g73
(dp1020
g81
I3
ssg82
Nsg75
(lp1021
g68
(g84
g70
NtRp1022
(dp1023
g73
(dp1024
sg82
g1018
sg75
(lp1025
g68
(g89
g70
NtRp1026
(dp1027
g73
(dp1028
g93
g94
ssg82
g1022
sg75
(lp1029
g282
asbag68
(g89
g70
NtRp1030
(dp1031
g73
(dp1032
g100
g101
ssg82
g1022
sg75
(lp1033
S':'
asbag68
(g89
g70
NtRp1034
(dp1035
g73
(dp1036
sg82
g1022
sg75
(lp1037
g68
(g69
g70
NtRp1038
(dp1039
g73
(dp1040
g81
I3
ssg82
g1034
sg75
(lp1041
S''
asbasbasbag68
(g84
g70
NtRp1042
(dp1043
g73
(dp1044
sg82
g1018
sg75
(lp1045
g68
(g89
g70
NtRp1046
(dp1047
g73
(dp1048
g93
g94
ssg82
g1042
sg75
(lp1049
g303
asbag68
(g89
g70
NtRp1050
(dp1051
g73
(dp1052
g100
g101
ssg82
g1042
sg75
(lp1053
S':'
asbag68
(g89
g70
NtRp1054
(dp1055
g73
(dp1056
sg82
g1042
sg75
(lp1057
g68
(g69
g70
NtRp1058
(dp1059
g73
(dp1060
g81
I3
ssg82
g1054
sg75
(lp1061
S''
asbasbasbag68
(g84
g70
NtRp1062
(dp1063
g73
(dp1064
sg82
g1018
sg75
(lp1065
g68
(g89
g70
NtRp1066
(dp1067
g73
(dp1068
g93
g94
ssg82
g1062
sg75
(lp1069
g324
asbag68
(g89
g70
NtRp1070
(dp1071
g73
(dp1072
g100
g101
ssg82
g1062
sg75
(lp1073
S':'
asbag68
(g89
g70
NtRp1074
(dp1075
g73
(dp1076
sg82
g1062
sg75
(lp1077
g68
(g69
g70
NtRp1078
(dp1079
g73
(dp1080
g81
I3
ssg82
g1074
sg75
(lp1081
S''
asbasbasbag68
(g84
g70
NtRp1082
(dp1083
g73
(dp1084
sg82
g1018
sg75
(lp1085
g68
(g89
g70
NtRp1086
(dp1087
g73
(dp1088
g93
g94
ssg82
g1082
sg75
(lp1089
g345
asbag68
(g89
g70
NtRp1090
(dp1091
g73
(dp1092
g100
g101
ssg82
g1082
sg75
(lp1093
S':'
asbag68
(g89
g70
NtRp1094
(dp1095
g73
(dp1096
sg82
g1082
sg75
(lp1097
g68
(g69
g70
NtRp1098
(dp1099
g73
(dp1100
g81
I3
ssg82
g1094
sg75
(lp1101
S''
asbasbasbag68
(g84
g70
NtRp1102
(dp1103
g73
(dp1104
sg82
g1018
sg75
(lp1105
g68
(g89
g70
NtRp1106
(dp1107
g73
(dp1108
g93
g94
ssg82
g1102
sg75
(lp1109
g366
asbag68
(g89
g70
NtRp1110
(dp1111
g73
(dp1112
g100
g101
ssg82
g1102
sg75
(lp1113
S':'
asbag68
(g89
g70
NtRp1114
(dp1115
g73
(dp1116
sg82
g1102
sg75
(lp1117
g68
(g69
g70
NtRp1118
(dp1119
g73
(dp1120
g81
I3
ssg82
g1114
sg75
(lp1121
S''
asbasbasbag68
(g84
g70
NtRp1122
(dp1123
g73
(dp1124
sg82
g1018
sg75
(lp1125
g68
(g89
g70
NtRp1126
(dp1127
g73
(dp1128
g93
g94
ssg82
g1122
sg75
(lp1129
g387
asbag68
(g89
g70
NtRp1130
(dp1131
g73
(dp1132
g100
g101
ssg82
g1122
sg75
(lp1133
S':'
asbag68
(g89
g70
NtRp1134
(dp1135
g73
(dp1136
sg82
g1122
sg75
(lp1137
g68
(g69
g70
NtRp1138
(dp1139
g73
(dp1140
g81
I3
ssg82
g1134
sg75
(lp1141
S''
asbasbasbag68
(g84
g70
NtRp1142
(dp1143
g73
(dp1144
sg82
g1018
sg75
(lp1145
g68
(g89
g70
NtRp1146
(dp1147
g73
(dp1148
g93
g94
ssg82
g1142
sg75
(lp1149
g408
asbag68
(g89
g70
NtRp1150
(dp1151
g73
(dp1152
g100
g101
ssg82
g1142
sg75
(lp1153
S':'
asbag68
(g89
g70
NtRp1154
(dp1155
g73
(dp1156
sg82
g1142
sg75
(lp1157
g68
(g69
g70
NtRp1158
(dp1159
g73
(dp1160
g81
I3
ssg82
g1154
sg75
(lp1161
S''
asbasbasbag68
(g84
g70
NtRp1162
(dp1163
g73
(dp1164
sg82
g1018
sg75
(lp1165
g68
(g89
g70
NtRp1166
(dp1167
g73
(dp1168
g93
g94
ssg82
g1162
sg75
(lp1169
g429
asbag68
(g89
g70
NtRp1170
(dp1171
g73
(dp1172
g100
g101
ssg82
g1162
sg75
(lp1173
S':'
asbag68
(g89
g70
NtRp1174
(dp1175
g73
(dp1176
sg82
g1162
sg75
(lp1177
g68
(g69
g70
NtRp1178
(dp1179
g73
(dp1180
g81
I3
ssg82
g1174
sg75
(lp1181
S''
asbasbasbasbasbasbasbag68
(g84
g70
NtRp1182
(dp1183
g73
(dp1184
sg82
g245
sg75
(lp1185
g68
(g89
g70
NtRp1186
(dp1187
g73
(dp1188
g93
g94
ssg82
g1182
sg75
(lp1189
S'session_id_wp'
p1190
asbag68
(g89
g70
NtRp1191
(dp1192
g73
(dp1193
g100
g101
ssg82
g1182
sg75
(lp1194
S':'
asbag68
(g89
g70
NtRp1195
(dp1196
g73
(dp1197
sg82
g1182
sg75
(lp1198
g68
(g69
g70
NtRp1199
(dp1200
g73
(dp1201
g81
I4
ssg82
g1195
sg75
(lp1202
g68
(g77
g70
NtRp1203
(dp1204
g73
(dp1205
g81
I3
ssg82
Nsg75
(lp1206
g68
(g84
g70
NtRp1207
(dp1208
g73
(dp1209
sg82
g1203
sg75
(lp1210
g68
(g89
g70
NtRp1211
(dp1212
g73
(dp1213
g93
g94
ssg82
g1207
sg75
(lp1214
g282
asbag68
(g89
g70
NtRp1215
(dp1216
g73
(dp1217
g100
g101
ssg82
g1207
sg75
(lp1218
S':'
asbag68
(g89
g70
NtRp1219
(dp1220
g73
(dp1221
sg82
g1207
sg75
(lp1222
g68
(g69
g70
NtRp1223
(dp1224
g73
(dp1225
g81
I3
ssg82
g1219
sg75
(lp1226
S''
asbasbasbag68
(g84
g70
NtRp1227
(dp1228
g73
(dp1229
sg82
g1203
sg75
(lp1230
g68
(g89
g70
NtRp1231
(dp1232
g73
(dp1233
g93
g94
ssg82
g1227
sg75
(lp1234
g303
asbag68
(g89
g70
NtRp1235
(dp1236
g73
(dp1237
g100
g101
ssg82
g1227
sg75
(lp1238
S':'
asbag68
(g89
g70
NtRp1239
(dp1240
g73
(dp1241
sg82
g1227
sg75
(lp1242
g68
(g69
g70
NtRp1243
(dp1244
g73
(dp1245
g81
I3
ssg82
g1239
sg75
(lp1246
S''
asbasbasbag68
(g84
g70
NtRp1247
(dp1248
g73
(dp1249
sg82
g1203
sg75
(lp1250
g68
(g89
g70
NtRp1251
(dp1252
g73
(dp1253
g93
g94
ssg82
g1247
sg75
(lp1254
g324
asbag68
(g89
g70
NtRp1255
(dp1256
g73
(dp1257
g100
g101
ssg82
g1247
sg75
(lp1258
S':'
asbag68
(g89
g70
NtRp1259
(dp1260
g73
(dp1261
sg82
g1247
sg75
(lp1262
g68
(g69
g70
NtRp1263
(dp1264
g73
(dp1265
g81
I3
ssg82
g1259
sg75
(lp1266
S''
asbasbasbag68
(g84
g70
NtRp1267
(dp1268
g73
(dp1269
sg82
g1203
sg75
(lp1270
g68
(g89
g70
NtRp1271
(dp1272
g73
(dp1273
g93
g94
ssg82
g1267
sg75
(lp1274
g345
asbag68
(g89
g70
NtRp1275
(dp1276
g73
(dp1277
g100
g101
ssg82
g1267
sg75
(lp1278
S':'
asbag68
(g89
g70
NtRp1279
(dp1280
g73
(dp1281
sg82
g1267
sg75
(lp1282
g68
(g69
g70
NtRp1283
(dp1284
g73
(dp1285
g81
I3
ssg82
g1279
sg75
(lp1286
S''
asbasbasbag68
(g84
g70
NtRp1287
(dp1288
g73
(dp1289
sg82
g1203
sg75
(lp1290
g68
(g89
g70
NtRp1291
(dp1292
g73
(dp1293
g93
g94
ssg82
g1287
sg75
(lp1294
g366
asbag68
(g89
g70
NtRp1295
(dp1296
g73
(dp1297
g100
g101
ssg82
g1287
sg75
(lp1298
S':'
asbag68
(g89
g70
NtRp1299
(dp1300
g73
(dp1301
sg82
g1287
sg75
(lp1302
g68
(g69
g70
NtRp1303
(dp1304
g73
(dp1305
g81
I3
ssg82
g1299
sg75
(lp1306
S''
asbasbasbag68
(g84
g70
NtRp1307
(dp1308
g73
(dp1309
sg82
g1203
sg75
(lp1310
g68
(g89
g70
NtRp1311
(dp1312
g73
(dp1313
g93
g94
ssg82
g1307
sg75
(lp1314
g387
asbag68
(g89
g70
NtRp1315
(dp1316
g73
(dp1317
g100
g101
ssg82
g1307
sg75
(lp1318
S':'
asbag68
(g89
g70
NtRp1319
(dp1320
g73
(dp1321
sg82
g1307
sg75
(lp1322
g68
(g69
g70
NtRp1323
(dp1324
g73
(dp1325
g81
I3
ssg82
g1319
sg75
(lp1326
S''
asbasbasbag68
(g84
g70
NtRp1327
(dp1328
g73
(dp1329
sg82
g1203
sg75
(lp1330
g68
(g89
g70
NtRp1331
(dp1332
g73
(dp1333
g93
g94
ssg82
g1327
sg75
(lp1334
g408
asbag68
(g89
g70
NtRp1335
(dp1336
g73
(dp1337
g100
g101
ssg82
g1327
sg75
(lp1338
S':'
asbag68
(g89
g70
NtRp1339
(dp1340
g73
(dp1341
sg82
g1327
sg75
(lp1342
g68
(g69
g70
NtRp1343
(dp1344
g73
(dp1345
g81
I3
ssg82
g1339
sg75
(lp1346
S''
asbasbasbag68
(g84
g70
NtRp1347
(dp1348
g73
(dp1349
sg82
g1203
sg75
(lp1350
g68
(g89
g70
NtRp1351
(dp1352
g73
(dp1353
g93
g94
ssg82
g1347
sg75
(lp1354
g429
asbag68
(g89
g70
NtRp1355
(dp1356
g73
(dp1357
g100
g101
ssg82
g1347
sg75
(lp1358
S':'
asbag68
(g89
g70
NtRp1359
(dp1360
g73
(dp1361
sg82
g1347
sg75
(lp1362
g68
(g69
g70
NtRp1363
(dp1364
g73
(dp1365
g81
I3
ssg82
g1359
sg75
(lp1366
S''
asbasbasbasbasbasbasbasbasbasbasbag68
(g84
g70
NtRp1367
(dp1368
g73
(dp1369
sg82
g78
sg75
(lp1370
g68
(g89
g70
NtRp1371
(dp1372
g73
(dp1373
g93
g94
ssg82
g1367
sg75
(lp1374
S'env'
p1375
asbag68
(g89
g70
NtRp1376
(dp1377
g73
(dp1378
g100
g101
ssg82
g1367
sg75
(lp1379
S':'
asbag68
(g89
g70
NtRp1380
(dp1381
g73
(dp1382
sg82
g1367
sg75
(lp1383
g68
(g69
g70
NtRp1384
(dp1385
g73
(dp1386
g81
I5
ssg82
g1380
sg75
(lp1387
g68
(g77
g70
NtRp1388
(dp1389
g73
(dp1390
g81
I4
ssg82
Nsg75
(lp1391
g68
(g84
g70
NtRp1392
(dp1393
g73
(dp1394
sg82
g1388
sg75
(lp1395
g68
(g89
g70
NtRp1396
(dp1397
g73
(dp1398
g93
g94
ssg82
g1392
sg75
(lp1399
S'app_folders'
p1400
asbag68
(g89
g70
NtRp1401
(dp1402
g73
(dp1403
g100
g101
ssg82
g1392
sg75
(lp1404
S':'
asbag68
(g89
g70
NtRp1405
(dp1406
g73
(dp1407
sg82
g1392
sg75
(lp1408
g68
(g69
g70
NtRp1409
(dp1410
g73
(dp1411
g81
I4
ssg82
g1405
sg75
(lp1412
S"set(['/Users/schultzc/workspace/wherespuppet/web2py/applications/wp/', '/Users/schultzc/workspace/wherespuppet/web2py/applications/admin/'])"
p1413
asbasbasbag68
(g84
g70
NtRp1414
(dp1415
g73
(dp1416
sg82
g1388
sg75
(lp1417
g68
(g89
g70
NtRp1418
(dp1419
g73
(dp1420
g93
g94
ssg82
g1414
sg75
(lp1421
S'applications_parent'
p1422
asbag68
(g89
g70
NtRp1423
(dp1424
g73
(dp1425
g100
g101
ssg82
g1414
sg75
(lp1426
S':'
asbag68
(g89
g70
NtRp1427
(dp1428
g73
(dp1429
sg82
g1414
sg75
(lp1430
g68
(g69
g70
NtRp1431
(dp1432
g73
(dp1433
g81
I4
ssg82
g1427
sg75
(lp1434
S'/Users/schultzc/workspace/wherespuppet/web2py'
p1435
asbasbasbag68
(g84
g70
NtRp1436
(dp1437
g73
(dp1438
sg82
g1388
sg75
(lp1439
g68
(g89
g70
NtRp1440
(dp1441
g73
(dp1442
g93
g94
ssg82
g1436
sg75
(lp1443
S'cmd_args'
p1444
asbag68
(g89
g70
NtRp1445
(dp1446
g73
(dp1447
g100
g101
ssg82
g1436
sg75
(lp1448
S':'
asbag68
(g89
g70
NtRp1449
(dp1450
g73
(dp1451
sg82
g1436
sg75
(lp1452
g68
(g69
g70
NtRp1453
(dp1454
g73
(dp1455
g81
I4
ssg82
g1449
sg75
(lp1456
g68
(g77
g70
NtRp1457
(dp1458
g73
(dp1459
g81
I3
ssg82
Nsg75
(lp1460
sbasbasbasbag68
(g84
g70
NtRp1461
(dp1462
g73
(dp1463
sg82
g1388
sg75
(lp1464
g68
(g89
g70
NtRp1465
(dp1466
g73
(dp1467
g93
g94
ssg82
g1461
sg75
(lp1468
S'cmd_options'
p1469
asbag68
(g89
g70
NtRp1470
(dp1471
g73
(dp1472
g100
g101
ssg82
g1461
sg75
(lp1473
S':'
asbag68
(g89
g70
NtRp1474
(dp1475
g73
(dp1476
sg82
g1461
sg75
(lp1477
g68
(g69
g70
NtRp1478
(dp1479
g73
(dp1480
g81
I4
ssg82
g1474
sg75
(lp1481
S"<Values at 0x101b18d40: {'verbose': False, 'ip': '127.0.0.1', 'shutdown_timeout': 5, 'taskbar': False, 'port': 8000, 'maxthreads': None, 'softcron': False, 'server_name': 'wsip-70-165-175-188.lv.lv.cox.net', 'bpython': False, 'nogui': False, 'nocron': False, 'extcron': False, 'debuglevel': 30, 'test': None, 'folder': '/Users/schultzc/workspace/wherespuppet/web2py', 'config': '', 'import_models': False, 'winservice': '', 'shell': None, 'run': '', 'log_filename': 'httpserver.log', 'args': [''], 'profiler_filename': None, 'ssl_private_key': '', 'password': 'boss', 'request_queue_size': 5, 'ssl_certificate': '', 'cronjob': False, 'plain': False, 'quiet': False, 'interfaces': None, 'minthreads': None, 'timeout': 10, 'numthreads': None, 'nobanner': False, 'pid_filename': 'httpserver.pid'}>"
p1482
asbasbasbag68
(g84
g70
NtRp1483
(dp1484
g73
(dp1485
sg82
g1388
sg75
(lp1486
g68
(g89
g70
NtRp1487
(dp1488
g73
(dp1489
g93
g94
ssg82
g1483
sg75
(lp1490
S'content_length'
p1491
asbag68
(g89
g70
NtRp1492
(dp1493
g73
(dp1494
g100
g101
ssg82
g1483
sg75
(lp1495
S':'
asbag68
(g89
g70
NtRp1496
(dp1497
g73
(dp1498
sg82
g1483
sg75
(lp1499
g68
(g69
g70
NtRp1500
(dp1501
g73
(dp1502
g81
I4
ssg82
g1496
sg75
(lp1503
S'73177'
p1504
asbasbasbag68
(g84
g70
NtRp1505
(dp1506
g73
(dp1507
sg82
g1388
sg75
(lp1508
g68
(g89
g70
NtRp1509
(dp1510
g73
(dp1511
g93
g94
ssg82
g1505
sg75
(lp1512
S'content_type'
p1513
asbag68
(g89
g70
NtRp1514
(dp1515
g73
(dp1516
g100
g101
ssg82
g1505
sg75
(lp1517
S':'
asbag68
(g89
g70
NtRp1518
(dp1519
g73
(dp1520
sg82
g1505
sg75
(lp1521
g68
(g69
g70
NtRp1522
(dp1523
g73
(dp1524
g81
I4
ssg82
g1518
sg75
(lp1525
S'multipart/form-data; boundary=----WebKitFormBoundaryFVZRIaGuA930ykmb'
p1526
asbasbasbag68
(g84
g70
NtRp1527
(dp1528
g73
(dp1529
sg82
g1388
sg75
(lp1530
g68
(g89
g70
NtRp1531
(dp1532
g73
(dp1533
g93
g94
ssg82
g1527
sg75
(lp1534
S'db_sessions'
p1535
asbag68
(g89
g70
NtRp1536
(dp1537
g73
(dp1538
g100
g101
ssg82
g1527
sg75
(lp1539
S':'
asbag68
(g89
g70
NtRp1540
(dp1541
g73
(dp1542
sg82
g1527
sg75
(lp1543
g68
(g69
g70
NtRp1544
(dp1545
g73
(dp1546
g81
I4
ssg82
g1540
sg75
(lp1547
S'set([])'
p1548
asbasbasbag68
(g84
g70
NtRp1549
(dp1550
g73
(dp1551
sg82
g1388
sg75
(lp1552
g68
(g89
g70
NtRp1553
(dp1554
g73
(dp1555
g93
g94
ssg82
g1549
sg75
(lp1556
S'debugging'
p1557
asbag68
(g89
g70
NtRp1558
(dp1559
g73
(dp1560
g100
g101
ssg82
g1549
sg75
(lp1561
S':'
asbag68
(g89
g70
NtRp1562
(dp1563
g73
(dp1564
sg82
g1549
sg75
(lp1565
g68
(g69
g70
NtRp1566
(dp1567
g73
(dp1568
g81
I4
ssg82
g1562
sg75
(lp1569
g111
asbasbasbag68
(g84
g70
NtRp1570
(dp1571
g73
(dp1572
sg82
g1388
sg75
(lp1573
g68
(g89
g70
NtRp1574
(dp1575
g73
(dp1576
g93
g94
ssg82
g1570
sg75
(lp1577
S'gluon_parent'
p1578
asbag68
(g89
g70
NtRp1579
(dp1580
g73
(dp1581
g100
g101
ssg82
g1570
sg75
(lp1582
S':'
asbag68
(g89
g70
NtRp1583
(dp1584
g73
(dp1585
sg82
g1570
sg75
(lp1586
g68
(g69
g70
NtRp1587
(dp1588
g73
(dp1589
g81
I4
ssg82
g1583
sg75
(lp1590
S'/Users/schultzc/workspace/wherespuppet/web2py'
p1591
asbasbasbag68
(g84
g70
NtRp1592
(dp1593
g73
(dp1594
sg82
g1388
sg75
(lp1595
g68
(g89
g70
NtRp1596
(dp1597
g73
(dp1598
g93
g94
ssg82
g1592
sg75
(lp1599
S'http_accept'
p1600
asbag68
(g89
g70
NtRp1601
(dp1602
g73
(dp1603
g100
g101
ssg82
g1592
sg75
(lp1604
S':'
asbag68
(g89
g70
NtRp1605
(dp1606
g73
(dp1607
sg82
g1592
sg75
(lp1608
g68
(g69
g70
NtRp1609
(dp1610
g73
(dp1611
g81
I4
ssg82
g1605
sg75
(lp1612
S'text/html,application/xhtml+xml,application/xml;q=0.9,*/*;q=0.8'
p1613
asbasbasbag68
(g84
g70
NtRp1614
(dp1615
g73
(dp1616
sg82
g1388
sg75
(lp1617
g68
(g89
g70
NtRp1618
(dp1619
g73
(dp1620
g93
g94
ssg82
g1614
sg75
(lp1621
S'http_accept_charset'
p1622
asbag68
(g89
g70
NtRp1623
(dp1624
g73
(dp1625
g100
g101
ssg82
g1614
sg75
(lp1626
S':'
asbag68
(g89
g70
NtRp1627
(dp1628
g73
(dp1629
sg82
g1614
sg75
(lp1630
g68
(g69
g70
NtRp1631
(dp1632
g73
(dp1633
g81
I4
ssg82
g1627
sg75
(lp1634
S'ISO-8859-1,utf-8;q=0.7,*;q=0.3'
p1635
asbasbasbag68
(g84
g70
NtRp1636
(dp1637
g73
(dp1638
sg82
g1388
sg75
(lp1639
g68
(g89
g70
NtRp1640
(dp1641
g73
(dp1642
g93
g94
ssg82
g1636
sg75
(lp1643
S'http_accept_encoding'
p1644
asbag68
(g89
g70
NtRp1645
(dp1646
g73
(dp1647
g100
g101
ssg82
g1636
sg75
(lp1648
S':'
asbag68
(g89
g70
NtRp1649
(dp1650
g73
(dp1651
sg82
g1636
sg75
(lp1652
g68
(g69
g70
NtRp1653
(dp1654
g73
(dp1655
g81
I4
ssg82
g1649
sg75
(lp1656
S'gzip,deflate,sdch'
p1657
asbasbasbag68
(g84
g70
NtRp1658
(dp1659
g73
(dp1660
sg82
g1388
sg75
(lp1661
g68
(g89
g70
NtRp1662
(dp1663
g73
(dp1664
g93
g94
ssg82
g1658
sg75
(lp1665
S'http_accept_language'
p1666
asbag68
(g89
g70
NtRp1667
(dp1668
g73
(dp1669
g100
g101
ssg82
g1658
sg75
(lp1670
S':'
asbag68
(g89
g70
NtRp1671
(dp1672
g73
(dp1673
sg82
g1658
sg75
(lp1674
g68
(g69
g70
NtRp1675
(dp1676
g73
(dp1677
g81
I4
ssg82
g1671
sg75
(lp1678
S'en-US,en;q=0.8'
p1679
asbasbasbag68
(g84
g70
NtRp1680
(dp1681
g73
(dp1682
sg82
g1388
sg75
(lp1683
g68
(g89
g70
NtRp1684
(dp1685
g73
(dp1686
g93
g94
ssg82
g1680
sg75
(lp1687
S'http_cache_control'
p1688
asbag68
(g89
g70
NtRp1689
(dp1690
g73
(dp1691
g100
g101
ssg82
g1680
sg75
(lp1692
S':'
asbag68
(g89
g70
NtRp1693
(dp1694
g73
(dp1695
sg82
g1680
sg75
(lp1696
g68
(g69
g70
NtRp1697
(dp1698
g73
(dp1699
g81
I4
ssg82
g1693
sg75
(lp1700
S'max-age=0'
p1701
asbasbasbag68
(g84
g70
NtRp1702
(dp1703
g73
(dp1704
sg82
g1388
sg75
(lp1705
g68
(g89
g70
NtRp1706
(dp1707
g73
(dp1708
g93
g94
ssg82
g1702
sg75
(lp1709
S'http_connection'
p1710
asbag68
(g89
g70
NtRp1711
(dp1712
g73
(dp1713
g100
g101
ssg82
g1702
sg75
(lp1714
S':'
asbag68
(g89
g70
NtRp1715
(dp1716
g73
(dp1717
sg82
g1702
sg75
(lp1718
g68
(g69
g70
NtRp1719
(dp1720
g73
(dp1721
g81
I4
ssg82
g1715
sg75
(lp1722
S'keep-alive'
p1723
asbasbasbag68
(g84
g70
NtRp1724
(dp1725
g73
(dp1726
sg82
g1388
sg75
(lp1727
g68
(g89
g70
NtRp1728
(dp1729
g73
(dp1730
g93
g94
ssg82
g1724
sg75
(lp1731
S'http_content_length'
p1732
asbag68
(g89
g70
NtRp1733
(dp1734
g73
(dp1735
g100
g101
ssg82
g1724
sg75
(lp1736
S':'
asbag68
(g89
g70
NtRp1737
(dp1738
g73
(dp1739
sg82
g1724
sg75
(lp1740
g68
(g69
g70
NtRp1741
(dp1742
g73
(dp1743
g81
I4
ssg82
g1737
sg75
(lp1744
g1504
asbasbasbag68
(g84
g70
NtRp1745
(dp1746
g73
(dp1747
sg82
g1388
sg75
(lp1748
g68
(g89
g70
NtRp1749
(dp1750
g73
(dp1751
g93
g94
ssg82
g1745
sg75
(lp1752
S'http_content_type'
p1753
asbag68
(g89
g70
NtRp1754
(dp1755
g73
(dp1756
g100
g101
ssg82
g1745
sg75
(lp1757
S':'
asbag68
(g89
g70
NtRp1758
(dp1759
g73
(dp1760
sg82
g1745
sg75
(lp1761
g68
(g69
g70
NtRp1762
(dp1763
g73
(dp1764
g81
I4
ssg82
g1758
sg75
(lp1765
g1526
asbasbasbag68
(g84
g70
NtRp1766
(dp1767
g73
(dp1768
sg82
g1388
sg75
(lp1769
g68
(g89
g70
NtRp1770
(dp1771
g73
(dp1772
g93
g94
ssg82
g1766
sg75
(lp1773
S'http_cookie'
p1774
asbag68
(g89
g70
NtRp1775
(dp1776
g73
(dp1777
g100
g101
ssg82
g1766
sg75
(lp1778
S':'
asbag68
(g89
g70
NtRp1779
(dp1780
g73
(dp1781
sg82
g1766
sg75
(lp1782
g68
(g69
g70
NtRp1783
(dp1784
g73
(dp1785
g81
I4
ssg82
g1779
sg75
(lp1786
S'posLat=36.114646; posLon=-115.172816; posAccuracy=24000; posTimestamp=1312621773916; session_id_wp=127.0.0.1-601835e1-ef0c-4e80-a830-e2d47b79981c; session_id_admin=127.0.0.1-fb6d5c7c-9c91-45ea-8636-fce7f412de79'
p1787
asbasbasbag68
(g84
g70
NtRp1788
(dp1789
g73
(dp1790
sg82
g1388
sg75
(lp1791
g68
(g89
g70
NtRp1792
(dp1793
g73
(dp1794
g93
g94
ssg82
g1788
sg75
(lp1795
S'http_host'
p1796
asbag68
(g89
g70
NtRp1797
(dp1798
g73
(dp1799
g100
g101
ssg82
g1788
sg75
(lp1800
S':'
asbag68
(g89
g70
NtRp1801
(dp1802
g73
(dp1803
sg82
g1788
sg75
(lp1804
g68
(g69
g70
NtRp1805
(dp1806
g73
(dp1807
g81
I4
ssg82
g1801
sg75
(lp1808
S'localhost:8000'
p1809
asbasbasbag68
(g84
g70
NtRp1810
(dp1811
g73
(dp1812
sg82
g1388
sg75
(lp1813
g68
(g89
g70
NtRp1814
(dp1815
g73
(dp1816
g93
g94
ssg82
g1810
sg75
(lp1817
S'http_origin'
p1818
asbag68
(g89
g70
NtRp1819
(dp1820
g73
(dp1821
g100
g101
ssg82
g1810
sg75
(lp1822
S':'
asbag68
(g89
g70
NtRp1823
(dp1824
g73
(dp1825
sg82
g1810
sg75
(lp1826
g68
(g69
g70
NtRp1827
(dp1828
g73
(dp1829
g81
I4
ssg82
g1823
sg75
(lp1830
S'http://localhost:8000'
p1831
asbasbasbag68
(g84
g70
NtRp1832
(dp1833
g73
(dp1834
sg82
g1388
sg75
(lp1835
g68
(g89
g70
NtRp1836
(dp1837
g73
(dp1838
g93
g94
ssg82
g1832
sg75
(lp1839
S'http_referer'
p1840
asbag68
(g89
g70
NtRp1841
(dp1842
g73
(dp1843
g100
g101
ssg82
g1832
sg75
(lp1844
S':'
asbag68
(g89
g70
NtRp1845
(dp1846
g73
(dp1847
sg82
g1832
sg75
(lp1848
g68
(g69
g70
NtRp1849
(dp1850
g73
(dp1851
g81
I4
ssg82
g1845
sg75
(lp1852
S'http://localhost:8000/wp/default/submit'
p1853
asbasbasbag68
(g84
g70
NtRp1854
(dp1855
g73
(dp1856
sg82
g1388
sg75
(lp1857
g68
(g89
g70
NtRp1858
(dp1859
g73
(dp1860
g93
g94
ssg82
g1854
sg75
(lp1861
S'http_user_agent'
p1862
asbag68
(g89
g70
NtRp1863
(dp1864
g73
(dp1865
g100
g101
ssg82
g1854
sg75
(lp1866
S':'
asbag68
(g89
g70
NtRp1867
(dp1868
g73
(dp1869
sg82
g1854
sg75
(lp1870
g68
(g69
g70
NtRp1871
(dp1872
g73
(dp1873
g81
I4
ssg82
g1867
sg75
(lp1874
S'Mozilla/5.0 (Macintosh; Intel Mac OS X 10_6_8) AppleWebKit/534.30 (KHTML, like Gecko) Chrome/12.0.742.122 Safari/534.30'
p1875
asbasbasbag68
(g84
g70
NtRp1876
(dp1877
g73
(dp1878
sg82
g1388
sg75
(lp1879
g68
(g89
g70
NtRp1880
(dp1881
g73
(dp1882
g93
g94
ssg82
g1876
sg75
(lp1883
S'path_info'
p1884
asbag68
(g89
g70
NtRp1885
(dp1886
g73
(dp1887
g100
g101
ssg82
g1876
sg75
(lp1888
S':'
asbag68
(g89
g70
NtRp1889
(dp1890
g73
(dp1891
sg82
g1876
sg75
(lp1892
g68
(g69
g70
NtRp1893
(dp1894
g73
(dp1895
g81
I4
ssg82
g1889
sg75
(lp1896
S'/wp/default/submit'
p1897
asbasbasbag68
(g84
g70
NtRp1898
(dp1899
g73
(dp1900
sg82
g1388
sg75
(lp1901
g68
(g89
g70
NtRp1902
(dp1903
g73
(dp1904
g93
g94
ssg82
g1898
sg75
(lp1905
S'query_string'
p1906
asbag68
(g89
g70
NtRp1907
(dp1908
g73
(dp1909
g100
g101
ssg82
g1898
sg75
(lp1910
S':'
asbag68
(g89
g70
NtRp1911
(dp1912
g73
(dp1913
sg82
g1898
sg75
(lp1914
g68
(g69
g70
NtRp1915
(dp1916
g73
(dp1917
g81
I4
ssg82
g1911
sg75
(lp1918
S''
asbasbasbag68
(g84
g70
NtRp1919
(dp1920
g73
(dp1921
sg82
g1388
sg75
(lp1922
g68
(g89
g70
NtRp1923
(dp1924
g73
(dp1925
g93
g94
ssg82
g1919
sg75
(lp1926
S'remote_addr'
p1927
asbag68
(g89
g70
NtRp1928
(dp1929
g73
(dp1930
g100
g101
ssg82
g1919
sg75
(lp1931
S':'
asbag68
(g89
g70
NtRp1932
(dp1933
g73
(dp1934
sg82
g1919
sg75
(lp1935
g68
(g69
g70
NtRp1936
(dp1937
g73
(dp1938
g81
I4
ssg82
g1932
sg75
(lp1939
g201
asbasbasbag68
(g84
g70
NtRp1940
(dp1941
g73
(dp1942
sg82
g1388
sg75
(lp1943
g68
(g89
g70
NtRp1944
(dp1945
g73
(dp1946
g93
g94
ssg82
g1940
sg75
(lp1947
S'remote_port'
p1948
asbag68
(g89
g70
NtRp1949
(dp1950
g73
(dp1951
g100
g101
ssg82
g1940
sg75
(lp1952
S':'
asbag68
(g89
g70
NtRp1953
(dp1954
g73
(dp1955
sg82
g1940
sg75
(lp1956
g68
(g69
g70
NtRp1957
(dp1958
g73
(dp1959
g81
I4
ssg82
g1953
sg75
(lp1960
S'51159'
p1961
asbasbasbag68
(g84
g70
NtRp1962
(dp1963
g73
(dp1964
sg82
g1388
sg75
(lp1965
g68
(g89
g70
NtRp1966
(dp1967
g73
(dp1968
g93
g94
ssg82
g1962
sg75
(lp1969
S'request_method'
p1970
asbag68
(g89
g70
NtRp1971
(dp1972
g73
(dp1973
g100
g101
ssg82
g1962
sg75
(lp1974
S':'
asbag68
(g89
g70
NtRp1975
(dp1976
g73
(dp1977
sg82
g1962
sg75
(lp1978
g68
(g69
g70
NtRp1979
(dp1980
g73
(dp1981
g81
I4
ssg82
g1975
sg75
(lp1982
S'POST'
p1983
asbasbasbag68
(g84
g70
NtRp1984
(dp1985
g73
(dp1986
sg82
g1388
sg75
(lp1987
g68
(g89
g70
NtRp1988
(dp1989
g73
(dp1990
g93
g94
ssg82
g1984
sg75
(lp1991
S'script_name'
p1992
asbag68
(g89
g70
NtRp1993
(dp1994
g73
(dp1995
g100
g101
ssg82
g1984
sg75
(lp1996
S':'
asbag68
(g89
g70
NtRp1997
(dp1998
g73
(dp1999
sg82
g1984
sg75
(lp2000
g68
(g69
g70
NtRp2001
(dp2002
g73
(dp2003
g81
I4
ssg82
g1997
sg75
(lp2004
S''
asbasbasbag68
(g84
g70
NtRp2005
(dp2006
g73
(dp2007
sg82
g1388
sg75
(lp2008
g68
(g89
g70
NtRp2009
(dp2010
g73
(dp2011
g93
g94
ssg82
g2005
sg75
(lp2012
S'server_name'
p2013
asbag68
(g89
g70
NtRp2014
(dp2015
g73
(dp2016
g100
g101
ssg82
g2005
sg75
(lp2017
S':'
asbag68
(g89
g70
NtRp2018
(dp2019
g73
(dp2020
sg82
g2005
sg75
(lp2021
g68
(g69
g70
NtRp2022
(dp2023
g73
(dp2024
g81
I4
ssg82
g2018
sg75
(lp2025
S'wsip-70-165-175-188.lv.lv.cox.net'
p2026
asbasbasbag68
(g84
g70
NtRp2027
(dp2028
g73
(dp2029
sg82
g1388
sg75
(lp2030
g68
(g89
g70
NtRp2031
(dp2032
g73
(dp2033
g93
g94
ssg82
g2027
sg75
(lp2034
S'server_port'
p2035
asbag68
(g89
g70
NtRp2036
(dp2037
g73
(dp2038
g100
g101
ssg82
g2027
sg75
(lp2039
S':'
asbag68
(g89
g70
NtRp2040
(dp2041
g73
(dp2042
sg82
g2027
sg75
(lp2043
g68
(g69
g70
NtRp2044
(dp2045
g73
(dp2046
g81
I4
ssg82
g2040
sg75
(lp2047
S'8000'
p2048
asbasbasbag68
(g84
g70
NtRp2049
(dp2050
g73
(dp2051
sg82
g1388
sg75
(lp2052
g68
(g89
g70
NtRp2053
(dp2054
g73
(dp2055
g93
g94
ssg82
g2049
sg75
(lp2056
S'server_protocol'
p2057
asbag68
(g89
g70
NtRp2058
(dp2059
g73
(dp2060
g100
g101
ssg82
g2049
sg75
(lp2061
S':'
asbag68
(g89
g70
NtRp2062
(dp2063
g73
(dp2064
sg82
g2049
sg75
(lp2065
g68
(g69
g70
NtRp2066
(dp2067
g73
(dp2068
g81
I4
ssg82
g2062
sg75
(lp2069
S'HTTP/1.1'
p2070
asbasbasbag68
(g84
g70
NtRp2071
(dp2072
g73
(dp2073
sg82
g1388
sg75
(lp2074
g68
(g89
g70
NtRp2075
(dp2076
g73
(dp2077
g93
g94
ssg82
g2071
sg75
(lp2078
S'server_software'
p2079
asbag68
(g89
g70
NtRp2080
(dp2081
g73
(dp2082
g100
g101
ssg82
g2071
sg75
(lp2083
S':'
asbag68
(g89
g70
NtRp2084
(dp2085
g73
(dp2086
sg82
g2071
sg75
(lp2087
g68
(g69
g70
NtRp2088
(dp2089
g73
(dp2090
g81
I4
ssg82
g2084
sg75
(lp2091
S'Rocket 1.2.2'
p2092
asbasbasbag68
(g84
g70
NtRp2093
(dp2094
g73
(dp2095
sg82
g1388
sg75
(lp2096
g68
(g89
g70
NtRp2097
(dp2098
g73
(dp2099
g93
g94
ssg82
g2093
sg75
(lp2100
S'web2py_crontype'
p2101
asbag68
(g89
g70
NtRp2102
(dp2103
g73
(dp2104
g100
g101
ssg82
g2093
sg75
(lp2105
S':'
asbag68
(g89
g70
NtRp2106
(dp2107
g73
(dp2108
sg82
g2093
sg75
(lp2109
g68
(g69
g70
NtRp2110
(dp2111
g73
(dp2112
g81
I4
ssg82
g2106
sg75
(lp2113
S'hard'
p2114
asbasbasbag68
(g84
g70
NtRp2115
(dp2116
g73
(dp2117
sg82
g1388
sg75
(lp2118
g68
(g89
g70
NtRp2119
(dp2120
g73
(dp2121
g93
g94
ssg82
g2115
sg75
(lp2122
S'web2py_path'
p2123
asbag68
(g89
g70
NtRp2124
(dp2125
g73
(dp2126
g100
g101
ssg82
g2115
sg75
(lp2127
S':'
asbag68
(g89
g70
NtRp2128
(dp2129
g73
(dp2130
sg82
g2115
sg75
(lp2131
g68
(g69
g70
NtRp2132
(dp2133
g73
(dp2134
g81
I4
ssg82
g2128
sg75
(lp2135
g1435
asbasbasbag68
(g84
g70
NtRp2136
(dp2137
g73
(dp2138
sg82
g1388
sg75
(lp2139
g68
(g89
g70
NtRp2140
(dp2141
g73
(dp2142
g93
g94
ssg82
g2136
sg75
(lp2143
S'web2py_version'
p2144
asbag68
(g89
g70
NtRp2145
(dp2146
g73
(dp2147
g100
g101
ssg82
g2136
sg75
(lp2148
S':'
asbag68
(g89
g70
NtRp2149
(dp2150
g73
(dp2151
sg82
g2136
sg75
(lp2152
g68
(g69
g70
NtRp2153
(dp2154
g73
(dp2155
g81
I4
ssg82
g2149
sg75
(lp2156
S'Version 1.97.1 (2011-06-26 19:25:44)\n'
p2157
asbasbasbag68
(g84
g70
NtRp2158
(dp2159
g73
(dp2160
sg82
g1388
sg75
(lp2161
g68
(g89
g70
NtRp2162
(dp2163
g73
(dp2164
g93
g94
ssg82
g2158
sg75
(lp2165
S'wsgi_errors'
p2166
asbag68
(g89
g70
NtRp2167
(dp2168
g73
(dp2169
g100
g101
ssg82
g2158
sg75
(lp2170
S':'
asbag68
(g89
g70
NtRp2171
(dp2172
g73
(dp2173
sg82
g2158
sg75
(lp2174
g68
(g69
g70
NtRp2175
(dp2176
g73
(dp2177
g81
I4
ssg82
g2171
sg75
(lp2178
S"<open file '<stderr>', mode 'w' at 0x100283270>"
p2179
asbasbasbag68
(g84
g70
NtRp2180
(dp2181
g73
(dp2182
sg82
g1388
sg75
(lp2183
g68
(g89
g70
NtRp2184
(dp2185
g73
(dp2186
g93
g94
ssg82
g2180
sg75
(lp2187
S'wsgi_file_wrapper'
p2188
asbag68
(g89
g70
NtRp2189
(dp2190
g73
(dp2191
g100
g101
ssg82
g2180
sg75
(lp2192
S':'
asbag68
(g89
g70
NtRp2193
(dp2194
g73
(dp2195
sg82
g2180
sg75
(lp2196
g68
(g69
g70
NtRp2197
(dp2198
g73
(dp2199
g81
I4
ssg82
g2193
sg75
(lp2200
S'<class gluon.rocket.FileWrapper at 0x101976ef0>'
p2201
asbasbasbag68
(g84
g70
NtRp2202
(dp2203
g73
(dp2204
sg82
g1388
sg75
(lp2205
g68
(g89
g70
NtRp2206
(dp2207
g73
(dp2208
g93
g94
ssg82
g2202
sg75
(lp2209
S'wsgi_input'
p2210
asbag68
(g89
g70
NtRp2211
(dp2212
g73
(dp2213
g100
g101
ssg82
g2202
sg75
(lp2214
S':'
asbag68
(g89
g70
NtRp2215
(dp2216
g73
(dp2217
sg82
g2202
sg75
(lp2218
g68
(g69
g70
NtRp2219
(dp2220
g73
(dp2221
g81
I4
ssg82
g2215
sg75
(lp2222
S'<socket._fileobject object at 0x10642bd50>'
p2223
asbasbasbag68
(g84
g70
NtRp2224
(dp2225
g73
(dp2226
sg82
g1388
sg75
(lp2227
g68
(g89
g70
NtRp2228
(dp2229
g73
(dp2230
g93
g94
ssg82
g2224
sg75
(lp2231
S'wsgi_multiprocess'
p2232
asbag68
(g89
g70
NtRp2233
(dp2234
g73
(dp2235
g100
g101
ssg82
g2224
sg75
(lp2236
S':'
asbag68
(g89
g70
NtRp2237
(dp2238
g73
(dp2239
sg82
g2224
sg75
(lp2240
g68
(g69
g70
NtRp2241
(dp2242
g73
(dp2243
g81
I4
ssg82
g2237
sg75
(lp2244
g111
asbasbasbag68
(g84
g70
NtRp2245
(dp2246
g73
(dp2247
sg82
g1388
sg75
(lp2248
g68
(g89
g70
NtRp2249
(dp2250
g73
(dp2251
g93
g94
ssg82
g2245
sg75
(lp2252
S'wsgi_multithread'
p2253
asbag68
(g89
g70
NtRp2254
(dp2255
g73
(dp2256
g100
g101
ssg82
g2245
sg75
(lp2257
S':'
asbag68
(g89
g70
NtRp2258
(dp2259
g73
(dp2260
sg82
g2245
sg75
(lp2261
g68
(g69
g70
NtRp2262
(dp2263
g73
(dp2264
g81
I4
ssg82
g2258
sg75
(lp2265
S'True'
p2266
asbasbasbag68
(g84
g70
NtRp2267
(dp2268
g73
(dp2269
sg82
g1388
sg75
(lp2270
g68
(g89
g70
NtRp2271
(dp2272
g73
(dp2273
g93
g94
ssg82
g2267
sg75
(lp2274
S'wsgi_run_once'
p2275
asbag68
(g89
g70
NtRp2276
(dp2277
g73
(dp2278
g100
g101
ssg82
g2267
sg75
(lp2279
S':'
asbag68
(g89
g70
NtRp2280
(dp2281
g73
(dp2282
sg82
g2267
sg75
(lp2283
g68
(g69
g70
NtRp2284
(dp2285
g73
(dp2286
g81
I4
ssg82
g2280
sg75
(lp2287
g111
asbasbasbag68
(g84
g70
NtRp2288
(dp2289
g73
(dp2290
sg82
g1388
sg75
(lp2291
g68
(g89
g70
NtRp2292
(dp2293
g73
(dp2294
g93
g94
ssg82
g2288
sg75
(lp2295
S'wsgi_url_scheme'
p2296
asbag68
(g89
g70
NtRp2297
(dp2298
g73
(dp2299
g100
g101
ssg82
g2288
sg75
(lp2300
S':'
asbag68
(g89
g70
NtRp2301
(dp2302
g73
(dp2303
sg82
g2288
sg75
(lp2304
g68
(g69
g70
NtRp2305
(dp2306
g73
(dp2307
g81
I4
ssg82
g2301
sg75
(lp2308
S'http'
p2309
asbasbasbag68
(g84
g70
NtRp2310
(dp2311
g73
(dp2312
sg82
g1388
sg75
(lp2313
g68
(g89
g70
NtRp2314
(dp2315
g73
(dp2316
g93
g94
ssg82
g2310
sg75
(lp2317
S'wsgi_version'
p2318
asbag68
(g89
g70
NtRp2319
(dp2320
g73
(dp2321
g100
g101
ssg82
g2310
sg75
(lp2322
S':'
asbag68
(g89
g70
NtRp2323
(dp2324
g73
(dp2325
sg82
g2310
sg75
(lp2326
g68
(g69
g70
NtRp2327
(dp2328
g73
(dp2329
g81
I4
ssg82
g2323
sg75
(lp2330
g68
(g77
g70
NtRp2331
(dp2332
g73
(dp2333
g81
I3
ssg82
Nsg75
(lp2334
g68
(g84
g70
NtRp2335
(dp2336
g73
(dp2337
sg82
g2331
sg75
(lp2338
g68
(g89
g70
NtRp2339
(dp2340
g73
(dp2341
sg82
g2335
sg75
(lp2342
g68
(g69
g70
NtRp2343
(dp2344
g73
(dp2345
g81
I3
ssg82
g2339
sg75
(lp2346
S'1'
asbasbasbag68
(g84
g70
NtRp2347
(dp2348
g73
(dp2349
sg82
g2331
sg75
(lp2350
g68
(g89
g70
NtRp2351
(dp2352
g73
(dp2353
sg82
g2347
sg75
(lp2354
g68
(g69
g70
NtRp2355
(dp2356
g73
(dp2357
g81
I3
ssg82
g2351
sg75
(lp2358
S'0'
asbasbasbasbasbasbasbasbasbasbasbag68
(g84
g70
NtRp2359
(dp2360
g73
(dp2361
sg82
g78
sg75
(lp2362
g68
(g89
g70
NtRp2363
(dp2364
g73
(dp2365
g93
g94
ssg82
g2359
sg75
(lp2366
S'extension'
p2367
asbag68
(g89
g70
NtRp2368
(dp2369
g73
(dp2370
g100
g101
ssg82
g2359
sg75
(lp2371
S':'
asbag68
(g89
g70
NtRp2372
(dp2373
g73
(dp2374
sg82
g2359
sg75
(lp2375
g68
(g69
g70
NtRp2376
(dp2377
g73
(dp2378
g81
I5
ssg82
g2372
sg75
(lp2379
S'html'
p2380
asbasbasbag68
(g84
g70
NtRp2381
(dp2382
g73
(dp2383
sg82
g78
sg75
(lp2384
g68
(g89
g70
NtRp2385
(dp2386
g73
(dp2387
g93
g94
ssg82
g2381
sg75
(lp2388
S'folder'
p2389
asbag68
(g89
g70
NtRp2390
(dp2391
g73
(dp2392
g100
g101
ssg82
g2381
sg75
(lp2393
S':'
asbag68
(g89
g70
NtRp2394
(dp2395
g73
(dp2396
sg82
g2381
sg75
(lp2397
g68
(g69
g70
NtRp2398
(dp2399
g73
(dp2400
g81
I5
ssg82
g2394
sg75
(lp2401
S'/Users/schultzc/workspace/wherespuppet/web2py/applications/wp/'
p2402
asbasbasbag68
(g84
g70
NtRp2403
(dp2404
g73
(dp2405
sg82
g78
sg75
(lp2406
g68
(g89
g70
NtRp2407
(dp2408
g73
(dp2409
g93
g94
ssg82
g2403
sg75
(lp2410
S'function'
p2411
asbag68
(g89
g70
NtRp2412
(dp2413
g73
(dp2414
g100
g101
ssg82
g2403
sg75
(lp2415
S':'
asbag68
(g89
g70
NtRp2416
(dp2417
g73
(dp2418
sg82
g2403
sg75
(lp2419
g68
(g69
g70
NtRp2420
(dp2421
g73
(dp2422
g81
I5
ssg82
g2416
sg75
(lp2423
S'submit'
p2424
asbasbasbag68
(g84
g70
NtRp2425
(dp2426
g73
(dp2427
sg82
g78
sg75
(lp2428
g68
(g89
g70
NtRp2429
(dp2430
g73
(dp2431
g93
g94
ssg82
g2425
sg75
(lp2432
S'get_vars'
p2433
asbag68
(g89
g70
NtRp2434
(dp2435
g73
(dp2436
g100
g101
ssg82
g2425
sg75
(lp2437
S':'
asbag68
(g89
g70
NtRp2438
(dp2439
g73
(dp2440
sg82
g2425
sg75
(lp2441
g68
(g69
g70
NtRp2442
(dp2443
g73
(dp2444
g81
I5
ssg82
g2438
sg75
(lp2445
g68
(g77
g70
NtRp2446
(dp2447
g73
(dp2448
g81
I4
ssg82
Nsg75
(lp2449
sbasbasbasbag68
(g84
g70
NtRp2450
(dp2451
g73
(dp2452
sg82
g78
sg75
(lp2453
g68
(g89
g70
NtRp2454
(dp2455
g73
(dp2456
g93
g94
ssg82
g2450
sg75
(lp2457
S'is_https'
p2458
asbag68
(g89
g70
NtRp2459
(dp2460
g73
(dp2461
g100
g101
ssg82
g2450
sg75
(lp2462
S':'
asbag68
(g89
g70
NtRp2463
(dp2464
g73
(dp2465
sg82
g2450
sg75
(lp2466
g68
(g69
g70
NtRp2467
(dp2468
g73
(dp2469
g81
I5
ssg82
g2463
sg75
(lp2470
g111
asbasbasbag68
(g84
g70
NtRp2471
(dp2472
g73
(dp2473
sg82
g78
sg75
(lp2474
g68
(g89
g70
NtRp2475
(dp2476
g73
(dp2477
g93
g94
ssg82
g2471
sg75
(lp2478
S'is_local'
p2479
asbag68
(g89
g70
NtRp2480
(dp2481
g73
(dp2482
g100
g101
ssg82
g2471
sg75
(lp2483
S':'
asbag68
(g89
g70
NtRp2484
(dp2485
g73
(dp2486
sg82
g2471
sg75
(lp2487
g68
(g69
g70
NtRp2488
(dp2489
g73
(dp2490
g81
I5
ssg82
g2484
sg75
(lp2491
g2266
asbasbasbag68
(g84
g70
NtRp2492
(dp2493
g73
(dp2494
sg82
g78
sg75
(lp2495
g68
(g89
g70
NtRp2496
(dp2497
g73
(dp2498
g93
g94
ssg82
g2492
sg75
(lp2499
S'is_restful'
p2500
asbag68
(g89
g70
NtRp2501
(dp2502
g73
(dp2503
g100
g101
ssg82
g2492
sg75
(lp2504
S':'
asbag68
(g89
g70
NtRp2505
(dp2506
g73
(dp2507
sg82
g2492
sg75
(lp2508
g68
(g69
g70
NtRp2509
(dp2510
g73
(dp2511
g81
I5
ssg82
g2505
sg75
(lp2512
g111
asbasbasbag68
(g84
g70
NtRp2513
(dp2514
g73
(dp2515
sg82
g78
sg75
(lp2516
g68
(g89
g70
NtRp2517
(dp2518
g73
(dp2519
g93
g94
ssg82
g2513
sg75
(lp2520
S'now'
p2521
asbag68
(g89
g70
NtRp2522
(dp2523
g73
(dp2524
g100
g101
ssg82
g2513
sg75
(lp2525
S':'
asbag68
(g89
g70
NtRp2526
(dp2527
g73
(dp2528
sg82
g2513
sg75
(lp2529
g68
(g69
g70
NtRp2530
(dp2531
g73
(dp2532
g81
I5
ssg82
g2526
sg75
(lp2533
S'datetime.datetime(2011, 8, 6, 2, 14, 39, 479908)'
p2534
asbasbasbag68
(g84
g70
NtRp2535
(dp2536
g73
(dp2537
sg82
g78
sg75
(lp2538
g68
(g89
g70
NtRp2539
(dp2540
g73
(dp2541
g93
g94
ssg82
g2535
sg75
(lp2542
S'post_vars'
p2543
asbag68
(g89
g70
NtRp2544
(dp2545
g73
(dp2546
g100
g101
ssg82
g2535
sg75
(lp2547
S':'
asbag68
(g89
g70
NtRp2548
(dp2549
g73
(dp2550
sg82
g2535
sg75
(lp2551
g68
(g69
g70
NtRp2552
(dp2553
g73
(dp2554
g81
I5
ssg82
g2548
sg75
(lp2555
g68
(g77
g70
NtRp2556
(dp2557
g73
(dp2558
g81
I4
ssg82
Nsg75
(lp2559
g68
(g84
g70
NtRp2560
(dp2561
g73
(dp2562
sg82
g2556
sg75
(lp2563
g68
(g89
g70
NtRp2564
(dp2565
g73
(dp2566
g93
g94
ssg82
g2560
sg75
(lp2567
S'file'
p2568
asbag68
(g89
g70
NtRp2569
(dp2570
g73
(dp2571
g100
g101
ssg82
g2560
sg75
(lp2572
S':'
asbag68
(g89
g70
NtRp2573
(dp2574
g73
(dp2575
sg82
g2560
sg75
(lp2576
g68
(g69
g70
NtRp2577
(dp2578
g73
(dp2579
g81
I4
ssg82
g2573
sg75
(lp2580
S'FieldStorage object'
p2581
asbasbasbag68
(g84
g70
NtRp2582
(dp2583
g73
(dp2584
sg82
g2556
sg75
(lp2585
g68
(g89
g70
NtRp2586
(dp2587
g73
(dp2588
g93
g94
ssg82
g2582
sg75
(lp2589
S'handle'
p2590
asbag68
(g89
g70
NtRp2591
(dp2592
g73
(dp2593
g100
g101
ssg82
g2582
sg75
(lp2594
S':'
asbag68
(g89
g70
NtRp2595
(dp2596
g73
(dp2597
sg82
g2582
sg75
(lp2598
g68
(g69
g70
NtRp2599
(dp2600
g73
(dp2601
g81
I4
ssg82
g2595
sg75
(lp2602
S'f47h3r'
p2603
asbasbasbag68
(g84
g70
NtRp2604
(dp2605
g73
(dp2606
sg82
g2556
sg75
(lp2607
g68
(g89
g70
NtRp2608
(dp2609
g73
(dp2610
g93
g94
ssg82
g2604
sg75
(lp2611
S'location'
p2612
asbag68
(g89
g70
NtRp2613
(dp2614
g73
(dp2615
g100
g101
ssg82
g2604
sg75
(lp2616
S':'
asbag68
(g89
g70
NtRp2617
(dp2618
g73
(dp2619
sg82
g2604
sg75
(lp2620
g68
(g69
g70
NtRp2621
(dp2622
g73
(dp2623
g81
I4
ssg82
g2617
sg75
(lp2624
S'vegas'
p2625
asbasbasbag68
(g84
g70
NtRp2626
(dp2627
g73
(dp2628
sg82
g2556
sg75
(lp2629
g68
(g89
g70
NtRp2630
(dp2631
g73
(dp2632
g93
g94
ssg82
g2626
sg75
(lp2633
S'title'
p2634
asbag68
(g89
g70
NtRp2635
(dp2636
g73
(dp2637
g100
g101
ssg82
g2626
sg75
(lp2638
S':'
asbag68
(g89
g70
NtRp2639
(dp2640
g73
(dp2641
sg82
g2626
sg75
(lp2642
g68
(g69
g70
NtRp2643
(dp2644
g73
(dp2645
g81
I4
ssg82
g2639
sg75
(lp2646
S'fuckyea'
p2647
asbasbasbasbasbasbasbag68
(g84
g70
NtRp2648
(dp2649
g73
(dp2650
sg82
g78
sg75
(lp2651
g68
(g89
g70
NtRp2652
(dp2653
g73
(dp2654
g93
g94
ssg82
g2648
sg75
(lp2655
S'url'
p2656
asbag68
(g89
g70
NtRp2657
(dp2658
g73
(dp2659
g100
g101
ssg82
g2648
sg75
(lp2660
S':'
asbag68
(g89
g70
NtRp2661
(dp2662
g73
(dp2663
sg82
g2648
sg75
(lp2664
g68
(g69
g70
NtRp2665
(dp2666
g73
(dp2667
g81
I5
ssg82
g2661
sg75
(lp2668
S'/wp/default/submit'
p2669
asbasbasbag68
(g84
g70
NtRp2670
(dp2671
g73
(dp2672
sg82
g78
sg75
(lp2673
g68
(g89
g70
NtRp2674
(dp2675
g73
(dp2676
g93
g94
ssg82
g2670
sg75
(lp2677
S'uuid'
p2678
asbag68
(g89
g70
NtRp2679
(dp2680
g73
(dp2681
g100
g101
ssg82
g2670
sg75
(lp2682
S':'
asbag68
(g89
g70
NtRp2683
(dp2684
g73
(dp2685
sg82
g2670
sg75
(lp2686
g68
(g69
g70
NtRp2687
(dp2688
g73
(dp2689
g81
I5
ssg82
g2683
sg75
(lp2690
S'wp/127.0.0.1.2011-08-06.02-14-39.b7bc31fd-d990-4822-9dc8-164cd3cfacee'
p2691
asbasbasbag68
(g84
g70
NtRp2692
(dp2693
g73
(dp2694
sg82
g78
sg75
(lp2695
g68
(g89
g70
NtRp2696
(dp2697
g73
(dp2698
g93
g94
ssg82
g2692
sg75
(lp2699
S'vars'
p2700
asbag68
(g89
g70
NtRp2701
(dp2702
g73
(dp2703
g100
g101
ssg82
g2692
sg75
(lp2704
S':'
asbag68
(g89
g70
NtRp2705
(dp2706
g73
(dp2707
sg82
g2692
sg75
(lp2708
g68
(g69
g70
NtRp2709
(dp2710
g73
(dp2711
g81
I5
ssg82
g2705
sg75
(lp2712
g68
(g77
g70
NtRp2713
(dp2714
g73
(dp2715
g81
I4
ssg82
Nsg75
(lp2716
g68
(g84
g70
NtRp2717
(dp2718
g73
(dp2719
sg82
g2713
sg75
(lp2720
g68
(g89
g70
NtRp2721
(dp2722
g73
(dp2723
g93
g94
ssg82
g2717
sg75
(lp2724
g2568
asbag68
(g89
g70
NtRp2725
(dp2726
g73
(dp2727
g100
g101
ssg82
g2717
sg75
(lp2728
S':'
asbag68
(g89
g70
NtRp2729
(dp2730
g73
(dp2731
sg82
g2717
sg75
(lp2732
g68
(g69
g70
NtRp2733
(dp2734
g73
(dp2735
g81
I4
ssg82
g2729
sg75
(lp2736
g2581
asbasbasbag68
(g84
g70
NtRp2737
(dp2738
g73
(dp2739
sg82
g2713
sg75
(lp2740
g68
(g89
g70
NtRp2741
(dp2742
g73
(dp2743
g93
g94
ssg82
g2737
sg75
(lp2744
g2590
asbag68
(g89
g70
NtRp2745
(dp2746
g73
(dp2747
g100
g101
ssg82
g2737
sg75
(lp2748
S':'
asbag68
(g89
g70
NtRp2749
(dp2750
g73
(dp2751
sg82
g2737
sg75
(lp2752
g68
(g69
g70
NtRp2753
(dp2754
g73
(dp2755
g81
I4
ssg82
g2749
sg75
(lp2756
g2603
asbasbasbag68
(g84
g70
NtRp2757
(dp2758
g73
(dp2759
sg82
g2713
sg75
(lp2760
g68
(g89
g70
NtRp2761
(dp2762
g73
(dp2763
g93
g94
ssg82
g2757
sg75
(lp2764
g2612
asbag68
(g89
g70
NtRp2765
(dp2766
g73
(dp2767
g100
g101
ssg82
g2757
sg75
(lp2768
S':'
asbag68
(g89
g70
NtRp2769
(dp2770
g73
(dp2771
sg82
g2757
sg75
(lp2772
g68
(g69
g70
NtRp2773
(dp2774
g73
(dp2775
g81
I4
ssg82
g2769
sg75
(lp2776
g2625
asbasbasbag68
(g84
g70
NtRp2777
(dp2778
g73
(dp2779
sg82
g2713
sg75
(lp2780
g68
(g89
g70
NtRp2781
(dp2782
g73
(dp2783
g93
g94
ssg82
g2777
sg75
(lp2784
g2634
asbag68
(g89
g70
NtRp2785
(dp2786
g73
(dp2787
g100
g101
ssg82
g2777
sg75
(lp2788
S':'
asbag68
(g89
g70
NtRp2789
(dp2790
g73
(dp2791
sg82
g2777
sg75
(lp2792
g68
(g69
g70
NtRp2793
(dp2794
g73
(dp2795
g81
I4
ssg82
g2789
sg75
(lp2796
g2647
asbasbasbasbasbasbasbag68
(g84
g70
NtRp2797
(dp2798
g73
(dp2799
sg82
g78
sg75
(lp2800
g68
(g89
g70
NtRp2801
(dp2802
g73
(dp2803
g93
g94
ssg82
g2797
sg75
(lp2804
S'wsgi'
p2805
asbag68
(g89
g70
NtRp2806
(dp2807
g73
(dp2808
g100
g101
ssg82
g2797
sg75
(lp2809
S':'
asbag68
(g89
g70
NtRp2810
(dp2811
g73
(dp2812
sg82
g2797
sg75
(lp2813
g68
(g69
g70
NtRp2814
(dp2815
g73
(dp2816
g81
I5
ssg82
g2810
sg75
(lp2817
g68
(g77
g70
NtRp2818
(dp2819
g73
(dp2820
g81
I4
ssg82
Nsg75
(lp2821
g68
(g84
g70
NtRp2822
(dp2823
g73
(dp2824
sg82
g2818
sg75
(lp2825
g68
(g89
g70
NtRp2826
(dp2827
g73
(dp2828
g93
g94
ssg82
g2822
sg75
(lp2829
S'environ'
p2830
asbag68
(g89
g70
NtRp2831
(dp2832
g73
(dp2833
g100
g101
ssg82
g2822
sg75
(lp2834
S':'
asbag68
(g89
g70
NtRp2835
(dp2836
g73
(dp2837
sg82
g2822
sg75
(lp2838
g68
(g69
g70
NtRp2839
(dp2840
g73
(dp2841
g81
I4
ssg82
g2835
sg75
(lp2842
g68
(g77
g70
NtRp2843
(dp2844
g73
(dp2845
g81
I3
ssg82
Nsg75
(lp2846
g68
(g84
g70
NtRp2847
(dp2848
g73
(dp2849
sg82
g2843
sg75
(lp2850
g68
(g89
g70
NtRp2851
(dp2852
g73
(dp2853
g93
g94
ssg82
g2847
sg75
(lp2854
S'CONTENT_LENGTH'
p2855
asbag68
(g89
g70
NtRp2856
(dp2857
g73
(dp2858
g100
g101
ssg82
g2847
sg75
(lp2859
S':'
asbag68
(g89
g70
NtRp2860
(dp2861
g73
(dp2862
sg82
g2847
sg75
(lp2863
g68
(g69
g70
NtRp2864
(dp2865
g73
(dp2866
g81
I3
ssg82
g2860
sg75
(lp2867
g1504
asbasbasbag68
(g84
g70
NtRp2868
(dp2869
g73
(dp2870
sg82
g2843
sg75
(lp2871
g68
(g89
g70
NtRp2872
(dp2873
g73
(dp2874
g93
g94
ssg82
g2868
sg75
(lp2875
S'CONTENT_TYPE'
p2876
asbag68
(g89
g70
NtRp2877
(dp2878
g73
(dp2879
g100
g101
ssg82
g2868
sg75
(lp2880
S':'
asbag68
(g89
g70
NtRp2881
(dp2882
g73
(dp2883
sg82
g2868
sg75
(lp2884
g68
(g69
g70
NtRp2885
(dp2886
g73
(dp2887
g81
I3
ssg82
g2881
sg75
(lp2888
g1526
asbasbasbag68
(g84
g70
NtRp2889
(dp2890
g73
(dp2891
sg82
g2843
sg75
(lp2892
g68
(g89
g70
NtRp2893
(dp2894
g73
(dp2895
g93
g94
ssg82
g2889
sg75
(lp2896
S'HTTP_ACCEPT'
p2897
asbag68
(g89
g70
NtRp2898
(dp2899
g73
(dp2900
g100
g101
ssg82
g2889
sg75
(lp2901
S':'
asbag68
(g89
g70
NtRp2902
(dp2903
g73
(dp2904
sg82
g2889
sg75
(lp2905
g68
(g69
g70
NtRp2906
(dp2907
g73
(dp2908
g81
I3
ssg82
g2902
sg75
(lp2909
g1613
asbasbasbag68
(g84
g70
NtRp2910
(dp2911
g73
(dp2912
sg82
g2843
sg75
(lp2913
g68
(g89
g70
NtRp2914
(dp2915
g73
(dp2916
g93
g94
ssg82
g2910
sg75
(lp2917
S'HTTP_ACCEPT_CHARSET'
p2918
asbag68
(g89
g70
NtRp2919
(dp2920
g73
(dp2921
g100
g101
ssg82
g2910
sg75
(lp2922
S':'
asbag68
(g89
g70
NtRp2923
(dp2924
g73
(dp2925
sg82
g2910
sg75
(lp2926
g68
(g69
g70
NtRp2927
(dp2928
g73
(dp2929
g81
I3
ssg82
g2923
sg75
(lp2930
g1635
asbasbasbag68
(g84
g70
NtRp2931
(dp2932
g73
(dp2933
sg82
g2843
sg75
(lp2934
g68
(g89
g70
NtRp2935
(dp2936
g73
(dp2937
g93
g94
ssg82
g2931
sg75
(lp2938
S'HTTP_ACCEPT_ENCODING'
p2939
asbag68
(g89
g70
NtRp2940
(dp2941
g73
(dp2942
g100
g101
ssg82
g2931
sg75
(lp2943
S':'
asbag68
(g89
g70
NtRp2944
(dp2945
g73
(dp2946
sg82
g2931
sg75
(lp2947
g68
(g69
g70
NtRp2948
(dp2949
g73
(dp2950
g81
I3
ssg82
g2944
sg75
(lp2951
g1657
asbasbasbag68
(g84
g70
NtRp2952
(dp2953
g73
(dp2954
sg82
g2843
sg75
(lp2955
g68
(g89
g70
NtRp2956
(dp2957
g73
(dp2958
g93
g94
ssg82
g2952
sg75
(lp2959
S'HTTP_ACCEPT_LANGUAGE'
p2960
asbag68
(g89
g70
NtRp2961
(dp2962
g73
(dp2963
g100
g101
ssg82
g2952
sg75
(lp2964
S':'
asbag68
(g89
g70
NtRp2965
(dp2966
g73
(dp2967
sg82
g2952
sg75
(lp2968
g68
(g69
g70
NtRp2969
(dp2970
g73
(dp2971
g81
I3
ssg82
g2965
sg75
(lp2972
g1679
asbasbasbag68
(g84
g70
NtRp2973
(dp2974
g73
(dp2975
sg82
g2843
sg75
(lp2976
g68
(g89
g70
NtRp2977
(dp2978
g73
(dp2979
g93
g94
ssg82
g2973
sg75
(lp2980
S'HTTP_CACHE_CONTROL'
p2981
asbag68
(g89
g70
NtRp2982
(dp2983
g73
(dp2984
g100
g101
ssg82
g2973
sg75
(lp2985
S':'
asbag68
(g89
g70
NtRp2986
(dp2987
g73
(dp2988
sg82
g2973
sg75
(lp2989
g68
(g69
g70
NtRp2990
(dp2991
g73
(dp2992
g81
I3
ssg82
g2986
sg75
(lp2993
g1701
asbasbasbag68
(g84
g70
NtRp2994
(dp2995
g73
(dp2996
sg82
g2843
sg75
(lp2997
g68
(g89
g70
NtRp2998
(dp2999
g73
(dp3000
g93
g94
ssg82
g2994
sg75
(lp3001
S'HTTP_CONNECTION'
p3002
asbag68
(g89
g70
NtRp3003
(dp3004
g73
(dp3005
g100
g101
ssg82
g2994
sg75
(lp3006
S':'
asbag68
(g89
g70
NtRp3007
(dp3008
g73
(dp3009
sg82
g2994
sg75
(lp3010
g68
(g69
g70
NtRp3011
(dp3012
g73
(dp3013
g81
I3
ssg82
g3007
sg75
(lp3014
g1723
asbasbasbag68
(g84
g70
NtRp3015
(dp3016
g73
(dp3017
sg82
g2843
sg75
(lp3018
g68
(g89
g70
NtRp3019
(dp3020
g73
(dp3021
g93
g94
ssg82
g3015
sg75
(lp3022
S'HTTP_CONTENT_LENGTH'
p3023
asbag68
(g89
g70
NtRp3024
(dp3025
g73
(dp3026
g100
g101
ssg82
g3015
sg75
(lp3027
S':'
asbag68
(g89
g70
NtRp3028
(dp3029
g73
(dp3030
sg82
g3015
sg75
(lp3031
g68
(g69
g70
NtRp3032
(dp3033
g73
(dp3034
g81
I3
ssg82
g3028
sg75
(lp3035
g1504
asbasbasbag68
(g84
g70
NtRp3036
(dp3037
g73
(dp3038
sg82
g2843
sg75
(lp3039
g68
(g89
g70
NtRp3040
(dp3041
g73
(dp3042
g93
g94
ssg82
g3036
sg75
(lp3043
S'HTTP_CONTENT_TYPE'
p3044
asbag68
(g89
g70
NtRp3045
(dp3046
g73
(dp3047
g100
g101
ssg82
g3036
sg75
(lp3048
S':'
asbag68
(g89
g70
NtRp3049
(dp3050
g73
(dp3051
sg82
g3036
sg75
(lp3052
g68
(g69
g70
NtRp3053
(dp3054
g73
(dp3055
g81
I3
ssg82
g3049
sg75
(lp3056
g1526
asbasbasbag68
(g84
g70
NtRp3057
(dp3058
g73
(dp3059
sg82
g2843
sg75
(lp3060
g68
(g89
g70
NtRp3061
(dp3062
g73
(dp3063
g93
g94
ssg82
g3057
sg75
(lp3064
S'HTTP_COOKIE'
p3065
asbag68
(g89
g70
NtRp3066
(dp3067
g73
(dp3068
g100
g101
ssg82
g3057
sg75
(lp3069
S':'
asbag68
(g89
g70
NtRp3070
(dp3071
g73
(dp3072
sg82
g3057
sg75
(lp3073
g68
(g69
g70
NtRp3074
(dp3075
g73
(dp3076
g81
I3
ssg82
g3070
sg75
(lp3077
g1787
asbasbasbag68
(g84
g70
NtRp3078
(dp3079
g73
(dp3080
sg82
g2843
sg75
(lp3081
g68
(g89
g70
NtRp3082
(dp3083
g73
(dp3084
g93
g94
ssg82
g3078
sg75
(lp3085
S'HTTP_HOST'
p3086
asbag68
(g89
g70
NtRp3087
(dp3088
g73
(dp3089
g100
g101
ssg82
g3078
sg75
(lp3090
S':'
asbag68
(g89
g70
NtRp3091
(dp3092
g73
(dp3093
sg82
g3078
sg75
(lp3094
g68
(g69
g70
NtRp3095
(dp3096
g73
(dp3097
g81
I3
ssg82
g3091
sg75
(lp3098
g1809
asbasbasbag68
(g84
g70
NtRp3099
(dp3100
g73
(dp3101
sg82
g2843
sg75
(lp3102
g68
(g89
g70
NtRp3103
(dp3104
g73
(dp3105
g93
g94
ssg82
g3099
sg75
(lp3106
S'HTTP_ORIGIN'
p3107
asbag68
(g89
g70
NtRp3108
(dp3109
g73
(dp3110
g100
g101
ssg82
g3099
sg75
(lp3111
S':'
asbag68
(g89
g70
NtRp3112
(dp3113
g73
(dp3114
sg82
g3099
sg75
(lp3115
g68
(g69
g70
NtRp3116
(dp3117
g73
(dp3118
g81
I3
ssg82
g3112
sg75
(lp3119
g1831
asbasbasbag68
(g84
g70
NtRp3120
(dp3121
g73
(dp3122
sg82
g2843
sg75
(lp3123
g68
(g89
g70
NtRp3124
(dp3125
g73
(dp3126
g93
g94
ssg82
g3120
sg75
(lp3127
S'HTTP_REFERER'
p3128
asbag68
(g89
g70
NtRp3129
(dp3130
g73
(dp3131
g100
g101
ssg82
g3120
sg75
(lp3132
S':'
asbag68
(g89
g70
NtRp3133
(dp3134
g73
(dp3135
sg82
g3120
sg75
(lp3136
g68
(g69
g70
NtRp3137
(dp3138
g73
(dp3139
g81
I3
ssg82
g3133
sg75
(lp3140
g1853
asbasbasbag68
(g84
g70
NtRp3141
(dp3142
g73
(dp3143
sg82
g2843
sg75
(lp3144
g68
(g89
g70
NtRp3145
(dp3146
g73
(dp3147
g93
g94
ssg82
g3141
sg75
(lp3148
S'HTTP_USER_AGENT'
p3149
asbag68
(g89
g70
NtRp3150
(dp3151
g73
(dp3152
g100
g101
ssg82
g3141
sg75
(lp3153
S':'
asbag68
(g89
g70
NtRp3154
(dp3155
g73
(dp3156
sg82
g3141
sg75
(lp3157
g68
(g69
g70
NtRp3158
(dp3159
g73
(dp3160
g81
I3
ssg82
g3154
sg75
(lp3161
g1875
asbasbasbag68
(g84
g70
NtRp3162
(dp3163
g73
(dp3164
sg82
g2843
sg75
(lp3165
g68
(g89
g70
NtRp3166
(dp3167
g73
(dp3168
g93
g94
ssg82
g3162
sg75
(lp3169
S'PATH_INFO'
p3170
asbag68
(g89
g70
NtRp3171
(dp3172
g73
(dp3173
g100
g101
ssg82
g3162
sg75
(lp3174
S':'
asbag68
(g89
g70
NtRp3175
(dp3176
g73
(dp3177
sg82
g3162
sg75
(lp3178
g68
(g69
g70
NtRp3179
(dp3180
g73
(dp3181
g81
I3
ssg82
g3175
sg75
(lp3182
g1897
asbasbasbag68
(g84
g70
NtRp3183
(dp3184
g73
(dp3185
sg82
g2843
sg75
(lp3186
g68
(g89
g70
NtRp3187
(dp3188
g73
(dp3189
g93
g94
ssg82
g3183
sg75
(lp3190
S'QUERY_STRING'
p3191
asbag68
(g89
g70
NtRp3192
(dp3193
g73
(dp3194
g100
g101
ssg82
g3183
sg75
(lp3195
S':'
asbag68
(g89
g70
NtRp3196
(dp3197
g73
(dp3198
sg82
g3183
sg75
(lp3199
g68
(g69
g70
NtRp3200
(dp3201
g73
(dp3202
g81
I3
ssg82
g3196
sg75
(lp3203
S''
asbasbasbag68
(g84
g70
NtRp3204
(dp3205
g73
(dp3206
sg82
g2843
sg75
(lp3207
g68
(g89
g70
NtRp3208
(dp3209
g73
(dp3210
g93
g94
ssg82
g3204
sg75
(lp3211
S'REMOTE_ADDR'
p3212
asbag68
(g89
g70
NtRp3213
(dp3214
g73
(dp3215
g100
g101
ssg82
g3204
sg75
(lp3216
S':'
asbag68
(g89
g70
NtRp3217
(dp3218
g73
(dp3219
sg82
g3204
sg75
(lp3220
g68
(g69
g70
NtRp3221
(dp3222
g73
(dp3223
g81
I3
ssg82
g3217
sg75
(lp3224
g201
asbasbasbag68
(g84
g70
NtRp3225
(dp3226
g73
(dp3227
sg82
g2843
sg75
(lp3228
g68
(g89
g70
NtRp3229
(dp3230
g73
(dp3231
g93
g94
ssg82
g3225
sg75
(lp3232
S'REMOTE_PORT'
p3233
asbag68
(g89
g70
NtRp3234
(dp3235
g73
(dp3236
g100
g101
ssg82
g3225
sg75
(lp3237
S':'
asbag68
(g89
g70
NtRp3238
(dp3239
g73
(dp3240
sg82
g3225
sg75
(lp3241
g68
(g69
g70
NtRp3242
(dp3243
g73
(dp3244
g81
I3
ssg82
g3238
sg75
(lp3245
g1961
asbasbasbag68
(g84
g70
NtRp3246
(dp3247
g73
(dp3248
sg82
g2843
sg75
(lp3249
g68
(g89
g70
NtRp3250
(dp3251
g73
(dp3252
g93
g94
ssg82
g3246
sg75
(lp3253
S'REQUEST_METHOD'
p3254
asbag68
(g89
g70
NtRp3255
(dp3256
g73
(dp3257
g100
g101
ssg82
g3246
sg75
(lp3258
S':'
asbag68
(g89
g70
NtRp3259
(dp3260
g73
(dp3261
sg82
g3246
sg75
(lp3262
g68
(g69
g70
NtRp3263
(dp3264
g73
(dp3265
g81
I3
ssg82
g3259
sg75
(lp3266
g1983
asbasbasbag68
(g84
g70
NtRp3267
(dp3268
g73
(dp3269
sg82
g2843
sg75
(lp3270
g68
(g89
g70
NtRp3271
(dp3272
g73
(dp3273
g93
g94
ssg82
g3267
sg75
(lp3274
S'SCRIPT_NAME'
p3275
asbag68
(g89
g70
NtRp3276
(dp3277
g73
(dp3278
g100
g101
ssg82
g3267
sg75
(lp3279
S':'
asbag68
(g89
g70
NtRp3280
(dp3281
g73
(dp3282
sg82
g3267
sg75
(lp3283
g68
(g69
g70
NtRp3284
(dp3285
g73
(dp3286
g81
I3
ssg82
g3280
sg75
(lp3287
S''
asbasbasbag68
(g84
g70
NtRp3288
(dp3289
g73
(dp3290
sg82
g2843
sg75
(lp3291
g68
(g89
g70
NtRp3292
(dp3293
g73
(dp3294
g93
g94
ssg82
g3288
sg75
(lp3295
S'SERVER_NAME'
p3296
asbag68
(g89
g70
NtRp3297
(dp3298
g73
(dp3299
g100
g101
ssg82
g3288
sg75
(lp3300
S':'
asbag68
(g89
g70
NtRp3301
(dp3302
g73
(dp3303
sg82
g3288
sg75
(lp3304
g68
(g69
g70
NtRp3305
(dp3306
g73
(dp3307
g81
I3
ssg82
g3301
sg75
(lp3308
g2026
asbasbasbag68
(g84
g70
NtRp3309
(dp3310
g73
(dp3311
sg82
g2843
sg75
(lp3312
g68
(g89
g70
NtRp3313
(dp3314
g73
(dp3315
g93
g94
ssg82
g3309
sg75
(lp3316
S'SERVER_PORT'
p3317
asbag68
(g89
g70
NtRp3318
(dp3319
g73
(dp3320
g100
g101
ssg82
g3309
sg75
(lp3321
S':'
asbag68
(g89
g70
NtRp3322
(dp3323
g73
(dp3324
sg82
g3309
sg75
(lp3325
g68
(g69
g70
NtRp3326
(dp3327
g73
(dp3328
g81
I3
ssg82
g3322
sg75
(lp3329
g2048
asbasbasbag68
(g84
g70
NtRp3330
(dp3331
g73
(dp3332
sg82
g2843
sg75
(lp3333
g68
(g89
g70
NtRp3334
(dp3335
g73
(dp3336
g93
g94
ssg82
g3330
sg75
(lp3337
S'SERVER_PROTOCOL'
p3338
asbag68
(g89
g70
NtRp3339
(dp3340
g73
(dp3341
g100
g101
ssg82
g3330
sg75
(lp3342
S':'
asbag68
(g89
g70
NtRp3343
(dp3344
g73
(dp3345
sg82
g3330
sg75
(lp3346
g68
(g69
g70
NtRp3347
(dp3348
g73
(dp3349
g81
I3
ssg82
g3343
sg75
(lp3350
g2070
asbasbasbag68
(g84
g70
NtRp3351
(dp3352
g73
(dp3353
sg82
g2843
sg75
(lp3354
g68
(g89
g70
NtRp3355
(dp3356
g73
(dp3357
g93
g94
ssg82
g3351
sg75
(lp3358
S'SERVER_SOFTWARE'
p3359
asbag68
(g89
g70
NtRp3360
(dp3361
g73
(dp3362
g100
g101
ssg82
g3351
sg75
(lp3363
S':'
asbag68
(g89
g70
NtRp3364
(dp3365
g73
(dp3366
sg82
g3351
sg75
(lp3367
g68
(g69
g70
NtRp3368
(dp3369
g73
(dp3370
g81
I3
ssg82
g3364
sg75
(lp3371
g2092
asbasbasbag68
(g84
g70
NtRp3372
(dp3373
g73
(dp3374
sg82
g2843
sg75
(lp3375
g68
(g89
g70
NtRp3376
(dp3377
g73
(dp3378
g93
g94
ssg82
g3372
sg75
(lp3379
S'wsgi.errors'
p3380
asbag68
(g89
g70
NtRp3381
(dp3382
g73
(dp3383
g100
g101
ssg82
g3372
sg75
(lp3384
S':'
asbag68
(g89
g70
NtRp3385
(dp3386
g73
(dp3387
sg82
g3372
sg75
(lp3388
g68
(g69
g70
NtRp3389
(dp3390
g73
(dp3391
g81
I3
ssg82
g3385
sg75
(lp3392
S"<open file '<stderr>', mode 'w' at 0x100283270>"
p3393
asbasbasbag68
(g84
g70
NtRp3394
(dp3395
g73
(dp3396
sg82
g2843
sg75
(lp3397
g68
(g89
g70
NtRp3398
(dp3399
g73
(dp3400
g93
g94
ssg82
g3394
sg75
(lp3401
S'wsgi.file_wrapper'
p3402
asbag68
(g89
g70
NtRp3403
(dp3404
g73
(dp3405
g100
g101
ssg82
g3394
sg75
(lp3406
S':'
asbag68
(g89
g70
NtRp3407
(dp3408
g73
(dp3409
sg82
g3394
sg75
(lp3410
g68
(g69
g70
NtRp3411
(dp3412
g73
(dp3413
g81
I3
ssg82
g3407
sg75
(lp3414
S'<class gluon.rocket.FileWrapper at 0x101976ef0>'
p3415
asbasbasbag68
(g84
g70
NtRp3416
(dp3417
g73
(dp3418
sg82
g2843
sg75
(lp3419
g68
(g89
g70
NtRp3420
(dp3421
g73
(dp3422
g93
g94
ssg82
g3416
sg75
(lp3423
S'wsgi.input'
p3424
asbag68
(g89
g70
NtRp3425
(dp3426
g73
(dp3427
g100
g101
ssg82
g3416
sg75
(lp3428
S':'
asbag68
(g89
g70
NtRp3429
(dp3430
g73
(dp3431
sg82
g3416
sg75
(lp3432
g68
(g69
g70
NtRp3433
(dp3434
g73
(dp3435
g81
I3
ssg82
g3429
sg75
(lp3436
S"<open file '<fdopen>', mode 'w+b' at 0x101b55b70>"
p3437
asbasbasbag68
(g84
g70
NtRp3438
(dp3439
g73
(dp3440
sg82
g2843
sg75
(lp3441
g68
(g89
g70
NtRp3442
(dp3443
g73
(dp3444
g93
g94
ssg82
g3438
sg75
(lp3445
S'wsgi.multiprocess'
p3446
asbag68
(g89
g70
NtRp3447
(dp3448
g73
(dp3449
g100
g101
ssg82
g3438
sg75
(lp3450
S':'
asbag68
(g89
g70
NtRp3451
(dp3452
g73
(dp3453
sg82
g3438
sg75
(lp3454
g68
(g69
g70
NtRp3455
(dp3456
g73
(dp3457
g81
I3
ssg82
g3451
sg75
(lp3458
g111
asbasbasbag68
(g84
g70
NtRp3459
(dp3460
g73
(dp3461
sg82
g2843
sg75
(lp3462
g68
(g89
g70
NtRp3463
(dp3464
g73
(dp3465
g93
g94
ssg82
g3459
sg75
(lp3466
S'wsgi.multithread'
p3467
asbag68
(g89
g70
NtRp3468
(dp3469
g73
(dp3470
g100
g101
ssg82
g3459
sg75
(lp3471
S':'
asbag68
(g89
g70
NtRp3472
(dp3473
g73
(dp3474
sg82
g3459
sg75
(lp3475
g68
(g69
g70
NtRp3476
(dp3477
g73
(dp3478
g81
I3
ssg82
g3472
sg75
(lp3479
g2266
asbasbasbag68
(g84
g70
NtRp3480
(dp3481
g73
(dp3482
sg82
g2843
sg75
(lp3483
g68
(g89
g70
NtRp3484
(dp3485
g73
(dp3486
g93
g94
ssg82
g3480
sg75
(lp3487
S'wsgi.run_once'
p3488
asbag68
(g89
g70
NtRp3489
(dp3490
g73
(dp3491
g100
g101
ssg82
g3480
sg75
(lp3492
S':'
asbag68
(g89
g70
NtRp3493
(dp3494
g73
(dp3495
sg82
g3480
sg75
(lp3496
g68
(g69
g70
NtRp3497
(dp3498
g73
(dp3499
g81
I3
ssg82
g3493
sg75
(lp3500
g111
asbasbasbag68
(g84
g70
NtRp3501
(dp3502
g73
(dp3503
sg82
g2843
sg75
(lp3504
g68
(g89
g70
NtRp3505
(dp3506
g73
(dp3507
g93
g94
ssg82
g3501
sg75
(lp3508
S'wsgi.url_scheme'
p3509
asbag68
(g89
g70
NtRp3510
(dp3511
g73
(dp3512
g100
g101
ssg82
g3501
sg75
(lp3513
S':'
asbag68
(g89
g70
NtRp3514
(dp3515
g73
(dp3516
sg82
g3501
sg75
(lp3517
g68
(g69
g70
NtRp3518
(dp3519
g73
(dp3520
g81
I3
ssg82
g3514
sg75
(lp3521
g2309
asbasbasbag68
(g84
g70
NtRp3522
(dp3523
g73
(dp3524
sg82
g2843
sg75
(lp3525
g68
(g89
g70
NtRp3526
(dp3527
g73
(dp3528
g93
g94
ssg82
g3522
sg75
(lp3529
S'wsgi.version'
p3530
asbag68
(g89
g70
NtRp3531
(dp3532
g73
(dp3533
g100
g101
ssg82
g3522
sg75
(lp3534
S':'
asbag68
(g89
g70
NtRp3535
(dp3536
g73
(dp3537
sg82
g3522
sg75
(lp3538
g68
(g69
g70
NtRp3539
(dp3540
g73
(dp3541
g81
I3
ssg82
g3535
sg75
(lp3542
S'1'
asbasbasbasbasbasbasbasbasbasbasbasbasbsS'frames'
p3543
(lp3544
(dp3545
S'file'
p3546
S'/Users/schultzc/workspace/wherespuppet/web2py/gluon/restricted.py'
p3547
sS'dump'
p3548
(dp3549
S'environment'
p3550
S"{'A': <class 'gluon.html.A'>, 'B': <class 'gluon.html.B'>, 'BEAUTIFY': <class 'gluon.html.BEAUTIFY'>, 'BODY': <class 'gluon.html.BODY'>, 'BR': <class 'gluon.html.BR'>, 'BUTTON': <class 'gluon.html.BUTTON'>, 'CENTER': <class 'gluon.html.CENTER'>, 'CLEANUP': <class 'gluon.validators.CLEANUP'>, 'CODE': <class 'gluon.html.CODE'>, 'CRYPT': <class 'gluon.validators.CRYPT'>, ...}"
p3551
sS'ccode'
p3552
S'<code object <module> at 0x1066c44b0, file "/Use...applications/wp/controllers/default.py", line 11>'
p3553
ssS'lnum'
p3554
I192
sS'lines'
p3555
(dp3556
I192
S'        exec ccode in environment'
p3557
sI193
S'    except HTTP:'
p3558
sI194
S'        raise'
p3559
sI195
S'    except Exception:'
p3560
sI196
S'        # XXX Show exception in Wing IDE if running in debugger'
p3561
sI187
S'    try:'
p3562
sI188
S'        if type(code) == types.CodeType:'
p3563
sI189
S'            ccode = code'
p3564
sI190
S'        else:'
p3565
sI191
S'            ccode = compile2(code,layer)'
p3566
ssS'call'
p3567
S'(code="# -*- coding: utf-8 -*-\\n# this file is released ...())\\n\'\'\'\\n\\nresponse._vars=response._caller(submit)\\n", environment={\'A\': <class \'gluon.html.A\'>, \'B\': <class \'gluon.html.B\'>, \'BEAUTIFY\': <class \'gluon.html.BEAUTIFY\'>, \'BODY\': <class \'gluon.html.BODY\'>, \'BR\': <class \'gluon.html.BR\'>, \'BUTTON\': <class \'gluon.html.BUTTON\'>, \'CENTER\': <class \'gluon.html.CENTER\'>, \'CLEANUP\': <class \'gluon.validators.CLEANUP\'>, \'CODE\': <class \'gluon.html.CODE\'>, \'CRYPT\': <class \'gluon.validators.CRYPT\'>, ...}, layer=\'/Users/schultzc/workspace/wherespuppet/web2py/applications/wp/controllers/default.py\')'
p3568
sS'func'
p3569
S'restricted'
p3570
sa(dp3571
g3546
S'/Users/schultzc/workspace/wherespuppet/web2py/applications/wp/controllers/default.py'
p3572
sg3548
(dp3573
sg3554
I107
sg3555
(dp3574
I96
S'    http://..../[app]/default/data/delete/[table]/[id['
p3575
sI97
S'    http://..../[app]/default/data/select/[table]'
p3576
sI98
S'    http://..../[app]/default/data/search/[table]'
p3577
sI99
S'    but URLs bust be signed, i.e. linked with'
p3578
sI100
S"      A('table',_href=URL('data/tables',user_signature=True))"
p3579
sI101
S'    or with the signed load operator'
p3580
sI102
S"      LOAD('default','data.load',args='tables',ajax=True,user_signature=True)"
p3581
sI103
S'    """'
p3582
sI104
S'    return dict(form=crud())'
p3583
sI105
S"'''"
p3584
ssg3567
S'()'
p3585
sg3569
S'<module>'
p3586
sa(dp3587
g3546
S'/Users/schultzc/workspace/wherespuppet/web2py/gluon/globals.py'
p3588
sg3548
(dp3589
S'self'
p3590
S'undefined'
p3591
sS'f'
S'<function submit>'
p3592
ssg3554
I137
sg3555
(dp3593
I132
S"        self.flash = ''           # used by the default view layout"
p3594
sI133
S'        self.meta = Storage()     # used by web2py_ajax.html'
p3595
sI134
S'        self.menu = []            # used by the default view layout'
p3596
sI135
S'        self.files = []           # used by web2py_ajax.html'
p3597
sI136
S'        self._vars = None'
p3598
sI137
S'        self._caller = lambda f: f()'
p3599
sI138
S'        self._view_environment = None'
p3600
sI139
S'        self._custom_commit = None'
p3601
sI140
S'        self._custom_rollback = None'
p3602
sI141
S''
ssg3567
S'(f=<function submit>)'
p3603
sg3569
S'<lambda>'
p3604
sa(dp3605
g3546
S'/Users/schultzc/workspace/wherespuppet/web2py/applications/wp/controllers/default.py'
p3606
sg3548
(dp3607
S'global request'
p3608
S"<Storage {'is_local': True, 'function': 'submit'....02-14-39.b7bc31fd-d990-4822-9dc8-164cd3cfacee'}>"
p3609
sS'request.vars'
p3610
S"<Storage {'handle': 'f47h3r', 'title': 'fuckyea'...a539-c4b79ec6e10c', '_formname': 'image/create'}>"
p3611
sS'global session'
p3612
S"<Storage {'_formkey[image/create]': 'ec572661-cc..._hash': ';\\xde\\x03^\\xebMx\\xc80|\\xa3\\x99\\xf2,}t'}>"
p3613
sS'form'
p3614
S'<gluon.sqlhtml.SQLFORM object>'
p3615
sS'form.accepts'
p3616
S'<bound method SQLFORM.accepts of <gluon.sqlhtml.SQLFORM object>>'
p3617
ssg3554
I36
sg3555
(dp3618
I32
S'    else:'
p3619
sI33
S'        latitude = 0'
p3620
sI34
S'        longitude = 0'
p3621
sI35
S'        accuracy = 0'
p3622
sI36
S'    if form.accepts(request.vars, session):'
p3623
sI37
S"        response.flash = 'form accepted'"
p3624
sI38
S'    elif form.errors:'
p3625
sI39
S"        response.flash = 'form has errors'"
p3626
sI40
S'    else:'
p3627
sI31
S''
ssg3567
S'()'
p3628
sg3569
S'submit'
p3629
sa(dp3630
g3546
S'/Users/schultzc/workspace/wherespuppet/web2py/gluon/sqlhtml.py'
p3631
sg3548
(dp3632
S'self.vars.id'
p3633
S'None'
p3634
sS'fields'
p3635
S"{'accuracy': '24000', 'file': 'image.file.8b4b721642cea651.61726d6f726564696f2e6a7067.jpg', 'handle': 'f47h3r', 'latitude': '36.114646', 'location': 'vegas', 'longitude': '-115.172816', 'title': 'fuckyea'}"
p3636
sS'self'
p3637
S'<gluon.sqlhtml.SQLFORM object>'
p3638
sS'self.vars'
p3639
S"<Storage {'handle': 'f47h3r', 'title': 'fuckyea'...', 'latitude': '36.114646', 'accuracy': '24000'}>"
p3640
sS'self.table.insert'
p3641
S"<bound method Table.insert of <Table {'ALL': <gl... 'id': <gluon.dal.Field object at 0x10644f210>}>>"
p3642
sS'self.table'
p3643
S"<Table {'ALL': <gluon.dal.SQLALL object at 0x106..., 'id': <gluon.dal.Field object at 0x10644f210>}>"
p3644
ssg3554
I1205
sg3555
(dp3645
I1200
S'                if record_id:'
p3646
sI1201
S'                    self.vars.id = self.record.id'
p3647
sI1202
S'                    if fields:'
p3648
sI1203
S'                        self.table._db(self.table._id == self.record.id).update(**fields)'
p3649
sI1204
S'                else:'
p3650
sI1205
S'                    self.vars.id = self.table.insert(**fields)'
p3651
sI1206
S'        return ret'
p3652
sI1207
S''
sI1208
S'    @staticmethod'
p3653
sI1209
S'    def factory(*fields, **attributes):'
p3654
ssg3567
S"(self=<gluon.sqlhtml.SQLFORM object>, request_vars=<Storage {'handle': 'f47h3r', 'title': 'fuckyea'...a539-c4b79ec6e10c', '_formname': 'image/create'}>, session=<Storage {'_formkey[image/create]': 'ec572661-cc..._hash': ';\\xde\\x03^\\xebMx\\xc80|\\xa3\\x99\\xf2,}t'}>, formname='image/create', keepvalues=False, onvalidation=None, dbio=True, hideerror=False, detect_record_change=False)"
p3655
sg3569
S'accepts'
p3656
sa(dp3657
g3546
S'/Users/schultzc/workspace/wherespuppet/web2py/gluon/dal.py'
p3658
sg3548
(dp3659
S'self._listify'
p3660
S"<bound method Table._listify of <Table {'ALL': <... 'id': <gluon.dal.Field object at 0x10644f210>}>>"
p3661
sS'fields'
p3662
S"{'accuracy': '24000', 'file': 'image.file.8b4b721642cea651.61726d6f726564696f2e6a7067.jpg', 'handle': 'f47h3r', 'latitude': '36.114646', 'location': 'vegas', 'longitude': '-115.172816', 'title': 'fuckyea'}"
p3663
sS'self'
p3664
S"<Table {'ALL': <gluon.dal.SQLALL object at 0x106..., 'id': <gluon.dal.Field object at 0x10644f210>}>"
p3665
sS'self._db._adapter'
p3666
S'<gluon.dal.SQLiteAdapter object>'
p3667
sS'self._db._adapter.insert'
p3668
S'<bound method SQLiteAdapter.insert of <gluon.dal.SQLiteAdapter object>>'
p3669
sS'self._db'
p3670
S'<DAL {\'_migrate_enabled\': True, \'_lastsql\': "INS...\'_uri_hash\': \'fb87181b96a99be45f5a23f4277867ce\'}>'
p3671
ssg3554
I4703
sg3555
(dp3672
I4704
S''
sI4705
S'    def validate_and_insert(self,**fields):'
p3673
sI4706
S'        response = Row()'
p3674
sI4707
S'        response.errors = self._validate(**fields)'
p3675
sI4698
S''
sI4699
S'    def _insert(self, **fields):'
p3676
sI4700
S'        return self._db._adapter._insert(self,self._listify(fields))'
p3677
sI4701
S''
sI4702
S'    def insert(self, **fields):'
p3678
sI4703
S'        return self._db._adapter.insert(self,self._listify(fields))'
p3679
ssg3567
S"(self=<Table {'ALL': <gluon.dal.SQLALL object at 0x106..., 'id': <gluon.dal.Field object at 0x10644f210>}>, **fields={'accuracy': '24000', 'file': 'image.file.8b4b721642cea651.61726d6f726564696f2e6a7067.jpg', 'handle': 'f47h3r', 'latitude': '36.114646', 'location': 'vegas', 'longitude': '-115.172816', 'title': 'fuckyea'})"
p3680
sg3569
S'insert'
p3681
sa(dp3682
g3546
S'/Users/schultzc/workspace/wherespuppet/web2py/gluon/dal.py'
p3683
sg3548
(dp3684
S'builtinSyntaxError'
p3685
S"<type 'exceptions.SyntaxError'>"
p3686
sS'name'
p3687
S"'accuracy'"
p3688
ssg3554
I4679
sg3555
(dp3689
I4674
S'        new_fields = []'
p3690
sI4675
S'        new_fields_names = []'
p3691
sI4676
S'        for name in fields:'
p3692
sI4677
S'            if not name in self.fields:'
p3693
sI4678
S"                if name != 'id':"
p3694
sI4679
S"                    raise SyntaxError, 'Field %s does not belong to the table' % name"
p3695
sI4680
S'            else:'
p3696
sI4681
S'                new_fields.append((self[name],fields[name]))'
p3697
sI4682
S'                new_fields_names.append(name)'
p3698
sI4683
S'        for ofield in self:'
p3699
ssg3567
S"(self=<Table {'ALL': <gluon.dal.SQLALL object at 0x106..., 'id': <gluon.dal.Field object at 0x10644f210>}>, fields={'accuracy': '24000', 'file': 'image.file.8b4b721642cea651.61726d6f726564696f2e6a7067.jpg', 'handle': 'f47h3r', 'latitude': '36.114646', 'location': 'vegas', 'longitude': '-115.172816', 'title': 'fuckyea'}, update=False)"
p3700
sg3569
S'_listify'
p3701
sasS'pyver'
p3702
S'Python 2.7.2: /opt/local/Library/Frameworks/Python.framework/Versions/2.7/Resources/Python.app/Contents/MacOS/Python'
p3703
sS'session'
p3704
g68
(g69
g70
NtRp3705
(dp3706
g73
(dp3707
sg75
(lp3708
g68
(g77
g70
NtRp3709
(dp3710
g73
(dp3711
g81
I5
ssg82
Nsg75
(lp3712
g68
(g84
g70
NtRp3713
(dp3714
g73
(dp3715
sg82
g3709
sg75
(lp3716
g68
(g89
g70
NtRp3717
(dp3718
g73
(dp3719
g93
g94
ssg82
g3713
sg75
(lp3720
S'last_query'
p3721
asbag68
(g89
g70
NtRp3722
(dp3723
g73
(dp3724
g100
g101
ssg82
g3713
sg75
(lp3725
S':'
asbag68
(g89
g70
NtRp3726
(dp3727
g73
(dp3728
sg82
g3713
sg75
(lp3729
g68
(g69
g70
NtRp3730
(dp3731
g73
(dp3732
g81
I5
ssg82
g3726
sg75
(lp3733
S'db.image.id>0'
p3734
asbasbasbasbasbsS'etype'
p3735
S"<type 'exceptions.SyntaxError'>"
p3736
sS'date'
p3737
S'Sat Aug  6 02:14:39 2011'
p3738
sS'response'
p3739
g68
(g69
g70
NtRp3740
(dp3741
g73
(dp3742
sg75
(lp3743
g68
(g77
g70
NtRp3744
(dp3745
g73
(dp3746
g81
I5
ssg82
Nsg75
(lp3747
g68
(g84
g70
NtRp3748
(dp3749
g73
(dp3750
sg82
g3744
sg75
(lp3751
g68
(g89
g70
NtRp3752
(dp3753
g73
(dp3754
g93
g94
ssg82
g3748
sg75
(lp3755
g166
asbag68
(g89
g70
NtRp3756
(dp3757
g73
(dp3758
g100
g101
ssg82
g3748
sg75
(lp3759
S':'
asbag68
(g89
g70
NtRp3760
(dp3761
g73
(dp3762
sg82
g3748
sg75
(lp3763
g68
(g69
g70
NtRp3764
(dp3765
g73
(dp3766
g81
I5
ssg82
g3760
sg75
(lp3767
S'<cStringIO.StringO object at 0x1066d49d0>'
p3768
asbasbasbag68
(g84
g70
NtRp3769
(dp3770
g73
(dp3771
sg82
g3744
sg75
(lp3772
g68
(g89
g70
NtRp3773
(dp3774
g73
(dp3775
g93
g94
ssg82
g3769
sg75
(lp3776
g232
asbag68
(g89
g70
NtRp3777
(dp3778
g73
(dp3779
g100
g101
ssg82
g3769
sg75
(lp3780
S':'
asbag68
(g89
g70
NtRp3781
(dp3782
g73
(dp3783
sg82
g3769
sg75
(lp3784
g68
(g69
g70
NtRp3785
(dp3786
g73
(dp3787
g81
I5
ssg82
g3781
sg75
(lp3788
g68
(g77
g70
NtRp3789
(dp3790
g73
(dp3791
g81
I4
ssg82
Nsg75
(lp3792
g68
(g84
g70
NtRp3793
(dp3794
g73
(dp3795
sg82
g3789
sg75
(lp3796
g68
(g89
g70
NtRp3797
(dp3798
g73
(dp3799
g93
g94
ssg82
g3793
sg75
(lp3800
S'session_id_wp'
p3801
asbag68
(g89
g70
NtRp3802
(dp3803
g73
(dp3804
g100
g101
ssg82
g3793
sg75
(lp3805
S':'
asbag68
(g89
g70
NtRp3806
(dp3807
g73
(dp3808
sg82
g3793
sg75
(lp3809
g68
(g69
g70
NtRp3810
(dp3811
g73
(dp3812
g81
I4
ssg82
g3806
sg75
(lp3813
g68
(g77
g70
NtRp3814
(dp3815
g73
(dp3816
g81
I3
ssg82
Nsg75
(lp3817
g68
(g84
g70
NtRp3818
(dp3819
g73
(dp3820
sg82
g3814
sg75
(lp3821
g68
(g89
g70
NtRp3822
(dp3823
g73
(dp3824
g93
g94
ssg82
g3818
sg75
(lp3825
g282
asbag68
(g89
g70
NtRp3826
(dp3827
g73
(dp3828
g100
g101
ssg82
g3818
sg75
(lp3829
S':'
asbag68
(g89
g70
NtRp3830
(dp3831
g73
(dp3832
sg82
g3818
sg75
(lp3833
g68
(g69
g70
NtRp3834
(dp3835
g73
(dp3836
g81
I3
ssg82
g3830
sg75
(lp3837
S''
asbasbasbag68
(g84
g70
NtRp3838
(dp3839
g73
(dp3840
sg82
g3814
sg75
(lp3841
g68
(g89
g70
NtRp3842
(dp3843
g73
(dp3844
g93
g94
ssg82
g3838
sg75
(lp3845
g303
asbag68
(g89
g70
NtRp3846
(dp3847
g73
(dp3848
g100
g101
ssg82
g3838
sg75
(lp3849
S':'
asbag68
(g89
g70
NtRp3850
(dp3851
g73
(dp3852
sg82
g3838
sg75
(lp3853
g68
(g69
g70
NtRp3854
(dp3855
g73
(dp3856
g81
I3
ssg82
g3850
sg75
(lp3857
S''
asbasbasbag68
(g84
g70
NtRp3858
(dp3859
g73
(dp3860
sg82
g3814
sg75
(lp3861
g68
(g89
g70
NtRp3862
(dp3863
g73
(dp3864
g93
g94
ssg82
g3858
sg75
(lp3865
g324
asbag68
(g89
g70
NtRp3866
(dp3867
g73
(dp3868
g100
g101
ssg82
g3858
sg75
(lp3869
S':'
asbag68
(g89
g70
NtRp3870
(dp3871
g73
(dp3872
sg82
g3858
sg75
(lp3873
g68
(g69
g70
NtRp3874
(dp3875
g73
(dp3876
g81
I3
ssg82
g3870
sg75
(lp3877
S''
asbasbasbag68
(g84
g70
NtRp3878
(dp3879
g73
(dp3880
sg82
g3814
sg75
(lp3881
g68
(g89
g70
NtRp3882
(dp3883
g73
(dp3884
g93
g94
ssg82
g3878
sg75
(lp3885
g345
asbag68
(g89
g70
NtRp3886
(dp3887
g73
(dp3888
g100
g101
ssg82
g3878
sg75
(lp3889
S':'
asbag68
(g89
g70
NtRp3890
(dp3891
g73
(dp3892
sg82
g3878
sg75
(lp3893
g68
(g69
g70
NtRp3894
(dp3895
g73
(dp3896
g81
I3
ssg82
g3890
sg75
(lp3897
S''
asbasbasbag68
(g84
g70
NtRp3898
(dp3899
g73
(dp3900
sg82
g3814
sg75
(lp3901
g68
(g89
g70
NtRp3902
(dp3903
g73
(dp3904
g93
g94
ssg82
g3898
sg75
(lp3905
g366
asbag68
(g89
g70
NtRp3906
(dp3907
g73
(dp3908
g100
g101
ssg82
g3898
sg75
(lp3909
S':'
asbag68
(g89
g70
NtRp3910
(dp3911
g73
(dp3912
sg82
g3898
sg75
(lp3913
g68
(g69
g70
NtRp3914
(dp3915
g73
(dp3916
g81
I3
ssg82
g3910
sg75
(lp3917
S''
asbasbasbag68
(g84
g70
NtRp3918
(dp3919
g73
(dp3920
sg82
g3814
sg75
(lp3921
g68
(g89
g70
NtRp3922
(dp3923
g73
(dp3924
g93
g94
ssg82
g3918
sg75
(lp3925
g387
asbag68
(g89
g70
NtRp3926
(dp3927
g73
(dp3928
g100
g101
ssg82
g3918
sg75
(lp3929
S':'
asbag68
(g89
g70
NtRp3930
(dp3931
g73
(dp3932
sg82
g3918
sg75
(lp3933
g68
(g69
g70
NtRp3934
(dp3935
g73
(dp3936
g81
I3
ssg82
g3930
sg75
(lp3937
S'/'
asbasbasbag68
(g84
g70
NtRp3938
(dp3939
g73
(dp3940
sg82
g3814
sg75
(lp3941
g68
(g89
g70
NtRp3942
(dp3943
g73
(dp3944
g93
g94
ssg82
g3938
sg75
(lp3945
g408
asbag68
(g89
g70
NtRp3946
(dp3947
g73
(dp3948
g100
g101
ssg82
g3938
sg75
(lp3949
S':'
asbag68
(g89
g70
NtRp3950
(dp3951
g73
(dp3952
sg82
g3938
sg75
(lp3953
g68
(g69
g70
NtRp3954
(dp3955
g73
(dp3956
g81
I3
ssg82
g3950
sg75
(lp3957
S''
asbasbasbag68
(g84
g70
NtRp3958
(dp3959
g73
(dp3960
sg82
g3814
sg75
(lp3961
g68
(g89
g70
NtRp3962
(dp3963
g73
(dp3964
g93
g94
ssg82
g3958
sg75
(lp3965
g429
asbag68
(g89
g70
NtRp3966
(dp3967
g73
(dp3968
g100
g101
ssg82
g3958
sg75
(lp3969
S':'
asbag68
(g89
g70
NtRp3970
(dp3971
g73
(dp3972
sg82
g3958
sg75
(lp3973
g68
(g69
g70
NtRp3974
(dp3975
g73
(dp3976
g81
I3
ssg82
g3970
sg75
(lp3977
S''
asbasbasbasbasbasbasbasbasbasbasbag68
(g84
g70
NtRp3978
(dp3979
g73
(dp3980
sg82
g3744
sg75
(lp3981
g68
(g89
g70
NtRp3982
(dp3983
g73
(dp3984
g93
g94
ssg82
g3978
sg75
(lp3985
S'files'
p3986
asbag68
(g89
g70
NtRp3987
(dp3988
g73
(dp3989
g100
g101
ssg82
g3978
sg75
(lp3990
S':'
asbag68
(g89
g70
NtRp3991
(dp3992
g73
(dp3993
sg82
g3978
sg75
(lp3994
g68
(g69
g70
NtRp3995
(dp3996
g73
(dp3997
g81
I5
ssg82
g3991
sg75
(lp3998
g68
(g77
g70
NtRp3999
(dp4000
g73
(dp4001
g81
I4
ssg82
Nsg75
(lp4002
sbasbasbasbag68
(g84
g70
NtRp4003
(dp4004
g73
(dp4005
sg82
g3744
sg75
(lp4006
g68
(g89
g70
NtRp4007
(dp4008
g73
(dp4009
g93
g94
ssg82
g4003
sg75
(lp4010
S'flash'
p4011
asbag68
(g89
g70
NtRp4012
(dp4013
g73
(dp4014
g100
g101
ssg82
g4003
sg75
(lp4015
S':'
asbag68
(g89
g70
NtRp4016
(dp4017
g73
(dp4018
sg82
g4003
sg75
(lp4019
g68
(g69
g70
NtRp4020
(dp4021
g73
(dp4022
g81
I5
ssg82
g4016
sg75
(lp4023
S''
asbasbasbag68
(g84
g70
NtRp4024
(dp4025
g73
(dp4026
sg82
g3744
sg75
(lp4027
g68
(g89
g70
NtRp4028
(dp4029
g73
(dp4030
g93
g94
ssg82
g4024
sg75
(lp4031
S'headers'
p4032
asbag68
(g89
g70
NtRp4033
(dp4034
g73
(dp4035
g100
g101
ssg82
g4024
sg75
(lp4036
S':'
asbag68
(g89
g70
NtRp4037
(dp4038
g73
(dp4039
sg82
g4024
sg75
(lp4040
g68
(g69
g70
NtRp4041
(dp4042
g73
(dp4043
g81
I5
ssg82
g4037
sg75
(lp4044
g68
(g77
g70
NtRp4045
(dp4046
g73
(dp4047
g81
I4
ssg82
Nsg75
(lp4048
g68
(g84
g70
NtRp4049
(dp4050
g73
(dp4051
sg82
g4045
sg75
(lp4052
g68
(g89
g70
NtRp4053
(dp4054
g73
(dp4055
g93
g94
ssg82
g4049
sg75
(lp4056
S'Cache-Control'
p4057
asbag68
(g89
g70
NtRp4058
(dp4059
g73
(dp4060
g100
g101
ssg82
g4049
sg75
(lp4061
S':'
asbag68
(g89
g70
NtRp4062
(dp4063
g73
(dp4064
sg82
g4049
sg75
(lp4065
g68
(g69
g70
NtRp4066
(dp4067
g73
(dp4068
g81
I4
ssg82
g4062
sg75
(lp4069
S'no-store, no-cache, must-revalidate, post-check=0, pre-check=0'
p4070
asbasbasbag68
(g84
g70
NtRp4071
(dp4072
g73
(dp4073
sg82
g4045
sg75
(lp4074
g68
(g89
g70
NtRp4075
(dp4076
g73
(dp4077
g93
g94
ssg82
g4071
sg75
(lp4078
S'Content-Type'
p4079
asbag68
(g89
g70
NtRp4080
(dp4081
g73
(dp4082
g100
g101
ssg82
g4071
sg75
(lp4083
S':'
asbag68
(g89
g70
NtRp4084
(dp4085
g73
(dp4086
sg82
g4071
sg75
(lp4087
g68
(g69
g70
NtRp4088
(dp4089
g73
(dp4090
g81
I4
ssg82
g4084
sg75
(lp4091
S'text/html; charset=utf-8'
p4092
asbasbasbag68
(g84
g70
NtRp4093
(dp4094
g73
(dp4095
sg82
g4045
sg75
(lp4096
g68
(g89
g70
NtRp4097
(dp4098
g73
(dp4099
g93
g94
ssg82
g4093
sg75
(lp4100
S'Expires'
p4101
asbag68
(g89
g70
NtRp4102
(dp4103
g73
(dp4104
g100
g101
ssg82
g4093
sg75
(lp4105
S':'
asbag68
(g89
g70
NtRp4106
(dp4107
g73
(dp4108
sg82
g4093
sg75
(lp4109
g68
(g69
g70
NtRp4110
(dp4111
g73
(dp4112
g81
I4
ssg82
g4106
sg75
(lp4113
S'Sat, 06 Aug 2011 09:14:39 GMT'
p4114
asbasbasbag68
(g84
g70
NtRp4115
(dp4116
g73
(dp4117
sg82
g4045
sg75
(lp4118
g68
(g89
g70
NtRp4119
(dp4120
g73
(dp4121
g93
g94
ssg82
g4115
sg75
(lp4122
S'Pragma'
p4123
asbag68
(g89
g70
NtRp4124
(dp4125
g73
(dp4126
g100
g101
ssg82
g4115
sg75
(lp4127
S':'
asbag68
(g89
g70
NtRp4128
(dp4129
g73
(dp4130
sg82
g4115
sg75
(lp4131
g68
(g69
g70
NtRp4132
(dp4133
g73
(dp4134
g81
I4
ssg82
g4128
sg75
(lp4135
S'no-cache'
p4136
asbasbasbag68
(g84
g70
NtRp4137
(dp4138
g73
(dp4139
sg82
g4045
sg75
(lp4140
g68
(g89
g70
NtRp4141
(dp4142
g73
(dp4143
g93
g94
ssg82
g4137
sg75
(lp4144
S'X-Powered-By'
p4145
asbag68
(g89
g70
NtRp4146
(dp4147
g73
(dp4148
g100
g101
ssg82
g4137
sg75
(lp4149
S':'
asbag68
(g89
g70
NtRp4150
(dp4151
g73
(dp4152
sg82
g4137
sg75
(lp4153
g68
(g69
g70
NtRp4154
(dp4155
g73
(dp4156
g81
I4
ssg82
g4150
sg75
(lp4157
S'web2py'
p4158
asbasbasbasbasbasbasbag68
(g84
g70
NtRp4159
(dp4160
g73
(dp4161
sg82
g3744
sg75
(lp4162
g68
(g89
g70
NtRp4163
(dp4164
g73
(dp4165
g93
g94
ssg82
g4159
sg75
(lp4166
S'menu'
p4167
asbag68
(g89
g70
NtRp4168
(dp4169
g73
(dp4170
g100
g101
ssg82
g4159
sg75
(lp4171
S':'
asbag68
(g89
g70
NtRp4172
(dp4173
g73
(dp4174
sg82
g4159
sg75
(lp4175
g68
(g69
g70
NtRp4176
(dp4177
g73
(dp4178
g81
I5
ssg82
g4172
sg75
(lp4179
g68
(g77
g70
NtRp4180
(dp4181
g73
(dp4182
g81
I4
ssg82
Nsg75
(lp4183
g68
(g84
g70
NtRp4184
(dp4185
g73
(dp4186
sg82
g4180
sg75
(lp4187
g68
(g89
g70
NtRp4188
(dp4189
g73
(dp4190
sg82
g4184
sg75
(lp4191
g68
(g69
g70
NtRp4192
(dp4193
g73
(dp4194
g81
I4
ssg82
g4188
sg75
(lp4195
g68
(g77
g70
NtRp4196
(dp4197
g73
(dp4198
g81
I3
ssg82
Nsg75
(lp4199
g68
(g84
g70
NtRp4200
(dp4201
g73
(dp4202
sg82
g4196
sg75
(lp4203
g68
(g89
g70
NtRp4204
(dp4205
g73
(dp4206
sg82
g4200
sg75
(lp4207
g68
(g69
g70
NtRp4208
(dp4209
g73
(dp4210
g81
I3
ssg82
g4204
sg75
(lp4211
cgluon.languages
lazyT_unpickle
p4212
(S't\x04\x00\x00\x00Home'
tRp4213
asbasbasbag68
(g84
g70
NtRp4214
(dp4215
g73
(dp4216
sg82
g4196
sg75
(lp4217
g68
(g89
g70
NtRp4218
(dp4219
g73
(dp4220
sg82
g4214
sg75
(lp4221
g68
(g69
g70
NtRp4222
(dp4223
g73
(dp4224
g81
I3
ssg82
g4218
sg75
(lp4225
g111
asbasbasbag68
(g84
g70
NtRp4226
(dp4227
g73
(dp4228
sg82
g4196
sg75
(lp4229
g68
(g89
g70
NtRp4230
(dp4231
g73
(dp4232
sg82
g4226
sg75
(lp4233
g68
(g69
g70
NtRp4234
(dp4235
g73
(dp4236
g81
I3
ssg82
g4230
sg75
(lp4237
S'/wp/default/index'
p4238
asbasbasbag68
(g84
g70
NtRp4239
(dp4240
g73
(dp4241
sg82
g4196
sg75
(lp4242
g68
(g89
g70
NtRp4243
(dp4244
g73
(dp4245
sg82
g4239
sg75
(lp4246
g68
(g69
g70
NtRp4247
(dp4248
g73
(dp4249
g81
I3
ssg82
g4243
sg75
(lp4250
g68
(g77
g70
NtRp4251
(dp4252
g73
(dp4253
g81
I2
ssg82
Nsg75
(lp4254
sbasbasbasbasbasbasbasbag68
(g84
g70
NtRp4255
(dp4256
g73
(dp4257
sg82
g4180
sg75
(lp4258
g68
(g89
g70
NtRp4259
(dp4260
g73
(dp4261
sg82
g4255
sg75
(lp4262
g68
(g69
g70
NtRp4263
(dp4264
g73
(dp4265
g81
I4
ssg82
g4259
sg75
(lp4266
g68
(g77
g70
NtRp4267
(dp4268
g73
(dp4269
g81
I3
ssg82
Nsg75
(lp4270
g68
(g84
g70
NtRp4271
(dp4272
g73
(dp4273
sg82
g4267
sg75
(lp4274
g68
(g89
g70
NtRp4275
(dp4276
g73
(dp4277
sg82
g4271
sg75
(lp4278
g68
(g69
g70
NtRp4279
(dp4280
g73
(dp4281
g81
I3
ssg82
g4275
sg75
(lp4282
g4212
(S's\x08\x00\x00\x00This App'
tRp4283
asbasbasbag68
(g84
g70
NtRp4284
(dp4285
g73
(dp4286
sg82
g4267
sg75
(lp4287
g68
(g89
g70
NtRp4288
(dp4289
g73
(dp4290
sg82
g4284
sg75
(lp4291
g68
(g69
g70
NtRp4292
(dp4293
g73
(dp4294
g81
I3
ssg82
g4288
sg75
(lp4295
g111
asbasbasbag68
(g84
g70
NtRp4296
(dp4297
g73
(dp4298
sg82
g4267
sg75
(lp4299
g68
(g89
g70
NtRp4300
(dp4301
g73
(dp4302
sg82
g4296
sg75
(lp4303
g68
(g69
g70
NtRp4304
(dp4305
g73
(dp4306
g81
I3
ssg82
g4300
sg75
(lp4307
S'/admin/default/design/wp'
p4308
asbasbasbag68
(g84
g70
NtRp4309
(dp4310
g73
(dp4311
sg82
g4267
sg75
(lp4312
g68
(g89
g70
NtRp4313
(dp4314
g73
(dp4315
sg82
g4309
sg75
(lp4316
g68
(g69
g70
NtRp4317
(dp4318
g73
(dp4319
g81
I3
ssg82
g4313
sg75
(lp4320
g68
(g77
g70
NtRp4321
(dp4322
g73
(dp4323
g81
I2
ssg82
Nsg75
(lp4324
g68
(g84
g70
NtRp4325
(dp4326
g73
(dp4327
sg82
g4321
sg75
(lp4328
g68
(g89
g70
NtRp4329
(dp4330
g73
(dp4331
sg82
g4325
sg75
(lp4332
g68
(g69
g70
NtRp4333
(dp4334
g73
(dp4335
g81
I2
ssg82
g4329
sg75
(lp4336
g68
(g77
g70
NtRp4337
(dp4338
g73
(dp4339
g81
I1
ssg82
Nsg75
(lp4340
g68
(g84
g70
NtRp4341
(dp4342
g73
(dp4343
sg82
g4337
sg75
(lp4344
g68
(g89
g70
NtRp4345
(dp4346
g73
(dp4347
sg82
g4341
sg75
(lp4348
g68
(g69
g70
NtRp4349
(dp4350
g73
(dp4351
g81
I1
ssg82
g4345
sg75
(lp4352
g4212
(S't\n\x00\x00\x00Controller'
tRp4353
asbasbasbag68
(g84
g70
NtRp4354
(dp4355
g73
(dp4356
sg82
g4337
sg75
(lp4357
g68
(g89
g70
NtRp4358
(dp4359
g73
(dp4360
sg82
g4354
sg75
(lp4361
g68
(g69
g70
NtRp4362
(dp4363
g73
(dp4364
g81
I1
ssg82
g4358
sg75
(lp4365
I00
asbasbasbag68
(g84
g70
NtRp4366
(dp4367
g73
(dp4368
sg82
g4337
sg75
(lp4369
g68
(g89
g70
NtRp4370
(dp4371
g73
(dp4372
sg82
g4366
sg75
(lp4373
g68
(g69
g70
NtRp4374
(dp4375
g73
(dp4376
g81
I1
ssg82
g4370
sg75
(lp4377
S'/admin/default/edit/wp/controllers/default.py'
p4378
asbasbasbasbasbasbasbag68
(g84
g70
NtRp4379
(dp4380
g73
(dp4381
sg82
g4321
sg75
(lp4382
g68
(g89
g70
NtRp4383
(dp4384
g73
(dp4385
sg82
g4379
sg75
(lp4386
g68
(g69
g70
NtRp4387
(dp4388
g73
(dp4389
g81
I2
ssg82
g4383
sg75
(lp4390
g68
(g77
g70
NtRp4391
(dp4392
g73
(dp4393
g81
I1
ssg82
Nsg75
(lp4394
g68
(g84
g70
NtRp4395
(dp4396
g73
(dp4397
sg82
g4391
sg75
(lp4398
g68
(g89
g70
NtRp4399
(dp4400
g73
(dp4401
sg82
g4395
sg75
(lp4402
g68
(g69
g70
NtRp4403
(dp4404
g73
(dp4405
g81
I1
ssg82
g4399
sg75
(lp4406
g4212
(S't\x04\x00\x00\x00View'
tRp4407
asbasbasbag68
(g84
g70
NtRp4408
(dp4409
g73
(dp4410
sg82
g4391
sg75
(lp4411
g68
(g89
g70
NtRp4412
(dp4413
g73
(dp4414
sg82
g4408
sg75
(lp4415
g68
(g69
g70
NtRp4416
(dp4417
g73
(dp4418
g81
I1
ssg82
g4412
sg75
(lp4419
I00
asbasbasbag68
(g84
g70
NtRp4420
(dp4421
g73
(dp4422
sg82
g4391
sg75
(lp4423
g68
(g89
g70
NtRp4424
(dp4425
g73
(dp4426
sg82
g4420
sg75
(lp4427
g68
(g69
g70
NtRp4428
(dp4429
g73
(dp4430
g81
I1
ssg82
g4424
sg75
(lp4431
S'/admin/default/edit/wp/views/default/submit.html'
p4432
asbasbasbasbasbasbasbag68
(g84
g70
NtRp4433
(dp4434
g73
(dp4435
sg82
g4321
sg75
(lp4436
g68
(g89
g70
NtRp4437
(dp4438
g73
(dp4439
sg82
g4433
sg75
(lp4440
g68
(g69
g70
NtRp4441
(dp4442
g73
(dp4443
g81
I2
ssg82
g4437
sg75
(lp4444
g68
(g77
g70
NtRp4445
(dp4446
g73
(dp4447
g81
I1
ssg82
Nsg75
(lp4448
g68
(g84
g70
NtRp4449
(dp4450
g73
(dp4451
sg82
g4445
sg75
(lp4452
g68
(g89
g70
NtRp4453
(dp4454
g73
(dp4455
sg82
g4449
sg75
(lp4456
g68
(g69
g70
NtRp4457
(dp4458
g73
(dp4459
g81
I1
ssg82
g4453
sg75
(lp4460
g4212
(S't\x06\x00\x00\x00Layout'
tRp4461
asbasbasbag68
(g84
g70
NtRp4462
(dp4463
g73
(dp4464
sg82
g4445
sg75
(lp4465
g68
(g89
g70
NtRp4466
(dp4467
g73
(dp4468
sg82
g4462
sg75
(lp4469
g68
(g69
g70
NtRp4470
(dp4471
g73
(dp4472
g81
I1
ssg82
g4466
sg75
(lp4473
I00
asbasbasbag68
(g84
g70
NtRp4474
(dp4475
g73
(dp4476
sg82
g4445
sg75
(lp4477
g68
(g89
g70
NtRp4478
(dp4479
g73
(dp4480
sg82
g4474
sg75
(lp4481
g68
(g69
g70
NtRp4482
(dp4483
g73
(dp4484
g81
I1
ssg82
g4478
sg75
(lp4485
S'/admin/default/edit/wp/views/layout.html'
p4486
asbasbasbasbasbasbasbag68
(g84
g70
NtRp4487
(dp4488
g73
(dp4489
sg82
g4321
sg75
(lp4490
g68
(g89
g70
NtRp4491
(dp4492
g73
(dp4493
sg82
g4487
sg75
(lp4494
g68
(g69
g70
NtRp4495
(dp4496
g73
(dp4497
g81
I2
ssg82
g4491
sg75
(lp4498
g68
(g77
g70
NtRp4499
(dp4500
g73
(dp4501
g81
I1
ssg82
Nsg75
(lp4502
g68
(g84
g70
NtRp4503
(dp4504
g73
(dp4505
sg82
g4499
sg75
(lp4506
g68
(g89
g70
NtRp4507
(dp4508
g73
(dp4509
sg82
g4503
sg75
(lp4510
g68
(g69
g70
NtRp4511
(dp4512
g73
(dp4513
g81
I1
ssg82
g4507
sg75
(lp4514
g4212
(S't\n\x00\x00\x00Stylesheet'
tRp4515
asbasbasbag68
(g84
g70
NtRp4516
(dp4517
g73
(dp4518
sg82
g4499
sg75
(lp4519
g68
(g89
g70
NtRp4520
(dp4521
g73
(dp4522
sg82
g4516
sg75
(lp4523
g68
(g69
g70
NtRp4524
(dp4525
g73
(dp4526
g81
I1
ssg82
g4520
sg75
(lp4527
I00
asbasbasbag68
(g84
g70
NtRp4528
(dp4529
g73
(dp4530
sg82
g4499
sg75
(lp4531
g68
(g89
g70
NtRp4532
(dp4533
g73
(dp4534
sg82
g4528
sg75
(lp4535
g68
(g69
g70
NtRp4536
(dp4537
g73
(dp4538
g81
I1
ssg82
g4532
sg75
(lp4539
S'/admin/default/edit/wp/static/base.css'
p4540
asbasbasbasbasbasbasbag68
(g84
g70
NtRp4541
(dp4542
g73
(dp4543
sg82
g4321
sg75
(lp4544
g68
(g89
g70
NtRp4545
(dp4546
g73
(dp4547
sg82
g4541
sg75
(lp4548
g68
(g69
g70
NtRp4549
(dp4550
g73
(dp4551
g81
I2
ssg82
g4545
sg75
(lp4552
g68
(g77
g70
NtRp4553
(dp4554
g73
(dp4555
g81
I1
ssg82
Nsg75
(lp4556
g68
(g84
g70
NtRp4557
(dp4558
g73
(dp4559
sg82
g4553
sg75
(lp4560
g68
(g89
g70
NtRp4561
(dp4562
g73
(dp4563
sg82
g4557
sg75
(lp4564
g68
(g69
g70
NtRp4565
(dp4566
g73
(dp4567
g81
I1
ssg82
g4561
sg75
(lp4568
g4212
(S's\x08\x00\x00\x00DB Model'
tRp4569
asbasbasbag68
(g84
g70
NtRp4570
(dp4571
g73
(dp4572
sg82
g4553
sg75
(lp4573
g68
(g89
g70
NtRp4574
(dp4575
g73
(dp4576
sg82
g4570
sg75
(lp4577
g68
(g69
g70
NtRp4578
(dp4579
g73
(dp4580
g81
I1
ssg82
g4574
sg75
(lp4581
I00
asbasbasbag68
(g84
g70
NtRp4582
(dp4583
g73
(dp4584
sg82
g4553
sg75
(lp4585
g68
(g89
g70
NtRp4586
(dp4587
g73
(dp4588
sg82
g4582
sg75
(lp4589
g68
(g69
g70
NtRp4590
(dp4591
g73
(dp4592
g81
I1
ssg82
g4586
sg75
(lp4593
S'/admin/default/edit/wp/models/db.py'
p4594
asbasbasbasbasbasbasbag68
(g84
g70
NtRp4595
(dp4596
g73
(dp4597
sg82
g4321
sg75
(lp4598
g68
(g89
g70
NtRp4599
(dp4600
g73
(dp4601
sg82
g4595
sg75
(lp4602
g68
(g69
g70
NtRp4603
(dp4604
g73
(dp4605
g81
I2
ssg82
g4599
sg75
(lp4606
g68
(g77
g70
NtRp4607
(dp4608
g73
(dp4609
g81
I1
ssg82
Nsg75
(lp4610
g68
(g84
g70
NtRp4611
(dp4612
g73
(dp4613
sg82
g4607
sg75
(lp4614
g68
(g89
g70
NtRp4615
(dp4616
g73
(dp4617
sg82
g4611
sg75
(lp4618
g68
(g69
g70
NtRp4619
(dp4620
g73
(dp4621
g81
I1
ssg82
g4615
sg75
(lp4622
g4212
(S's\n\x00\x00\x00Menu Model'
tRp4623
asbasbasbag68
(g84
g70
NtRp4624
(dp4625
g73
(dp4626
sg82
g4607
sg75
(lp4627
g68
(g89
g70
NtRp4628
(dp4629
g73
(dp4630
sg82
g4624
sg75
(lp4631
g68
(g69
g70
NtRp4632
(dp4633
g73
(dp4634
g81
I1
ssg82
g4628
sg75
(lp4635
I00
asbasbasbag68
(g84
g70
NtRp4636
(dp4637
g73
(dp4638
sg82
g4607
sg75
(lp4639
g68
(g89
g70
NtRp4640
(dp4641
g73
(dp4642
sg82
g4636
sg75
(lp4643
g68
(g69
g70
NtRp4644
(dp4645
g73
(dp4646
g81
I1
ssg82
g4640
sg75
(lp4647
S'/admin/default/edit/wp/models/menu.py'
p4648
asbasbasbasbasbasbasbag68
(g84
g70
NtRp4649
(dp4650
g73
(dp4651
sg82
g4321
sg75
(lp4652
g68
(g89
g70
NtRp4653
(dp4654
g73
(dp4655
sg82
g4649
sg75
(lp4656
g68
(g69
g70
NtRp4657
(dp4658
g73
(dp4659
g81
I2
ssg82
g4653
sg75
(lp4660
g68
(g77
g70
NtRp4661
(dp4662
g73
(dp4663
g81
I1
ssg82
Nsg75
(lp4664
g68
(g84
g70
NtRp4665
(dp4666
g73
(dp4667
sg82
g4661
sg75
(lp4668
g68
(g89
g70
NtRp4669
(dp4670
g73
(dp4671
sg82
g4665
sg75
(lp4672
g68
(g69
g70
NtRp4673
(dp4674
g73
(dp4675
g81
I1
ssg82
g4669
sg75
(lp4676
g4212
(S't\x08\x00\x00\x00Database'
tRp4677
asbasbasbag68
(g84
g70
NtRp4678
(dp4679
g73
(dp4680
sg82
g4661
sg75
(lp4681
g68
(g89
g70
NtRp4682
(dp4683
g73
(dp4684
sg82
g4678
sg75
(lp4685
g68
(g69
g70
NtRp4686
(dp4687
g73
(dp4688
g81
I1
ssg82
g4682
sg75
(lp4689
I00
asbasbasbag68
(g84
g70
NtRp4690
(dp4691
g73
(dp4692
sg82
g4661
sg75
(lp4693
g68
(g89
g70
NtRp4694
(dp4695
g73
(dp4696
sg82
g4690
sg75
(lp4697
g68
(g69
g70
NtRp4698
(dp4699
g73
(dp4700
g81
I1
ssg82
g4694
sg75
(lp4701
S'/wp/appadmin/index'
p4702
asbasbasbasbasbasbasbag68
(g84
g70
NtRp4703
(dp4704
g73
(dp4705
sg82
g4321
sg75
(lp4706
g68
(g89
g70
NtRp4707
(dp4708
g73
(dp4709
sg82
g4703
sg75
(lp4710
g68
(g69
g70
NtRp4711
(dp4712
g73
(dp4713
g81
I2
ssg82
g4707
sg75
(lp4714
g68
(g77
g70
NtRp4715
(dp4716
g73
(dp4717
g81
I1
ssg82
Nsg75
(lp4718
g68
(g84
g70
NtRp4719
(dp4720
g73
(dp4721
sg82
g4715
sg75
(lp4722
g68
(g89
g70
NtRp4723
(dp4724
g73
(dp4725
sg82
g4719
sg75
(lp4726
g68
(g69
g70
NtRp4727
(dp4728
g73
(dp4729
g81
I1
ssg82
g4723
sg75
(lp4730
g4212
(S't\x06\x00\x00\x00Errors'
tRp4731
asbasbasbag68
(g84
g70
NtRp4732
(dp4733
g73
(dp4734
sg82
g4715
sg75
(lp4735
g68
(g89
g70
NtRp4736
(dp4737
g73
(dp4738
sg82
g4732
sg75
(lp4739
g68
(g69
g70
NtRp4740
(dp4741
g73
(dp4742
g81
I1
ssg82
g4736
sg75
(lp4743
I00
asbasbasbag68
(g84
g70
NtRp4744
(dp4745
g73
(dp4746
sg82
g4715
sg75
(lp4747
g68
(g89
g70
NtRp4748
(dp4749
g73
(dp4750
sg82
g4744
sg75
(lp4751
g68
(g69
g70
NtRp4752
(dp4753
g73
(dp4754
g81
I1
ssg82
g4748
sg75
(lp4755
S'/admin/default/errors/wp'
p4756
asbasbasbasbasbasbasbag68
(g84
g70
NtRp4757
(dp4758
g73
(dp4759
sg82
g4321
sg75
(lp4760
g68
(g89
g70
NtRp4761
(dp4762
g73
(dp4763
sg82
g4757
sg75
(lp4764
g68
(g69
g70
NtRp4765
(dp4766
g73
(dp4767
g81
I2
ssg82
g4761
sg75
(lp4768
g68
(g77
g70
NtRp4769
(dp4770
g73
(dp4771
g81
I1
ssg82
Nsg75
(lp4772
g68
(g84
g70
NtRp4773
(dp4774
g73
(dp4775
sg82
g4769
sg75
(lp4776
g68
(g89
g70
NtRp4777
(dp4778
g73
(dp4779
sg82
g4773
sg75
(lp4780
g68
(g69
g70
NtRp4781
(dp4782
g73
(dp4783
g81
I1
ssg82
g4777
sg75
(lp4784
g4212
(S't\x05\x00\x00\x00About'
tRp4785
asbasbasbag68
(g84
g70
NtRp4786
(dp4787
g73
(dp4788
sg82
g4769
sg75
(lp4789
g68
(g89
g70
NtRp4790
(dp4791
g73
(dp4792
sg82
g4786
sg75
(lp4793
g68
(g69
g70
NtRp4794
(dp4795
g73
(dp4796
g81
I1
ssg82
g4790
sg75
(lp4797
I00
asbasbasbag68
(g84
g70
NtRp4798
(dp4799
g73
(dp4800
sg82
g4769
sg75
(lp4801
g68
(g89
g70
NtRp4802
(dp4803
g73
(dp4804
sg82
g4798
sg75
(lp4805
g68
(g69
g70
NtRp4806
(dp4807
g73
(dp4808
g81
I1
ssg82
g4802
sg75
(lp4809
S'/admin/default/about/wp'
p4810
asbasbasbasbasbasbasbasbasbasbasbasbasbasbasbag68
(g84
g70
NtRp4811
(dp4812
g73
(dp4813
sg82
g4180
sg75
(lp4814
g68
(g89
g70
NtRp4815
(dp4816
g73
(dp4817
sg82
g4811
sg75
(lp4818
g68
(g69
g70
NtRp4819
(dp4820
g73
(dp4821
g81
I4
ssg82
g4815
sg75
(lp4822
g68
(g77
g70
NtRp4823
(dp4824
g73
(dp4825
g81
I3
ssg82
Nsg75
(lp4826
g68
(g84
g70
NtRp4827
(dp4828
g73
(dp4829
sg82
g4823
sg75
(lp4830
g68
(g89
g70
NtRp4831
(dp4832
g73
(dp4833
sg82
g4827
sg75
(lp4834
g68
(g69
g70
NtRp4835
(dp4836
g73
(dp4837
g81
I3
ssg82
g4831
sg75
(lp4838
g4212
(S't\t\x00\x00\x00Resources'
tRp4839
asbasbasbag68
(g84
g70
NtRp4840
(dp4841
g73
(dp4842
sg82
g4823
sg75
(lp4843
g68
(g89
g70
NtRp4844
(dp4845
g73
(dp4846
sg82
g4840
sg75
(lp4847
g68
(g69
g70
NtRp4848
(dp4849
g73
(dp4850
g81
I3
ssg82
g4844
sg75
(lp4851
g111
asbasbasbag68
(g84
g70
NtRp4852
(dp4853
g73
(dp4854
sg82
g4823
sg75
(lp4855
g68
(g89
g70
NtRp4856
(dp4857
g73
(dp4858
sg82
g4852
sg75
(lp4859
g68
(g69
g70
NtRp4860
(dp4861
g73
(dp4862
g81
I3
ssg82
g4856
sg75
(lp4863
S'None'
p4864
asbasbasbag68
(g84
g70
NtRp4865
(dp4866
g73
(dp4867
sg82
g4823
sg75
(lp4868
g68
(g89
g70
NtRp4869
(dp4870
g73
(dp4871
sg82
g4865
sg75
(lp4872
g68
(g69
g70
NtRp4873
(dp4874
g73
(dp4875
g81
I3
ssg82
g4869
sg75
(lp4876
g68
(g77
g70
NtRp4877
(dp4878
g73
(dp4879
g81
I2
ssg82
Nsg75
(lp4880
g68
(g84
g70
NtRp4881
(dp4882
g73
(dp4883
sg82
g4877
sg75
(lp4884
g68
(g89
g70
NtRp4885
(dp4886
g73
(dp4887
sg82
g4881
sg75
(lp4888
g68
(g69
g70
NtRp4889
(dp4890
g73
(dp4891
g81
I2
ssg82
g4885
sg75
(lp4892
g68
(g77
g70
NtRp4893
(dp4894
g73
(dp4895
g81
I1
ssg82
Nsg75
(lp4896
g68
(g84
g70
NtRp4897
(dp4898
g73
(dp4899
sg82
g4893
sg75
(lp4900
g68
(g89
g70
NtRp4901
(dp4902
g73
(dp4903
sg82
g4897
sg75
(lp4904
g68
(g69
g70
NtRp4905
(dp4906
g73
(dp4907
g81
I1
ssg82
g4901
sg75
(lp4908
g4212
(S't\r\x00\x00\x00Documentation'
tRp4909
asbasbasbag68
(g84
g70
NtRp4910
(dp4911
g73
(dp4912
sg82
g4893
sg75
(lp4913
g68
(g89
g70
NtRp4914
(dp4915
g73
(dp4916
sg82
g4910
sg75
(lp4917
g68
(g69
g70
NtRp4918
(dp4919
g73
(dp4920
g81
I1
ssg82
g4914
sg75
(lp4921
I00
asbasbasbag68
(g84
g70
NtRp4922
(dp4923
g73
(dp4924
sg82
g4893
sg75
(lp4925
g68
(g89
g70
NtRp4926
(dp4927
g73
(dp4928
sg82
g4922
sg75
(lp4929
g68
(g69
g70
NtRp4930
(dp4931
g73
(dp4932
g81
I1
ssg82
g4926
sg75
(lp4933
S'http://www.web2py.com/book'
p4934
asbasbasbag68
(g84
g70
NtRp4935
(dp4936
g73
(dp4937
sg82
g4893
sg75
(lp4938
g68
(g89
g70
NtRp4939
(dp4940
g73
(dp4941
sg82
g4935
sg75
(lp4942
g68
(g69
g70
NtRp4943
(dp4944
g73
(dp4945
g81
I1
ssg82
g4939
sg75
(lp4946
(lp4947
(g4212
(S't\x07\x00\x00\x00Preface'
tRp4948
I00
S'http://www.web2py.com/book/default/chapter/00'
tp4949
a(g4212
(S't\x0c\x00\x00\x00Introduction'
tRp4950
I00
S'http://www.web2py.com/book/default/chapter/01'
tp4951
a(g4212
(S't\x06\x00\x00\x00Python'
tRp4952
I00
S'http://www.web2py.com/book/default/chapter/02'
tp4953
a(g4212
(S't\x08\x00\x00\x00Overview'
tRp4954
I00
S'http://www.web2py.com/book/default/chapter/03'
tp4955
a(g4212
(S's\x08\x00\x00\x00The Core'
tRp4956
I00
S'http://www.web2py.com/book/default/chapter/04'
tp4957
a(g4212
(S's\t\x00\x00\x00The Views'
tRp4958
I00
S'http://www.web2py.com/book/default/chapter/05'
tp4959
a(g4212
(S't\x08\x00\x00\x00Database'
tRp4960
I00
S'http://www.web2py.com/book/default/chapter/06'
tp4961
a(g4212
(S's\x14\x00\x00\x00Forms and Validators'
tRp4962
I00
S'http://www.web2py.com/book/default/chapter/07'
tp4963
a(g4212
(S's\x0e\x00\x00\x00Access Control'
tRp4964
I00
S'http://www.web2py.com/book/default/chapter/08'
tp4965
a(g4212
(S't\x08\x00\x00\x00Services'
tRp4966
I00
S'http://www.web2py.com/book/default/chapter/09'
tp4967
a(g4212
(S's\x0c\x00\x00\x00Ajax Recipes'
tRp4968
I00
S'http://www.web2py.com/book/default/chapter/10'
tp4969
a(g4212
(S's\x12\x00\x00\x00Deployment Recipes'
tRp4970
I00
S'http://www.web2py.com/book/default/chapter/11'
tp4971
a(g4212
(S's\r\x00\x00\x00Other Recipes'
tRp4972
I00
S'http://www.web2py.com/book/default/chapter/12'
tp4973
a(g4212
(S's\r\x00\x00\x00Buy this book'
tRp4974
I00
S'http://stores.lulu.com/web2py'
tp4975
aasbasbasbasbasbasbasbag68
(g84
g70
NtRp4976
(dp4977
g73
(dp4978
sg82
g4877
sg75
(lp4979
g68
(g89
g70
NtRp4980
(dp4981
g73
(dp4982
sg82
g4976
sg75
(lp4983
g68
(g69
g70
NtRp4984
(dp4985
g73
(dp4986
g81
I2
ssg82
g4980
sg75
(lp4987
g68
(g77
g70
NtRp4988
(dp4989
g73
(dp4990
g81
I1
ssg82
Nsg75
(lp4991
g68
(g84
g70
NtRp4992
(dp4993
g73
(dp4994
sg82
g4988
sg75
(lp4995
g68
(g89
g70
NtRp4996
(dp4997
g73
(dp4998
sg82
g4992
sg75
(lp4999
g68
(g69
g70
NtRp5000
(dp5001
g73
(dp5002
g81
I1
ssg82
g4996
sg75
(lp5003
g4212
(S't\t\x00\x00\x00Community'
tRp5004
asbasbasbag68
(g84
g70
NtRp5005
(dp5006
g73
(dp5007
sg82
g4988
sg75
(lp5008
g68
(g89
g70
NtRp5009
(dp5010
g73
(dp5011
sg82
g5005
sg75
(lp5012
g68
(g69
g70
NtRp5013
(dp5014
g73
(dp5015
g81
I1
ssg82
g5009
sg75
(lp5016
I00
asbasbasbag68
(g84
g70
NtRp5017
(dp5018
g73
(dp5019
sg82
g4988
sg75
(lp5020
g68
(g89
g70
NtRp5021
(dp5022
g73
(dp5023
sg82
g5017
sg75
(lp5024
g68
(g69
g70
NtRp5025
(dp5026
g73
(dp5027
g81
I1
ssg82
g5021
sg75
(lp5028
Nasbasbasbag68
(g84
g70
NtRp5029
(dp5030
g73
(dp5031
sg82
g4988
sg75
(lp5032
g68
(g89
g70
NtRp5033
(dp5034
g73
(dp5035
sg82
g5029
sg75
(lp5036
g68
(g69
g70
NtRp5037
(dp5038
g73
(dp5039
g81
I1
ssg82
g5033
sg75
(lp5040
(lp5041
(g4212
(S't\x06\x00\x00\x00Groups'
tRp5042
I00
S'http://www.web2py.com/examples/default/usergroups'
tp5043
a(g4212
(S't\x07\x00\x00\x00Twitter'
tRp5044
I00
S'http://twitter.com/web2py'
tp5045
a(g4212
(S's\t\x00\x00\x00Live chat'
tRp5046
I00
S'http://mibbit.com/?channel=%23web2py&server=irc.mibbit.net'
tp5047
a(g4212
(S's\n\x00\x00\x00User Voice'
tRp5048
I00
S'http://web2py.uservoice.com/'
tp5049
aasbasbasbasbasbasbasbag68
(g84
g70
NtRp5050
(dp5051
g73
(dp5052
sg82
g4877
sg75
(lp5053
g68
(g89
g70
NtRp5054
(dp5055
g73
(dp5056
sg82
g5050
sg75
(lp5057
g68
(g69
g70
NtRp5058
(dp5059
g73
(dp5060
g81
I2
ssg82
g5054
sg75
(lp5061
g68
(g77
g70
NtRp5062
(dp5063
g73
(dp5064
g81
I1
ssg82
Nsg75
(lp5065
g68
(g84
g70
NtRp5066
(dp5067
g73
(dp5068
sg82
g5062
sg75
(lp5069
g68
(g89
g70
NtRp5070
(dp5071
g73
(dp5072
sg82
g5066
sg75
(lp5073
g68
(g69
g70
NtRp5074
(dp5075
g73
(dp5076
g81
I1
ssg82
g5070
sg75
(lp5077
g4212
(S't\x06\x00\x00\x00Web2py'
tRp5078
asbasbasbag68
(g84
g70
NtRp5079
(dp5080
g73
(dp5081
sg82
g5062
sg75
(lp5082
g68
(g89
g70
NtRp5083
(dp5084
g73
(dp5085
sg82
g5079
sg75
(lp5086
g68
(g69
g70
NtRp5087
(dp5088
g73
(dp5089
g81
I1
ssg82
g5083
sg75
(lp5090
I00
asbasbasbag68
(g84
g70
NtRp5091
(dp5092
g73
(dp5093
sg82
g5062
sg75
(lp5094
g68
(g89
g70
NtRp5095
(dp5096
g73
(dp5097
sg82
g5091
sg75
(lp5098
g68
(g69
g70
NtRp5099
(dp5100
g73
(dp5101
g81
I1
ssg82
g5095
sg75
(lp5102
S'http://www.web2py.com'
p5103
asbasbasbag68
(g84
g70
NtRp5104
(dp5105
g73
(dp5106
sg82
g5062
sg75
(lp5107
g68
(g89
g70
NtRp5108
(dp5109
g73
(dp5110
sg82
g5104
sg75
(lp5111
g68
(g69
g70
NtRp5112
(dp5113
g73
(dp5114
g81
I1
ssg82
g5108
sg75
(lp5115
(lp5116
(g4212
(S't\x08\x00\x00\x00Download'
tRp5117
I00
S'http://www.web2py.com/examples/default/download'
tp5118
a(g4212
(S't\x07\x00\x00\x00Support'
tRp5119
I00
S'http://www.web2py.com/examples/default/support'
tp5120
a(g4212
(S's\x0e\x00\x00\x00Quick Examples'
tRp5121
I00
S'http://web2py.com/examples/default/examples'
tp5122
a(g4212
(S't\x03\x00\x00\x00FAQ'
tRp5123
I00
S'http://web2py.com/AlterEgo'
tp5124
a(g4212
(S's\x11\x00\x00\x00Free Applications'
tRp5125
I00
S'http://web2py.com/appliances'
tp5126
a(g4212
(S't\x07\x00\x00\x00Plugins'
tRp5127
I00
S'http://web2py.com/plugins'
tp5128
a(g4212
(S't\x07\x00\x00\x00Recipes'
tRp5129
I00
S'http://web2pyslices.com/'
tp5130
a(g4212
(S't\x04\x00\x00\x00Demo'
tRp5131
I00
S'http://web2py.com/demo_admin'
tp5132
a(g4212
(S't\x08\x00\x00\x00Semantic'
tRp5133
I00
S'http://web2py.com/semantic'
tp5134
a(g4212
(S't\x07\x00\x00\x00Layouts'
tRp5135
I00
S'http://web2py.com/layouts'
tp5136
a(g4212
(S't\x06\x00\x00\x00Videos'
tRp5137
I00
S'http://www.web2py.com/examples/default/videos/'
tp5138
aasbasbasbasbasbasbasbasbasbasbasbasbasbasbasbasbasbasbasbag68
(g84
g70
NtRp5139
(dp5140
g73
(dp5141
sg82
g3744
sg75
(lp5142
g68
(g89
g70
NtRp5143
(dp5144
g73
(dp5145
g93
g94
ssg82
g5139
sg75
(lp5146
S'meta'
p5147
asbag68
(g89
g70
NtRp5148
(dp5149
g73
(dp5150
g100
g101
ssg82
g5139
sg75
(lp5151
S':'
asbag68
(g89
g70
NtRp5152
(dp5153
g73
(dp5154
sg82
g5139
sg75
(lp5155
g68
(g69
g70
NtRp5156
(dp5157
g73
(dp5158
g81
I5
ssg82
g5152
sg75
(lp5159
g68
(g77
g70
NtRp5160
(dp5161
g73
(dp5162
g81
I4
ssg82
Nsg75
(lp5163
g68
(g84
g70
NtRp5164
(dp5165
g73
(dp5166
sg82
g5160
sg75
(lp5167
g68
(g89
g70
NtRp5168
(dp5169
g73
(dp5170
g93
g94
ssg82
g5164
sg75
(lp5171
S'author'
p5172
asbag68
(g89
g70
NtRp5173
(dp5174
g73
(dp5175
g100
g101
ssg82
g5164
sg75
(lp5176
S':'
asbag68
(g89
g70
NtRp5177
(dp5178
g73
(dp5179
sg82
g5164
sg75
(lp5180
g68
(g69
g70
NtRp5181
(dp5182
g73
(dp5183
g81
I4
ssg82
g5177
sg75
(lp5184
S'you'
p5185
asbasbasbag68
(g84
g70
NtRp5186
(dp5187
g73
(dp5188
sg82
g5160
sg75
(lp5189
g68
(g89
g70
NtRp5190
(dp5191
g73
(dp5192
g93
g94
ssg82
g5186
sg75
(lp5193
S'copyright'
p5194
asbag68
(g89
g70
NtRp5195
(dp5196
g73
(dp5197
g100
g101
ssg82
g5186
sg75
(lp5198
S':'
asbag68
(g89
g70
NtRp5199
(dp5200
g73
(dp5201
sg82
g5186
sg75
(lp5202
g68
(g69
g70
NtRp5203
(dp5204
g73
(dp5205
g81
I4
ssg82
g5199
sg75
(lp5206
S'Copyright 2007-2010'
p5207
asbasbasbag68
(g84
g70
NtRp5208
(dp5209
g73
(dp5210
sg82
g5160
sg75
(lp5211
g68
(g89
g70
NtRp5212
(dp5213
g73
(dp5214
g93
g94
ssg82
g5208
sg75
(lp5215
S'description'
p5216
asbag68
(g89
g70
NtRp5217
(dp5218
g73
(dp5219
g100
g101
ssg82
g5208
sg75
(lp5220
S':'
asbag68
(g89
g70
NtRp5221
(dp5222
g73
(dp5223
sg82
g5208
sg75
(lp5224
g68
(g69
g70
NtRp5225
(dp5226
g73
(dp5227
g81
I4
ssg82
g5221
sg75
(lp5228
S'Free and open source full-stack enterprise framework for agile development of fast, scalable, secure and portable database-driven web-based applications. Written and programmable in Python'
p5229
asbasbasbag68
(g84
g70
NtRp5230
(dp5231
g73
(dp5232
sg82
g5160
sg75
(lp5233
g68
(g89
g70
NtRp5234
(dp5235
g73
(dp5236
g93
g94
ssg82
g5230
sg75
(lp5237
S'generator'
p5238
asbag68
(g89
g70
NtRp5239
(dp5240
g73
(dp5241
g100
g101
ssg82
g5230
sg75
(lp5242
S':'
asbag68
(g89
g70
NtRp5243
(dp5244
g73
(dp5245
sg82
g5230
sg75
(lp5246
g68
(g69
g70
NtRp5247
(dp5248
g73
(dp5249
g81
I4
ssg82
g5243
sg75
(lp5250
S'Web2py Enterprise Framework'
p5251
asbasbasbag68
(g84
g70
NtRp5252
(dp5253
g73
(dp5254
sg82
g5160
sg75
(lp5255
g68
(g89
g70
NtRp5256
(dp5257
g73
(dp5258
g93
g94
ssg82
g5252
sg75
(lp5259
S'keywords'
p5260
asbag68
(g89
g70
NtRp5261
(dp5262
g73
(dp5263
g100
g101
ssg82
g5252
sg75
(lp5264
S':'
asbag68
(g89
g70
NtRp5265
(dp5266
g73
(dp5267
sg82
g5252
sg75
(lp5268
g68
(g69
g70
NtRp5269
(dp5270
g73
(dp5271
g81
I4
ssg82
g5265
sg75
(lp5272
S'web2py, python, framework'
p5273
asbasbasbasbasbasbasbag68
(g84
g70
NtRp5274
(dp5275
g73
(dp5276
sg82
g3744
sg75
(lp5277
g68
(g89
g70
NtRp5278
(dp5279
g73
(dp5280
g93
g94
ssg82
g5274
sg75
(lp5281
S'postprocessing'
p5282
asbag68
(g89
g70
NtRp5283
(dp5284
g73
(dp5285
g100
g101
ssg82
g5274
sg75
(lp5286
S':'
asbag68
(g89
g70
NtRp5287
(dp5288
g73
(dp5289
sg82
g5274
sg75
(lp5290
g68
(g69
g70
NtRp5291
(dp5292
g73
(dp5293
g81
I5
ssg82
g5287
sg75
(lp5294
g68
(g77
g70
NtRp5295
(dp5296
g73
(dp5297
g81
I4
ssg82
Nsg75
(lp5298
sbasbasbasbag68
(g84
g70
NtRp5299
(dp5300
g73
(dp5301
sg82
g3744
sg75
(lp5302
g68
(g89
g70
NtRp5303
(dp5304
g73
(dp5305
g93
g94
ssg82
g5299
sg75
(lp5306
S'session_file'
p5307
asbag68
(g89
g70
NtRp5308
(dp5309
g73
(dp5310
g100
g101
ssg82
g5299
sg75
(lp5311
S':'
asbag68
(g89
g70
NtRp5312
(dp5313
g73
(dp5314
sg82
g5299
sg75
(lp5315
g68
(g69
g70
NtRp5316
(dp5317
g73
(dp5318
g81
I5
ssg82
g5312
sg75
(lp5319
S"<open file '/Users/schultzc/workspace/wherespuppet/web2py/applications/wp/sessions/127.0.0.1-601835e1-ef0c-4e80-a830-e2d47b79981c', mode 'rb+' at 0x1066d9270>"
p5320
asbasbasbag68
(g84
g70
NtRp5321
(dp5322
g73
(dp5323
sg82
g3744
sg75
(lp5324
g68
(g89
g70
NtRp5325
(dp5326
g73
(dp5327
g93
g94
ssg82
g5321
sg75
(lp5328
S'session_filename'
p5329
asbag68
(g89
g70
NtRp5330
(dp5331
g73
(dp5332
g100
g101
ssg82
g5321
sg75
(lp5333
S':'
asbag68
(g89
g70
NtRp5334
(dp5335
g73
(dp5336
sg82
g5321
sg75
(lp5337
g68
(g69
g70
NtRp5338
(dp5339
g73
(dp5340
g81
I5
ssg82
g5334
sg75
(lp5341
S'/Users/schultzc/workspace/wherespuppet/web2py/applications/wp/sessions/127.0.0.1-601835e1-ef0c-4e80-a830-e2d47b79981c'
p5342
asbasbasbag68
(g84
g70
NtRp5343
(dp5344
g73
(dp5345
sg82
g3744
sg75
(lp5346
g68
(g89
g70
NtRp5347
(dp5348
g73
(dp5349
g93
g94
ssg82
g5343
sg75
(lp5350
S'session_id'
p5351
asbag68
(g89
g70
NtRp5352
(dp5353
g73
(dp5354
g100
g101
ssg82
g5343
sg75
(lp5355
S':'
asbag68
(g89
g70
NtRp5356
(dp5357
g73
(dp5358
sg82
g5343
sg75
(lp5359
g68
(g69
g70
NtRp5360
(dp5361
g73
(dp5362
g81
I5
ssg82
g5356
sg75
(lp5363
S'127.0.0.1-601835e1-ef0c-4e80-a830-e2d47b79981c'
p5364
asbasbasbag68
(g84
g70
NtRp5365
(dp5366
g73
(dp5367
sg82
g3744
sg75
(lp5368
g68
(g89
g70
NtRp5369
(dp5370
g73
(dp5371
g93
g94
ssg82
g5365
sg75
(lp5372
S'session_id_name'
p5373
asbag68
(g89
g70
NtRp5374
(dp5375
g73
(dp5376
g100
g101
ssg82
g5365
sg75
(lp5377
S':'
asbag68
(g89
g70
NtRp5378
(dp5379
g73
(dp5380
sg82
g5365
sg75
(lp5381
g68
(g69
g70
NtRp5382
(dp5383
g73
(dp5384
g81
I5
ssg82
g5378
sg75
(lp5385
g3801
asbasbasbag68
(g84
g70
NtRp5386
(dp5387
g73
(dp5388
sg82
g3744
sg75
(lp5389
g68
(g89
g70
NtRp5390
(dp5391
g73
(dp5392
g93
g94
ssg82
g5386
sg75
(lp5393
S'session_locked'
p5394
asbag68
(g89
g70
NtRp5395
(dp5396
g73
(dp5397
g100
g101
ssg82
g5386
sg75
(lp5398
S':'
asbag68
(g89
g70
NtRp5399
(dp5400
g73
(dp5401
sg82
g5386
sg75
(lp5402
g68
(g69
g70
NtRp5403
(dp5404
g73
(dp5405
g81
I5
ssg82
g5399
sg75
(lp5406
g2266
asbasbasbag68
(g84
g70
NtRp5407
(dp5408
g73
(dp5409
sg82
g3744
sg75
(lp5410
g68
(g89
g70
NtRp5411
(dp5412
g73
(dp5413
g93
g94
ssg82
g5407
sg75
(lp5414
S'session_new'
p5415
asbag68
(g89
g70
NtRp5416
(dp5417
g73
(dp5418
g100
g101
ssg82
g5407
sg75
(lp5419
S':'
asbag68
(g89
g70
NtRp5420
(dp5421
g73
(dp5422
sg82
g5407
sg75
(lp5423
g68
(g69
g70
NtRp5424
(dp5425
g73
(dp5426
g81
I5
ssg82
g5420
sg75
(lp5427
g111
asbasbasbag68
(g84
g70
NtRp5428
(dp5429
g73
(dp5430
sg82
g3744
sg75
(lp5431
g68
(g89
g70
NtRp5432
(dp5433
g73
(dp5434
g93
g94
ssg82
g5428
sg75
(lp5435
S'status'
p5436
asbag68
(g89
g70
NtRp5437
(dp5438
g73
(dp5439
g100
g101
ssg82
g5428
sg75
(lp5440
S':'
asbag68
(g89
g70
NtRp5441
(dp5442
g73
(dp5443
sg82
g5428
sg75
(lp5444
g68
(g69
g70
NtRp5445
(dp5446
g73
(dp5447
g81
I5
ssg82
g5441
sg75
(lp5448
S'200'
p5449
asbasbasbag68
(g84
g70
NtRp5450
(dp5451
g73
(dp5452
sg82
g3744
sg75
(lp5453
g68
(g89
g70
NtRp5454
(dp5455
g73
(dp5456
g93
g94
ssg82
g5450
sg75
(lp5457
S'subtitle'
p5458
asbag68
(g89
g70
NtRp5459
(dp5460
g73
(dp5461
g100
g101
ssg82
g5450
sg75
(lp5462
S':'
asbag68
(g89
g70
NtRp5463
(dp5464
g73
(dp5465
sg82
g5450
sg75
(lp5466
g68
(g69
g70
NtRp5467
(dp5468
g73
(dp5469
g81
I5
ssg82
g5463
sg75
(lp5470
g4212
(S's\r\x00\x00\x00customize me!'
tRp5471
asbasbasbag68
(g84
g70
NtRp5472
(dp5473
g73
(dp5474
sg82
g3744
sg75
(lp5475
g68
(g89
g70
NtRp5476
(dp5477
g73
(dp5478
g93
g94
ssg82
g5472
sg75
(lp5479
S'title'
p5480
asbag68
(g89
g70
NtRp5481
(dp5482
g73
(dp5483
g100
g101
ssg82
g5472
sg75
(lp5484
S':'
asbag68
(g89
g70
NtRp5485
(dp5486
g73
(dp5487
sg82
g5472
sg75
(lp5488
g68
(g69
g70
NtRp5489
(dp5490
g73
(dp5491
g81
I5
ssg82
g5485
sg75
(lp5492
g133
asbasbasbag68
(g84
g70
NtRp5493
(dp5494
g73
(dp5495
sg82
g3744
sg75
(lp5496
g68
(g89
g70
NtRp5497
(dp5498
g73
(dp5499
g93
g94
ssg82
g5493
sg75
(lp5500
g2678
asbag68
(g89
g70
NtRp5501
(dp5502
g73
(dp5503
g100
g101
ssg82
g5493
sg75
(lp5504
S':'
asbag68
(g89
g70
NtRp5505
(dp5506
g73
(dp5507
sg82
g5493
sg75
(lp5508
g68
(g69
g70
NtRp5509
(dp5510
g73
(dp5511
g81
I5
ssg82
g5505
sg75
(lp5512
g2691
asbasbasbag68
(g84
g70
NtRp5513
(dp5514
g73
(dp5515
sg82
g3744
sg75
(lp5516
g68
(g89
g70
NtRp5517
(dp5518
g73
(dp5519
g93
g94
ssg82
g5513
sg75
(lp5520
S'view'
p5521
asbag68
(g89
g70
NtRp5522
(dp5523
g73
(dp5524
g100
g101
ssg82
g5513
sg75
(lp5525
S':'
asbag68
(g89
g70
NtRp5526
(dp5527
g73
(dp5528
sg82
g5513
sg75
(lp5529
g68
(g69
g70
NtRp5530
(dp5531
g73
(dp5532
g81
I5
ssg82
g5526
sg75
(lp5533
S'default/submit.html'
p5534
asbasbasbasbasbsS'locals'
p5535
(dp5536
S'name'
p5537
S"'accuracy'"
p5538
sS'fields'
p5539
S"{'accuracy': '24000', 'file': 'image.file.8b4b721642cea651.61726d6f726564696f2e6a7067.jpg', 'handle': 'f47h3r', 'latitude': '36.114646', 'location': 'vegas', 'longitude': '-115.172816', 'title': 'fuckyea'}"
p5540
sS'self'
p5541
S"<Table {'ALL': <gluon.dal.SQLALL object at 0x106..., 'id': <gluon.dal.Field object at 0x10644f210>}>"
p5542
sS'update'
p5543
g111
sS'new_fields_names'
p5544
S"['handle', 'title', 'longitude', 'location', 'file', 'latitude']"
p5545
sS'new_fields'
p5546
S"[(<gluon.dal.Field object>, 'f47h3r'), (<gluon.dal.Field object>, 'fuckyea'), (<gluon.dal.Field object>, '-115.172816'), (<gluon.dal.Field object>, 'vegas'), (<gluon.dal.Field object>, 'image.file.8b4b721642cea651.61726d6f726564696f2e6a7067.jpg'), (<gluon.dal.Field object>, '36.114646')]"
p5547
sssS'traceback'
p5548
S'Traceback (most recent call last):\n  File "/Users/schultzc/workspace/wherespuppet/web2py/gluon/restricted.py", line 192, in restricted\n    exec ccode in environment\n  File "/Users/schultzc/workspace/wherespuppet/web2py/applications/wp/controllers/default.py", line 107, in <module>\n  File "/Users/schultzc/workspace/wherespuppet/web2py/gluon/globals.py", line 137, in <lambda>\n    self._caller = lambda f: f()\n  File "/Users/schultzc/workspace/wherespuppet/web2py/applications/wp/controllers/default.py", line 36, in submit\n    if form.accepts(request.vars, session):\n  File "/Users/schultzc/workspace/wherespuppet/web2py/gluon/sqlhtml.py", line 1205, in accepts\n    self.vars.id = self.table.insert(**fields)\n  File "/Users/schultzc/workspace/wherespuppet/web2py/gluon/dal.py", line 4703, in insert\n    return self._db._adapter.insert(self,self._listify(fields))\n  File "/Users/schultzc/workspace/wherespuppet/web2py/gluon/dal.py", line 4679, in _listify\n    raise SyntaxError, \'Field %s does not belong to the table\' % name\nSyntaxError: Field accuracy does not belong to the table\n'
p5549
s.