(dp1
S'output'
p2
S''
sS'layer'
p3
S'/Users/schultzc/workspace/wherespuppet/web2py/applications/wp/views/default/submit.html'
p4
sS'code'
p5
S'response.write(\'<!DOCTYPE html>\\n<html lang="\', escape=False)\nresponse.write(T.accepted_language or \'en\')\nresponse.write(\'" class="no-js"><!-- no-js need it for modernzr -->\\n  <head>\\n    \\n    <meta charset="utf-8" />        \\n    <!-- www.phpied.com/conditional-comments-block-downloads/ -->\\n    <!--[if IE]><![endif]-->    \\n    <!-- Always force latest IE rendering engine \\n     (even in intranet) & Chrome Frame \\n     Remove this if you use the .htaccess -->\\n    <meta http-equiv="X-UA-Compatible" content="IE=edge,chrome=1">\\n    \\n    <title>\', escape=False)\nresponse.write(response.title or request.application)\nresponse.write(\'</title>\\n    \\n    <!-- http://dev.w3.org/html5/markup/meta.name.html -->\\n    <meta name="application-name" content="\', escape=False)\nresponse.write(request.application)\nresponse.write(\'" /> \\n    \\n    <!-- Speaking of Google, don\\\'t forget to set your site up: \\n     http://google.com/webmasters -->\\n    <meta name="google-site-verification" content="" />\\n    \\n    <!--  Mobile Viewport Fix\\n      j.mp/mobileviewport & davidbcalhoun.com/2010/viewport-metatag \\n      device-width: Occupy full width of the screen in its current orientation\\n      initial-scale = 1.0 retains dimensions instead of zooming out if page height > device height\\n      maximum-scale = 1.0 retains dimensions instead of zooming in if page width < device width\\n      -->\\n    <meta name="viewport" content="width=device-width, initial-scale=1.0, maximum-scale=1.0">\\n    \\n    <!-- Place favicon.ico and apple-touch-icon.png in the root of your domain and delete these references -->\\n    <link rel="shortcut icon" href="\', escape=False)\nresponse.write(URL(\'static\',\'favicon.ico\'))\nresponse.write(\'" type="image/x-icon">\\n    <link rel="apple-touch-icon" href="\', escape=False)\nresponse.write(URL(\'static\',\'favicon.png\'))\nresponse.write(\'">\\n\\n    <!-- For the less-enabled mobile browsers like Opera Mini -->\\n    <link rel="stylesheet" media="handheld" href="\', escape=False)\nresponse.write(URL(\'static\',\'css/handheld.css\'))\nresponse.write(\'">\\n    \\n    <!-- All JavaScript at the bottom, except for Modernizr which enables HTML5 elements & feature detects -->\\n    <script src="\', escape=False)\nresponse.write(URL(\'static\',\'js/modernizr-1.7.min.js\'))\nresponse.write(\'"></script>\\n    \\n    \', escape=False)\n#------  require CSS and JS files for this page (read info in base.css) ------\nresponse.write(\'\\n    \', escape=False)\nresponse.files.append(URL(\'static\',\'css/base.css\'))\nresponse.write(\'\\n    \', escape=False)\nresponse.files.append(URL(\'static\',\'css/superfish.css\'))\nresponse.write(\'\\n    \', escape=False)\nresponse.files.append(URL(\'static\',\'js/superfish.js\'))\nresponse.write(\'\\n    \', escape=False)\nresponse.files.append(URL(\'static\',\'js/jquery.cookie.js\'))\nresponse.write(\'\\n    \', escape=False)\n#------ include web2py specific js code (jquery, calendar, form stuff) ------\nresponse.write(\'\\n    \', escape=False)\nresponse.files.insert(0,URL(\'static\',\'js/jquery.js\'))\nresponse.files.insert(1,URL(\'static\',\'css/calendar.css\'))\nresponse.files.insert(2,URL(\'static\',\'js/calendar.js\'))\nfor _item in response.meta or []:\n    response.write(\'\\n     <meta name="\', escape=False)\n    response.write(_item)\n    response.write(\'" content="\', escape=False)\n    response.write(response.meta[_item])\n    response.write(\'" />\', escape=False)\n    pass\nfor _k,_file in enumerate(response.files or []):\n    if _file in response.files[:_k]:\n        continue\n    _file0=_file.lower().split(\'?\')[0]\n    if _file0.endswith(\'.css\'):\n        response.write(\'\\n     <link href="\', escape=False)\n        response.write(_file)\n        response.write(\'" rel="stylesheet" type="text/css" />\', escape=False)\n    elif _file0.endswith(\'.js\'):\n        response.write(\'\\n     <script src="\', escape=False)\n        response.write(_file)\n        response.write(\'" type="text/javascript"></script>\', escape=False)\n        pass\n    pass\nresponse.write(\'\\n    <script type="text/javascript"><!--\\n    // These variables are used by the web2py_ajax_init function in web2py_ajax.js (which is loaded below).\\n    var w2p_ajax_confirm_message = "\', escape=False)\nresponse.write(T(\'Are you sure you want to delete this object?\'))\nresponse.write(\'";\\n    var w2p_ajax_date_format = "\', escape=False)\nresponse.write(T(\'%Y-%m-%d\'))\nresponse.write(\'";\\n    var w2p_ajax_datetime_format = "\', escape=False)\nresponse.write(T(\'%Y-%m-%d %H:%M:%S\'))\nresponse.write(\'";\\n    //--></script>\\n    <script src="\', escape=False)\nresponse.write(URL(\'static\',\'js/web2py_ajax.js\'))\nresponse.write(\'" type="text/javascript"></script>\\n\', escape=False)\nresponse.write(\'\\n    \\n\\n    \', escape=False)\n#using sidebars need to know what sidebar you want to use\n#prior of using it, because of static width size of content, you can use\n#left_sidebar, right_sidebar, both or none (False left and right)\nleft_sidebar_enabled = globals().get(\'left_sidebar_enabled\',False)\nright_sidebar_enabled = globals().get(\'right_sidebar_enabled\',False)\nif left_sidebar_enabled and right_sidebar_enabled: width_content=\'63%\'\nelif left_sidebar_enabled != right_sidebar_enabled: width_content=\'740px\'\nelse: width_content=\'100%\'\nif left_sidebar_enabled: left_sidebar_style = \'style="display: block;"\'\nelse: left_sidebar_style = \'style="display: none;"\'\nif right_sidebar_enabled: right_sidebar_style = \'style="display: block;"\'\nelse: right_sidebar_style = \'style="display: none;"\'\nstyle_content = \'style="width: %s"\' % width_content\nresponse.write(\'\\n  </head>\\n  \\n  <!-- paulirish.com/2008/conditional-stylesheets-vs-css-hacks-answer-neither/ -->  \\n  <!--[if lt IE 7 ]> <body class="ie6"> <![endif]-->\\n  <!--[if IE 7 ]>    <body class="ie7"> <![endif]-->\\n  <!--[if IE 8 ]>    <body class="ie8"> <![endif]-->\\n  <!--[if IE 9 ]>    <body class="ie9"> <![endif]-->\\n  <!--[if (gt IE 9)|!(IE)]><!--> <body> <!--<![endif]-->\\n    \\n    <div class="flash">\', escape=False)\nresponse.write(response.flash or \'\')\nresponse.write(\'</div> <!-- notification div -->\\n    \\n    <div id="container">                        \\n      \\n      <div id="wrapper">        \\n    \\n    <div id="header"> <!-- header and login nav -->\\n      \', escape=False)\nresponse.write(\' <!-- this is default header -->\\n      \', escape=False)\ntry:\n    response.write(auth.navbar(action=URL(\'default\',\'user\')))\nexcept:pass\nresponse.write(\'               \\n      <h1><span id="appname">\', escape=False)\nresponse.write(request.application.capitalize())\nresponse.write(\'</span>App</h1>\\n      <div style="clear: both;"></div><!-- Clear the divs -->\\n      \', escape=False)\nresponse.write(\'                                     \\n    </div><!-- header  -->\\n    \\n    <div id="statusbar"><!-- statusbar is menu zone -->\\n      \', escape=False)\nresponse.write(\' <!-- this is default statusbar -->\\n      \', escape=False)\n#------ superfish menu ------\nresponse.write(\'\\n      \', escape=False)\nresponse.write(MENU(response.menu,_class=\'sf-menu\'))\nresponse.write(\'\\n      <script type="text/javascript">\\n        jQuery(document).ready(function(){\\n        jQuery(\\\'ul.sf-menu\\\').superfish();});\\n      </script>\\n      <div style="clear: both;"></div><!-- Clear the divs -->   \\n      \', escape=False)\nresponse.write(\'               \\n    </div><!-- statusbar -->\\n    \\n    <div id="page"> <!-- Here my central body -->     \\n\\n      \', escape=False)\nif left_sidebar_enabled:\n    response.write(\'\\n          <div id="left_sidebar" \', escape=False)\n    response.write(XML(left_sidebar_style))\n    response.write(\' >\\n            <div style="padding: 4px;">\\n          \', escape=False)\n    response.write(\'Content Left Sidebar\', escape=False)\n    response.write(\'       \\n            </div>\\n          </div><!-- left_sidebar -->\\n      \', escape=False)\n    pass\nresponse.write(\'\\n\\n      <!-- content -->\\n      <div id="content" \', escape=False)\nresponse.write(XML(style_content))\nresponse.write(\' >\\n        \', escape=False)\nresponse.write(\'\\n<h2>Submit a Puppet Pic:</h2>\\n\\n<script> \\n        function initiate_geolocation() {  \\n            navigator.geolocation.getCurrentPosition(success_handler);  \\n        }  \\n  \\n        function success_handler(position) {\\n            latitude = position.coords.latitude;\\n            longitude = position.coords.longitude;\\n            accuracy = position.coords.accuracy;\\n            timestamp = position.timestamp\\n            \\n            if (!latitude || !longitude) {\\n                document.getElementById("status").innerHTML = "HTML5 Geolocation supported, but location data is currently unavailable.";\\n                return;\\n            }\\n            \\n            $.cookie("posLat", latitude);\\n            $.cookie("posLon", longitude);\\n            $.cookie("posAccuracy", accuracy);\\n            $.cookie("posTimestamp", timestamp);\\n      \\n        } \\n</script>\\n<script>initiate_geolocation();</script>\\n\', escape=False)\nresponse.write(form)\nresponse.write(\'\\n<br/><br/>\\n\', escape=False)\nif latitude != None\nresponse.write(\'\\nCurrent Latitude:\', escape=False)\nresponse.write(latitude)\nresponse.write(\'\\n\', escape=False)\npass\nresponse.write(\'\\n\', escape=False)\nresponse.write(\' \\n      </div>\\n      <!-- content -->\\n\\n      \', escape=False)\nif right_sidebar_enabled:\n    response.write(\'\\n          <div id="right_sidebar" \', escape=False)\n    response.write(XML(right_sidebar_style))\n    response.write(\' >\\n            <div style="padding: 4px;">\\n              \', escape=False)\n    response.write(\'Content Right Sidebar\', escape=False)\n    response.write(\'\\n            </div>\\n      </div><!-- right_sidebar -->\\n          \', escape=False)\n    pass\nresponse.write(\'\\n\\n\\n      <div style="clear: both;"></div><!-- Clear the divs -->\\n      \\n    </div><!-- page -->                         \\n    \\n    <div id="footer">\\n      \', escape=False)\nresponse.write(\' <!-- this is default footer -->\\n      <a href="http://www.web2py.com/" style="float: left; padding-right: 6px;">\\n        <img src="\', escape=False)\nresponse.write(URL(\'static\',\'images/poweredby.png\'))\nresponse.write(\'"/>\\n      </a>\\n      \', escape=False)\nresponse.write(T(\'Copyleft\'))\nresponse.write(\' &#169; 2011               \\n      <div style="clear: both;"></div><!-- Clear the divs -->\\n      \', escape=False)\nresponse.write(\'\\n\\n    </div><!-- footer -->           \\n      </div><!-- wrapper -->\\n    </div><!-- container -->        \\n    \\n    <!--[if lt IE 7 ]>\\n    <script src="\', escape=False)\nresponse.write(URL(\'static\',\'js/dd_belatedpng.js\'))\nresponse.write(\'"></script>\\n    <script> DD_belatedPNG.fix(\\\'img, .png_bg\\\'); //fix any <img> or .png_bg background-images </script>\\n    <![endif]-->\\n    \\n    <!-- asynchronous google analytics: mathiasbynens.be/notes/async-analytics-snippet \\n     change the UA-XXXXX-X to be your site\\\'s ID -->\\n    <!--   \\n       <script>\\n         var _gaq = [[\\\'_setAccount\\\', \\\'UA-XXXXX-X\\\'], [\\\'_trackPageview\\\']];\\n         (function(d, t) {\\n         var g = d.createElement(t),\\n         s = d.getElementsByTagName(t)[0];\\n         g.async = true;\\n         g.src = \\\'//www.google-analytics.com/ga.js\\\';\\n         s.parentNode.insertBefore(g, s);\\n         })(document, \\\'script\\\');\\n       </script>\\n       -->    \\n  </body>\\n</html>\\n\', escape=False)'
p6
sS'snapshot'
p7
(dp8
S'exception'
p9
(dp10
S'__getslice__'
p11
S"<method-wrapper '__getslice__' of exceptions.SyntaxError object>"
p12
sS'text'
p13
S"'if latitude != None\\n'"
p14
sS'__str__'
p15
S"<method-wrapper '__str__' of exceptions.SyntaxError object>"
p16
sS'__reduce__'
p17
S'<built-in method __reduce__ of exceptions.SyntaxError object>'
p18
sS'__dict__'
p19
S'{}'
p20
sS'__sizeof__'
p21
S'<built-in method __sizeof__ of exceptions.SyntaxError object>'
p22
sS'__init__'
p23
S"<method-wrapper '__init__' of exceptions.SyntaxError object>"
p24
sS'__setattr__'
p25
S"<method-wrapper '__setattr__' of exceptions.SyntaxError object>"
p26
sS'__reduce_ex__'
p27
S'<built-in method __reduce_ex__ of exceptions.SyntaxError object>'
p28
sS'__new__'
p29
S'<built-in method __new__ of type object>'
p30
sS'__format__'
p31
S'<built-in method __format__ of exceptions.SyntaxError object>'
p32
sS'__class__'
p33
S"<type 'exceptions.SyntaxError'>"
p34
sS'filename'
p35
S"'/Users/schultzc/workspace/wherespuppet/web2py/applications/wp/views/default/submit.html'"
p36
sS'lineno'
p37
S'105'
p38
sS'msg'
p39
S"'invalid syntax'"
p40
sS'__doc__'
p41
S"'Invalid syntax.'"
p42
sS'__getitem__'
p43
S"<method-wrapper '__getitem__' of exceptions.SyntaxError object>"
p44
sS'__setstate__'
p45
S'<built-in method __setstate__ of exceptions.SyntaxError object>'
p46
sS'__getattribute__'
p47
S"<method-wrapper '__getattribute__' of exceptions.SyntaxError object>"
p48
sS'print_file_and_line'
p49
S'None'
p50
sS'args'
p51
S"('invalid syntax', ('/Users/schultzc/workspace/wherespuppet/web2py/applications/wp/views/default/submit.html', 105, 20, 'if latitude != None\\n'))"
p52
sS'__subclasshook__'
p53
S'<built-in method __subclasshook__ of type object>'
p54
sS'offset'
p55
S'20'
p56
sS'__unicode__'
p57
S'<built-in method __unicode__ of exceptions.SyntaxError object>'
p58
sS'__delattr__'
p59
S"<method-wrapper '__delattr__' of exceptions.SyntaxError object>"
p60
sS'__repr__'
p61
S"<method-wrapper '__repr__' of exceptions.SyntaxError object>"
p62
sS'__hash__'
p63
S"<method-wrapper '__hash__' of exceptions.SyntaxError object>"
p64
ssS'evalue'
p65
S'invalid syntax (submit.html, line 105)'
p66
sS'request'
p67
ccopy_reg
_reconstructor
p68
(cgluon.html
BEAUTIFY
p69
c__builtin__
object
p70
NtRp71
(dp72
S'attributes'
p73
(dp74
sS'components'
p75
(lp76
g68
(cgluon.html
TABLE
p77
g70
NtRp78
(dp79
g73
(dp80
S'level'
p81
I5
ssS'parent'
p82
Nsg75
(lp83
g68
(cgluon.html
TR
p84
g70
NtRp85
(dp86
g73
(dp87
sg82
g78
sg75
(lp88
g68
(cgluon.html
TD
p89
g70
NtRp90
(dp91
g73
(dp92
S'_style'
p93
S'font-weight:bold;'
p94
ssg82
g85
sg75
(lp95
S'ajax'
p96
asbag68
(g89
g70
NtRp97
(dp98
g73
(dp99
S'_valign'
p100
S'top'
p101
ssg82
g85
sg75
(lp102
S':'
asbag68
(g89
g70
NtRp103
(dp104
g73
(dp105
sg82
g85
sg75
(lp106
g68
(g69
g70
NtRp107
(dp108
g73
(dp109
g81
I5
ssg82
g103
sg75
(lp110
S'False'
p111
asbasbasbag68
(g84
g70
NtRp112
(dp113
g73
(dp114
sg82
g78
sg75
(lp115
g68
(g89
g70
NtRp116
(dp117
g73
(dp118
g93
g94
ssg82
g112
sg75
(lp119
S'application'
p120
asbag68
(g89
g70
NtRp121
(dp122
g73
(dp123
g100
g101
ssg82
g112
sg75
(lp124
S':'
asbag68
(g89
g70
NtRp125
(dp126
g73
(dp127
sg82
g112
sg75
(lp128
g68
(g69
g70
NtRp129
(dp130
g73
(dp131
g81
I5
ssg82
g125
sg75
(lp132
S'wp'
p133
asbasbasbag68
(g84
g70
NtRp134
(dp135
g73
(dp136
sg82
g78
sg75
(lp137
g68
(g89
g70
NtRp138
(dp139
g73
(dp140
g93
g94
ssg82
g134
sg75
(lp141
g51
asbag68
(g89
g70
NtRp142
(dp143
g73
(dp144
g100
g101
ssg82
g134
sg75
(lp145
S':'
asbag68
(g89
g70
NtRp146
(dp147
g73
(dp148
sg82
g134
sg75
(lp149
g68
(g69
g70
NtRp150
(dp151
g73
(dp152
g81
I5
ssg82
g146
sg75
(lp153
g68
(g77
g70
NtRp154
(dp155
g73
(dp156
g81
I4
ssg82
Nsg75
(lp157
sbasbasbasbag68
(g84
g70
NtRp158
(dp159
g73
(dp160
sg82
g78
sg75
(lp161
g68
(g89
g70
NtRp162
(dp163
g73
(dp164
g93
g94
ssg82
g158
sg75
(lp165
S'body'
p166
asbag68
(g89
g70
NtRp167
(dp168
g73
(dp169
g100
g101
ssg82
g158
sg75
(lp170
S':'
asbag68
(g89
g70
NtRp171
(dp172
g73
(dp173
sg82
g158
sg75
(lp174
g68
(g69
g70
NtRp175
(dp176
g73
(dp177
g81
I5
ssg82
g171
sg75
(lp178
S'<cStringIO.StringO object at 0x10732b650>'
p179
asbasbasbag68
(g84
g70
NtRp180
(dp181
g73
(dp182
sg82
g78
sg75
(lp183
g68
(g89
g70
NtRp184
(dp185
g73
(dp186
g93
g94
ssg82
g180
sg75
(lp187
S'client'
p188
asbag68
(g89
g70
NtRp189
(dp190
g73
(dp191
g100
g101
ssg82
g180
sg75
(lp192
S':'
asbag68
(g89
g70
NtRp193
(dp194
g73
(dp195
sg82
g180
sg75
(lp196
g68
(g69
g70
NtRp197
(dp198
g73
(dp199
g81
I5
ssg82
g193
sg75
(lp200
S'127.0.0.1'
p201
asbasbasbag68
(g84
g70
NtRp202
(dp203
g73
(dp204
sg82
g78
sg75
(lp205
g68
(g89
g70
NtRp206
(dp207
g73
(dp208
g93
g94
ssg82
g202
sg75
(lp209
S'controller'
p210
asbag68
(g89
g70
NtRp211
(dp212
g73
(dp213
g100
g101
ssg82
g202
sg75
(lp214
S':'
asbag68
(g89
g70
NtRp215
(dp216
g73
(dp217
sg82
g202
sg75
(lp218
g68
(g69
g70
NtRp219
(dp220
g73
(dp221
g81
I5
ssg82
g215
sg75
(lp222
S'default'
p223
asbasbasbag68
(g84
g70
NtRp224
(dp225
g73
(dp226
sg82
g78
sg75
(lp227
g68
(g89
g70
NtRp228
(dp229
g73
(dp230
g93
g94
ssg82
g224
sg75
(lp231
S'cookies'
p232
asbag68
(g89
g70
NtRp233
(dp234
g73
(dp235
g100
g101
ssg82
g224
sg75
(lp236
S':'
asbag68
(g89
g70
NtRp237
(dp238
g73
(dp239
sg82
g224
sg75
(lp240
g68
(g69
g70
NtRp241
(dp242
g73
(dp243
g81
I5
ssg82
g237
sg75
(lp244
g68
(g77
g70
NtRp245
(dp246
g73
(dp247
g81
I4
ssg82
Nsg75
(lp248
g68
(g84
g70
NtRp249
(dp250
g73
(dp251
sg82
g245
sg75
(lp252
g68
(g89
g70
NtRp253
(dp254
g73
(dp255
g93
g94
ssg82
g249
sg75
(lp256
S'session_id_admin'
p257
asbag68
(g89
g70
NtRp258
(dp259
g73
(dp260
g100
g101
ssg82
g249
sg75
(lp261
S':'
asbag68
(g89
g70
NtRp262
(dp263
g73
(dp264
sg82
g249
sg75
(lp265
g68
(g69
g70
NtRp266
(dp267
g73
(dp268
g81
I4
ssg82
g262
sg75
(lp269
g68
(g77
g70
NtRp270
(dp271
g73
(dp272
g81
I3
ssg82
Nsg75
(lp273
g68
(g84
g70
NtRp274
(dp275
g73
(dp276
sg82
g270
sg75
(lp277
g68
(g89
g70
NtRp278
(dp279
g73
(dp280
g93
g94
ssg82
g274
sg75
(lp281
S'comment'
p282
asbag68
(g89
g70
NtRp283
(dp284
g73
(dp285
g100
g101
ssg82
g274
sg75
(lp286
S':'
asbag68
(g89
g70
NtRp287
(dp288
g73
(dp289
sg82
g274
sg75
(lp290
g68
(g69
g70
NtRp291
(dp292
g73
(dp293
g81
I3
ssg82
g287
sg75
(lp294
S''
asbasbasbag68
(g84
g70
NtRp295
(dp296
g73
(dp297
sg82
g270
sg75
(lp298
g68
(g89
g70
NtRp299
(dp300
g73
(dp301
g93
g94
ssg82
g295
sg75
(lp302
S'domain'
p303
asbag68
(g89
g70
NtRp304
(dp305
g73
(dp306
g100
g101
ssg82
g295
sg75
(lp307
S':'
asbag68
(g89
g70
NtRp308
(dp309
g73
(dp310
sg82
g295
sg75
(lp311
g68
(g69
g70
NtRp312
(dp313
g73
(dp314
g81
I3
ssg82
g308
sg75
(lp315
S''
asbasbasbag68
(g84
g70
NtRp316
(dp317
g73
(dp318
sg82
g270
sg75
(lp319
g68
(g89
g70
NtRp320
(dp321
g73
(dp322
g93
g94
ssg82
g316
sg75
(lp323
S'expires'
p324
asbag68
(g89
g70
NtRp325
(dp326
g73
(dp327
g100
g101
ssg82
g316
sg75
(lp328
S':'
asbag68
(g89
g70
NtRp329
(dp330
g73
(dp331
sg82
g316
sg75
(lp332
g68
(g69
g70
NtRp333
(dp334
g73
(dp335
g81
I3
ssg82
g329
sg75
(lp336
S''
asbasbasbag68
(g84
g70
NtRp337
(dp338
g73
(dp339
sg82
g270
sg75
(lp340
g68
(g89
g70
NtRp341
(dp342
g73
(dp343
g93
g94
ssg82
g337
sg75
(lp344
S'httponly'
p345
asbag68
(g89
g70
NtRp346
(dp347
g73
(dp348
g100
g101
ssg82
g337
sg75
(lp349
S':'
asbag68
(g89
g70
NtRp350
(dp351
g73
(dp352
sg82
g337
sg75
(lp353
g68
(g69
g70
NtRp354
(dp355
g73
(dp356
g81
I3
ssg82
g350
sg75
(lp357
S''
asbasbasbag68
(g84
g70
NtRp358
(dp359
g73
(dp360
sg82
g270
sg75
(lp361
g68
(g89
g70
NtRp362
(dp363
g73
(dp364
g93
g94
ssg82
g358
sg75
(lp365
S'max-age'
p366
asbag68
(g89
g70
NtRp367
(dp368
g73
(dp369
g100
g101
ssg82
g358
sg75
(lp370
S':'
asbag68
(g89
g70
NtRp371
(dp372
g73
(dp373
sg82
g358
sg75
(lp374
g68
(g69
g70
NtRp375
(dp376
g73
(dp377
g81
I3
ssg82
g371
sg75
(lp378
S''
asbasbasbag68
(g84
g70
NtRp379
(dp380
g73
(dp381
sg82
g270
sg75
(lp382
g68
(g89
g70
NtRp383
(dp384
g73
(dp385
g93
g94
ssg82
g379
sg75
(lp386
S'path'
p387
asbag68
(g89
g70
NtRp388
(dp389
g73
(dp390
g100
g101
ssg82
g379
sg75
(lp391
S':'
asbag68
(g89
g70
NtRp392
(dp393
g73
(dp394
sg82
g379
sg75
(lp395
g68
(g69
g70
NtRp396
(dp397
g73
(dp398
g81
I3
ssg82
g392
sg75
(lp399
S''
asbasbasbag68
(g84
g70
NtRp400
(dp401
g73
(dp402
sg82
g270
sg75
(lp403
g68
(g89
g70
NtRp404
(dp405
g73
(dp406
g93
g94
ssg82
g400
sg75
(lp407
S'secure'
p408
asbag68
(g89
g70
NtRp409
(dp410
g73
(dp411
g100
g101
ssg82
g400
sg75
(lp412
S':'
asbag68
(g89
g70
NtRp413
(dp414
g73
(dp415
sg82
g400
sg75
(lp416
g68
(g69
g70
NtRp417
(dp418
g73
(dp419
g81
I3
ssg82
g413
sg75
(lp420
S''
asbasbasbag68
(g84
g70
NtRp421
(dp422
g73
(dp423
sg82
g270
sg75
(lp424
g68
(g89
g70
NtRp425
(dp426
g73
(dp427
g93
g94
ssg82
g421
sg75
(lp428
S'version'
p429
asbag68
(g89
g70
NtRp430
(dp431
g73
(dp432
g100
g101
ssg82
g421
sg75
(lp433
S':'
asbag68
(g89
g70
NtRp434
(dp435
g73
(dp436
sg82
g421
sg75
(lp437
g68
(g69
g70
NtRp438
(dp439
g73
(dp440
g81
I3
ssg82
g434
sg75
(lp441
S''
asbasbasbasbasbasbasbasbasbasbasbag68
(g84
g70
NtRp442
(dp443
g73
(dp444
sg82
g78
sg75
(lp445
g68
(g89
g70
NtRp446
(dp447
g73
(dp448
g93
g94
ssg82
g442
sg75
(lp449
S'env'
p450
asbag68
(g89
g70
NtRp451
(dp452
g73
(dp453
g100
g101
ssg82
g442
sg75
(lp454
S':'
asbag68
(g89
g70
NtRp455
(dp456
g73
(dp457
sg82
g442
sg75
(lp458
g68
(g69
g70
NtRp459
(dp460
g73
(dp461
g81
I5
ssg82
g455
sg75
(lp462
g68
(g77
g70
NtRp463
(dp464
g73
(dp465
g81
I4
ssg82
Nsg75
(lp466
g68
(g84
g70
NtRp467
(dp468
g73
(dp469
sg82
g463
sg75
(lp470
g68
(g89
g70
NtRp471
(dp472
g73
(dp473
g93
g94
ssg82
g467
sg75
(lp474
S'app_folders'
p475
asbag68
(g89
g70
NtRp476
(dp477
g73
(dp478
g100
g101
ssg82
g467
sg75
(lp479
S':'
asbag68
(g89
g70
NtRp480
(dp481
g73
(dp482
sg82
g467
sg75
(lp483
g68
(g69
g70
NtRp484
(dp485
g73
(dp486
g81
I4
ssg82
g480
sg75
(lp487
S"set(['/Users/schultzc/workspace/wherespuppet/web2py/applications/wp/', '/Users/schultzc/workspace/wherespuppet/web2py/applications/admin/'])"
p488
asbasbasbag68
(g84
g70
NtRp489
(dp490
g73
(dp491
sg82
g463
sg75
(lp492
g68
(g89
g70
NtRp493
(dp494
g73
(dp495
g93
g94
ssg82
g489
sg75
(lp496
S'applications_parent'
p497
asbag68
(g89
g70
NtRp498
(dp499
g73
(dp500
g100
g101
ssg82
g489
sg75
(lp501
S':'
asbag68
(g89
g70
NtRp502
(dp503
g73
(dp504
sg82
g489
sg75
(lp505
g68
(g69
g70
NtRp506
(dp507
g73
(dp508
g81
I4
ssg82
g502
sg75
(lp509
S'/Users/schultzc/workspace/wherespuppet/web2py'
p510
asbasbasbag68
(g84
g70
NtRp511
(dp512
g73
(dp513
sg82
g463
sg75
(lp514
g68
(g89
g70
NtRp515
(dp516
g73
(dp517
g93
g94
ssg82
g511
sg75
(lp518
S'cmd_args'
p519
asbag68
(g89
g70
NtRp520
(dp521
g73
(dp522
g100
g101
ssg82
g511
sg75
(lp523
S':'
asbag68
(g89
g70
NtRp524
(dp525
g73
(dp526
sg82
g511
sg75
(lp527
g68
(g69
g70
NtRp528
(dp529
g73
(dp530
g81
I4
ssg82
g524
sg75
(lp531
g68
(g77
g70
NtRp532
(dp533
g73
(dp534
g81
I3
ssg82
Nsg75
(lp535
sbasbasbasbag68
(g84
g70
NtRp536
(dp537
g73
(dp538
sg82
g463
sg75
(lp539
g68
(g89
g70
NtRp540
(dp541
g73
(dp542
g93
g94
ssg82
g536
sg75
(lp543
S'cmd_options'
p544
asbag68
(g89
g70
NtRp545
(dp546
g73
(dp547
g100
g101
ssg82
g536
sg75
(lp548
S':'
asbag68
(g89
g70
NtRp549
(dp550
g73
(dp551
sg82
g536
sg75
(lp552
g68
(g69
g70
NtRp553
(dp554
g73
(dp555
g81
I4
ssg82
g549
sg75
(lp556
S"<Values at 0x101b19ab8: {'verbose': False, 'ip': '127.0.0.1', 'shutdown_timeout': 5, 'taskbar': False, 'port': 8000, 'maxthreads': None, 'softcron': False, 'server_name': 'Magnus-Specialis.local', 'bpython': False, 'nogui': False, 'nocron': False, 'extcron': False, 'debuglevel': 30, 'test': None, 'folder': '/Users/schultzc/workspace/wherespuppet/web2py', 'config': '', 'import_models': False, 'winservice': '', 'shell': None, 'run': '', 'log_filename': 'httpserver.log', 'args': [''], 'profiler_filename': None, 'ssl_private_key': '', 'password': 'hello', 'request_queue_size': 5, 'ssl_certificate': '', 'cronjob': False, 'plain': False, 'quiet': False, 'interfaces': None, 'minthreads': None, 'timeout': 10, 'numthreads': None, 'nobanner': False, 'pid_filename': 'httpserver.pid'}>"
p557
asbasbasbag68
(g84
g70
NtRp558
(dp559
g73
(dp560
sg82
g463
sg75
(lp561
g68
(g89
g70
NtRp562
(dp563
g73
(dp564
g93
g94
ssg82
g558
sg75
(lp565
S'db_sessions'
p566
asbag68
(g89
g70
NtRp567
(dp568
g73
(dp569
g100
g101
ssg82
g558
sg75
(lp570
S':'
asbag68
(g89
g70
NtRp571
(dp572
g73
(dp573
sg82
g558
sg75
(lp574
g68
(g69
g70
NtRp575
(dp576
g73
(dp577
g81
I4
ssg82
g571
sg75
(lp578
S'set([])'
p579
asbasbasbag68
(g84
g70
NtRp580
(dp581
g73
(dp582
sg82
g463
sg75
(lp583
g68
(g89
g70
NtRp584
(dp585
g73
(dp586
g93
g94
ssg82
g580
sg75
(lp587
S'debugging'
p588
asbag68
(g89
g70
NtRp589
(dp590
g73
(dp591
g100
g101
ssg82
g580
sg75
(lp592
S':'
asbag68
(g89
g70
NtRp593
(dp594
g73
(dp595
sg82
g580
sg75
(lp596
g68
(g69
g70
NtRp597
(dp598
g73
(dp599
g81
I4
ssg82
g593
sg75
(lp600
g111
asbasbasbag68
(g84
g70
NtRp601
(dp602
g73
(dp603
sg82
g463
sg75
(lp604
g68
(g89
g70
NtRp605
(dp606
g73
(dp607
g93
g94
ssg82
g601
sg75
(lp608
S'gluon_parent'
p609
asbag68
(g89
g70
NtRp610
(dp611
g73
(dp612
g100
g101
ssg82
g601
sg75
(lp613
S':'
asbag68
(g89
g70
NtRp614
(dp615
g73
(dp616
sg82
g601
sg75
(lp617
g68
(g69
g70
NtRp618
(dp619
g73
(dp620
g81
I4
ssg82
g614
sg75
(lp621
S'/Users/schultzc/workspace/wherespuppet/web2py'
p622
asbasbasbag68
(g84
g70
NtRp623
(dp624
g73
(dp625
sg82
g463
sg75
(lp626
g68
(g89
g70
NtRp627
(dp628
g73
(dp629
g93
g94
ssg82
g623
sg75
(lp630
S'http_accept'
p631
asbag68
(g89
g70
NtRp632
(dp633
g73
(dp634
g100
g101
ssg82
g623
sg75
(lp635
S':'
asbag68
(g89
g70
NtRp636
(dp637
g73
(dp638
sg82
g623
sg75
(lp639
g68
(g69
g70
NtRp640
(dp641
g73
(dp642
g81
I4
ssg82
g636
sg75
(lp643
S'text/html,application/xhtml+xml,application/xml;q=0.9,*/*;q=0.8'
p644
asbasbasbag68
(g84
g70
NtRp645
(dp646
g73
(dp647
sg82
g463
sg75
(lp648
g68
(g89
g70
NtRp649
(dp650
g73
(dp651
g93
g94
ssg82
g645
sg75
(lp652
S'http_accept_charset'
p653
asbag68
(g89
g70
NtRp654
(dp655
g73
(dp656
g100
g101
ssg82
g645
sg75
(lp657
S':'
asbag68
(g89
g70
NtRp658
(dp659
g73
(dp660
sg82
g645
sg75
(lp661
g68
(g69
g70
NtRp662
(dp663
g73
(dp664
g81
I4
ssg82
g658
sg75
(lp665
S'ISO-8859-1,utf-8;q=0.7,*;q=0.3'
p666
asbasbasbag68
(g84
g70
NtRp667
(dp668
g73
(dp669
sg82
g463
sg75
(lp670
g68
(g89
g70
NtRp671
(dp672
g73
(dp673
g93
g94
ssg82
g667
sg75
(lp674
S'http_accept_encoding'
p675
asbag68
(g89
g70
NtRp676
(dp677
g73
(dp678
g100
g101
ssg82
g667
sg75
(lp679
S':'
asbag68
(g89
g70
NtRp680
(dp681
g73
(dp682
sg82
g667
sg75
(lp683
g68
(g69
g70
NtRp684
(dp685
g73
(dp686
g81
I4
ssg82
g680
sg75
(lp687
S'gzip,deflate,sdch'
p688
asbasbasbag68
(g84
g70
NtRp689
(dp690
g73
(dp691
sg82
g463
sg75
(lp692
g68
(g89
g70
NtRp693
(dp694
g73
(dp695
g93
g94
ssg82
g689
sg75
(lp696
S'http_accept_language'
p697
asbag68
(g89
g70
NtRp698
(dp699
g73
(dp700
g100
g101
ssg82
g689
sg75
(lp701
S':'
asbag68
(g89
g70
NtRp702
(dp703
g73
(dp704
sg82
g689
sg75
(lp705
g68
(g69
g70
NtRp706
(dp707
g73
(dp708
g81
I4
ssg82
g702
sg75
(lp709
S'en-US,en;q=0.8'
p710
asbasbasbag68
(g84
g70
NtRp711
(dp712
g73
(dp713
sg82
g463
sg75
(lp714
g68
(g89
g70
NtRp715
(dp716
g73
(dp717
g93
g94
ssg82
g711
sg75
(lp718
S'http_cache_control'
p719
asbag68
(g89
g70
NtRp720
(dp721
g73
(dp722
g100
g101
ssg82
g711
sg75
(lp723
S':'
asbag68
(g89
g70
NtRp724
(dp725
g73
(dp726
sg82
g711
sg75
(lp727
g68
(g69
g70
NtRp728
(dp729
g73
(dp730
g81
I4
ssg82
g724
sg75
(lp731
S'max-age=0'
p732
asbasbasbag68
(g84
g70
NtRp733
(dp734
g73
(dp735
sg82
g463
sg75
(lp736
g68
(g89
g70
NtRp737
(dp738
g73
(dp739
g93
g94
ssg82
g733
sg75
(lp740
S'http_connection'
p741
asbag68
(g89
g70
NtRp742
(dp743
g73
(dp744
g100
g101
ssg82
g733
sg75
(lp745
S':'
asbag68
(g89
g70
NtRp746
(dp747
g73
(dp748
sg82
g733
sg75
(lp749
g68
(g69
g70
NtRp750
(dp751
g73
(dp752
g81
I4
ssg82
g746
sg75
(lp753
S'keep-alive'
p754
asbasbasbag68
(g84
g70
NtRp755
(dp756
g73
(dp757
sg82
g463
sg75
(lp758
g68
(g89
g70
NtRp759
(dp760
g73
(dp761
g93
g94
ssg82
g755
sg75
(lp762
S'http_cookie'
p763
asbag68
(g89
g70
NtRp764
(dp765
g73
(dp766
g100
g101
ssg82
g755
sg75
(lp767
S':'
asbag68
(g89
g70
NtRp768
(dp769
g73
(dp770
sg82
g755
sg75
(lp771
g68
(g69
g70
NtRp772
(dp773
g73
(dp774
g81
I4
ssg82
g768
sg75
(lp775
S'session_id_admin=127.0.0.1-3e3fe103-b184-49b1-800c-35f788f78918'
p776
asbasbasbag68
(g84
g70
NtRp777
(dp778
g73
(dp779
sg82
g463
sg75
(lp780
g68
(g89
g70
NtRp781
(dp782
g73
(dp783
g93
g94
ssg82
g777
sg75
(lp784
S'http_host'
p785
asbag68
(g89
g70
NtRp786
(dp787
g73
(dp788
g100
g101
ssg82
g777
sg75
(lp789
S':'
asbag68
(g89
g70
NtRp790
(dp791
g73
(dp792
sg82
g777
sg75
(lp793
g68
(g69
g70
NtRp794
(dp795
g73
(dp796
g81
I4
ssg82
g790
sg75
(lp797
S'localhost:8000'
p798
asbasbasbag68
(g84
g70
NtRp799
(dp800
g73
(dp801
sg82
g463
sg75
(lp802
g68
(g89
g70
NtRp803
(dp804
g73
(dp805
g93
g94
ssg82
g799
sg75
(lp806
S'http_user_agent'
p807
asbag68
(g89
g70
NtRp808
(dp809
g73
(dp810
g100
g101
ssg82
g799
sg75
(lp811
S':'
asbag68
(g89
g70
NtRp812
(dp813
g73
(dp814
sg82
g799
sg75
(lp815
g68
(g69
g70
NtRp816
(dp817
g73
(dp818
g81
I4
ssg82
g812
sg75
(lp819
S'Mozilla/5.0 (Macintosh; Intel Mac OS X 10_6_8) AppleWebKit/534.30 (KHTML, like Gecko) Chrome/12.0.742.122 Safari/534.30'
p820
asbasbasbag68
(g84
g70
NtRp821
(dp822
g73
(dp823
sg82
g463
sg75
(lp824
g68
(g89
g70
NtRp825
(dp826
g73
(dp827
g93
g94
ssg82
g821
sg75
(lp828
S'path_info'
p829
asbag68
(g89
g70
NtRp830
(dp831
g73
(dp832
g100
g101
ssg82
g821
sg75
(lp833
S':'
asbag68
(g89
g70
NtRp834
(dp835
g73
(dp836
sg82
g821
sg75
(lp837
g68
(g69
g70
NtRp838
(dp839
g73
(dp840
g81
I4
ssg82
g834
sg75
(lp841
S'/wp/default/submit'
p842
asbasbasbag68
(g84
g70
NtRp843
(dp844
g73
(dp845
sg82
g463
sg75
(lp846
g68
(g89
g70
NtRp847
(dp848
g73
(dp849
g93
g94
ssg82
g843
sg75
(lp850
S'query_string'
p851
asbag68
(g89
g70
NtRp852
(dp853
g73
(dp854
g100
g101
ssg82
g843
sg75
(lp855
S':'
asbag68
(g89
g70
NtRp856
(dp857
g73
(dp858
sg82
g843
sg75
(lp859
g68
(g69
g70
NtRp860
(dp861
g73
(dp862
g81
I4
ssg82
g856
sg75
(lp863
S''
asbasbasbag68
(g84
g70
NtRp864
(dp865
g73
(dp866
sg82
g463
sg75
(lp867
g68
(g89
g70
NtRp868
(dp869
g73
(dp870
g93
g94
ssg82
g864
sg75
(lp871
S'remote_addr'
p872
asbag68
(g89
g70
NtRp873
(dp874
g73
(dp875
g100
g101
ssg82
g864
sg75
(lp876
S':'
asbag68
(g89
g70
NtRp877
(dp878
g73
(dp879
sg82
g864
sg75
(lp880
g68
(g69
g70
NtRp881
(dp882
g73
(dp883
g81
I4
ssg82
g877
sg75
(lp884
g201
asbasbasbag68
(g84
g70
NtRp885
(dp886
g73
(dp887
sg82
g463
sg75
(lp888
g68
(g89
g70
NtRp889
(dp890
g73
(dp891
g93
g94
ssg82
g885
sg75
(lp892
S'remote_port'
p893
asbag68
(g89
g70
NtRp894
(dp895
g73
(dp896
g100
g101
ssg82
g885
sg75
(lp897
S':'
asbag68
(g89
g70
NtRp898
(dp899
g73
(dp900
sg82
g885
sg75
(lp901
g68
(g69
g70
NtRp902
(dp903
g73
(dp904
g81
I4
ssg82
g898
sg75
(lp905
S'55598'
p906
asbasbasbag68
(g84
g70
NtRp907
(dp908
g73
(dp909
sg82
g463
sg75
(lp910
g68
(g89
g70
NtRp911
(dp912
g73
(dp913
g93
g94
ssg82
g907
sg75
(lp914
S'request_method'
p915
asbag68
(g89
g70
NtRp916
(dp917
g73
(dp918
g100
g101
ssg82
g907
sg75
(lp919
S':'
asbag68
(g89
g70
NtRp920
(dp921
g73
(dp922
sg82
g907
sg75
(lp923
g68
(g69
g70
NtRp924
(dp925
g73
(dp926
g81
I4
ssg82
g920
sg75
(lp927
S'GET'
p928
asbasbasbag68
(g84
g70
NtRp929
(dp930
g73
(dp931
sg82
g463
sg75
(lp932
g68
(g89
g70
NtRp933
(dp934
g73
(dp935
g93
g94
ssg82
g929
sg75
(lp936
S'script_name'
p937
asbag68
(g89
g70
NtRp938
(dp939
g73
(dp940
g100
g101
ssg82
g929
sg75
(lp941
S':'
asbag68
(g89
g70
NtRp942
(dp943
g73
(dp944
sg82
g929
sg75
(lp945
g68
(g69
g70
NtRp946
(dp947
g73
(dp948
g81
I4
ssg82
g942
sg75
(lp949
S''
asbasbasbag68
(g84
g70
NtRp950
(dp951
g73
(dp952
sg82
g463
sg75
(lp953
g68
(g89
g70
NtRp954
(dp955
g73
(dp956
g93
g94
ssg82
g950
sg75
(lp957
S'server_name'
p958
asbag68
(g89
g70
NtRp959
(dp960
g73
(dp961
g100
g101
ssg82
g950
sg75
(lp962
S':'
asbag68
(g89
g70
NtRp963
(dp964
g73
(dp965
sg82
g950
sg75
(lp966
g68
(g69
g70
NtRp967
(dp968
g73
(dp969
g81
I4
ssg82
g963
sg75
(lp970
S'Magnus-Specialis.local'
p971
asbasbasbag68
(g84
g70
NtRp972
(dp973
g73
(dp974
sg82
g463
sg75
(lp975
g68
(g89
g70
NtRp976
(dp977
g73
(dp978
g93
g94
ssg82
g972
sg75
(lp979
S'server_port'
p980
asbag68
(g89
g70
NtRp981
(dp982
g73
(dp983
g100
g101
ssg82
g972
sg75
(lp984
S':'
asbag68
(g89
g70
NtRp985
(dp986
g73
(dp987
sg82
g972
sg75
(lp988
g68
(g69
g70
NtRp989
(dp990
g73
(dp991
g81
I4
ssg82
g985
sg75
(lp992
S'8000'
p993
asbasbasbag68
(g84
g70
NtRp994
(dp995
g73
(dp996
sg82
g463
sg75
(lp997
g68
(g89
g70
NtRp998
(dp999
g73
(dp1000
g93
g94
ssg82
g994
sg75
(lp1001
S'server_protocol'
p1002
asbag68
(g89
g70
NtRp1003
(dp1004
g73
(dp1005
g100
g101
ssg82
g994
sg75
(lp1006
S':'
asbag68
(g89
g70
NtRp1007
(dp1008
g73
(dp1009
sg82
g994
sg75
(lp1010
g68
(g69
g70
NtRp1011
(dp1012
g73
(dp1013
g81
I4
ssg82
g1007
sg75
(lp1014
S'HTTP/1.1'
p1015
asbasbasbag68
(g84
g70
NtRp1016
(dp1017
g73
(dp1018
sg82
g463
sg75
(lp1019
g68
(g89
g70
NtRp1020
(dp1021
g73
(dp1022
g93
g94
ssg82
g1016
sg75
(lp1023
S'server_software'
p1024
asbag68
(g89
g70
NtRp1025
(dp1026
g73
(dp1027
g100
g101
ssg82
g1016
sg75
(lp1028
S':'
asbag68
(g89
g70
NtRp1029
(dp1030
g73
(dp1031
sg82
g1016
sg75
(lp1032
g68
(g69
g70
NtRp1033
(dp1034
g73
(dp1035
g81
I4
ssg82
g1029
sg75
(lp1036
S'Rocket 1.2.2'
p1037
asbasbasbag68
(g84
g70
NtRp1038
(dp1039
g73
(dp1040
sg82
g463
sg75
(lp1041
g68
(g89
g70
NtRp1042
(dp1043
g73
(dp1044
g93
g94
ssg82
g1038
sg75
(lp1045
S'web2py_crontype'
p1046
asbag68
(g89
g70
NtRp1047
(dp1048
g73
(dp1049
g100
g101
ssg82
g1038
sg75
(lp1050
S':'
asbag68
(g89
g70
NtRp1051
(dp1052
g73
(dp1053
sg82
g1038
sg75
(lp1054
g68
(g69
g70
NtRp1055
(dp1056
g73
(dp1057
g81
I4
ssg82
g1051
sg75
(lp1058
S'hard'
p1059
asbasbasbag68
(g84
g70
NtRp1060
(dp1061
g73
(dp1062
sg82
g463
sg75
(lp1063
g68
(g89
g70
NtRp1064
(dp1065
g73
(dp1066
g93
g94
ssg82
g1060
sg75
(lp1067
S'web2py_path'
p1068
asbag68
(g89
g70
NtRp1069
(dp1070
g73
(dp1071
g100
g101
ssg82
g1060
sg75
(lp1072
S':'
asbag68
(g89
g70
NtRp1073
(dp1074
g73
(dp1075
sg82
g1060
sg75
(lp1076
g68
(g69
g70
NtRp1077
(dp1078
g73
(dp1079
g81
I4
ssg82
g1073
sg75
(lp1080
g510
asbasbasbag68
(g84
g70
NtRp1081
(dp1082
g73
(dp1083
sg82
g463
sg75
(lp1084
g68
(g89
g70
NtRp1085
(dp1086
g73
(dp1087
g93
g94
ssg82
g1081
sg75
(lp1088
S'web2py_version'
p1089
asbag68
(g89
g70
NtRp1090
(dp1091
g73
(dp1092
g100
g101
ssg82
g1081
sg75
(lp1093
S':'
asbag68
(g89
g70
NtRp1094
(dp1095
g73
(dp1096
sg82
g1081
sg75
(lp1097
g68
(g69
g70
NtRp1098
(dp1099
g73
(dp1100
g81
I4
ssg82
g1094
sg75
(lp1101
S'Version 1.97.1 (2011-06-26 19:25:44)\n'
p1102
asbasbasbag68
(g84
g70
NtRp1103
(dp1104
g73
(dp1105
sg82
g463
sg75
(lp1106
g68
(g89
g70
NtRp1107
(dp1108
g73
(dp1109
g93
g94
ssg82
g1103
sg75
(lp1110
S'wsgi_errors'
p1111
asbag68
(g89
g70
NtRp1112
(dp1113
g73
(dp1114
g100
g101
ssg82
g1103
sg75
(lp1115
S':'
asbag68
(g89
g70
NtRp1116
(dp1117
g73
(dp1118
sg82
g1103
sg75
(lp1119
g68
(g69
g70
NtRp1120
(dp1121
g73
(dp1122
g81
I4
ssg82
g1116
sg75
(lp1123
S"<open file '<stderr>', mode 'w' at 0x100283270>"
p1124
asbasbasbag68
(g84
g70
NtRp1125
(dp1126
g73
(dp1127
sg82
g463
sg75
(lp1128
g68
(g89
g70
NtRp1129
(dp1130
g73
(dp1131
g93
g94
ssg82
g1125
sg75
(lp1132
S'wsgi_file_wrapper'
p1133
asbag68
(g89
g70
NtRp1134
(dp1135
g73
(dp1136
g100
g101
ssg82
g1125
sg75
(lp1137
S':'
asbag68
(g89
g70
NtRp1138
(dp1139
g73
(dp1140
sg82
g1125
sg75
(lp1141
g68
(g69
g70
NtRp1142
(dp1143
g73
(dp1144
g81
I4
ssg82
g1138
sg75
(lp1145
S'<class gluon.rocket.FileWrapper at 0x101976ef0>'
p1146
asbasbasbag68
(g84
g70
NtRp1147
(dp1148
g73
(dp1149
sg82
g463
sg75
(lp1150
g68
(g89
g70
NtRp1151
(dp1152
g73
(dp1153
g93
g94
ssg82
g1147
sg75
(lp1154
S'wsgi_input'
p1155
asbag68
(g89
g70
NtRp1156
(dp1157
g73
(dp1158
g100
g101
ssg82
g1147
sg75
(lp1159
S':'
asbag68
(g89
g70
NtRp1160
(dp1161
g73
(dp1162
sg82
g1147
sg75
(lp1163
g68
(g69
g70
NtRp1164
(dp1165
g73
(dp1166
g81
I4
ssg82
g1160
sg75
(lp1167
S'<socket._fileobject object at 0x1071f7ad0>'
p1168
asbasbasbag68
(g84
g70
NtRp1169
(dp1170
g73
(dp1171
sg82
g463
sg75
(lp1172
g68
(g89
g70
NtRp1173
(dp1174
g73
(dp1175
g93
g94
ssg82
g1169
sg75
(lp1176
S'wsgi_multiprocess'
p1177
asbag68
(g89
g70
NtRp1178
(dp1179
g73
(dp1180
g100
g101
ssg82
g1169
sg75
(lp1181
S':'
asbag68
(g89
g70
NtRp1182
(dp1183
g73
(dp1184
sg82
g1169
sg75
(lp1185
g68
(g69
g70
NtRp1186
(dp1187
g73
(dp1188
g81
I4
ssg82
g1182
sg75
(lp1189
g111
asbasbasbag68
(g84
g70
NtRp1190
(dp1191
g73
(dp1192
sg82
g463
sg75
(lp1193
g68
(g89
g70
NtRp1194
(dp1195
g73
(dp1196
g93
g94
ssg82
g1190
sg75
(lp1197
S'wsgi_multithread'
p1198
asbag68
(g89
g70
NtRp1199
(dp1200
g73
(dp1201
g100
g101
ssg82
g1190
sg75
(lp1202
S':'
asbag68
(g89
g70
NtRp1203
(dp1204
g73
(dp1205
sg82
g1190
sg75
(lp1206
g68
(g69
g70
NtRp1207
(dp1208
g73
(dp1209
g81
I4
ssg82
g1203
sg75
(lp1210
S'True'
p1211
asbasbasbag68
(g84
g70
NtRp1212
(dp1213
g73
(dp1214
sg82
g463
sg75
(lp1215
g68
(g89
g70
NtRp1216
(dp1217
g73
(dp1218
g93
g94
ssg82
g1212
sg75
(lp1219
S'wsgi_run_once'
p1220
asbag68
(g89
g70
NtRp1221
(dp1222
g73
(dp1223
g100
g101
ssg82
g1212
sg75
(lp1224
S':'
asbag68
(g89
g70
NtRp1225
(dp1226
g73
(dp1227
sg82
g1212
sg75
(lp1228
g68
(g69
g70
NtRp1229
(dp1230
g73
(dp1231
g81
I4
ssg82
g1225
sg75
(lp1232
g111
asbasbasbag68
(g84
g70
NtRp1233
(dp1234
g73
(dp1235
sg82
g463
sg75
(lp1236
g68
(g89
g70
NtRp1237
(dp1238
g73
(dp1239
g93
g94
ssg82
g1233
sg75
(lp1240
S'wsgi_url_scheme'
p1241
asbag68
(g89
g70
NtRp1242
(dp1243
g73
(dp1244
g100
g101
ssg82
g1233
sg75
(lp1245
S':'
asbag68
(g89
g70
NtRp1246
(dp1247
g73
(dp1248
sg82
g1233
sg75
(lp1249
g68
(g69
g70
NtRp1250
(dp1251
g73
(dp1252
g81
I4
ssg82
g1246
sg75
(lp1253
S'http'
p1254
asbasbasbag68
(g84
g70
NtRp1255
(dp1256
g73
(dp1257
sg82
g463
sg75
(lp1258
g68
(g89
g70
NtRp1259
(dp1260
g73
(dp1261
g93
g94
ssg82
g1255
sg75
(lp1262
S'wsgi_version'
p1263
asbag68
(g89
g70
NtRp1264
(dp1265
g73
(dp1266
g100
g101
ssg82
g1255
sg75
(lp1267
S':'
asbag68
(g89
g70
NtRp1268
(dp1269
g73
(dp1270
sg82
g1255
sg75
(lp1271
g68
(g69
g70
NtRp1272
(dp1273
g73
(dp1274
g81
I4
ssg82
g1268
sg75
(lp1275
g68
(g77
g70
NtRp1276
(dp1277
g73
(dp1278
g81
I3
ssg82
Nsg75
(lp1279
g68
(g84
g70
NtRp1280
(dp1281
g73
(dp1282
sg82
g1276
sg75
(lp1283
g68
(g89
g70
NtRp1284
(dp1285
g73
(dp1286
sg82
g1280
sg75
(lp1287
g68
(g69
g70
NtRp1288
(dp1289
g73
(dp1290
g81
I3
ssg82
g1284
sg75
(lp1291
S'1'
asbasbasbag68
(g84
g70
NtRp1292
(dp1293
g73
(dp1294
sg82
g1276
sg75
(lp1295
g68
(g89
g70
NtRp1296
(dp1297
g73
(dp1298
sg82
g1292
sg75
(lp1299
g68
(g69
g70
NtRp1300
(dp1301
g73
(dp1302
g81
I3
ssg82
g1296
sg75
(lp1303
S'0'
asbasbasbasbasbasbasbasbasbasbasbag68
(g84
g70
NtRp1304
(dp1305
g73
(dp1306
sg82
g78
sg75
(lp1307
g68
(g89
g70
NtRp1308
(dp1309
g73
(dp1310
g93
g94
ssg82
g1304
sg75
(lp1311
S'extension'
p1312
asbag68
(g89
g70
NtRp1313
(dp1314
g73
(dp1315
g100
g101
ssg82
g1304
sg75
(lp1316
S':'
asbag68
(g89
g70
NtRp1317
(dp1318
g73
(dp1319
sg82
g1304
sg75
(lp1320
g68
(g69
g70
NtRp1321
(dp1322
g73
(dp1323
g81
I5
ssg82
g1317
sg75
(lp1324
S'html'
p1325
asbasbasbag68
(g84
g70
NtRp1326
(dp1327
g73
(dp1328
sg82
g78
sg75
(lp1329
g68
(g89
g70
NtRp1330
(dp1331
g73
(dp1332
g93
g94
ssg82
g1326
sg75
(lp1333
S'folder'
p1334
asbag68
(g89
g70
NtRp1335
(dp1336
g73
(dp1337
g100
g101
ssg82
g1326
sg75
(lp1338
S':'
asbag68
(g89
g70
NtRp1339
(dp1340
g73
(dp1341
sg82
g1326
sg75
(lp1342
g68
(g69
g70
NtRp1343
(dp1344
g73
(dp1345
g81
I5
ssg82
g1339
sg75
(lp1346
S'/Users/schultzc/workspace/wherespuppet/web2py/applications/wp/'
p1347
asbasbasbag68
(g84
g70
NtRp1348
(dp1349
g73
(dp1350
sg82
g78
sg75
(lp1351
g68
(g89
g70
NtRp1352
(dp1353
g73
(dp1354
g93
g94
ssg82
g1348
sg75
(lp1355
S'function'
p1356
asbag68
(g89
g70
NtRp1357
(dp1358
g73
(dp1359
g100
g101
ssg82
g1348
sg75
(lp1360
S':'
asbag68
(g89
g70
NtRp1361
(dp1362
g73
(dp1363
sg82
g1348
sg75
(lp1364
g68
(g69
g70
NtRp1365
(dp1366
g73
(dp1367
g81
I5
ssg82
g1361
sg75
(lp1368
S'submit'
p1369
asbasbasbag68
(g84
g70
NtRp1370
(dp1371
g73
(dp1372
sg82
g78
sg75
(lp1373
g68
(g89
g70
NtRp1374
(dp1375
g73
(dp1376
g93
g94
ssg82
g1370
sg75
(lp1377
S'get_vars'
p1378
asbag68
(g89
g70
NtRp1379
(dp1380
g73
(dp1381
g100
g101
ssg82
g1370
sg75
(lp1382
S':'
asbag68
(g89
g70
NtRp1383
(dp1384
g73
(dp1385
sg82
g1370
sg75
(lp1386
g68
(g69
g70
NtRp1387
(dp1388
g73
(dp1389
g81
I5
ssg82
g1383
sg75
(lp1390
g68
(g77
g70
NtRp1391
(dp1392
g73
(dp1393
g81
I4
ssg82
Nsg75
(lp1394
sbasbasbasbag68
(g84
g70
NtRp1395
(dp1396
g73
(dp1397
sg82
g78
sg75
(lp1398
g68
(g89
g70
NtRp1399
(dp1400
g73
(dp1401
g93
g94
ssg82
g1395
sg75
(lp1402
S'is_https'
p1403
asbag68
(g89
g70
NtRp1404
(dp1405
g73
(dp1406
g100
g101
ssg82
g1395
sg75
(lp1407
S':'
asbag68
(g89
g70
NtRp1408
(dp1409
g73
(dp1410
sg82
g1395
sg75
(lp1411
g68
(g69
g70
NtRp1412
(dp1413
g73
(dp1414
g81
I5
ssg82
g1408
sg75
(lp1415
g111
asbasbasbag68
(g84
g70
NtRp1416
(dp1417
g73
(dp1418
sg82
g78
sg75
(lp1419
g68
(g89
g70
NtRp1420
(dp1421
g73
(dp1422
g93
g94
ssg82
g1416
sg75
(lp1423
S'is_local'
p1424
asbag68
(g89
g70
NtRp1425
(dp1426
g73
(dp1427
g100
g101
ssg82
g1416
sg75
(lp1428
S':'
asbag68
(g89
g70
NtRp1429
(dp1430
g73
(dp1431
sg82
g1416
sg75
(lp1432
g68
(g69
g70
NtRp1433
(dp1434
g73
(dp1435
g81
I5
ssg82
g1429
sg75
(lp1436
g1211
asbasbasbag68
(g84
g70
NtRp1437
(dp1438
g73
(dp1439
sg82
g78
sg75
(lp1440
g68
(g89
g70
NtRp1441
(dp1442
g73
(dp1443
g93
g94
ssg82
g1437
sg75
(lp1444
S'is_restful'
p1445
asbag68
(g89
g70
NtRp1446
(dp1447
g73
(dp1448
g100
g101
ssg82
g1437
sg75
(lp1449
S':'
asbag68
(g89
g70
NtRp1450
(dp1451
g73
(dp1452
sg82
g1437
sg75
(lp1453
g68
(g69
g70
NtRp1454
(dp1455
g73
(dp1456
g81
I5
ssg82
g1450
sg75
(lp1457
g111
asbasbasbag68
(g84
g70
NtRp1458
(dp1459
g73
(dp1460
sg82
g78
sg75
(lp1461
g68
(g89
g70
NtRp1462
(dp1463
g73
(dp1464
g93
g94
ssg82
g1458
sg75
(lp1465
S'now'
p1466
asbag68
(g89
g70
NtRp1467
(dp1468
g73
(dp1469
g100
g101
ssg82
g1458
sg75
(lp1470
S':'
asbag68
(g89
g70
NtRp1471
(dp1472
g73
(dp1473
sg82
g1458
sg75
(lp1474
g68
(g69
g70
NtRp1475
(dp1476
g73
(dp1477
g81
I5
ssg82
g1471
sg75
(lp1478
S'datetime.datetime(2011, 7, 25, 12, 42, 46, 300633)'
p1479
asbasbasbag68
(g84
g70
NtRp1480
(dp1481
g73
(dp1482
sg82
g78
sg75
(lp1483
g68
(g89
g70
NtRp1484
(dp1485
g73
(dp1486
g93
g94
ssg82
g1480
sg75
(lp1487
S'post_vars'
p1488
asbag68
(g89
g70
NtRp1489
(dp1490
g73
(dp1491
g100
g101
ssg82
g1480
sg75
(lp1492
S':'
asbag68
(g89
g70
NtRp1493
(dp1494
g73
(dp1495
sg82
g1480
sg75
(lp1496
g68
(g69
g70
NtRp1497
(dp1498
g73
(dp1499
g81
I5
ssg82
g1493
sg75
(lp1500
g68
(g77
g70
NtRp1501
(dp1502
g73
(dp1503
g81
I4
ssg82
Nsg75
(lp1504
sbasbasbasbag68
(g84
g70
NtRp1505
(dp1506
g73
(dp1507
sg82
g78
sg75
(lp1508
g68
(g89
g70
NtRp1509
(dp1510
g73
(dp1511
g93
g94
ssg82
g1505
sg75
(lp1512
S'url'
p1513
asbag68
(g89
g70
NtRp1514
(dp1515
g73
(dp1516
g100
g101
ssg82
g1505
sg75
(lp1517
S':'
asbag68
(g89
g70
NtRp1518
(dp1519
g73
(dp1520
sg82
g1505
sg75
(lp1521
g68
(g69
g70
NtRp1522
(dp1523
g73
(dp1524
g81
I5
ssg82
g1518
sg75
(lp1525
S'/wp/default/submit'
p1526
asbasbasbag68
(g84
g70
NtRp1527
(dp1528
g73
(dp1529
sg82
g78
sg75
(lp1530
g68
(g89
g70
NtRp1531
(dp1532
g73
(dp1533
g93
g94
ssg82
g1527
sg75
(lp1534
S'uuid'
p1535
asbag68
(g89
g70
NtRp1536
(dp1537
g73
(dp1538
g100
g101
ssg82
g1527
sg75
(lp1539
S':'
asbag68
(g89
g70
NtRp1540
(dp1541
g73
(dp1542
sg82
g1527
sg75
(lp1543
g68
(g69
g70
NtRp1544
(dp1545
g73
(dp1546
g81
I5
ssg82
g1540
sg75
(lp1547
S'wp/127.0.0.1.2011-07-25.12-42-46.27e5ff2e-7f7f-46b6-870b-8d0257f407bc'
p1548
asbasbasbag68
(g84
g70
NtRp1549
(dp1550
g73
(dp1551
sg82
g78
sg75
(lp1552
g68
(g89
g70
NtRp1553
(dp1554
g73
(dp1555
g93
g94
ssg82
g1549
sg75
(lp1556
S'vars'
p1557
asbag68
(g89
g70
NtRp1558
(dp1559
g73
(dp1560
g100
g101
ssg82
g1549
sg75
(lp1561
S':'
asbag68
(g89
g70
NtRp1562
(dp1563
g73
(dp1564
sg82
g1549
sg75
(lp1565
g68
(g69
g70
NtRp1566
(dp1567
g73
(dp1568
g81
I5
ssg82
g1562
sg75
(lp1569
g68
(g77
g70
NtRp1570
(dp1571
g73
(dp1572
g81
I4
ssg82
Nsg75
(lp1573
sbasbasbasbag68
(g84
g70
NtRp1574
(dp1575
g73
(dp1576
sg82
g78
sg75
(lp1577
g68
(g89
g70
NtRp1578
(dp1579
g73
(dp1580
g93
g94
ssg82
g1574
sg75
(lp1581
S'wsgi'
p1582
asbag68
(g89
g70
NtRp1583
(dp1584
g73
(dp1585
g100
g101
ssg82
g1574
sg75
(lp1586
S':'
asbag68
(g89
g70
NtRp1587
(dp1588
g73
(dp1589
sg82
g1574
sg75
(lp1590
g68
(g69
g70
NtRp1591
(dp1592
g73
(dp1593
g81
I5
ssg82
g1587
sg75
(lp1594
g68
(g77
g70
NtRp1595
(dp1596
g73
(dp1597
g81
I4
ssg82
Nsg75
(lp1598
g68
(g84
g70
NtRp1599
(dp1600
g73
(dp1601
sg82
g1595
sg75
(lp1602
g68
(g89
g70
NtRp1603
(dp1604
g73
(dp1605
g93
g94
ssg82
g1599
sg75
(lp1606
S'environ'
p1607
asbag68
(g89
g70
NtRp1608
(dp1609
g73
(dp1610
g100
g101
ssg82
g1599
sg75
(lp1611
S':'
asbag68
(g89
g70
NtRp1612
(dp1613
g73
(dp1614
sg82
g1599
sg75
(lp1615
g68
(g69
g70
NtRp1616
(dp1617
g73
(dp1618
g81
I4
ssg82
g1612
sg75
(lp1619
g68
(g77
g70
NtRp1620
(dp1621
g73
(dp1622
g81
I3
ssg82
Nsg75
(lp1623
g68
(g84
g70
NtRp1624
(dp1625
g73
(dp1626
sg82
g1620
sg75
(lp1627
g68
(g89
g70
NtRp1628
(dp1629
g73
(dp1630
g93
g94
ssg82
g1624
sg75
(lp1631
S'HTTP_ACCEPT'
p1632
asbag68
(g89
g70
NtRp1633
(dp1634
g73
(dp1635
g100
g101
ssg82
g1624
sg75
(lp1636
S':'
asbag68
(g89
g70
NtRp1637
(dp1638
g73
(dp1639
sg82
g1624
sg75
(lp1640
g68
(g69
g70
NtRp1641
(dp1642
g73
(dp1643
g81
I3
ssg82
g1637
sg75
(lp1644
g644
asbasbasbag68
(g84
g70
NtRp1645
(dp1646
g73
(dp1647
sg82
g1620
sg75
(lp1648
g68
(g89
g70
NtRp1649
(dp1650
g73
(dp1651
g93
g94
ssg82
g1645
sg75
(lp1652
S'HTTP_ACCEPT_CHARSET'
p1653
asbag68
(g89
g70
NtRp1654
(dp1655
g73
(dp1656
g100
g101
ssg82
g1645
sg75
(lp1657
S':'
asbag68
(g89
g70
NtRp1658
(dp1659
g73
(dp1660
sg82
g1645
sg75
(lp1661
g68
(g69
g70
NtRp1662
(dp1663
g73
(dp1664
g81
I3
ssg82
g1658
sg75
(lp1665
g666
asbasbasbag68
(g84
g70
NtRp1666
(dp1667
g73
(dp1668
sg82
g1620
sg75
(lp1669
g68
(g89
g70
NtRp1670
(dp1671
g73
(dp1672
g93
g94
ssg82
g1666
sg75
(lp1673
S'HTTP_ACCEPT_ENCODING'
p1674
asbag68
(g89
g70
NtRp1675
(dp1676
g73
(dp1677
g100
g101
ssg82
g1666
sg75
(lp1678
S':'
asbag68
(g89
g70
NtRp1679
(dp1680
g73
(dp1681
sg82
g1666
sg75
(lp1682
g68
(g69
g70
NtRp1683
(dp1684
g73
(dp1685
g81
I3
ssg82
g1679
sg75
(lp1686
g688
asbasbasbag68
(g84
g70
NtRp1687
(dp1688
g73
(dp1689
sg82
g1620
sg75
(lp1690
g68
(g89
g70
NtRp1691
(dp1692
g73
(dp1693
g93
g94
ssg82
g1687
sg75
(lp1694
S'HTTP_ACCEPT_LANGUAGE'
p1695
asbag68
(g89
g70
NtRp1696
(dp1697
g73
(dp1698
g100
g101
ssg82
g1687
sg75
(lp1699
S':'
asbag68
(g89
g70
NtRp1700
(dp1701
g73
(dp1702
sg82
g1687
sg75
(lp1703
g68
(g69
g70
NtRp1704
(dp1705
g73
(dp1706
g81
I3
ssg82
g1700
sg75
(lp1707
g710
asbasbasbag68
(g84
g70
NtRp1708
(dp1709
g73
(dp1710
sg82
g1620
sg75
(lp1711
g68
(g89
g70
NtRp1712
(dp1713
g73
(dp1714
g93
g94
ssg82
g1708
sg75
(lp1715
S'HTTP_CACHE_CONTROL'
p1716
asbag68
(g89
g70
NtRp1717
(dp1718
g73
(dp1719
g100
g101
ssg82
g1708
sg75
(lp1720
S':'
asbag68
(g89
g70
NtRp1721
(dp1722
g73
(dp1723
sg82
g1708
sg75
(lp1724
g68
(g69
g70
NtRp1725
(dp1726
g73
(dp1727
g81
I3
ssg82
g1721
sg75
(lp1728
g732
asbasbasbag68
(g84
g70
NtRp1729
(dp1730
g73
(dp1731
sg82
g1620
sg75
(lp1732
g68
(g89
g70
NtRp1733
(dp1734
g73
(dp1735
g93
g94
ssg82
g1729
sg75
(lp1736
S'HTTP_CONNECTION'
p1737
asbag68
(g89
g70
NtRp1738
(dp1739
g73
(dp1740
g100
g101
ssg82
g1729
sg75
(lp1741
S':'
asbag68
(g89
g70
NtRp1742
(dp1743
g73
(dp1744
sg82
g1729
sg75
(lp1745
g68
(g69
g70
NtRp1746
(dp1747
g73
(dp1748
g81
I3
ssg82
g1742
sg75
(lp1749
g754
asbasbasbag68
(g84
g70
NtRp1750
(dp1751
g73
(dp1752
sg82
g1620
sg75
(lp1753
g68
(g89
g70
NtRp1754
(dp1755
g73
(dp1756
g93
g94
ssg82
g1750
sg75
(lp1757
S'HTTP_COOKIE'
p1758
asbag68
(g89
g70
NtRp1759
(dp1760
g73
(dp1761
g100
g101
ssg82
g1750
sg75
(lp1762
S':'
asbag68
(g89
g70
NtRp1763
(dp1764
g73
(dp1765
sg82
g1750
sg75
(lp1766
g68
(g69
g70
NtRp1767
(dp1768
g73
(dp1769
g81
I3
ssg82
g1763
sg75
(lp1770
g776
asbasbasbag68
(g84
g70
NtRp1771
(dp1772
g73
(dp1773
sg82
g1620
sg75
(lp1774
g68
(g89
g70
NtRp1775
(dp1776
g73
(dp1777
g93
g94
ssg82
g1771
sg75
(lp1778
S'HTTP_HOST'
p1779
asbag68
(g89
g70
NtRp1780
(dp1781
g73
(dp1782
g100
g101
ssg82
g1771
sg75
(lp1783
S':'
asbag68
(g89
g70
NtRp1784
(dp1785
g73
(dp1786
sg82
g1771
sg75
(lp1787
g68
(g69
g70
NtRp1788
(dp1789
g73
(dp1790
g81
I3
ssg82
g1784
sg75
(lp1791
g798
asbasbasbag68
(g84
g70
NtRp1792
(dp1793
g73
(dp1794
sg82
g1620
sg75
(lp1795
g68
(g89
g70
NtRp1796
(dp1797
g73
(dp1798
g93
g94
ssg82
g1792
sg75
(lp1799
S'HTTP_USER_AGENT'
p1800
asbag68
(g89
g70
NtRp1801
(dp1802
g73
(dp1803
g100
g101
ssg82
g1792
sg75
(lp1804
S':'
asbag68
(g89
g70
NtRp1805
(dp1806
g73
(dp1807
sg82
g1792
sg75
(lp1808
g68
(g69
g70
NtRp1809
(dp1810
g73
(dp1811
g81
I3
ssg82
g1805
sg75
(lp1812
g820
asbasbasbag68
(g84
g70
NtRp1813
(dp1814
g73
(dp1815
sg82
g1620
sg75
(lp1816
g68
(g89
g70
NtRp1817
(dp1818
g73
(dp1819
g93
g94
ssg82
g1813
sg75
(lp1820
S'PATH_INFO'
p1821
asbag68
(g89
g70
NtRp1822
(dp1823
g73
(dp1824
g100
g101
ssg82
g1813
sg75
(lp1825
S':'
asbag68
(g89
g70
NtRp1826
(dp1827
g73
(dp1828
sg82
g1813
sg75
(lp1829
g68
(g69
g70
NtRp1830
(dp1831
g73
(dp1832
g81
I3
ssg82
g1826
sg75
(lp1833
g842
asbasbasbag68
(g84
g70
NtRp1834
(dp1835
g73
(dp1836
sg82
g1620
sg75
(lp1837
g68
(g89
g70
NtRp1838
(dp1839
g73
(dp1840
g93
g94
ssg82
g1834
sg75
(lp1841
S'QUERY_STRING'
p1842
asbag68
(g89
g70
NtRp1843
(dp1844
g73
(dp1845
g100
g101
ssg82
g1834
sg75
(lp1846
S':'
asbag68
(g89
g70
NtRp1847
(dp1848
g73
(dp1849
sg82
g1834
sg75
(lp1850
g68
(g69
g70
NtRp1851
(dp1852
g73
(dp1853
g81
I3
ssg82
g1847
sg75
(lp1854
S''
asbasbasbag68
(g84
g70
NtRp1855
(dp1856
g73
(dp1857
sg82
g1620
sg75
(lp1858
g68
(g89
g70
NtRp1859
(dp1860
g73
(dp1861
g93
g94
ssg82
g1855
sg75
(lp1862
S'REMOTE_ADDR'
p1863
asbag68
(g89
g70
NtRp1864
(dp1865
g73
(dp1866
g100
g101
ssg82
g1855
sg75
(lp1867
S':'
asbag68
(g89
g70
NtRp1868
(dp1869
g73
(dp1870
sg82
g1855
sg75
(lp1871
g68
(g69
g70
NtRp1872
(dp1873
g73
(dp1874
g81
I3
ssg82
g1868
sg75
(lp1875
g201
asbasbasbag68
(g84
g70
NtRp1876
(dp1877
g73
(dp1878
sg82
g1620
sg75
(lp1879
g68
(g89
g70
NtRp1880
(dp1881
g73
(dp1882
g93
g94
ssg82
g1876
sg75
(lp1883
S'REMOTE_PORT'
p1884
asbag68
(g89
g70
NtRp1885
(dp1886
g73
(dp1887
g100
g101
ssg82
g1876
sg75
(lp1888
S':'
asbag68
(g89
g70
NtRp1889
(dp1890
g73
(dp1891
sg82
g1876
sg75
(lp1892
g68
(g69
g70
NtRp1893
(dp1894
g73
(dp1895
g81
I3
ssg82
g1889
sg75
(lp1896
g906
asbasbasbag68
(g84
g70
NtRp1897
(dp1898
g73
(dp1899
sg82
g1620
sg75
(lp1900
g68
(g89
g70
NtRp1901
(dp1902
g73
(dp1903
g93
g94
ssg82
g1897
sg75
(lp1904
S'REQUEST_METHOD'
p1905
asbag68
(g89
g70
NtRp1906
(dp1907
g73
(dp1908
g100
g101
ssg82
g1897
sg75
(lp1909
S':'
asbag68
(g89
g70
NtRp1910
(dp1911
g73
(dp1912
sg82
g1897
sg75
(lp1913
g68
(g69
g70
NtRp1914
(dp1915
g73
(dp1916
g81
I3
ssg82
g1910
sg75
(lp1917
g928
asbasbasbag68
(g84
g70
NtRp1918
(dp1919
g73
(dp1920
sg82
g1620
sg75
(lp1921
g68
(g89
g70
NtRp1922
(dp1923
g73
(dp1924
g93
g94
ssg82
g1918
sg75
(lp1925
S'SCRIPT_NAME'
p1926
asbag68
(g89
g70
NtRp1927
(dp1928
g73
(dp1929
g100
g101
ssg82
g1918
sg75
(lp1930
S':'
asbag68
(g89
g70
NtRp1931
(dp1932
g73
(dp1933
sg82
g1918
sg75
(lp1934
g68
(g69
g70
NtRp1935
(dp1936
g73
(dp1937
g81
I3
ssg82
g1931
sg75
(lp1938
S''
asbasbasbag68
(g84
g70
NtRp1939
(dp1940
g73
(dp1941
sg82
g1620
sg75
(lp1942
g68
(g89
g70
NtRp1943
(dp1944
g73
(dp1945
g93
g94
ssg82
g1939
sg75
(lp1946
S'SERVER_NAME'
p1947
asbag68
(g89
g70
NtRp1948
(dp1949
g73
(dp1950
g100
g101
ssg82
g1939
sg75
(lp1951
S':'
asbag68
(g89
g70
NtRp1952
(dp1953
g73
(dp1954
sg82
g1939
sg75
(lp1955
g68
(g69
g70
NtRp1956
(dp1957
g73
(dp1958
g81
I3
ssg82
g1952
sg75
(lp1959
g971
asbasbasbag68
(g84
g70
NtRp1960
(dp1961
g73
(dp1962
sg82
g1620
sg75
(lp1963
g68
(g89
g70
NtRp1964
(dp1965
g73
(dp1966
g93
g94
ssg82
g1960
sg75
(lp1967
S'SERVER_PORT'
p1968
asbag68
(g89
g70
NtRp1969
(dp1970
g73
(dp1971
g100
g101
ssg82
g1960
sg75
(lp1972
S':'
asbag68
(g89
g70
NtRp1973
(dp1974
g73
(dp1975
sg82
g1960
sg75
(lp1976
g68
(g69
g70
NtRp1977
(dp1978
g73
(dp1979
g81
I3
ssg82
g1973
sg75
(lp1980
g993
asbasbasbag68
(g84
g70
NtRp1981
(dp1982
g73
(dp1983
sg82
g1620
sg75
(lp1984
g68
(g89
g70
NtRp1985
(dp1986
g73
(dp1987
g93
g94
ssg82
g1981
sg75
(lp1988
S'SERVER_PROTOCOL'
p1989
asbag68
(g89
g70
NtRp1990
(dp1991
g73
(dp1992
g100
g101
ssg82
g1981
sg75
(lp1993
S':'
asbag68
(g89
g70
NtRp1994
(dp1995
g73
(dp1996
sg82
g1981
sg75
(lp1997
g68
(g69
g70
NtRp1998
(dp1999
g73
(dp2000
g81
I3
ssg82
g1994
sg75
(lp2001
g1015
asbasbasbag68
(g84
g70
NtRp2002
(dp2003
g73
(dp2004
sg82
g1620
sg75
(lp2005
g68
(g89
g70
NtRp2006
(dp2007
g73
(dp2008
g93
g94
ssg82
g2002
sg75
(lp2009
S'SERVER_SOFTWARE'
p2010
asbag68
(g89
g70
NtRp2011
(dp2012
g73
(dp2013
g100
g101
ssg82
g2002
sg75
(lp2014
S':'
asbag68
(g89
g70
NtRp2015
(dp2016
g73
(dp2017
sg82
g2002
sg75
(lp2018
g68
(g69
g70
NtRp2019
(dp2020
g73
(dp2021
g81
I3
ssg82
g2015
sg75
(lp2022
g1037
asbasbasbag68
(g84
g70
NtRp2023
(dp2024
g73
(dp2025
sg82
g1620
sg75
(lp2026
g68
(g89
g70
NtRp2027
(dp2028
g73
(dp2029
g93
g94
ssg82
g2023
sg75
(lp2030
S'wsgi.errors'
p2031
asbag68
(g89
g70
NtRp2032
(dp2033
g73
(dp2034
g100
g101
ssg82
g2023
sg75
(lp2035
S':'
asbag68
(g89
g70
NtRp2036
(dp2037
g73
(dp2038
sg82
g2023
sg75
(lp2039
g68
(g69
g70
NtRp2040
(dp2041
g73
(dp2042
g81
I3
ssg82
g2036
sg75
(lp2043
S"<open file '<stderr>', mode 'w' at 0x100283270>"
p2044
asbasbasbag68
(g84
g70
NtRp2045
(dp2046
g73
(dp2047
sg82
g1620
sg75
(lp2048
g68
(g89
g70
NtRp2049
(dp2050
g73
(dp2051
g93
g94
ssg82
g2045
sg75
(lp2052
S'wsgi.file_wrapper'
p2053
asbag68
(g89
g70
NtRp2054
(dp2055
g73
(dp2056
g100
g101
ssg82
g2045
sg75
(lp2057
S':'
asbag68
(g89
g70
NtRp2058
(dp2059
g73
(dp2060
sg82
g2045
sg75
(lp2061
g68
(g69
g70
NtRp2062
(dp2063
g73
(dp2064
g81
I3
ssg82
g2058
sg75
(lp2065
S'<class gluon.rocket.FileWrapper at 0x101976ef0>'
p2066
asbasbasbag68
(g84
g70
NtRp2067
(dp2068
g73
(dp2069
sg82
g1620
sg75
(lp2070
g68
(g89
g70
NtRp2071
(dp2072
g73
(dp2073
g93
g94
ssg82
g2067
sg75
(lp2074
S'wsgi.input'
p2075
asbag68
(g89
g70
NtRp2076
(dp2077
g73
(dp2078
g100
g101
ssg82
g2067
sg75
(lp2079
S':'
asbag68
(g89
g70
NtRp2080
(dp2081
g73
(dp2082
sg82
g2067
sg75
(lp2083
g68
(g69
g70
NtRp2084
(dp2085
g73
(dp2086
g81
I3
ssg82
g2080
sg75
(lp2087
S'<cStringIO.StringO object at 0x10732b650>'
p2088
asbasbasbag68
(g84
g70
NtRp2089
(dp2090
g73
(dp2091
sg82
g1620
sg75
(lp2092
g68
(g89
g70
NtRp2093
(dp2094
g73
(dp2095
g93
g94
ssg82
g2089
sg75
(lp2096
S'wsgi.multiprocess'
p2097
asbag68
(g89
g70
NtRp2098
(dp2099
g73
(dp2100
g100
g101
ssg82
g2089
sg75
(lp2101
S':'
asbag68
(g89
g70
NtRp2102
(dp2103
g73
(dp2104
sg82
g2089
sg75
(lp2105
g68
(g69
g70
NtRp2106
(dp2107
g73
(dp2108
g81
I3
ssg82
g2102
sg75
(lp2109
g111
asbasbasbag68
(g84
g70
NtRp2110
(dp2111
g73
(dp2112
sg82
g1620
sg75
(lp2113
g68
(g89
g70
NtRp2114
(dp2115
g73
(dp2116
g93
g94
ssg82
g2110
sg75
(lp2117
S'wsgi.multithread'
p2118
asbag68
(g89
g70
NtRp2119
(dp2120
g73
(dp2121
g100
g101
ssg82
g2110
sg75
(lp2122
S':'
asbag68
(g89
g70
NtRp2123
(dp2124
g73
(dp2125
sg82
g2110
sg75
(lp2126
g68
(g69
g70
NtRp2127
(dp2128
g73
(dp2129
g81
I3
ssg82
g2123
sg75
(lp2130
g1211
asbasbasbag68
(g84
g70
NtRp2131
(dp2132
g73
(dp2133
sg82
g1620
sg75
(lp2134
g68
(g89
g70
NtRp2135
(dp2136
g73
(dp2137
g93
g94
ssg82
g2131
sg75
(lp2138
S'wsgi.run_once'
p2139
asbag68
(g89
g70
NtRp2140
(dp2141
g73
(dp2142
g100
g101
ssg82
g2131
sg75
(lp2143
S':'
asbag68
(g89
g70
NtRp2144
(dp2145
g73
(dp2146
sg82
g2131
sg75
(lp2147
g68
(g69
g70
NtRp2148
(dp2149
g73
(dp2150
g81
I3
ssg82
g2144
sg75
(lp2151
g111
asbasbasbag68
(g84
g70
NtRp2152
(dp2153
g73
(dp2154
sg82
g1620
sg75
(lp2155
g68
(g89
g70
NtRp2156
(dp2157
g73
(dp2158
g93
g94
ssg82
g2152
sg75
(lp2159
S'wsgi.url_scheme'
p2160
asbag68
(g89
g70
NtRp2161
(dp2162
g73
(dp2163
g100
g101
ssg82
g2152
sg75
(lp2164
S':'
asbag68
(g89
g70
NtRp2165
(dp2166
g73
(dp2167
sg82
g2152
sg75
(lp2168
g68
(g69
g70
NtRp2169
(dp2170
g73
(dp2171
g81
I3
ssg82
g2165
sg75
(lp2172
g1254
asbasbasbag68
(g84
g70
NtRp2173
(dp2174
g73
(dp2175
sg82
g1620
sg75
(lp2176
g68
(g89
g70
NtRp2177
(dp2178
g73
(dp2179
g93
g94
ssg82
g2173
sg75
(lp2180
S'wsgi.version'
p2181
asbag68
(g89
g70
NtRp2182
(dp2183
g73
(dp2184
g100
g101
ssg82
g2173
sg75
(lp2185
S':'
asbag68
(g89
g70
NtRp2186
(dp2187
g73
(dp2188
sg82
g2173
sg75
(lp2189
g68
(g69
g70
NtRp2190
(dp2191
g73
(dp2192
g81
I3
ssg82
g2186
sg75
(lp2193
S'1'
asbasbasbasbasbasbasbasbasbasbasbasbasbsS'frames'
p2194
(lp2195
(dp2196
S'file'
p2197
S'/Users/schultzc/workspace/wherespuppet/web2py/gluon/restricted.py'
p2198
sS'dump'
p2199
(dp2200
S'code'
p2201
S'\'response.write(\\\'<!DOCTYPE html>\\\\n<html lang="\\\', ...    -->    \\\\n  </body>\\\\n</html>\\\\n\\\', escape=False)\''
p2202
sS'layer'
p2203
S"'/Users/schultzc/workspace/wherespuppet/web2py/applications/wp/views/default/submit.html'"
p2204
sS'global compile2'
p2205
S'<function compile2>'
p2206
sS'ccode'
p2207
S'undefined'
p2208
ssS'lnum'
p2209
I191
sS'lines'
p2210
(dp2211
I192
S'        exec ccode in environment'
p2212
sI193
S'    except HTTP:'
p2213
sI194
S'        raise'
p2214
sI195
S'    except Exception:'
p2215
sI186
S"    environment['__file__'] = layer"
p2216
sI187
S'    try:'
p2217
sI188
S'        if type(code) == types.CodeType:'
p2218
sI189
S'            ccode = code'
p2219
sI190
S'        else:'
p2220
sI191
S'            ccode = compile2(code,layer)'
p2221
ssS'call'
p2222
S'(code=\'response.write(\\\'<!DOCTYPE html>\\\\n<html lang="\\\', ...    -->    \\\\n  </body>\\\\n</html>\\\\n\\\', escape=False)\', environment={\'A\': <class \'gluon.html.A\'>, \'B\': <class \'gluon.html.B\'>, \'BEAUTIFY\': <class \'gluon.html.BEAUTIFY\'>, \'BODY\': <class \'gluon.html.BODY\'>, \'BR\': <class \'gluon.html.BR\'>, \'BUTTON\': <class \'gluon.html.BUTTON\'>, \'CENTER\': <class \'gluon.html.CENTER\'>, \'CLEANUP\': <class \'gluon.validators.CLEANUP\'>, \'CODE\': <class \'gluon.html.CODE\'>, \'CRYPT\': <class \'gluon.validators.CRYPT\'>, ...}, layer=\'/Users/schultzc/workspace/wherespuppet/web2py/applications/wp/views/default/submit.html\')'
p2223
sS'func'
p2224
S'restricted'
p2225
sa(dp2226
g2197
S'/Users/schultzc/workspace/wherespuppet/web2py/gluon/restricted.py'
p2227
sg2199
(dp2228
S'builtincompile'
p2229
S'<built-in function compile>'
p2230
sS'code'
p2231
S'\'response.write(\\\'<!DOCTYPE html>\\\\n<html lang="\\\', ...    -->    \\\\n  </body>\\\\n</html>\\\\n\\\', escape=False)\''
p2232
sS'code.rstrip'
p2233
S'<built-in method rstrip of str object>'
p2234
sS').replace'
p2235
g2208
sS'layer'
p2236
S"'/Users/schultzc/workspace/wherespuppet/web2py/applications/wp/views/default/submit.html'"
p2237
ssg2209
I178
sg2210
(dp2238
I173
S''
sI174
S'def compile2(code,layer):'
p2239
sI175
S'    """'
p2240
sI176
S"    The +'\\n' is necessary else compile fails when code ends in a comment."
p2241
sI177
S'    """'
p2242
sI178
S"    return compile(code.rstrip().replace('\\r\\n','\\n')+'\\n', layer, 'exec')"
p2243
sI179
S''
sI180
S"def restricted(code, environment={}, layer='Unknown'):"
p2244
sI181
S'    """'
p2245
sI182
S'    runs code in environment and returns the output. if an exception occurs'
p2246
ssg2222
S'(code=\'response.write(\\\'<!DOCTYPE html>\\\\n<html lang="\\\', ...    -->    \\\\n  </body>\\\\n</html>\\\\n\\\', escape=False)\', layer=\'/Users/schultzc/workspace/wherespuppet/web2py/applications/wp/views/default/submit.html\')'
p2247
sg2224
S'compile2'
p2248
sasS'pyver'
p2249
S'Python 2.7.2: /opt/local/Library/Frameworks/Python.framework/Versions/2.7/Resources/Python.app/Contents/MacOS/Python'
p2250
sS'session'
p2251
g68
(g69
g70
NtRp2252
(dp2253
g73
(dp2254
sg75
(lp2255
g68
(g77
g70
NtRp2256
(dp2257
g73
(dp2258
g81
I5
ssg82
Nsg75
(lp2259
sbasbsS'etype'
p2260
S"<type 'exceptions.SyntaxError'>"
p2261
sS'date'
p2262
S'Mon Jul 25 12:42:46 2011'
p2263
sS'response'
p2264
g68
(g69
g70
NtRp2265
(dp2266
g73
(dp2267
sg75
(lp2268
g68
(g77
g70
NtRp2269
(dp2270
g73
(dp2271
g81
I5
ssg82
Nsg75
(lp2272
g68
(g84
g70
NtRp2273
(dp2274
g73
(dp2275
sg82
g2269
sg75
(lp2276
g68
(g89
g70
NtRp2277
(dp2278
g73
(dp2279
g93
g94
ssg82
g2273
sg75
(lp2280
g166
asbag68
(g89
g70
NtRp2281
(dp2282
g73
(dp2283
g100
g101
ssg82
g2273
sg75
(lp2284
S':'
asbag68
(g89
g70
NtRp2285
(dp2286
g73
(dp2287
sg82
g2273
sg75
(lp2288
g68
(g69
g70
NtRp2289
(dp2290
g73
(dp2291
g81
I5
ssg82
g2285
sg75
(lp2292
S'<cStringIO.StringO object at 0x10736cb58>'
p2293
asbasbasbag68
(g84
g70
NtRp2294
(dp2295
g73
(dp2296
sg82
g2269
sg75
(lp2297
g68
(g89
g70
NtRp2298
(dp2299
g73
(dp2300
g93
g94
ssg82
g2294
sg75
(lp2301
g232
asbag68
(g89
g70
NtRp2302
(dp2303
g73
(dp2304
g100
g101
ssg82
g2294
sg75
(lp2305
S':'
asbag68
(g89
g70
NtRp2306
(dp2307
g73
(dp2308
sg82
g2294
sg75
(lp2309
g68
(g69
g70
NtRp2310
(dp2311
g73
(dp2312
g81
I5
ssg82
g2306
sg75
(lp2313
g68
(g77
g70
NtRp2314
(dp2315
g73
(dp2316
g81
I4
ssg82
Nsg75
(lp2317
g68
(g84
g70
NtRp2318
(dp2319
g73
(dp2320
sg82
g2314
sg75
(lp2321
g68
(g89
g70
NtRp2322
(dp2323
g73
(dp2324
g93
g94
ssg82
g2318
sg75
(lp2325
S'session_id_wp'
p2326
asbag68
(g89
g70
NtRp2327
(dp2328
g73
(dp2329
g100
g101
ssg82
g2318
sg75
(lp2330
S':'
asbag68
(g89
g70
NtRp2331
(dp2332
g73
(dp2333
sg82
g2318
sg75
(lp2334
g68
(g69
g70
NtRp2335
(dp2336
g73
(dp2337
g81
I4
ssg82
g2331
sg75
(lp2338
g68
(g77
g70
NtRp2339
(dp2340
g73
(dp2341
g81
I3
ssg82
Nsg75
(lp2342
g68
(g84
g70
NtRp2343
(dp2344
g73
(dp2345
sg82
g2339
sg75
(lp2346
g68
(g89
g70
NtRp2347
(dp2348
g73
(dp2349
g93
g94
ssg82
g2343
sg75
(lp2350
g282
asbag68
(g89
g70
NtRp2351
(dp2352
g73
(dp2353
g100
g101
ssg82
g2343
sg75
(lp2354
S':'
asbag68
(g89
g70
NtRp2355
(dp2356
g73
(dp2357
sg82
g2343
sg75
(lp2358
g68
(g69
g70
NtRp2359
(dp2360
g73
(dp2361
g81
I3
ssg82
g2355
sg75
(lp2362
S''
asbasbasbag68
(g84
g70
NtRp2363
(dp2364
g73
(dp2365
sg82
g2339
sg75
(lp2366
g68
(g89
g70
NtRp2367
(dp2368
g73
(dp2369
g93
g94
ssg82
g2363
sg75
(lp2370
g303
asbag68
(g89
g70
NtRp2371
(dp2372
g73
(dp2373
g100
g101
ssg82
g2363
sg75
(lp2374
S':'
asbag68
(g89
g70
NtRp2375
(dp2376
g73
(dp2377
sg82
g2363
sg75
(lp2378
g68
(g69
g70
NtRp2379
(dp2380
g73
(dp2381
g81
I3
ssg82
g2375
sg75
(lp2382
S''
asbasbasbag68
(g84
g70
NtRp2383
(dp2384
g73
(dp2385
sg82
g2339
sg75
(lp2386
g68
(g89
g70
NtRp2387
(dp2388
g73
(dp2389
g93
g94
ssg82
g2383
sg75
(lp2390
g324
asbag68
(g89
g70
NtRp2391
(dp2392
g73
(dp2393
g100
g101
ssg82
g2383
sg75
(lp2394
S':'
asbag68
(g89
g70
NtRp2395
(dp2396
g73
(dp2397
sg82
g2383
sg75
(lp2398
g68
(g69
g70
NtRp2399
(dp2400
g73
(dp2401
g81
I3
ssg82
g2395
sg75
(lp2402
S''
asbasbasbag68
(g84
g70
NtRp2403
(dp2404
g73
(dp2405
sg82
g2339
sg75
(lp2406
g68
(g89
g70
NtRp2407
(dp2408
g73
(dp2409
g93
g94
ssg82
g2403
sg75
(lp2410
g345
asbag68
(g89
g70
NtRp2411
(dp2412
g73
(dp2413
g100
g101
ssg82
g2403
sg75
(lp2414
S':'
asbag68
(g89
g70
NtRp2415
(dp2416
g73
(dp2417
sg82
g2403
sg75
(lp2418
g68
(g69
g70
NtRp2419
(dp2420
g73
(dp2421
g81
I3
ssg82
g2415
sg75
(lp2422
S''
asbasbasbag68
(g84
g70
NtRp2423
(dp2424
g73
(dp2425
sg82
g2339
sg75
(lp2426
g68
(g89
g70
NtRp2427
(dp2428
g73
(dp2429
g93
g94
ssg82
g2423
sg75
(lp2430
g366
asbag68
(g89
g70
NtRp2431
(dp2432
g73
(dp2433
g100
g101
ssg82
g2423
sg75
(lp2434
S':'
asbag68
(g89
g70
NtRp2435
(dp2436
g73
(dp2437
sg82
g2423
sg75
(lp2438
g68
(g69
g70
NtRp2439
(dp2440
g73
(dp2441
g81
I3
ssg82
g2435
sg75
(lp2442
S''
asbasbasbag68
(g84
g70
NtRp2443
(dp2444
g73
(dp2445
sg82
g2339
sg75
(lp2446
g68
(g89
g70
NtRp2447
(dp2448
g73
(dp2449
g93
g94
ssg82
g2443
sg75
(lp2450
g387
asbag68
(g89
g70
NtRp2451
(dp2452
g73
(dp2453
g100
g101
ssg82
g2443
sg75
(lp2454
S':'
asbag68
(g89
g70
NtRp2455
(dp2456
g73
(dp2457
sg82
g2443
sg75
(lp2458
g68
(g69
g70
NtRp2459
(dp2460
g73
(dp2461
g81
I3
ssg82
g2455
sg75
(lp2462
S'/'
asbasbasbag68
(g84
g70
NtRp2463
(dp2464
g73
(dp2465
sg82
g2339
sg75
(lp2466
g68
(g89
g70
NtRp2467
(dp2468
g73
(dp2469
g93
g94
ssg82
g2463
sg75
(lp2470
g408
asbag68
(g89
g70
NtRp2471
(dp2472
g73
(dp2473
g100
g101
ssg82
g2463
sg75
(lp2474
S':'
asbag68
(g89
g70
NtRp2475
(dp2476
g73
(dp2477
sg82
g2463
sg75
(lp2478
g68
(g69
g70
NtRp2479
(dp2480
g73
(dp2481
g81
I3
ssg82
g2475
sg75
(lp2482
S''
asbasbasbag68
(g84
g70
NtRp2483
(dp2484
g73
(dp2485
sg82
g2339
sg75
(lp2486
g68
(g89
g70
NtRp2487
(dp2488
g73
(dp2489
g93
g94
ssg82
g2483
sg75
(lp2490
g429
asbag68
(g89
g70
NtRp2491
(dp2492
g73
(dp2493
g100
g101
ssg82
g2483
sg75
(lp2494
S':'
asbag68
(g89
g70
NtRp2495
(dp2496
g73
(dp2497
sg82
g2483
sg75
(lp2498
g68
(g69
g70
NtRp2499
(dp2500
g73
(dp2501
g81
I3
ssg82
g2495
sg75
(lp2502
S''
asbasbasbasbasbasbasbasbasbasbasbag68
(g84
g70
NtRp2503
(dp2504
g73
(dp2505
sg82
g2269
sg75
(lp2506
g68
(g89
g70
NtRp2507
(dp2508
g73
(dp2509
g93
g94
ssg82
g2503
sg75
(lp2510
S'files'
p2511
asbag68
(g89
g70
NtRp2512
(dp2513
g73
(dp2514
g100
g101
ssg82
g2503
sg75
(lp2515
S':'
asbag68
(g89
g70
NtRp2516
(dp2517
g73
(dp2518
sg82
g2503
sg75
(lp2519
g68
(g69
g70
NtRp2520
(dp2521
g73
(dp2522
g81
I5
ssg82
g2516
sg75
(lp2523
g68
(g77
g70
NtRp2524
(dp2525
g73
(dp2526
g81
I4
ssg82
Nsg75
(lp2527
sbasbasbasbag68
(g84
g70
NtRp2528
(dp2529
g73
(dp2530
sg82
g2269
sg75
(lp2531
g68
(g89
g70
NtRp2532
(dp2533
g73
(dp2534
g93
g94
ssg82
g2528
sg75
(lp2535
S'flash'
p2536
asbag68
(g89
g70
NtRp2537
(dp2538
g73
(dp2539
g100
g101
ssg82
g2528
sg75
(lp2540
S':'
asbag68
(g89
g70
NtRp2541
(dp2542
g73
(dp2543
sg82
g2528
sg75
(lp2544
g68
(g69
g70
NtRp2545
(dp2546
g73
(dp2547
g81
I5
ssg82
g2541
sg75
(lp2548
S'please fill out the form'
p2549
asbasbasbag68
(g84
g70
NtRp2550
(dp2551
g73
(dp2552
sg82
g2269
sg75
(lp2553
g68
(g89
g70
NtRp2554
(dp2555
g73
(dp2556
g93
g94
ssg82
g2550
sg75
(lp2557
S'headers'
p2558
asbag68
(g89
g70
NtRp2559
(dp2560
g73
(dp2561
g100
g101
ssg82
g2550
sg75
(lp2562
S':'
asbag68
(g89
g70
NtRp2563
(dp2564
g73
(dp2565
sg82
g2550
sg75
(lp2566
g68
(g69
g70
NtRp2567
(dp2568
g73
(dp2569
g81
I5
ssg82
g2563
sg75
(lp2570
g68
(g77
g70
NtRp2571
(dp2572
g73
(dp2573
g81
I4
ssg82
Nsg75
(lp2574
g68
(g84
g70
NtRp2575
(dp2576
g73
(dp2577
sg82
g2571
sg75
(lp2578
g68
(g89
g70
NtRp2579
(dp2580
g73
(dp2581
g93
g94
ssg82
g2575
sg75
(lp2582
S'Cache-Control'
p2583
asbag68
(g89
g70
NtRp2584
(dp2585
g73
(dp2586
g100
g101
ssg82
g2575
sg75
(lp2587
S':'
asbag68
(g89
g70
NtRp2588
(dp2589
g73
(dp2590
sg82
g2575
sg75
(lp2591
g68
(g69
g70
NtRp2592
(dp2593
g73
(dp2594
g81
I4
ssg82
g2588
sg75
(lp2595
S'no-store, no-cache, must-revalidate, post-check=0, pre-check=0'
p2596
asbasbasbag68
(g84
g70
NtRp2597
(dp2598
g73
(dp2599
sg82
g2571
sg75
(lp2600
g68
(g89
g70
NtRp2601
(dp2602
g73
(dp2603
g93
g94
ssg82
g2597
sg75
(lp2604
S'Content-Type'
p2605
asbag68
(g89
g70
NtRp2606
(dp2607
g73
(dp2608
g100
g101
ssg82
g2597
sg75
(lp2609
S':'
asbag68
(g89
g70
NtRp2610
(dp2611
g73
(dp2612
sg82
g2597
sg75
(lp2613
g68
(g69
g70
NtRp2614
(dp2615
g73
(dp2616
g81
I4
ssg82
g2610
sg75
(lp2617
S'text/html; charset=utf-8'
p2618
asbasbasbag68
(g84
g70
NtRp2619
(dp2620
g73
(dp2621
sg82
g2571
sg75
(lp2622
g68
(g89
g70
NtRp2623
(dp2624
g73
(dp2625
g93
g94
ssg82
g2619
sg75
(lp2626
S'Expires'
p2627
asbag68
(g89
g70
NtRp2628
(dp2629
g73
(dp2630
g100
g101
ssg82
g2619
sg75
(lp2631
S':'
asbag68
(g89
g70
NtRp2632
(dp2633
g73
(dp2634
sg82
g2619
sg75
(lp2635
g68
(g69
g70
NtRp2636
(dp2637
g73
(dp2638
g81
I4
ssg82
g2632
sg75
(lp2639
S'Mon, 25 Jul 2011 19:42:46 GMT'
p2640
asbasbasbag68
(g84
g70
NtRp2641
(dp2642
g73
(dp2643
sg82
g2571
sg75
(lp2644
g68
(g89
g70
NtRp2645
(dp2646
g73
(dp2647
g93
g94
ssg82
g2641
sg75
(lp2648
S'Pragma'
p2649
asbag68
(g89
g70
NtRp2650
(dp2651
g73
(dp2652
g100
g101
ssg82
g2641
sg75
(lp2653
S':'
asbag68
(g89
g70
NtRp2654
(dp2655
g73
(dp2656
sg82
g2641
sg75
(lp2657
g68
(g69
g70
NtRp2658
(dp2659
g73
(dp2660
g81
I4
ssg82
g2654
sg75
(lp2661
S'no-cache'
p2662
asbasbasbag68
(g84
g70
NtRp2663
(dp2664
g73
(dp2665
sg82
g2571
sg75
(lp2666
g68
(g89
g70
NtRp2667
(dp2668
g73
(dp2669
g93
g94
ssg82
g2663
sg75
(lp2670
S'X-Powered-By'
p2671
asbag68
(g89
g70
NtRp2672
(dp2673
g73
(dp2674
g100
g101
ssg82
g2663
sg75
(lp2675
S':'
asbag68
(g89
g70
NtRp2676
(dp2677
g73
(dp2678
sg82
g2663
sg75
(lp2679
g68
(g69
g70
NtRp2680
(dp2681
g73
(dp2682
g81
I4
ssg82
g2676
sg75
(lp2683
S'web2py'
p2684
asbasbasbasbasbasbasbag68
(g84
g70
NtRp2685
(dp2686
g73
(dp2687
sg82
g2269
sg75
(lp2688
g68
(g89
g70
NtRp2689
(dp2690
g73
(dp2691
g93
g94
ssg82
g2685
sg75
(lp2692
S'menu'
p2693
asbag68
(g89
g70
NtRp2694
(dp2695
g73
(dp2696
g100
g101
ssg82
g2685
sg75
(lp2697
S':'
asbag68
(g89
g70
NtRp2698
(dp2699
g73
(dp2700
sg82
g2685
sg75
(lp2701
g68
(g69
g70
NtRp2702
(dp2703
g73
(dp2704
g81
I5
ssg82
g2698
sg75
(lp2705
g68
(g77
g70
NtRp2706
(dp2707
g73
(dp2708
g81
I4
ssg82
Nsg75
(lp2709
g68
(g84
g70
NtRp2710
(dp2711
g73
(dp2712
sg82
g2706
sg75
(lp2713
g68
(g89
g70
NtRp2714
(dp2715
g73
(dp2716
sg82
g2710
sg75
(lp2717
g68
(g69
g70
NtRp2718
(dp2719
g73
(dp2720
g81
I4
ssg82
g2714
sg75
(lp2721
g68
(g77
g70
NtRp2722
(dp2723
g73
(dp2724
g81
I3
ssg82
Nsg75
(lp2725
g68
(g84
g70
NtRp2726
(dp2727
g73
(dp2728
sg82
g2722
sg75
(lp2729
g68
(g89
g70
NtRp2730
(dp2731
g73
(dp2732
sg82
g2726
sg75
(lp2733
g68
(g69
g70
NtRp2734
(dp2735
g73
(dp2736
g81
I3
ssg82
g2730
sg75
(lp2737
cgluon.languages
lazyT_unpickle
p2738
(S't\x04\x00\x00\x00Home'
tRp2739
asbasbasbag68
(g84
g70
NtRp2740
(dp2741
g73
(dp2742
sg82
g2722
sg75
(lp2743
g68
(g89
g70
NtRp2744
(dp2745
g73
(dp2746
sg82
g2740
sg75
(lp2747
g68
(g69
g70
NtRp2748
(dp2749
g73
(dp2750
g81
I3
ssg82
g2744
sg75
(lp2751
g111
asbasbasbag68
(g84
g70
NtRp2752
(dp2753
g73
(dp2754
sg82
g2722
sg75
(lp2755
g68
(g89
g70
NtRp2756
(dp2757
g73
(dp2758
sg82
g2752
sg75
(lp2759
g68
(g69
g70
NtRp2760
(dp2761
g73
(dp2762
g81
I3
ssg82
g2756
sg75
(lp2763
S'/wp/default/index'
p2764
asbasbasbag68
(g84
g70
NtRp2765
(dp2766
g73
(dp2767
sg82
g2722
sg75
(lp2768
g68
(g89
g70
NtRp2769
(dp2770
g73
(dp2771
sg82
g2765
sg75
(lp2772
g68
(g69
g70
NtRp2773
(dp2774
g73
(dp2775
g81
I3
ssg82
g2769
sg75
(lp2776
g68
(g77
g70
NtRp2777
(dp2778
g73
(dp2779
g81
I2
ssg82
Nsg75
(lp2780
sbasbasbasbasbasbasbasbag68
(g84
g70
NtRp2781
(dp2782
g73
(dp2783
sg82
g2706
sg75
(lp2784
g68
(g89
g70
NtRp2785
(dp2786
g73
(dp2787
sg82
g2781
sg75
(lp2788
g68
(g69
g70
NtRp2789
(dp2790
g73
(dp2791
g81
I4
ssg82
g2785
sg75
(lp2792
g68
(g77
g70
NtRp2793
(dp2794
g73
(dp2795
g81
I3
ssg82
Nsg75
(lp2796
g68
(g84
g70
NtRp2797
(dp2798
g73
(dp2799
sg82
g2793
sg75
(lp2800
g68
(g89
g70
NtRp2801
(dp2802
g73
(dp2803
sg82
g2797
sg75
(lp2804
g68
(g69
g70
NtRp2805
(dp2806
g73
(dp2807
g81
I3
ssg82
g2801
sg75
(lp2808
g2738
(S's\x08\x00\x00\x00This App'
tRp2809
asbasbasbag68
(g84
g70
NtRp2810
(dp2811
g73
(dp2812
sg82
g2793
sg75
(lp2813
g68
(g89
g70
NtRp2814
(dp2815
g73
(dp2816
sg82
g2810
sg75
(lp2817
g68
(g69
g70
NtRp2818
(dp2819
g73
(dp2820
g81
I3
ssg82
g2814
sg75
(lp2821
g111
asbasbasbag68
(g84
g70
NtRp2822
(dp2823
g73
(dp2824
sg82
g2793
sg75
(lp2825
g68
(g89
g70
NtRp2826
(dp2827
g73
(dp2828
sg82
g2822
sg75
(lp2829
g68
(g69
g70
NtRp2830
(dp2831
g73
(dp2832
g81
I3
ssg82
g2826
sg75
(lp2833
S'/admin/default/design/wp'
p2834
asbasbasbag68
(g84
g70
NtRp2835
(dp2836
g73
(dp2837
sg82
g2793
sg75
(lp2838
g68
(g89
g70
NtRp2839
(dp2840
g73
(dp2841
sg82
g2835
sg75
(lp2842
g68
(g69
g70
NtRp2843
(dp2844
g73
(dp2845
g81
I3
ssg82
g2839
sg75
(lp2846
g68
(g77
g70
NtRp2847
(dp2848
g73
(dp2849
g81
I2
ssg82
Nsg75
(lp2850
g68
(g84
g70
NtRp2851
(dp2852
g73
(dp2853
sg82
g2847
sg75
(lp2854
g68
(g89
g70
NtRp2855
(dp2856
g73
(dp2857
sg82
g2851
sg75
(lp2858
g68
(g69
g70
NtRp2859
(dp2860
g73
(dp2861
g81
I2
ssg82
g2855
sg75
(lp2862
g68
(g77
g70
NtRp2863
(dp2864
g73
(dp2865
g81
I1
ssg82
Nsg75
(lp2866
g68
(g84
g70
NtRp2867
(dp2868
g73
(dp2869
sg82
g2863
sg75
(lp2870
g68
(g89
g70
NtRp2871
(dp2872
g73
(dp2873
sg82
g2867
sg75
(lp2874
g68
(g69
g70
NtRp2875
(dp2876
g73
(dp2877
g81
I1
ssg82
g2871
sg75
(lp2878
g2738
(S't\n\x00\x00\x00Controller'
tRp2879
asbasbasbag68
(g84
g70
NtRp2880
(dp2881
g73
(dp2882
sg82
g2863
sg75
(lp2883
g68
(g89
g70
NtRp2884
(dp2885
g73
(dp2886
sg82
g2880
sg75
(lp2887
g68
(g69
g70
NtRp2888
(dp2889
g73
(dp2890
g81
I1
ssg82
g2884
sg75
(lp2891
I00
asbasbasbag68
(g84
g70
NtRp2892
(dp2893
g73
(dp2894
sg82
g2863
sg75
(lp2895
g68
(g89
g70
NtRp2896
(dp2897
g73
(dp2898
sg82
g2892
sg75
(lp2899
g68
(g69
g70
NtRp2900
(dp2901
g73
(dp2902
g81
I1
ssg82
g2896
sg75
(lp2903
S'/admin/default/edit/wp/controllers/default.py'
p2904
asbasbasbasbasbasbasbag68
(g84
g70
NtRp2905
(dp2906
g73
(dp2907
sg82
g2847
sg75
(lp2908
g68
(g89
g70
NtRp2909
(dp2910
g73
(dp2911
sg82
g2905
sg75
(lp2912
g68
(g69
g70
NtRp2913
(dp2914
g73
(dp2915
g81
I2
ssg82
g2909
sg75
(lp2916
g68
(g77
g70
NtRp2917
(dp2918
g73
(dp2919
g81
I1
ssg82
Nsg75
(lp2920
g68
(g84
g70
NtRp2921
(dp2922
g73
(dp2923
sg82
g2917
sg75
(lp2924
g68
(g89
g70
NtRp2925
(dp2926
g73
(dp2927
sg82
g2921
sg75
(lp2928
g68
(g69
g70
NtRp2929
(dp2930
g73
(dp2931
g81
I1
ssg82
g2925
sg75
(lp2932
g2738
(S't\x04\x00\x00\x00View'
tRp2933
asbasbasbag68
(g84
g70
NtRp2934
(dp2935
g73
(dp2936
sg82
g2917
sg75
(lp2937
g68
(g89
g70
NtRp2938
(dp2939
g73
(dp2940
sg82
g2934
sg75
(lp2941
g68
(g69
g70
NtRp2942
(dp2943
g73
(dp2944
g81
I1
ssg82
g2938
sg75
(lp2945
I00
asbasbasbag68
(g84
g70
NtRp2946
(dp2947
g73
(dp2948
sg82
g2917
sg75
(lp2949
g68
(g89
g70
NtRp2950
(dp2951
g73
(dp2952
sg82
g2946
sg75
(lp2953
g68
(g69
g70
NtRp2954
(dp2955
g73
(dp2956
g81
I1
ssg82
g2950
sg75
(lp2957
S'/admin/default/edit/wp/views/default/submit.html'
p2958
asbasbasbasbasbasbasbag68
(g84
g70
NtRp2959
(dp2960
g73
(dp2961
sg82
g2847
sg75
(lp2962
g68
(g89
g70
NtRp2963
(dp2964
g73
(dp2965
sg82
g2959
sg75
(lp2966
g68
(g69
g70
NtRp2967
(dp2968
g73
(dp2969
g81
I2
ssg82
g2963
sg75
(lp2970
g68
(g77
g70
NtRp2971
(dp2972
g73
(dp2973
g81
I1
ssg82
Nsg75
(lp2974
g68
(g84
g70
NtRp2975
(dp2976
g73
(dp2977
sg82
g2971
sg75
(lp2978
g68
(g89
g70
NtRp2979
(dp2980
g73
(dp2981
sg82
g2975
sg75
(lp2982
g68
(g69
g70
NtRp2983
(dp2984
g73
(dp2985
g81
I1
ssg82
g2979
sg75
(lp2986
g2738
(S't\x06\x00\x00\x00Layout'
tRp2987
asbasbasbag68
(g84
g70
NtRp2988
(dp2989
g73
(dp2990
sg82
g2971
sg75
(lp2991
g68
(g89
g70
NtRp2992
(dp2993
g73
(dp2994
sg82
g2988
sg75
(lp2995
g68
(g69
g70
NtRp2996
(dp2997
g73
(dp2998
g81
I1
ssg82
g2992
sg75
(lp2999
I00
asbasbasbag68
(g84
g70
NtRp3000
(dp3001
g73
(dp3002
sg82
g2971
sg75
(lp3003
g68
(g89
g70
NtRp3004
(dp3005
g73
(dp3006
sg82
g3000
sg75
(lp3007
g68
(g69
g70
NtRp3008
(dp3009
g73
(dp3010
g81
I1
ssg82
g3004
sg75
(lp3011
S'/admin/default/edit/wp/views/layout.html'
p3012
asbasbasbasbasbasbasbag68
(g84
g70
NtRp3013
(dp3014
g73
(dp3015
sg82
g2847
sg75
(lp3016
g68
(g89
g70
NtRp3017
(dp3018
g73
(dp3019
sg82
g3013
sg75
(lp3020
g68
(g69
g70
NtRp3021
(dp3022
g73
(dp3023
g81
I2
ssg82
g3017
sg75
(lp3024
g68
(g77
g70
NtRp3025
(dp3026
g73
(dp3027
g81
I1
ssg82
Nsg75
(lp3028
g68
(g84
g70
NtRp3029
(dp3030
g73
(dp3031
sg82
g3025
sg75
(lp3032
g68
(g89
g70
NtRp3033
(dp3034
g73
(dp3035
sg82
g3029
sg75
(lp3036
g68
(g69
g70
NtRp3037
(dp3038
g73
(dp3039
g81
I1
ssg82
g3033
sg75
(lp3040
g2738
(S't\n\x00\x00\x00Stylesheet'
tRp3041
asbasbasbag68
(g84
g70
NtRp3042
(dp3043
g73
(dp3044
sg82
g3025
sg75
(lp3045
g68
(g89
g70
NtRp3046
(dp3047
g73
(dp3048
sg82
g3042
sg75
(lp3049
g68
(g69
g70
NtRp3050
(dp3051
g73
(dp3052
g81
I1
ssg82
g3046
sg75
(lp3053
I00
asbasbasbag68
(g84
g70
NtRp3054
(dp3055
g73
(dp3056
sg82
g3025
sg75
(lp3057
g68
(g89
g70
NtRp3058
(dp3059
g73
(dp3060
sg82
g3054
sg75
(lp3061
g68
(g69
g70
NtRp3062
(dp3063
g73
(dp3064
g81
I1
ssg82
g3058
sg75
(lp3065
S'/admin/default/edit/wp/static/base.css'
p3066
asbasbasbasbasbasbasbag68
(g84
g70
NtRp3067
(dp3068
g73
(dp3069
sg82
g2847
sg75
(lp3070
g68
(g89
g70
NtRp3071
(dp3072
g73
(dp3073
sg82
g3067
sg75
(lp3074
g68
(g69
g70
NtRp3075
(dp3076
g73
(dp3077
g81
I2
ssg82
g3071
sg75
(lp3078
g68
(g77
g70
NtRp3079
(dp3080
g73
(dp3081
g81
I1
ssg82
Nsg75
(lp3082
g68
(g84
g70
NtRp3083
(dp3084
g73
(dp3085
sg82
g3079
sg75
(lp3086
g68
(g89
g70
NtRp3087
(dp3088
g73
(dp3089
sg82
g3083
sg75
(lp3090
g68
(g69
g70
NtRp3091
(dp3092
g73
(dp3093
g81
I1
ssg82
g3087
sg75
(lp3094
g2738
(S's\x08\x00\x00\x00DB Model'
tRp3095
asbasbasbag68
(g84
g70
NtRp3096
(dp3097
g73
(dp3098
sg82
g3079
sg75
(lp3099
g68
(g89
g70
NtRp3100
(dp3101
g73
(dp3102
sg82
g3096
sg75
(lp3103
g68
(g69
g70
NtRp3104
(dp3105
g73
(dp3106
g81
I1
ssg82
g3100
sg75
(lp3107
I00
asbasbasbag68
(g84
g70
NtRp3108
(dp3109
g73
(dp3110
sg82
g3079
sg75
(lp3111
g68
(g89
g70
NtRp3112
(dp3113
g73
(dp3114
sg82
g3108
sg75
(lp3115
g68
(g69
g70
NtRp3116
(dp3117
g73
(dp3118
g81
I1
ssg82
g3112
sg75
(lp3119
S'/admin/default/edit/wp/models/db.py'
p3120
asbasbasbasbasbasbasbag68
(g84
g70
NtRp3121
(dp3122
g73
(dp3123
sg82
g2847
sg75
(lp3124
g68
(g89
g70
NtRp3125
(dp3126
g73
(dp3127
sg82
g3121
sg75
(lp3128
g68
(g69
g70
NtRp3129
(dp3130
g73
(dp3131
g81
I2
ssg82
g3125
sg75
(lp3132
g68
(g77
g70
NtRp3133
(dp3134
g73
(dp3135
g81
I1
ssg82
Nsg75
(lp3136
g68
(g84
g70
NtRp3137
(dp3138
g73
(dp3139
sg82
g3133
sg75
(lp3140
g68
(g89
g70
NtRp3141
(dp3142
g73
(dp3143
sg82
g3137
sg75
(lp3144
g68
(g69
g70
NtRp3145
(dp3146
g73
(dp3147
g81
I1
ssg82
g3141
sg75
(lp3148
g2738
(S's\n\x00\x00\x00Menu Model'
tRp3149
asbasbasbag68
(g84
g70
NtRp3150
(dp3151
g73
(dp3152
sg82
g3133
sg75
(lp3153
g68
(g89
g70
NtRp3154
(dp3155
g73
(dp3156
sg82
g3150
sg75
(lp3157
g68
(g69
g70
NtRp3158
(dp3159
g73
(dp3160
g81
I1
ssg82
g3154
sg75
(lp3161
I00
asbasbasbag68
(g84
g70
NtRp3162
(dp3163
g73
(dp3164
sg82
g3133
sg75
(lp3165
g68
(g89
g70
NtRp3166
(dp3167
g73
(dp3168
sg82
g3162
sg75
(lp3169
g68
(g69
g70
NtRp3170
(dp3171
g73
(dp3172
g81
I1
ssg82
g3166
sg75
(lp3173
S'/admin/default/edit/wp/models/menu.py'
p3174
asbasbasbasbasbasbasbag68
(g84
g70
NtRp3175
(dp3176
g73
(dp3177
sg82
g2847
sg75
(lp3178
g68
(g89
g70
NtRp3179
(dp3180
g73
(dp3181
sg82
g3175
sg75
(lp3182
g68
(g69
g70
NtRp3183
(dp3184
g73
(dp3185
g81
I2
ssg82
g3179
sg75
(lp3186
g68
(g77
g70
NtRp3187
(dp3188
g73
(dp3189
g81
I1
ssg82
Nsg75
(lp3190
g68
(g84
g70
NtRp3191
(dp3192
g73
(dp3193
sg82
g3187
sg75
(lp3194
g68
(g89
g70
NtRp3195
(dp3196
g73
(dp3197
sg82
g3191
sg75
(lp3198
g68
(g69
g70
NtRp3199
(dp3200
g73
(dp3201
g81
I1
ssg82
g3195
sg75
(lp3202
g2738
(S't\x08\x00\x00\x00Database'
tRp3203
asbasbasbag68
(g84
g70
NtRp3204
(dp3205
g73
(dp3206
sg82
g3187
sg75
(lp3207
g68
(g89
g70
NtRp3208
(dp3209
g73
(dp3210
sg82
g3204
sg75
(lp3211
g68
(g69
g70
NtRp3212
(dp3213
g73
(dp3214
g81
I1
ssg82
g3208
sg75
(lp3215
I00
asbasbasbag68
(g84
g70
NtRp3216
(dp3217
g73
(dp3218
sg82
g3187
sg75
(lp3219
g68
(g89
g70
NtRp3220
(dp3221
g73
(dp3222
sg82
g3216
sg75
(lp3223
g68
(g69
g70
NtRp3224
(dp3225
g73
(dp3226
g81
I1
ssg82
g3220
sg75
(lp3227
S'/wp/appadmin/index'
p3228
asbasbasbasbasbasbasbag68
(g84
g70
NtRp3229
(dp3230
g73
(dp3231
sg82
g2847
sg75
(lp3232
g68
(g89
g70
NtRp3233
(dp3234
g73
(dp3235
sg82
g3229
sg75
(lp3236
g68
(g69
g70
NtRp3237
(dp3238
g73
(dp3239
g81
I2
ssg82
g3233
sg75
(lp3240
g68
(g77
g70
NtRp3241
(dp3242
g73
(dp3243
g81
I1
ssg82
Nsg75
(lp3244
g68
(g84
g70
NtRp3245
(dp3246
g73
(dp3247
sg82
g3241
sg75
(lp3248
g68
(g89
g70
NtRp3249
(dp3250
g73
(dp3251
sg82
g3245
sg75
(lp3252
g68
(g69
g70
NtRp3253
(dp3254
g73
(dp3255
g81
I1
ssg82
g3249
sg75
(lp3256
g2738
(S't\x06\x00\x00\x00Errors'
tRp3257
asbasbasbag68
(g84
g70
NtRp3258
(dp3259
g73
(dp3260
sg82
g3241
sg75
(lp3261
g68
(g89
g70
NtRp3262
(dp3263
g73
(dp3264
sg82
g3258
sg75
(lp3265
g68
(g69
g70
NtRp3266
(dp3267
g73
(dp3268
g81
I1
ssg82
g3262
sg75
(lp3269
I00
asbasbasbag68
(g84
g70
NtRp3270
(dp3271
g73
(dp3272
sg82
g3241
sg75
(lp3273
g68
(g89
g70
NtRp3274
(dp3275
g73
(dp3276
sg82
g3270
sg75
(lp3277
g68
(g69
g70
NtRp3278
(dp3279
g73
(dp3280
g81
I1
ssg82
g3274
sg75
(lp3281
S'/admin/default/errors/wp'
p3282
asbasbasbasbasbasbasbag68
(g84
g70
NtRp3283
(dp3284
g73
(dp3285
sg82
g2847
sg75
(lp3286
g68
(g89
g70
NtRp3287
(dp3288
g73
(dp3289
sg82
g3283
sg75
(lp3290
g68
(g69
g70
NtRp3291
(dp3292
g73
(dp3293
g81
I2
ssg82
g3287
sg75
(lp3294
g68
(g77
g70
NtRp3295
(dp3296
g73
(dp3297
g81
I1
ssg82
Nsg75
(lp3298
g68
(g84
g70
NtRp3299
(dp3300
g73
(dp3301
sg82
g3295
sg75
(lp3302
g68
(g89
g70
NtRp3303
(dp3304
g73
(dp3305
sg82
g3299
sg75
(lp3306
g68
(g69
g70
NtRp3307
(dp3308
g73
(dp3309
g81
I1
ssg82
g3303
sg75
(lp3310
g2738
(S't\x05\x00\x00\x00About'
tRp3311
asbasbasbag68
(g84
g70
NtRp3312
(dp3313
g73
(dp3314
sg82
g3295
sg75
(lp3315
g68
(g89
g70
NtRp3316
(dp3317
g73
(dp3318
sg82
g3312
sg75
(lp3319
g68
(g69
g70
NtRp3320
(dp3321
g73
(dp3322
g81
I1
ssg82
g3316
sg75
(lp3323
I00
asbasbasbag68
(g84
g70
NtRp3324
(dp3325
g73
(dp3326
sg82
g3295
sg75
(lp3327
g68
(g89
g70
NtRp3328
(dp3329
g73
(dp3330
sg82
g3324
sg75
(lp3331
g68
(g69
g70
NtRp3332
(dp3333
g73
(dp3334
g81
I1
ssg82
g3328
sg75
(lp3335
S'/admin/default/about/wp'
p3336
asbasbasbasbasbasbasbasbasbasbasbasbasbasbasbag68
(g84
g70
NtRp3337
(dp3338
g73
(dp3339
sg82
g2706
sg75
(lp3340
g68
(g89
g70
NtRp3341
(dp3342
g73
(dp3343
sg82
g3337
sg75
(lp3344
g68
(g69
g70
NtRp3345
(dp3346
g73
(dp3347
g81
I4
ssg82
g3341
sg75
(lp3348
g68
(g77
g70
NtRp3349
(dp3350
g73
(dp3351
g81
I3
ssg82
Nsg75
(lp3352
g68
(g84
g70
NtRp3353
(dp3354
g73
(dp3355
sg82
g3349
sg75
(lp3356
g68
(g89
g70
NtRp3357
(dp3358
g73
(dp3359
sg82
g3353
sg75
(lp3360
g68
(g69
g70
NtRp3361
(dp3362
g73
(dp3363
g81
I3
ssg82
g3357
sg75
(lp3364
g2738
(S't\t\x00\x00\x00Resources'
tRp3365
asbasbasbag68
(g84
g70
NtRp3366
(dp3367
g73
(dp3368
sg82
g3349
sg75
(lp3369
g68
(g89
g70
NtRp3370
(dp3371
g73
(dp3372
sg82
g3366
sg75
(lp3373
g68
(g69
g70
NtRp3374
(dp3375
g73
(dp3376
g81
I3
ssg82
g3370
sg75
(lp3377
g111
asbasbasbag68
(g84
g70
NtRp3378
(dp3379
g73
(dp3380
sg82
g3349
sg75
(lp3381
g68
(g89
g70
NtRp3382
(dp3383
g73
(dp3384
sg82
g3378
sg75
(lp3385
g68
(g69
g70
NtRp3386
(dp3387
g73
(dp3388
g81
I3
ssg82
g3382
sg75
(lp3389
S'None'
p3390
asbasbasbag68
(g84
g70
NtRp3391
(dp3392
g73
(dp3393
sg82
g3349
sg75
(lp3394
g68
(g89
g70
NtRp3395
(dp3396
g73
(dp3397
sg82
g3391
sg75
(lp3398
g68
(g69
g70
NtRp3399
(dp3400
g73
(dp3401
g81
I3
ssg82
g3395
sg75
(lp3402
g68
(g77
g70
NtRp3403
(dp3404
g73
(dp3405
g81
I2
ssg82
Nsg75
(lp3406
g68
(g84
g70
NtRp3407
(dp3408
g73
(dp3409
sg82
g3403
sg75
(lp3410
g68
(g89
g70
NtRp3411
(dp3412
g73
(dp3413
sg82
g3407
sg75
(lp3414
g68
(g69
g70
NtRp3415
(dp3416
g73
(dp3417
g81
I2
ssg82
g3411
sg75
(lp3418
g68
(g77
g70
NtRp3419
(dp3420
g73
(dp3421
g81
I1
ssg82
Nsg75
(lp3422
g68
(g84
g70
NtRp3423
(dp3424
g73
(dp3425
sg82
g3419
sg75
(lp3426
g68
(g89
g70
NtRp3427
(dp3428
g73
(dp3429
sg82
g3423
sg75
(lp3430
g68
(g69
g70
NtRp3431
(dp3432
g73
(dp3433
g81
I1
ssg82
g3427
sg75
(lp3434
g2738
(S't\r\x00\x00\x00Documentation'
tRp3435
asbasbasbag68
(g84
g70
NtRp3436
(dp3437
g73
(dp3438
sg82
g3419
sg75
(lp3439
g68
(g89
g70
NtRp3440
(dp3441
g73
(dp3442
sg82
g3436
sg75
(lp3443
g68
(g69
g70
NtRp3444
(dp3445
g73
(dp3446
g81
I1
ssg82
g3440
sg75
(lp3447
I00
asbasbasbag68
(g84
g70
NtRp3448
(dp3449
g73
(dp3450
sg82
g3419
sg75
(lp3451
g68
(g89
g70
NtRp3452
(dp3453
g73
(dp3454
sg82
g3448
sg75
(lp3455
g68
(g69
g70
NtRp3456
(dp3457
g73
(dp3458
g81
I1
ssg82
g3452
sg75
(lp3459
S'http://www.web2py.com/book'
p3460
asbasbasbag68
(g84
g70
NtRp3461
(dp3462
g73
(dp3463
sg82
g3419
sg75
(lp3464
g68
(g89
g70
NtRp3465
(dp3466
g73
(dp3467
sg82
g3461
sg75
(lp3468
g68
(g69
g70
NtRp3469
(dp3470
g73
(dp3471
g81
I1
ssg82
g3465
sg75
(lp3472
(lp3473
(g2738
(S't\x07\x00\x00\x00Preface'
tRp3474
I00
S'http://www.web2py.com/book/default/chapter/00'
tp3475
a(g2738
(S't\x0c\x00\x00\x00Introduction'
tRp3476
I00
S'http://www.web2py.com/book/default/chapter/01'
tp3477
a(g2738
(S't\x06\x00\x00\x00Python'
tRp3478
I00
S'http://www.web2py.com/book/default/chapter/02'
tp3479
a(g2738
(S't\x08\x00\x00\x00Overview'
tRp3480
I00
S'http://www.web2py.com/book/default/chapter/03'
tp3481
a(g2738
(S's\x08\x00\x00\x00The Core'
tRp3482
I00
S'http://www.web2py.com/book/default/chapter/04'
tp3483
a(g2738
(S's\t\x00\x00\x00The Views'
tRp3484
I00
S'http://www.web2py.com/book/default/chapter/05'
tp3485
a(g2738
(S't\x08\x00\x00\x00Database'
tRp3486
I00
S'http://www.web2py.com/book/default/chapter/06'
tp3487
a(g2738
(S's\x14\x00\x00\x00Forms and Validators'
tRp3488
I00
S'http://www.web2py.com/book/default/chapter/07'
tp3489
a(g2738
(S's\x0e\x00\x00\x00Access Control'
tRp3490
I00
S'http://www.web2py.com/book/default/chapter/08'
tp3491
a(g2738
(S't\x08\x00\x00\x00Services'
tRp3492
I00
S'http://www.web2py.com/book/default/chapter/09'
tp3493
a(g2738
(S's\x0c\x00\x00\x00Ajax Recipes'
tRp3494
I00
S'http://www.web2py.com/book/default/chapter/10'
tp3495
a(g2738
(S's\x12\x00\x00\x00Deployment Recipes'
tRp3496
I00
S'http://www.web2py.com/book/default/chapter/11'
tp3497
a(g2738
(S's\r\x00\x00\x00Other Recipes'
tRp3498
I00
S'http://www.web2py.com/book/default/chapter/12'
tp3499
a(g2738
(S's\r\x00\x00\x00Buy this book'
tRp3500
I00
S'http://stores.lulu.com/web2py'
tp3501
aasbasbasbasbasbasbasbag68
(g84
g70
NtRp3502
(dp3503
g73
(dp3504
sg82
g3403
sg75
(lp3505
g68
(g89
g70
NtRp3506
(dp3507
g73
(dp3508
sg82
g3502
sg75
(lp3509
g68
(g69
g70
NtRp3510
(dp3511
g73
(dp3512
g81
I2
ssg82
g3506
sg75
(lp3513
g68
(g77
g70
NtRp3514
(dp3515
g73
(dp3516
g81
I1
ssg82
Nsg75
(lp3517
g68
(g84
g70
NtRp3518
(dp3519
g73
(dp3520
sg82
g3514
sg75
(lp3521
g68
(g89
g70
NtRp3522
(dp3523
g73
(dp3524
sg82
g3518
sg75
(lp3525
g68
(g69
g70
NtRp3526
(dp3527
g73
(dp3528
g81
I1
ssg82
g3522
sg75
(lp3529
g2738
(S't\t\x00\x00\x00Community'
tRp3530
asbasbasbag68
(g84
g70
NtRp3531
(dp3532
g73
(dp3533
sg82
g3514
sg75
(lp3534
g68
(g89
g70
NtRp3535
(dp3536
g73
(dp3537
sg82
g3531
sg75
(lp3538
g68
(g69
g70
NtRp3539
(dp3540
g73
(dp3541
g81
I1
ssg82
g3535
sg75
(lp3542
I00
asbasbasbag68
(g84
g70
NtRp3543
(dp3544
g73
(dp3545
sg82
g3514
sg75
(lp3546
g68
(g89
g70
NtRp3547
(dp3548
g73
(dp3549
sg82
g3543
sg75
(lp3550
g68
(g69
g70
NtRp3551
(dp3552
g73
(dp3553
g81
I1
ssg82
g3547
sg75
(lp3554
Nasbasbasbag68
(g84
g70
NtRp3555
(dp3556
g73
(dp3557
sg82
g3514
sg75
(lp3558
g68
(g89
g70
NtRp3559
(dp3560
g73
(dp3561
sg82
g3555
sg75
(lp3562
g68
(g69
g70
NtRp3563
(dp3564
g73
(dp3565
g81
I1
ssg82
g3559
sg75
(lp3566
(lp3567
(g2738
(S't\x06\x00\x00\x00Groups'
tRp3568
I00
S'http://www.web2py.com/examples/default/usergroups'
tp3569
a(g2738
(S't\x07\x00\x00\x00Twitter'
tRp3570
I00
S'http://twitter.com/web2py'
tp3571
a(g2738
(S's\t\x00\x00\x00Live chat'
tRp3572
I00
S'http://mibbit.com/?channel=%23web2py&server=irc.mibbit.net'
tp3573
a(g2738
(S's\n\x00\x00\x00User Voice'
tRp3574
I00
S'http://web2py.uservoice.com/'
tp3575
aasbasbasbasbasbasbasbag68
(g84
g70
NtRp3576
(dp3577
g73
(dp3578
sg82
g3403
sg75
(lp3579
g68
(g89
g70
NtRp3580
(dp3581
g73
(dp3582
sg82
g3576
sg75
(lp3583
g68
(g69
g70
NtRp3584
(dp3585
g73
(dp3586
g81
I2
ssg82
g3580
sg75
(lp3587
g68
(g77
g70
NtRp3588
(dp3589
g73
(dp3590
g81
I1
ssg82
Nsg75
(lp3591
g68
(g84
g70
NtRp3592
(dp3593
g73
(dp3594
sg82
g3588
sg75
(lp3595
g68
(g89
g70
NtRp3596
(dp3597
g73
(dp3598
sg82
g3592
sg75
(lp3599
g68
(g69
g70
NtRp3600
(dp3601
g73
(dp3602
g81
I1
ssg82
g3596
sg75
(lp3603
g2738
(S't\x06\x00\x00\x00Web2py'
tRp3604
asbasbasbag68
(g84
g70
NtRp3605
(dp3606
g73
(dp3607
sg82
g3588
sg75
(lp3608
g68
(g89
g70
NtRp3609
(dp3610
g73
(dp3611
sg82
g3605
sg75
(lp3612
g68
(g69
g70
NtRp3613
(dp3614
g73
(dp3615
g81
I1
ssg82
g3609
sg75
(lp3616
I00
asbasbasbag68
(g84
g70
NtRp3617
(dp3618
g73
(dp3619
sg82
g3588
sg75
(lp3620
g68
(g89
g70
NtRp3621
(dp3622
g73
(dp3623
sg82
g3617
sg75
(lp3624
g68
(g69
g70
NtRp3625
(dp3626
g73
(dp3627
g81
I1
ssg82
g3621
sg75
(lp3628
S'http://www.web2py.com'
p3629
asbasbasbag68
(g84
g70
NtRp3630
(dp3631
g73
(dp3632
sg82
g3588
sg75
(lp3633
g68
(g89
g70
NtRp3634
(dp3635
g73
(dp3636
sg82
g3630
sg75
(lp3637
g68
(g69
g70
NtRp3638
(dp3639
g73
(dp3640
g81
I1
ssg82
g3634
sg75
(lp3641
(lp3642
(g2738
(S't\x08\x00\x00\x00Download'
tRp3643
I00
S'http://www.web2py.com/examples/default/download'
tp3644
a(g2738
(S't\x07\x00\x00\x00Support'
tRp3645
I00
S'http://www.web2py.com/examples/default/support'
tp3646
a(g2738
(S's\x0e\x00\x00\x00Quick Examples'
tRp3647
I00
S'http://web2py.com/examples/default/examples'
tp3648
a(g2738
(S't\x03\x00\x00\x00FAQ'
tRp3649
I00
S'http://web2py.com/AlterEgo'
tp3650
a(g2738
(S's\x11\x00\x00\x00Free Applications'
tRp3651
I00
S'http://web2py.com/appliances'
tp3652
a(g2738
(S't\x07\x00\x00\x00Plugins'
tRp3653
I00
S'http://web2py.com/plugins'
tp3654
a(g2738
(S't\x07\x00\x00\x00Recipes'
tRp3655
I00
S'http://web2pyslices.com/'
tp3656
a(g2738
(S't\x04\x00\x00\x00Demo'
tRp3657
I00
S'http://web2py.com/demo_admin'
tp3658
a(g2738
(S't\x08\x00\x00\x00Semantic'
tRp3659
I00
S'http://web2py.com/semantic'
tp3660
a(g2738
(S't\x07\x00\x00\x00Layouts'
tRp3661
I00
S'http://web2py.com/layouts'
tp3662
a(g2738
(S't\x06\x00\x00\x00Videos'
tRp3663
I00
S'http://www.web2py.com/examples/default/videos/'
tp3664
aasbasbasbasbasbasbasbasbasbasbasbasbasbasbasbasbasbasbasbag68
(g84
g70
NtRp3665
(dp3666
g73
(dp3667
sg82
g2269
sg75
(lp3668
g68
(g89
g70
NtRp3669
(dp3670
g73
(dp3671
g93
g94
ssg82
g3665
sg75
(lp3672
S'meta'
p3673
asbag68
(g89
g70
NtRp3674
(dp3675
g73
(dp3676
g100
g101
ssg82
g3665
sg75
(lp3677
S':'
asbag68
(g89
g70
NtRp3678
(dp3679
g73
(dp3680
sg82
g3665
sg75
(lp3681
g68
(g69
g70
NtRp3682
(dp3683
g73
(dp3684
g81
I5
ssg82
g3678
sg75
(lp3685
g68
(g77
g70
NtRp3686
(dp3687
g73
(dp3688
g81
I4
ssg82
Nsg75
(lp3689
g68
(g84
g70
NtRp3690
(dp3691
g73
(dp3692
sg82
g3686
sg75
(lp3693
g68
(g89
g70
NtRp3694
(dp3695
g73
(dp3696
g93
g94
ssg82
g3690
sg75
(lp3697
S'author'
p3698
asbag68
(g89
g70
NtRp3699
(dp3700
g73
(dp3701
g100
g101
ssg82
g3690
sg75
(lp3702
S':'
asbag68
(g89
g70
NtRp3703
(dp3704
g73
(dp3705
sg82
g3690
sg75
(lp3706
g68
(g69
g70
NtRp3707
(dp3708
g73
(dp3709
g81
I4
ssg82
g3703
sg75
(lp3710
S'you'
p3711
asbasbasbag68
(g84
g70
NtRp3712
(dp3713
g73
(dp3714
sg82
g3686
sg75
(lp3715
g68
(g89
g70
NtRp3716
(dp3717
g73
(dp3718
g93
g94
ssg82
g3712
sg75
(lp3719
S'copyright'
p3720
asbag68
(g89
g70
NtRp3721
(dp3722
g73
(dp3723
g100
g101
ssg82
g3712
sg75
(lp3724
S':'
asbag68
(g89
g70
NtRp3725
(dp3726
g73
(dp3727
sg82
g3712
sg75
(lp3728
g68
(g69
g70
NtRp3729
(dp3730
g73
(dp3731
g81
I4
ssg82
g3725
sg75
(lp3732
S'Copyright 2007-2010'
p3733
asbasbasbag68
(g84
g70
NtRp3734
(dp3735
g73
(dp3736
sg82
g3686
sg75
(lp3737
g68
(g89
g70
NtRp3738
(dp3739
g73
(dp3740
g93
g94
ssg82
g3734
sg75
(lp3741
S'description'
p3742
asbag68
(g89
g70
NtRp3743
(dp3744
g73
(dp3745
g100
g101
ssg82
g3734
sg75
(lp3746
S':'
asbag68
(g89
g70
NtRp3747
(dp3748
g73
(dp3749
sg82
g3734
sg75
(lp3750
g68
(g69
g70
NtRp3751
(dp3752
g73
(dp3753
g81
I4
ssg82
g3747
sg75
(lp3754
S'Free and open source full-stack enterprise framework for agile development of fast, scalable, secure and portable database-driven web-based applications. Written and programmable in Python'
p3755
asbasbasbag68
(g84
g70
NtRp3756
(dp3757
g73
(dp3758
sg82
g3686
sg75
(lp3759
g68
(g89
g70
NtRp3760
(dp3761
g73
(dp3762
g93
g94
ssg82
g3756
sg75
(lp3763
S'generator'
p3764
asbag68
(g89
g70
NtRp3765
(dp3766
g73
(dp3767
g100
g101
ssg82
g3756
sg75
(lp3768
S':'
asbag68
(g89
g70
NtRp3769
(dp3770
g73
(dp3771
sg82
g3756
sg75
(lp3772
g68
(g69
g70
NtRp3773
(dp3774
g73
(dp3775
g81
I4
ssg82
g3769
sg75
(lp3776
S'Web2py Enterprise Framework'
p3777
asbasbasbag68
(g84
g70
NtRp3778
(dp3779
g73
(dp3780
sg82
g3686
sg75
(lp3781
g68
(g89
g70
NtRp3782
(dp3783
g73
(dp3784
g93
g94
ssg82
g3778
sg75
(lp3785
S'keywords'
p3786
asbag68
(g89
g70
NtRp3787
(dp3788
g73
(dp3789
g100
g101
ssg82
g3778
sg75
(lp3790
S':'
asbag68
(g89
g70
NtRp3791
(dp3792
g73
(dp3793
sg82
g3778
sg75
(lp3794
g68
(g69
g70
NtRp3795
(dp3796
g73
(dp3797
g81
I4
ssg82
g3791
sg75
(lp3798
S'web2py, python, framework'
p3799
asbasbasbasbasbasbasbag68
(g84
g70
NtRp3800
(dp3801
g73
(dp3802
sg82
g2269
sg75
(lp3803
g68
(g89
g70
NtRp3804
(dp3805
g73
(dp3806
g93
g94
ssg82
g3800
sg75
(lp3807
S'postprocessing'
p3808
asbag68
(g89
g70
NtRp3809
(dp3810
g73
(dp3811
g100
g101
ssg82
g3800
sg75
(lp3812
S':'
asbag68
(g89
g70
NtRp3813
(dp3814
g73
(dp3815
sg82
g3800
sg75
(lp3816
g68
(g69
g70
NtRp3817
(dp3818
g73
(dp3819
g81
I5
ssg82
g3813
sg75
(lp3820
g68
(g77
g70
NtRp3821
(dp3822
g73
(dp3823
g81
I4
ssg82
Nsg75
(lp3824
sbasbasbasbag68
(g84
g70
NtRp3825
(dp3826
g73
(dp3827
sg82
g2269
sg75
(lp3828
g68
(g89
g70
NtRp3829
(dp3830
g73
(dp3831
g93
g94
ssg82
g3825
sg75
(lp3832
S'session_filename'
p3833
asbag68
(g89
g70
NtRp3834
(dp3835
g73
(dp3836
g100
g101
ssg82
g3825
sg75
(lp3837
S':'
asbag68
(g89
g70
NtRp3838
(dp3839
g73
(dp3840
sg82
g3825
sg75
(lp3841
g68
(g69
g70
NtRp3842
(dp3843
g73
(dp3844
g81
I5
ssg82
g3838
sg75
(lp3845
S'/Users/schultzc/workspace/wherespuppet/web2py/applications/wp/sessions/127.0.0.1-f61df7b4-7e11-4cc9-86b7-9eec15352c0c'
p3846
asbasbasbag68
(g84
g70
NtRp3847
(dp3848
g73
(dp3849
sg82
g2269
sg75
(lp3850
g68
(g89
g70
NtRp3851
(dp3852
g73
(dp3853
g93
g94
ssg82
g3847
sg75
(lp3854
S'session_id'
p3855
asbag68
(g89
g70
NtRp3856
(dp3857
g73
(dp3858
g100
g101
ssg82
g3847
sg75
(lp3859
S':'
asbag68
(g89
g70
NtRp3860
(dp3861
g73
(dp3862
sg82
g3847
sg75
(lp3863
g68
(g69
g70
NtRp3864
(dp3865
g73
(dp3866
g81
I5
ssg82
g3860
sg75
(lp3867
S'127.0.0.1-f61df7b4-7e11-4cc9-86b7-9eec15352c0c'
p3868
asbasbasbag68
(g84
g70
NtRp3869
(dp3870
g73
(dp3871
sg82
g2269
sg75
(lp3872
g68
(g89
g70
NtRp3873
(dp3874
g73
(dp3875
g93
g94
ssg82
g3869
sg75
(lp3876
S'session_id_name'
p3877
asbag68
(g89
g70
NtRp3878
(dp3879
g73
(dp3880
g100
g101
ssg82
g3869
sg75
(lp3881
S':'
asbag68
(g89
g70
NtRp3882
(dp3883
g73
(dp3884
sg82
g3869
sg75
(lp3885
g68
(g69
g70
NtRp3886
(dp3887
g73
(dp3888
g81
I5
ssg82
g3882
sg75
(lp3889
g2326
asbasbasbag68
(g84
g70
NtRp3890
(dp3891
g73
(dp3892
sg82
g2269
sg75
(lp3893
g68
(g89
g70
NtRp3894
(dp3895
g73
(dp3896
g93
g94
ssg82
g3890
sg75
(lp3897
S'session_new'
p3898
asbag68
(g89
g70
NtRp3899
(dp3900
g73
(dp3901
g100
g101
ssg82
g3890
sg75
(lp3902
S':'
asbag68
(g89
g70
NtRp3903
(dp3904
g73
(dp3905
sg82
g3890
sg75
(lp3906
g68
(g69
g70
NtRp3907
(dp3908
g73
(dp3909
g81
I5
ssg82
g3903
sg75
(lp3910
g1211
asbasbasbag68
(g84
g70
NtRp3911
(dp3912
g73
(dp3913
sg82
g2269
sg75
(lp3914
g68
(g89
g70
NtRp3915
(dp3916
g73
(dp3917
g93
g94
ssg82
g3911
sg75
(lp3918
S'status'
p3919
asbag68
(g89
g70
NtRp3920
(dp3921
g73
(dp3922
g100
g101
ssg82
g3911
sg75
(lp3923
S':'
asbag68
(g89
g70
NtRp3924
(dp3925
g73
(dp3926
sg82
g3911
sg75
(lp3927
g68
(g69
g70
NtRp3928
(dp3929
g73
(dp3930
g81
I5
ssg82
g3924
sg75
(lp3931
S'200'
p3932
asbasbasbag68
(g84
g70
NtRp3933
(dp3934
g73
(dp3935
sg82
g2269
sg75
(lp3936
g68
(g89
g70
NtRp3937
(dp3938
g73
(dp3939
g93
g94
ssg82
g3933
sg75
(lp3940
S'subtitle'
p3941
asbag68
(g89
g70
NtRp3942
(dp3943
g73
(dp3944
g100
g101
ssg82
g3933
sg75
(lp3945
S':'
asbag68
(g89
g70
NtRp3946
(dp3947
g73
(dp3948
sg82
g3933
sg75
(lp3949
g68
(g69
g70
NtRp3950
(dp3951
g73
(dp3952
g81
I5
ssg82
g3946
sg75
(lp3953
g2738
(S's\r\x00\x00\x00customize me!'
tRp3954
asbasbasbag68
(g84
g70
NtRp3955
(dp3956
g73
(dp3957
sg82
g2269
sg75
(lp3958
g68
(g89
g70
NtRp3959
(dp3960
g73
(dp3961
g93
g94
ssg82
g3955
sg75
(lp3962
S'title'
p3963
asbag68
(g89
g70
NtRp3964
(dp3965
g73
(dp3966
g100
g101
ssg82
g3955
sg75
(lp3967
S':'
asbag68
(g89
g70
NtRp3968
(dp3969
g73
(dp3970
sg82
g3955
sg75
(lp3971
g68
(g69
g70
NtRp3972
(dp3973
g73
(dp3974
g81
I5
ssg82
g3968
sg75
(lp3975
g133
asbasbasbag68
(g84
g70
NtRp3976
(dp3977
g73
(dp3978
sg82
g2269
sg75
(lp3979
g68
(g89
g70
NtRp3980
(dp3981
g73
(dp3982
g93
g94
ssg82
g3976
sg75
(lp3983
g1535
asbag68
(g89
g70
NtRp3984
(dp3985
g73
(dp3986
g100
g101
ssg82
g3976
sg75
(lp3987
S':'
asbag68
(g89
g70
NtRp3988
(dp3989
g73
(dp3990
sg82
g3976
sg75
(lp3991
g68
(g69
g70
NtRp3992
(dp3993
g73
(dp3994
g81
I5
ssg82
g3988
sg75
(lp3995
g1548
asbasbasbag68
(g84
g70
NtRp3996
(dp3997
g73
(dp3998
sg82
g2269
sg75
(lp3999
g68
(g89
g70
NtRp4000
(dp4001
g73
(dp4002
g93
g94
ssg82
g3996
sg75
(lp4003
S'view'
p4004
asbag68
(g89
g70
NtRp4005
(dp4006
g73
(dp4007
g100
g101
ssg82
g3996
sg75
(lp4008
S':'
asbag68
(g89
g70
NtRp4009
(dp4010
g73
(dp4011
sg82
g3996
sg75
(lp4012
g68
(g69
g70
NtRp4013
(dp4014
g73
(dp4015
g81
I5
ssg82
g4009
sg75
(lp4016
S'default/submit.html'
p4017
asbasbasbasbasbsS'locals'
p4018
(dp4019
g3
S"'/Users/schultzc/workspace/wherespuppet/web2py/applications/wp/views/default/submit.html'"
p4020
sg5
S'\'response.write(\\\'<!DOCTYPE html>\\\\n<html lang="\\\', ...    -->    \\\\n  </body>\\\\n</html>\\\\n\\\', escape=False)\''
p4021
sssS'traceback'
p4022
S'Traceback (most recent call last):\n  File "/Users/schultzc/workspace/wherespuppet/web2py/gluon/restricted.py", line 191, in restricted\n    ccode = compile2(code,layer)\n  File "/Users/schultzc/workspace/wherespuppet/web2py/gluon/restricted.py", line 178, in compile2\n    return compile(code.rstrip().replace(\'\\r\\n\',\'\\n\')+\'\\n\', layer, \'exec\')\n  File "/Users/schultzc/workspace/wherespuppet/web2py/applications/wp/views/default/submit.html", line 105\n    if latitude != None\n                      ^\nSyntaxError: invalid syntax\n'
p4023
s.