(dp1
S'output'
p2
S''
sS'layer'
p3
S'/Users/schultzc/workspace/wherespuppet/web2py/applications/wp/controllers/default.py'
p4
sS'code'
p5
S'# -*- coding: utf-8 -*-\n# this file is released under public domain and you can use without limitations\n\n#########################################################################\n## This is a samples controller\n## - index is the default action of any application\n## - user is required for authentication and authorization\n## - download is for downloading files uploaded in the db (does streaming)\n## - call exposes all registered services (none by default)\n#########################################################################\nimport datetime\n\n\ndef index():\n    images = db().select(db.image.ALL, orderby=db.image.title)\n    return dict(images=images)\n    \ndef submit():\n    form = SQLFORM(db.image, submit_button=\'Submit Puppet\', _id = "submission",formstyle="divs")\n    if request.cookies.has_key (\'posLat\'):\n        latitude = request.cookies[\'posLat\'].value    \n    if form.accepts(request.vars, session):\n        response.flash = \'form accepted\'\n    elif form.errors:\n        response.flash = \'form has errors\'\n    else:\n        response.flash = \'please fill out the form\'\n        \n    if latitude is None:\n        return dict(form=form)\n    else:\n        dict(form=form, latitude=latitude)\n   \ndef show():\n    image = db(db.image.id==request.args(0)).select().first()\n    form = SQLFORM(db.comment)\n    form.vars.image_id = image.id\n    if form.accepts(request.vars, session):\n        response.flash = \'your comment is posted\'\n    comments = db(db.comment.image_id==image.id).select()\n    return dict(image=image, comments=comments, form=form)\n\ndef user():\n    """\n    exposes:\n    http://..../[app]/default/user/login\n    http://..../[app]/default/user/logout\n    http://..../[app]/default/user/register\n    http://..../[app]/default/user/profile\n    http://..../[app]/default/user/retrieve_password\n    http://..../[app]/default/user/change_password\n    use @auth.requires_login()\n        @auth.requires_membership(\'group name\')\n        @auth.requires_permission(\'read\',\'table name\',record_id)\n    to decorate functions that need access control\n    """\n    return dict(form=auth())\n\n\ndef download():\n    """\n    allows downloading of uploaded files\n    http://..../[app]/default/download/[filename]\n    """\n    return response.download(request,db)\n\n\ndef call():\n    """\n    exposes services. for example:\n    http://..../[app]/default/call/jsonrpc\n    decorate with @services.jsonrpc the functions to expose\n    supports xml, json, xmlrpc, jsonrpc, amfrpc, rss, csv\n    """\n    return service()\n\n\'\'\'\n@auth.requires_signature()\ndef data():\n    """\n    http://..../[app]/default/data/tables\n    http://..../[app]/default/data/create/[table]\n    http://..../[app]/default/data/read/[table]/[id]\n    http://..../[app]/default/data/update/[table]/[id]\n    http://..../[app]/default/data/delete/[table]/[id[\n    http://..../[app]/default/data/select/[table]\n    http://..../[app]/default/data/search/[table]\n    but URLs bust be signed, i.e. linked with\n      A(\'table\',_href=URL(\'data/tables\',user_signature=True))\n    or with the signed load operator\n      LOAD(\'default\',\'data.load\',args=\'tables\',ajax=True,user_signature=True)\n    """\n    return dict(form=crud())\n\'\'\'\n\nresponse._vars=response._caller(submit)\n'
p6
sS'snapshot'
p7
(dp8
S'exception'
p9
(dp10
S'__hash__'
p11
S"<method-wrapper '__hash__' of exceptions.UnboundLocalError object>"
p12
sS'__setattr__'
p13
S"<method-wrapper '__setattr__' of exceptions.UnboundLocalError object>"
p14
sS'__reduce_ex__'
p15
S'<built-in method __reduce_ex__ of exceptions.UnboundLocalError object>'
p16
sS'__getslice__'
p17
S"<method-wrapper '__getslice__' of exceptions.UnboundLocalError object>"
p18
sS'__getitem__'
p19
S"<method-wrapper '__getitem__' of exceptions.UnboundLocalError object>"
p20
sS'__setstate__'
p21
S'<built-in method __setstate__ of exceptions.UnboundLocalError object>'
p22
sS'args'
p23
S'("local variable \'latitude\' referenced before assignment",)'
p24
sS'__reduce__'
p25
S'<built-in method __reduce__ of exceptions.UnboundLocalError object>'
p26
sS'__str__'
p27
S"<method-wrapper '__str__' of exceptions.UnboundLocalError object>"
p28
sS'__format__'
p29
S'<built-in method __format__ of exceptions.UnboundLocalError object>'
p30
sS'__getattribute__'
p31
S"<method-wrapper '__getattribute__' of exceptions.UnboundLocalError object>"
p32
sS'__class__'
p33
S"<type 'exceptions.UnboundLocalError'>"
p34
sS'__unicode__'
p35
S'<built-in method __unicode__ of exceptions.UnboundLocalError object>'
p36
sS'__delattr__'
p37
S"<method-wrapper '__delattr__' of exceptions.UnboundLocalError object>"
p38
sS'__subclasshook__'
p39
S'<built-in method __subclasshook__ of type object>'
p40
sS'__repr__'
p41
S"<method-wrapper '__repr__' of exceptions.UnboundLocalError object>"
p42
sS'__dict__'
p43
S'{}'
p44
sS'__sizeof__'
p45
S'<built-in method __sizeof__ of exceptions.UnboundLocalError object>'
p46
sS'__doc__'
p47
S"'Local name referenced but not bound to a value.'"
p48
sS'__init__'
p49
S"<method-wrapper '__init__' of exceptions.UnboundLocalError object>"
p50
sS'__new__'
p51
S'<built-in method __new__ of type object>'
p52
ssS'evalue'
p53
S"local variable 'latitude' referenced before assignment"
p54
sS'request'
p55
ccopy_reg
_reconstructor
p56
(cgluon.html
BEAUTIFY
p57
c__builtin__
object
p58
NtRp59
(dp60
S'attributes'
p61
(dp62
sS'components'
p63
(lp64
g56
(cgluon.html
TABLE
p65
g58
NtRp66
(dp67
g61
(dp68
S'level'
p69
I5
ssS'parent'
p70
Nsg63
(lp71
g56
(cgluon.html
TR
p72
g58
NtRp73
(dp74
g61
(dp75
sg70
g66
sg63
(lp76
g56
(cgluon.html
TD
p77
g58
NtRp78
(dp79
g61
(dp80
S'_style'
p81
S'font-weight:bold;'
p82
ssg70
g73
sg63
(lp83
S'ajax'
p84
asbag56
(g77
g58
NtRp85
(dp86
g61
(dp87
S'_valign'
p88
S'top'
p89
ssg70
g73
sg63
(lp90
S':'
asbag56
(g77
g58
NtRp91
(dp92
g61
(dp93
sg70
g73
sg63
(lp94
g56
(g57
g58
NtRp95
(dp96
g61
(dp97
g69
I5
ssg70
g91
sg63
(lp98
S'False'
p99
asbasbasbag56
(g72
g58
NtRp100
(dp101
g61
(dp102
sg70
g66
sg63
(lp103
g56
(g77
g58
NtRp104
(dp105
g61
(dp106
g81
g82
ssg70
g100
sg63
(lp107
S'application'
p108
asbag56
(g77
g58
NtRp109
(dp110
g61
(dp111
g88
g89
ssg70
g100
sg63
(lp112
S':'
asbag56
(g77
g58
NtRp113
(dp114
g61
(dp115
sg70
g100
sg63
(lp116
g56
(g57
g58
NtRp117
(dp118
g61
(dp119
g69
I5
ssg70
g113
sg63
(lp120
S'wp'
p121
asbasbasbag56
(g72
g58
NtRp122
(dp123
g61
(dp124
sg70
g66
sg63
(lp125
g56
(g77
g58
NtRp126
(dp127
g61
(dp128
g81
g82
ssg70
g122
sg63
(lp129
g23
asbag56
(g77
g58
NtRp130
(dp131
g61
(dp132
g88
g89
ssg70
g122
sg63
(lp133
S':'
asbag56
(g77
g58
NtRp134
(dp135
g61
(dp136
sg70
g122
sg63
(lp137
g56
(g57
g58
NtRp138
(dp139
g61
(dp140
g69
I5
ssg70
g134
sg63
(lp141
g56
(g65
g58
NtRp142
(dp143
g61
(dp144
g69
I4
ssg70
Nsg63
(lp145
sbasbasbasbag56
(g72
g58
NtRp146
(dp147
g61
(dp148
sg70
g66
sg63
(lp149
g56
(g77
g58
NtRp150
(dp151
g61
(dp152
g81
g82
ssg70
g146
sg63
(lp153
S'body'
p154
asbag56
(g77
g58
NtRp155
(dp156
g61
(dp157
g88
g89
ssg70
g146
sg63
(lp158
S':'
asbag56
(g77
g58
NtRp159
(dp160
g61
(dp161
sg70
g146
sg63
(lp162
g56
(g57
g58
NtRp163
(dp164
g61
(dp165
g69
I5
ssg70
g159
sg63
(lp166
S'<cStringIO.StringO object at 0x105fe9ab0>'
p167
asbasbasbag56
(g72
g58
NtRp168
(dp169
g61
(dp170
sg70
g66
sg63
(lp171
g56
(g77
g58
NtRp172
(dp173
g61
(dp174
g81
g82
ssg70
g168
sg63
(lp175
S'client'
p176
asbag56
(g77
g58
NtRp177
(dp178
g61
(dp179
g88
g89
ssg70
g168
sg63
(lp180
S':'
asbag56
(g77
g58
NtRp181
(dp182
g61
(dp183
sg70
g168
sg63
(lp184
g56
(g57
g58
NtRp185
(dp186
g61
(dp187
g69
I5
ssg70
g181
sg63
(lp188
S'127.0.0.1'
p189
asbasbasbag56
(g72
g58
NtRp190
(dp191
g61
(dp192
sg70
g66
sg63
(lp193
g56
(g77
g58
NtRp194
(dp195
g61
(dp196
g81
g82
ssg70
g190
sg63
(lp197
S'controller'
p198
asbag56
(g77
g58
NtRp199
(dp200
g61
(dp201
g88
g89
ssg70
g190
sg63
(lp202
S':'
asbag56
(g77
g58
NtRp203
(dp204
g61
(dp205
sg70
g190
sg63
(lp206
g56
(g57
g58
NtRp207
(dp208
g61
(dp209
g69
I5
ssg70
g203
sg63
(lp210
S'default'
p211
asbasbasbag56
(g72
g58
NtRp212
(dp213
g61
(dp214
sg70
g66
sg63
(lp215
g56
(g77
g58
NtRp216
(dp217
g61
(dp218
g81
g82
ssg70
g212
sg63
(lp219
S'cookies'
p220
asbag56
(g77
g58
NtRp221
(dp222
g61
(dp223
g88
g89
ssg70
g212
sg63
(lp224
S':'
asbag56
(g77
g58
NtRp225
(dp226
g61
(dp227
sg70
g212
sg63
(lp228
g56
(g57
g58
NtRp229
(dp230
g61
(dp231
g69
I5
ssg70
g225
sg63
(lp232
g56
(g65
g58
NtRp233
(dp234
g61
(dp235
g69
I4
ssg70
Nsg63
(lp236
g56
(g72
g58
NtRp237
(dp238
g61
(dp239
sg70
g233
sg63
(lp240
g56
(g77
g58
NtRp241
(dp242
g61
(dp243
g81
g82
ssg70
g237
sg63
(lp244
S'session_id_admin'
p245
asbag56
(g77
g58
NtRp246
(dp247
g61
(dp248
g88
g89
ssg70
g237
sg63
(lp249
S':'
asbag56
(g77
g58
NtRp250
(dp251
g61
(dp252
sg70
g237
sg63
(lp253
g56
(g57
g58
NtRp254
(dp255
g61
(dp256
g69
I4
ssg70
g250
sg63
(lp257
g56
(g65
g58
NtRp258
(dp259
g61
(dp260
g69
I3
ssg70
Nsg63
(lp261
g56
(g72
g58
NtRp262
(dp263
g61
(dp264
sg70
g258
sg63
(lp265
g56
(g77
g58
NtRp266
(dp267
g61
(dp268
g81
g82
ssg70
g262
sg63
(lp269
S'comment'
p270
asbag56
(g77
g58
NtRp271
(dp272
g61
(dp273
g88
g89
ssg70
g262
sg63
(lp274
S':'
asbag56
(g77
g58
NtRp275
(dp276
g61
(dp277
sg70
g262
sg63
(lp278
g56
(g57
g58
NtRp279
(dp280
g61
(dp281
g69
I3
ssg70
g275
sg63
(lp282
S''
asbasbasbag56
(g72
g58
NtRp283
(dp284
g61
(dp285
sg70
g258
sg63
(lp286
g56
(g77
g58
NtRp287
(dp288
g61
(dp289
g81
g82
ssg70
g283
sg63
(lp290
S'domain'
p291
asbag56
(g77
g58
NtRp292
(dp293
g61
(dp294
g88
g89
ssg70
g283
sg63
(lp295
S':'
asbag56
(g77
g58
NtRp296
(dp297
g61
(dp298
sg70
g283
sg63
(lp299
g56
(g57
g58
NtRp300
(dp301
g61
(dp302
g69
I3
ssg70
g296
sg63
(lp303
S''
asbasbasbag56
(g72
g58
NtRp304
(dp305
g61
(dp306
sg70
g258
sg63
(lp307
g56
(g77
g58
NtRp308
(dp309
g61
(dp310
g81
g82
ssg70
g304
sg63
(lp311
S'expires'
p312
asbag56
(g77
g58
NtRp313
(dp314
g61
(dp315
g88
g89
ssg70
g304
sg63
(lp316
S':'
asbag56
(g77
g58
NtRp317
(dp318
g61
(dp319
sg70
g304
sg63
(lp320
g56
(g57
g58
NtRp321
(dp322
g61
(dp323
g69
I3
ssg70
g317
sg63
(lp324
S''
asbasbasbag56
(g72
g58
NtRp325
(dp326
g61
(dp327
sg70
g258
sg63
(lp328
g56
(g77
g58
NtRp329
(dp330
g61
(dp331
g81
g82
ssg70
g325
sg63
(lp332
S'httponly'
p333
asbag56
(g77
g58
NtRp334
(dp335
g61
(dp336
g88
g89
ssg70
g325
sg63
(lp337
S':'
asbag56
(g77
g58
NtRp338
(dp339
g61
(dp340
sg70
g325
sg63
(lp341
g56
(g57
g58
NtRp342
(dp343
g61
(dp344
g69
I3
ssg70
g338
sg63
(lp345
S''
asbasbasbag56
(g72
g58
NtRp346
(dp347
g61
(dp348
sg70
g258
sg63
(lp349
g56
(g77
g58
NtRp350
(dp351
g61
(dp352
g81
g82
ssg70
g346
sg63
(lp353
S'max-age'
p354
asbag56
(g77
g58
NtRp355
(dp356
g61
(dp357
g88
g89
ssg70
g346
sg63
(lp358
S':'
asbag56
(g77
g58
NtRp359
(dp360
g61
(dp361
sg70
g346
sg63
(lp362
g56
(g57
g58
NtRp363
(dp364
g61
(dp365
g69
I3
ssg70
g359
sg63
(lp366
S''
asbasbasbag56
(g72
g58
NtRp367
(dp368
g61
(dp369
sg70
g258
sg63
(lp370
g56
(g77
g58
NtRp371
(dp372
g61
(dp373
g81
g82
ssg70
g367
sg63
(lp374
S'path'
p375
asbag56
(g77
g58
NtRp376
(dp377
g61
(dp378
g88
g89
ssg70
g367
sg63
(lp379
S':'
asbag56
(g77
g58
NtRp380
(dp381
g61
(dp382
sg70
g367
sg63
(lp383
g56
(g57
g58
NtRp384
(dp385
g61
(dp386
g69
I3
ssg70
g380
sg63
(lp387
S''
asbasbasbag56
(g72
g58
NtRp388
(dp389
g61
(dp390
sg70
g258
sg63
(lp391
g56
(g77
g58
NtRp392
(dp393
g61
(dp394
g81
g82
ssg70
g388
sg63
(lp395
S'secure'
p396
asbag56
(g77
g58
NtRp397
(dp398
g61
(dp399
g88
g89
ssg70
g388
sg63
(lp400
S':'
asbag56
(g77
g58
NtRp401
(dp402
g61
(dp403
sg70
g388
sg63
(lp404
g56
(g57
g58
NtRp405
(dp406
g61
(dp407
g69
I3
ssg70
g401
sg63
(lp408
S''
asbasbasbag56
(g72
g58
NtRp409
(dp410
g61
(dp411
sg70
g258
sg63
(lp412
g56
(g77
g58
NtRp413
(dp414
g61
(dp415
g81
g82
ssg70
g409
sg63
(lp416
S'version'
p417
asbag56
(g77
g58
NtRp418
(dp419
g61
(dp420
g88
g89
ssg70
g409
sg63
(lp421
S':'
asbag56
(g77
g58
NtRp422
(dp423
g61
(dp424
sg70
g409
sg63
(lp425
g56
(g57
g58
NtRp426
(dp427
g61
(dp428
g69
I3
ssg70
g422
sg63
(lp429
S''
asbasbasbasbasbasbasbasbasbasbasbag56
(g72
g58
NtRp430
(dp431
g61
(dp432
sg70
g66
sg63
(lp433
g56
(g77
g58
NtRp434
(dp435
g61
(dp436
g81
g82
ssg70
g430
sg63
(lp437
S'env'
p438
asbag56
(g77
g58
NtRp439
(dp440
g61
(dp441
g88
g89
ssg70
g430
sg63
(lp442
S':'
asbag56
(g77
g58
NtRp443
(dp444
g61
(dp445
sg70
g430
sg63
(lp446
g56
(g57
g58
NtRp447
(dp448
g61
(dp449
g69
I5
ssg70
g443
sg63
(lp450
g56
(g65
g58
NtRp451
(dp452
g61
(dp453
g69
I4
ssg70
Nsg63
(lp454
g56
(g72
g58
NtRp455
(dp456
g61
(dp457
sg70
g451
sg63
(lp458
g56
(g77
g58
NtRp459
(dp460
g61
(dp461
g81
g82
ssg70
g455
sg63
(lp462
S'app_folders'
p463
asbag56
(g77
g58
NtRp464
(dp465
g61
(dp466
g88
g89
ssg70
g455
sg63
(lp467
S':'
asbag56
(g77
g58
NtRp468
(dp469
g61
(dp470
sg70
g455
sg63
(lp471
g56
(g57
g58
NtRp472
(dp473
g61
(dp474
g69
I4
ssg70
g468
sg63
(lp475
S"set(['/Users/schultzc/workspace/wherespuppet/web2py/applications/wp/', '/Users/schultzc/workspace/wherespuppet/web2py/applications/admin/'])"
p476
asbasbasbag56
(g72
g58
NtRp477
(dp478
g61
(dp479
sg70
g451
sg63
(lp480
g56
(g77
g58
NtRp481
(dp482
g61
(dp483
g81
g82
ssg70
g477
sg63
(lp484
S'applications_parent'
p485
asbag56
(g77
g58
NtRp486
(dp487
g61
(dp488
g88
g89
ssg70
g477
sg63
(lp489
S':'
asbag56
(g77
g58
NtRp490
(dp491
g61
(dp492
sg70
g477
sg63
(lp493
g56
(g57
g58
NtRp494
(dp495
g61
(dp496
g69
I4
ssg70
g490
sg63
(lp497
S'/Users/schultzc/workspace/wherespuppet/web2py'
p498
asbasbasbag56
(g72
g58
NtRp499
(dp500
g61
(dp501
sg70
g451
sg63
(lp502
g56
(g77
g58
NtRp503
(dp504
g61
(dp505
g81
g82
ssg70
g499
sg63
(lp506
S'cmd_args'
p507
asbag56
(g77
g58
NtRp508
(dp509
g61
(dp510
g88
g89
ssg70
g499
sg63
(lp511
S':'
asbag56
(g77
g58
NtRp512
(dp513
g61
(dp514
sg70
g499
sg63
(lp515
g56
(g57
g58
NtRp516
(dp517
g61
(dp518
g69
I4
ssg70
g512
sg63
(lp519
g56
(g65
g58
NtRp520
(dp521
g61
(dp522
g69
I3
ssg70
Nsg63
(lp523
sbasbasbasbag56
(g72
g58
NtRp524
(dp525
g61
(dp526
sg70
g451
sg63
(lp527
g56
(g77
g58
NtRp528
(dp529
g61
(dp530
g81
g82
ssg70
g524
sg63
(lp531
S'cmd_options'
p532
asbag56
(g77
g58
NtRp533
(dp534
g61
(dp535
g88
g89
ssg70
g524
sg63
(lp536
S':'
asbag56
(g77
g58
NtRp537
(dp538
g61
(dp539
sg70
g524
sg63
(lp540
g56
(g57
g58
NtRp541
(dp542
g61
(dp543
g69
I4
ssg70
g537
sg63
(lp544
S"<Values at 0x101b19ab8: {'verbose': False, 'ip': '127.0.0.1', 'shutdown_timeout': 5, 'taskbar': False, 'port': 8000, 'maxthreads': None, 'softcron': False, 'server_name': 'Magnus-Specialis.local', 'bpython': False, 'nogui': False, 'nocron': False, 'extcron': False, 'debuglevel': 30, 'test': None, 'folder': '/Users/schultzc/workspace/wherespuppet/web2py', 'config': '', 'import_models': False, 'winservice': '', 'shell': None, 'run': '', 'log_filename': 'httpserver.log', 'args': [''], 'profiler_filename': None, 'ssl_private_key': '', 'password': 'hello', 'request_queue_size': 5, 'ssl_certificate': '', 'cronjob': False, 'plain': False, 'quiet': False, 'interfaces': None, 'minthreads': None, 'timeout': 10, 'numthreads': None, 'nobanner': False, 'pid_filename': 'httpserver.pid'}>"
p545
asbasbasbag56
(g72
g58
NtRp546
(dp547
g61
(dp548
sg70
g451
sg63
(lp549
g56
(g77
g58
NtRp550
(dp551
g61
(dp552
g81
g82
ssg70
g546
sg63
(lp553
S'db_sessions'
p554
asbag56
(g77
g58
NtRp555
(dp556
g61
(dp557
g88
g89
ssg70
g546
sg63
(lp558
S':'
asbag56
(g77
g58
NtRp559
(dp560
g61
(dp561
sg70
g546
sg63
(lp562
g56
(g57
g58
NtRp563
(dp564
g61
(dp565
g69
I4
ssg70
g559
sg63
(lp566
S'set([])'
p567
asbasbasbag56
(g72
g58
NtRp568
(dp569
g61
(dp570
sg70
g451
sg63
(lp571
g56
(g77
g58
NtRp572
(dp573
g61
(dp574
g81
g82
ssg70
g568
sg63
(lp575
S'debugging'
p576
asbag56
(g77
g58
NtRp577
(dp578
g61
(dp579
g88
g89
ssg70
g568
sg63
(lp580
S':'
asbag56
(g77
g58
NtRp581
(dp582
g61
(dp583
sg70
g568
sg63
(lp584
g56
(g57
g58
NtRp585
(dp586
g61
(dp587
g69
I4
ssg70
g581
sg63
(lp588
g99
asbasbasbag56
(g72
g58
NtRp589
(dp590
g61
(dp591
sg70
g451
sg63
(lp592
g56
(g77
g58
NtRp593
(dp594
g61
(dp595
g81
g82
ssg70
g589
sg63
(lp596
S'gluon_parent'
p597
asbag56
(g77
g58
NtRp598
(dp599
g61
(dp600
g88
g89
ssg70
g589
sg63
(lp601
S':'
asbag56
(g77
g58
NtRp602
(dp603
g61
(dp604
sg70
g589
sg63
(lp605
g56
(g57
g58
NtRp606
(dp607
g61
(dp608
g69
I4
ssg70
g602
sg63
(lp609
S'/Users/schultzc/workspace/wherespuppet/web2py'
p610
asbasbasbag56
(g72
g58
NtRp611
(dp612
g61
(dp613
sg70
g451
sg63
(lp614
g56
(g77
g58
NtRp615
(dp616
g61
(dp617
g81
g82
ssg70
g611
sg63
(lp618
S'http_accept'
p619
asbag56
(g77
g58
NtRp620
(dp621
g61
(dp622
g88
g89
ssg70
g611
sg63
(lp623
S':'
asbag56
(g77
g58
NtRp624
(dp625
g61
(dp626
sg70
g611
sg63
(lp627
g56
(g57
g58
NtRp628
(dp629
g61
(dp630
g69
I4
ssg70
g624
sg63
(lp631
S'text/html,application/xhtml+xml,application/xml;q=0.9,*/*;q=0.8'
p632
asbasbasbag56
(g72
g58
NtRp633
(dp634
g61
(dp635
sg70
g451
sg63
(lp636
g56
(g77
g58
NtRp637
(dp638
g61
(dp639
g81
g82
ssg70
g633
sg63
(lp640
S'http_accept_charset'
p641
asbag56
(g77
g58
NtRp642
(dp643
g61
(dp644
g88
g89
ssg70
g633
sg63
(lp645
S':'
asbag56
(g77
g58
NtRp646
(dp647
g61
(dp648
sg70
g633
sg63
(lp649
g56
(g57
g58
NtRp650
(dp651
g61
(dp652
g69
I4
ssg70
g646
sg63
(lp653
S'ISO-8859-1,utf-8;q=0.7,*;q=0.3'
p654
asbasbasbag56
(g72
g58
NtRp655
(dp656
g61
(dp657
sg70
g451
sg63
(lp658
g56
(g77
g58
NtRp659
(dp660
g61
(dp661
g81
g82
ssg70
g655
sg63
(lp662
S'http_accept_encoding'
p663
asbag56
(g77
g58
NtRp664
(dp665
g61
(dp666
g88
g89
ssg70
g655
sg63
(lp667
S':'
asbag56
(g77
g58
NtRp668
(dp669
g61
(dp670
sg70
g655
sg63
(lp671
g56
(g57
g58
NtRp672
(dp673
g61
(dp674
g69
I4
ssg70
g668
sg63
(lp675
S'gzip,deflate,sdch'
p676
asbasbasbag56
(g72
g58
NtRp677
(dp678
g61
(dp679
sg70
g451
sg63
(lp680
g56
(g77
g58
NtRp681
(dp682
g61
(dp683
g81
g82
ssg70
g677
sg63
(lp684
S'http_accept_language'
p685
asbag56
(g77
g58
NtRp686
(dp687
g61
(dp688
g88
g89
ssg70
g677
sg63
(lp689
S':'
asbag56
(g77
g58
NtRp690
(dp691
g61
(dp692
sg70
g677
sg63
(lp693
g56
(g57
g58
NtRp694
(dp695
g61
(dp696
g69
I4
ssg70
g690
sg63
(lp697
S'en-US,en;q=0.8'
p698
asbasbasbag56
(g72
g58
NtRp699
(dp700
g61
(dp701
sg70
g451
sg63
(lp702
g56
(g77
g58
NtRp703
(dp704
g61
(dp705
g81
g82
ssg70
g699
sg63
(lp706
S'http_cache_control'
p707
asbag56
(g77
g58
NtRp708
(dp709
g61
(dp710
g88
g89
ssg70
g699
sg63
(lp711
S':'
asbag56
(g77
g58
NtRp712
(dp713
g61
(dp714
sg70
g699
sg63
(lp715
g56
(g57
g58
NtRp716
(dp717
g61
(dp718
g69
I4
ssg70
g712
sg63
(lp719
S'max-age=0'
p720
asbasbasbag56
(g72
g58
NtRp721
(dp722
g61
(dp723
sg70
g451
sg63
(lp724
g56
(g77
g58
NtRp725
(dp726
g61
(dp727
g81
g82
ssg70
g721
sg63
(lp728
S'http_connection'
p729
asbag56
(g77
g58
NtRp730
(dp731
g61
(dp732
g88
g89
ssg70
g721
sg63
(lp733
S':'
asbag56
(g77
g58
NtRp734
(dp735
g61
(dp736
sg70
g721
sg63
(lp737
g56
(g57
g58
NtRp738
(dp739
g61
(dp740
g69
I4
ssg70
g734
sg63
(lp741
S'keep-alive'
p742
asbasbasbag56
(g72
g58
NtRp743
(dp744
g61
(dp745
sg70
g451
sg63
(lp746
g56
(g77
g58
NtRp747
(dp748
g61
(dp749
g81
g82
ssg70
g743
sg63
(lp750
S'http_cookie'
p751
asbag56
(g77
g58
NtRp752
(dp753
g61
(dp754
g88
g89
ssg70
g743
sg63
(lp755
S':'
asbag56
(g77
g58
NtRp756
(dp757
g61
(dp758
sg70
g743
sg63
(lp759
g56
(g57
g58
NtRp760
(dp761
g61
(dp762
g69
I4
ssg70
g756
sg63
(lp763
S'session_id_admin=127.0.0.1-3e3fe103-b184-49b1-800c-35f788f78918'
p764
asbasbasbag56
(g72
g58
NtRp765
(dp766
g61
(dp767
sg70
g451
sg63
(lp768
g56
(g77
g58
NtRp769
(dp770
g61
(dp771
g81
g82
ssg70
g765
sg63
(lp772
S'http_host'
p773
asbag56
(g77
g58
NtRp774
(dp775
g61
(dp776
g88
g89
ssg70
g765
sg63
(lp777
S':'
asbag56
(g77
g58
NtRp778
(dp779
g61
(dp780
sg70
g765
sg63
(lp781
g56
(g57
g58
NtRp782
(dp783
g61
(dp784
g69
I4
ssg70
g778
sg63
(lp785
S'localhost:8000'
p786
asbasbasbag56
(g72
g58
NtRp787
(dp788
g61
(dp789
sg70
g451
sg63
(lp790
g56
(g77
g58
NtRp791
(dp792
g61
(dp793
g81
g82
ssg70
g787
sg63
(lp794
S'http_user_agent'
p795
asbag56
(g77
g58
NtRp796
(dp797
g61
(dp798
g88
g89
ssg70
g787
sg63
(lp799
S':'
asbag56
(g77
g58
NtRp800
(dp801
g61
(dp802
sg70
g787
sg63
(lp803
g56
(g57
g58
NtRp804
(dp805
g61
(dp806
g69
I4
ssg70
g800
sg63
(lp807
S'Mozilla/5.0 (Macintosh; Intel Mac OS X 10_6_8) AppleWebKit/534.30 (KHTML, like Gecko) Chrome/12.0.742.122 Safari/534.30'
p808
asbasbasbag56
(g72
g58
NtRp809
(dp810
g61
(dp811
sg70
g451
sg63
(lp812
g56
(g77
g58
NtRp813
(dp814
g61
(dp815
g81
g82
ssg70
g809
sg63
(lp816
S'path_info'
p817
asbag56
(g77
g58
NtRp818
(dp819
g61
(dp820
g88
g89
ssg70
g809
sg63
(lp821
S':'
asbag56
(g77
g58
NtRp822
(dp823
g61
(dp824
sg70
g809
sg63
(lp825
g56
(g57
g58
NtRp826
(dp827
g61
(dp828
g69
I4
ssg70
g822
sg63
(lp829
S'/wp/default/submit'
p830
asbasbasbag56
(g72
g58
NtRp831
(dp832
g61
(dp833
sg70
g451
sg63
(lp834
g56
(g77
g58
NtRp835
(dp836
g61
(dp837
g81
g82
ssg70
g831
sg63
(lp838
S'query_string'
p839
asbag56
(g77
g58
NtRp840
(dp841
g61
(dp842
g88
g89
ssg70
g831
sg63
(lp843
S':'
asbag56
(g77
g58
NtRp844
(dp845
g61
(dp846
sg70
g831
sg63
(lp847
g56
(g57
g58
NtRp848
(dp849
g61
(dp850
g69
I4
ssg70
g844
sg63
(lp851
S''
asbasbasbag56
(g72
g58
NtRp852
(dp853
g61
(dp854
sg70
g451
sg63
(lp855
g56
(g77
g58
NtRp856
(dp857
g61
(dp858
g81
g82
ssg70
g852
sg63
(lp859
S'remote_addr'
p860
asbag56
(g77
g58
NtRp861
(dp862
g61
(dp863
g88
g89
ssg70
g852
sg63
(lp864
S':'
asbag56
(g77
g58
NtRp865
(dp866
g61
(dp867
sg70
g852
sg63
(lp868
g56
(g57
g58
NtRp869
(dp870
g61
(dp871
g69
I4
ssg70
g865
sg63
(lp872
g189
asbasbasbag56
(g72
g58
NtRp873
(dp874
g61
(dp875
sg70
g451
sg63
(lp876
g56
(g77
g58
NtRp877
(dp878
g61
(dp879
g81
g82
ssg70
g873
sg63
(lp880
S'remote_port'
p881
asbag56
(g77
g58
NtRp882
(dp883
g61
(dp884
g88
g89
ssg70
g873
sg63
(lp885
S':'
asbag56
(g77
g58
NtRp886
(dp887
g61
(dp888
sg70
g873
sg63
(lp889
g56
(g57
g58
NtRp890
(dp891
g61
(dp892
g69
I4
ssg70
g886
sg63
(lp893
S'55566'
p894
asbasbasbag56
(g72
g58
NtRp895
(dp896
g61
(dp897
sg70
g451
sg63
(lp898
g56
(g77
g58
NtRp899
(dp900
g61
(dp901
g81
g82
ssg70
g895
sg63
(lp902
S'request_method'
p903
asbag56
(g77
g58
NtRp904
(dp905
g61
(dp906
g88
g89
ssg70
g895
sg63
(lp907
S':'
asbag56
(g77
g58
NtRp908
(dp909
g61
(dp910
sg70
g895
sg63
(lp911
g56
(g57
g58
NtRp912
(dp913
g61
(dp914
g69
I4
ssg70
g908
sg63
(lp915
S'GET'
p916
asbasbasbag56
(g72
g58
NtRp917
(dp918
g61
(dp919
sg70
g451
sg63
(lp920
g56
(g77
g58
NtRp921
(dp922
g61
(dp923
g81
g82
ssg70
g917
sg63
(lp924
S'script_name'
p925
asbag56
(g77
g58
NtRp926
(dp927
g61
(dp928
g88
g89
ssg70
g917
sg63
(lp929
S':'
asbag56
(g77
g58
NtRp930
(dp931
g61
(dp932
sg70
g917
sg63
(lp933
g56
(g57
g58
NtRp934
(dp935
g61
(dp936
g69
I4
ssg70
g930
sg63
(lp937
S''
asbasbasbag56
(g72
g58
NtRp938
(dp939
g61
(dp940
sg70
g451
sg63
(lp941
g56
(g77
g58
NtRp942
(dp943
g61
(dp944
g81
g82
ssg70
g938
sg63
(lp945
S'server_name'
p946
asbag56
(g77
g58
NtRp947
(dp948
g61
(dp949
g88
g89
ssg70
g938
sg63
(lp950
S':'
asbag56
(g77
g58
NtRp951
(dp952
g61
(dp953
sg70
g938
sg63
(lp954
g56
(g57
g58
NtRp955
(dp956
g61
(dp957
g69
I4
ssg70
g951
sg63
(lp958
S'Magnus-Specialis.local'
p959
asbasbasbag56
(g72
g58
NtRp960
(dp961
g61
(dp962
sg70
g451
sg63
(lp963
g56
(g77
g58
NtRp964
(dp965
g61
(dp966
g81
g82
ssg70
g960
sg63
(lp967
S'server_port'
p968
asbag56
(g77
g58
NtRp969
(dp970
g61
(dp971
g88
g89
ssg70
g960
sg63
(lp972
S':'
asbag56
(g77
g58
NtRp973
(dp974
g61
(dp975
sg70
g960
sg63
(lp976
g56
(g57
g58
NtRp977
(dp978
g61
(dp979
g69
I4
ssg70
g973
sg63
(lp980
S'8000'
p981
asbasbasbag56
(g72
g58
NtRp982
(dp983
g61
(dp984
sg70
g451
sg63
(lp985
g56
(g77
g58
NtRp986
(dp987
g61
(dp988
g81
g82
ssg70
g982
sg63
(lp989
S'server_protocol'
p990
asbag56
(g77
g58
NtRp991
(dp992
g61
(dp993
g88
g89
ssg70
g982
sg63
(lp994
S':'
asbag56
(g77
g58
NtRp995
(dp996
g61
(dp997
sg70
g982
sg63
(lp998
g56
(g57
g58
NtRp999
(dp1000
g61
(dp1001
g69
I4
ssg70
g995
sg63
(lp1002
S'HTTP/1.1'
p1003
asbasbasbag56
(g72
g58
NtRp1004
(dp1005
g61
(dp1006
sg70
g451
sg63
(lp1007
g56
(g77
g58
NtRp1008
(dp1009
g61
(dp1010
g81
g82
ssg70
g1004
sg63
(lp1011
S'server_software'
p1012
asbag56
(g77
g58
NtRp1013
(dp1014
g61
(dp1015
g88
g89
ssg70
g1004
sg63
(lp1016
S':'
asbag56
(g77
g58
NtRp1017
(dp1018
g61
(dp1019
sg70
g1004
sg63
(lp1020
g56
(g57
g58
NtRp1021
(dp1022
g61
(dp1023
g69
I4
ssg70
g1017
sg63
(lp1024
S'Rocket 1.2.2'
p1025
asbasbasbag56
(g72
g58
NtRp1026
(dp1027
g61
(dp1028
sg70
g451
sg63
(lp1029
g56
(g77
g58
NtRp1030
(dp1031
g61
(dp1032
g81
g82
ssg70
g1026
sg63
(lp1033
S'web2py_crontype'
p1034
asbag56
(g77
g58
NtRp1035
(dp1036
g61
(dp1037
g88
g89
ssg70
g1026
sg63
(lp1038
S':'
asbag56
(g77
g58
NtRp1039
(dp1040
g61
(dp1041
sg70
g1026
sg63
(lp1042
g56
(g57
g58
NtRp1043
(dp1044
g61
(dp1045
g69
I4
ssg70
g1039
sg63
(lp1046
S'hard'
p1047
asbasbasbag56
(g72
g58
NtRp1048
(dp1049
g61
(dp1050
sg70
g451
sg63
(lp1051
g56
(g77
g58
NtRp1052
(dp1053
g61
(dp1054
g81
g82
ssg70
g1048
sg63
(lp1055
S'web2py_path'
p1056
asbag56
(g77
g58
NtRp1057
(dp1058
g61
(dp1059
g88
g89
ssg70
g1048
sg63
(lp1060
S':'
asbag56
(g77
g58
NtRp1061
(dp1062
g61
(dp1063
sg70
g1048
sg63
(lp1064
g56
(g57
g58
NtRp1065
(dp1066
g61
(dp1067
g69
I4
ssg70
g1061
sg63
(lp1068
g498
asbasbasbag56
(g72
g58
NtRp1069
(dp1070
g61
(dp1071
sg70
g451
sg63
(lp1072
g56
(g77
g58
NtRp1073
(dp1074
g61
(dp1075
g81
g82
ssg70
g1069
sg63
(lp1076
S'web2py_version'
p1077
asbag56
(g77
g58
NtRp1078
(dp1079
g61
(dp1080
g88
g89
ssg70
g1069
sg63
(lp1081
S':'
asbag56
(g77
g58
NtRp1082
(dp1083
g61
(dp1084
sg70
g1069
sg63
(lp1085
g56
(g57
g58
NtRp1086
(dp1087
g61
(dp1088
g69
I4
ssg70
g1082
sg63
(lp1089
S'Version 1.97.1 (2011-06-26 19:25:44)\n'
p1090
asbasbasbag56
(g72
g58
NtRp1091
(dp1092
g61
(dp1093
sg70
g451
sg63
(lp1094
g56
(g77
g58
NtRp1095
(dp1096
g61
(dp1097
g81
g82
ssg70
g1091
sg63
(lp1098
S'wsgi_errors'
p1099
asbag56
(g77
g58
NtRp1100
(dp1101
g61
(dp1102
g88
g89
ssg70
g1091
sg63
(lp1103
S':'
asbag56
(g77
g58
NtRp1104
(dp1105
g61
(dp1106
sg70
g1091
sg63
(lp1107
g56
(g57
g58
NtRp1108
(dp1109
g61
(dp1110
g69
I4
ssg70
g1104
sg63
(lp1111
S"<open file '<stderr>', mode 'w' at 0x100283270>"
p1112
asbasbasbag56
(g72
g58
NtRp1113
(dp1114
g61
(dp1115
sg70
g451
sg63
(lp1116
g56
(g77
g58
NtRp1117
(dp1118
g61
(dp1119
g81
g82
ssg70
g1113
sg63
(lp1120
S'wsgi_file_wrapper'
p1121
asbag56
(g77
g58
NtRp1122
(dp1123
g61
(dp1124
g88
g89
ssg70
g1113
sg63
(lp1125
S':'
asbag56
(g77
g58
NtRp1126
(dp1127
g61
(dp1128
sg70
g1113
sg63
(lp1129
g56
(g57
g58
NtRp1130
(dp1131
g61
(dp1132
g69
I4
ssg70
g1126
sg63
(lp1133
S'<class gluon.rocket.FileWrapper at 0x101976ef0>'
p1134
asbasbasbag56
(g72
g58
NtRp1135
(dp1136
g61
(dp1137
sg70
g451
sg63
(lp1138
g56
(g77
g58
NtRp1139
(dp1140
g61
(dp1141
g81
g82
ssg70
g1135
sg63
(lp1142
S'wsgi_input'
p1143
asbag56
(g77
g58
NtRp1144
(dp1145
g61
(dp1146
g88
g89
ssg70
g1135
sg63
(lp1147
S':'
asbag56
(g77
g58
NtRp1148
(dp1149
g61
(dp1150
sg70
g1135
sg63
(lp1151
g56
(g57
g58
NtRp1152
(dp1153
g61
(dp1154
g69
I4
ssg70
g1148
sg63
(lp1155
S'<socket._fileobject object at 0x105fcc450>'
p1156
asbasbasbag56
(g72
g58
NtRp1157
(dp1158
g61
(dp1159
sg70
g451
sg63
(lp1160
g56
(g77
g58
NtRp1161
(dp1162
g61
(dp1163
g81
g82
ssg70
g1157
sg63
(lp1164
S'wsgi_multiprocess'
p1165
asbag56
(g77
g58
NtRp1166
(dp1167
g61
(dp1168
g88
g89
ssg70
g1157
sg63
(lp1169
S':'
asbag56
(g77
g58
NtRp1170
(dp1171
g61
(dp1172
sg70
g1157
sg63
(lp1173
g56
(g57
g58
NtRp1174
(dp1175
g61
(dp1176
g69
I4
ssg70
g1170
sg63
(lp1177
g99
asbasbasbag56
(g72
g58
NtRp1178
(dp1179
g61
(dp1180
sg70
g451
sg63
(lp1181
g56
(g77
g58
NtRp1182
(dp1183
g61
(dp1184
g81
g82
ssg70
g1178
sg63
(lp1185
S'wsgi_multithread'
p1186
asbag56
(g77
g58
NtRp1187
(dp1188
g61
(dp1189
g88
g89
ssg70
g1178
sg63
(lp1190
S':'
asbag56
(g77
g58
NtRp1191
(dp1192
g61
(dp1193
sg70
g1178
sg63
(lp1194
g56
(g57
g58
NtRp1195
(dp1196
g61
(dp1197
g69
I4
ssg70
g1191
sg63
(lp1198
S'True'
p1199
asbasbasbag56
(g72
g58
NtRp1200
(dp1201
g61
(dp1202
sg70
g451
sg63
(lp1203
g56
(g77
g58
NtRp1204
(dp1205
g61
(dp1206
g81
g82
ssg70
g1200
sg63
(lp1207
S'wsgi_run_once'
p1208
asbag56
(g77
g58
NtRp1209
(dp1210
g61
(dp1211
g88
g89
ssg70
g1200
sg63
(lp1212
S':'
asbag56
(g77
g58
NtRp1213
(dp1214
g61
(dp1215
sg70
g1200
sg63
(lp1216
g56
(g57
g58
NtRp1217
(dp1218
g61
(dp1219
g69
I4
ssg70
g1213
sg63
(lp1220
g99
asbasbasbag56
(g72
g58
NtRp1221
(dp1222
g61
(dp1223
sg70
g451
sg63
(lp1224
g56
(g77
g58
NtRp1225
(dp1226
g61
(dp1227
g81
g82
ssg70
g1221
sg63
(lp1228
S'wsgi_url_scheme'
p1229
asbag56
(g77
g58
NtRp1230
(dp1231
g61
(dp1232
g88
g89
ssg70
g1221
sg63
(lp1233
S':'
asbag56
(g77
g58
NtRp1234
(dp1235
g61
(dp1236
sg70
g1221
sg63
(lp1237
g56
(g57
g58
NtRp1238
(dp1239
g61
(dp1240
g69
I4
ssg70
g1234
sg63
(lp1241
S'http'
p1242
asbasbasbag56
(g72
g58
NtRp1243
(dp1244
g61
(dp1245
sg70
g451
sg63
(lp1246
g56
(g77
g58
NtRp1247
(dp1248
g61
(dp1249
g81
g82
ssg70
g1243
sg63
(lp1250
S'wsgi_version'
p1251
asbag56
(g77
g58
NtRp1252
(dp1253
g61
(dp1254
g88
g89
ssg70
g1243
sg63
(lp1255
S':'
asbag56
(g77
g58
NtRp1256
(dp1257
g61
(dp1258
sg70
g1243
sg63
(lp1259
g56
(g57
g58
NtRp1260
(dp1261
g61
(dp1262
g69
I4
ssg70
g1256
sg63
(lp1263
g56
(g65
g58
NtRp1264
(dp1265
g61
(dp1266
g69
I3
ssg70
Nsg63
(lp1267
g56
(g72
g58
NtRp1268
(dp1269
g61
(dp1270
sg70
g1264
sg63
(lp1271
g56
(g77
g58
NtRp1272
(dp1273
g61
(dp1274
sg70
g1268
sg63
(lp1275
g56
(g57
g58
NtRp1276
(dp1277
g61
(dp1278
g69
I3
ssg70
g1272
sg63
(lp1279
S'1'
asbasbasbag56
(g72
g58
NtRp1280
(dp1281
g61
(dp1282
sg70
g1264
sg63
(lp1283
g56
(g77
g58
NtRp1284
(dp1285
g61
(dp1286
sg70
g1280
sg63
(lp1287
g56
(g57
g58
NtRp1288
(dp1289
g61
(dp1290
g69
I3
ssg70
g1284
sg63
(lp1291
S'0'
asbasbasbasbasbasbasbasbasbasbasbag56
(g72
g58
NtRp1292
(dp1293
g61
(dp1294
sg70
g66
sg63
(lp1295
g56
(g77
g58
NtRp1296
(dp1297
g61
(dp1298
g81
g82
ssg70
g1292
sg63
(lp1299
S'extension'
p1300
asbag56
(g77
g58
NtRp1301
(dp1302
g61
(dp1303
g88
g89
ssg70
g1292
sg63
(lp1304
S':'
asbag56
(g77
g58
NtRp1305
(dp1306
g61
(dp1307
sg70
g1292
sg63
(lp1308
g56
(g57
g58
NtRp1309
(dp1310
g61
(dp1311
g69
I5
ssg70
g1305
sg63
(lp1312
S'html'
p1313
asbasbasbag56
(g72
g58
NtRp1314
(dp1315
g61
(dp1316
sg70
g66
sg63
(lp1317
g56
(g77
g58
NtRp1318
(dp1319
g61
(dp1320
g81
g82
ssg70
g1314
sg63
(lp1321
S'folder'
p1322
asbag56
(g77
g58
NtRp1323
(dp1324
g61
(dp1325
g88
g89
ssg70
g1314
sg63
(lp1326
S':'
asbag56
(g77
g58
NtRp1327
(dp1328
g61
(dp1329
sg70
g1314
sg63
(lp1330
g56
(g57
g58
NtRp1331
(dp1332
g61
(dp1333
g69
I5
ssg70
g1327
sg63
(lp1334
S'/Users/schultzc/workspace/wherespuppet/web2py/applications/wp/'
p1335
asbasbasbag56
(g72
g58
NtRp1336
(dp1337
g61
(dp1338
sg70
g66
sg63
(lp1339
g56
(g77
g58
NtRp1340
(dp1341
g61
(dp1342
g81
g82
ssg70
g1336
sg63
(lp1343
S'function'
p1344
asbag56
(g77
g58
NtRp1345
(dp1346
g61
(dp1347
g88
g89
ssg70
g1336
sg63
(lp1348
S':'
asbag56
(g77
g58
NtRp1349
(dp1350
g61
(dp1351
sg70
g1336
sg63
(lp1352
g56
(g57
g58
NtRp1353
(dp1354
g61
(dp1355
g69
I5
ssg70
g1349
sg63
(lp1356
S'submit'
p1357
asbasbasbag56
(g72
g58
NtRp1358
(dp1359
g61
(dp1360
sg70
g66
sg63
(lp1361
g56
(g77
g58
NtRp1362
(dp1363
g61
(dp1364
g81
g82
ssg70
g1358
sg63
(lp1365
S'get_vars'
p1366
asbag56
(g77
g58
NtRp1367
(dp1368
g61
(dp1369
g88
g89
ssg70
g1358
sg63
(lp1370
S':'
asbag56
(g77
g58
NtRp1371
(dp1372
g61
(dp1373
sg70
g1358
sg63
(lp1374
g56
(g57
g58
NtRp1375
(dp1376
g61
(dp1377
g69
I5
ssg70
g1371
sg63
(lp1378
g56
(g65
g58
NtRp1379
(dp1380
g61
(dp1381
g69
I4
ssg70
Nsg63
(lp1382
sbasbasbasbag56
(g72
g58
NtRp1383
(dp1384
g61
(dp1385
sg70
g66
sg63
(lp1386
g56
(g77
g58
NtRp1387
(dp1388
g61
(dp1389
g81
g82
ssg70
g1383
sg63
(lp1390
S'is_https'
p1391
asbag56
(g77
g58
NtRp1392
(dp1393
g61
(dp1394
g88
g89
ssg70
g1383
sg63
(lp1395
S':'
asbag56
(g77
g58
NtRp1396
(dp1397
g61
(dp1398
sg70
g1383
sg63
(lp1399
g56
(g57
g58
NtRp1400
(dp1401
g61
(dp1402
g69
I5
ssg70
g1396
sg63
(lp1403
g99
asbasbasbag56
(g72
g58
NtRp1404
(dp1405
g61
(dp1406
sg70
g66
sg63
(lp1407
g56
(g77
g58
NtRp1408
(dp1409
g61
(dp1410
g81
g82
ssg70
g1404
sg63
(lp1411
S'is_local'
p1412
asbag56
(g77
g58
NtRp1413
(dp1414
g61
(dp1415
g88
g89
ssg70
g1404
sg63
(lp1416
S':'
asbag56
(g77
g58
NtRp1417
(dp1418
g61
(dp1419
sg70
g1404
sg63
(lp1420
g56
(g57
g58
NtRp1421
(dp1422
g61
(dp1423
g69
I5
ssg70
g1417
sg63
(lp1424
g1199
asbasbasbag56
(g72
g58
NtRp1425
(dp1426
g61
(dp1427
sg70
g66
sg63
(lp1428
g56
(g77
g58
NtRp1429
(dp1430
g61
(dp1431
g81
g82
ssg70
g1425
sg63
(lp1432
S'is_restful'
p1433
asbag56
(g77
g58
NtRp1434
(dp1435
g61
(dp1436
g88
g89
ssg70
g1425
sg63
(lp1437
S':'
asbag56
(g77
g58
NtRp1438
(dp1439
g61
(dp1440
sg70
g1425
sg63
(lp1441
g56
(g57
g58
NtRp1442
(dp1443
g61
(dp1444
g69
I5
ssg70
g1438
sg63
(lp1445
g99
asbasbasbag56
(g72
g58
NtRp1446
(dp1447
g61
(dp1448
sg70
g66
sg63
(lp1449
g56
(g77
g58
NtRp1450
(dp1451
g61
(dp1452
g81
g82
ssg70
g1446
sg63
(lp1453
S'now'
p1454
asbag56
(g77
g58
NtRp1455
(dp1456
g61
(dp1457
g88
g89
ssg70
g1446
sg63
(lp1458
S':'
asbag56
(g77
g58
NtRp1459
(dp1460
g61
(dp1461
sg70
g1446
sg63
(lp1462
g56
(g57
g58
NtRp1463
(dp1464
g61
(dp1465
g69
I5
ssg70
g1459
sg63
(lp1466
S'datetime.datetime(2011, 7, 25, 12, 31, 44, 648434)'
p1467
asbasbasbag56
(g72
g58
NtRp1468
(dp1469
g61
(dp1470
sg70
g66
sg63
(lp1471
g56
(g77
g58
NtRp1472
(dp1473
g61
(dp1474
g81
g82
ssg70
g1468
sg63
(lp1475
S'post_vars'
p1476
asbag56
(g77
g58
NtRp1477
(dp1478
g61
(dp1479
g88
g89
ssg70
g1468
sg63
(lp1480
S':'
asbag56
(g77
g58
NtRp1481
(dp1482
g61
(dp1483
sg70
g1468
sg63
(lp1484
g56
(g57
g58
NtRp1485
(dp1486
g61
(dp1487
g69
I5
ssg70
g1481
sg63
(lp1488
g56
(g65
g58
NtRp1489
(dp1490
g61
(dp1491
g69
I4
ssg70
Nsg63
(lp1492
sbasbasbasbag56
(g72
g58
NtRp1493
(dp1494
g61
(dp1495
sg70
g66
sg63
(lp1496
g56
(g77
g58
NtRp1497
(dp1498
g61
(dp1499
g81
g82
ssg70
g1493
sg63
(lp1500
S'url'
p1501
asbag56
(g77
g58
NtRp1502
(dp1503
g61
(dp1504
g88
g89
ssg70
g1493
sg63
(lp1505
S':'
asbag56
(g77
g58
NtRp1506
(dp1507
g61
(dp1508
sg70
g1493
sg63
(lp1509
g56
(g57
g58
NtRp1510
(dp1511
g61
(dp1512
g69
I5
ssg70
g1506
sg63
(lp1513
S'/wp/default/submit'
p1514
asbasbasbag56
(g72
g58
NtRp1515
(dp1516
g61
(dp1517
sg70
g66
sg63
(lp1518
g56
(g77
g58
NtRp1519
(dp1520
g61
(dp1521
g81
g82
ssg70
g1515
sg63
(lp1522
S'uuid'
p1523
asbag56
(g77
g58
NtRp1524
(dp1525
g61
(dp1526
g88
g89
ssg70
g1515
sg63
(lp1527
S':'
asbag56
(g77
g58
NtRp1528
(dp1529
g61
(dp1530
sg70
g1515
sg63
(lp1531
g56
(g57
g58
NtRp1532
(dp1533
g61
(dp1534
g69
I5
ssg70
g1528
sg63
(lp1535
S'wp/127.0.0.1.2011-07-25.12-31-44.2793be67-b30c-497f-8946-c0662f30b243'
p1536
asbasbasbag56
(g72
g58
NtRp1537
(dp1538
g61
(dp1539
sg70
g66
sg63
(lp1540
g56
(g77
g58
NtRp1541
(dp1542
g61
(dp1543
g81
g82
ssg70
g1537
sg63
(lp1544
S'vars'
p1545
asbag56
(g77
g58
NtRp1546
(dp1547
g61
(dp1548
g88
g89
ssg70
g1537
sg63
(lp1549
S':'
asbag56
(g77
g58
NtRp1550
(dp1551
g61
(dp1552
sg70
g1537
sg63
(lp1553
g56
(g57
g58
NtRp1554
(dp1555
g61
(dp1556
g69
I5
ssg70
g1550
sg63
(lp1557
g56
(g65
g58
NtRp1558
(dp1559
g61
(dp1560
g69
I4
ssg70
Nsg63
(lp1561
sbasbasbasbag56
(g72
g58
NtRp1562
(dp1563
g61
(dp1564
sg70
g66
sg63
(lp1565
g56
(g77
g58
NtRp1566
(dp1567
g61
(dp1568
g81
g82
ssg70
g1562
sg63
(lp1569
S'wsgi'
p1570
asbag56
(g77
g58
NtRp1571
(dp1572
g61
(dp1573
g88
g89
ssg70
g1562
sg63
(lp1574
S':'
asbag56
(g77
g58
NtRp1575
(dp1576
g61
(dp1577
sg70
g1562
sg63
(lp1578
g56
(g57
g58
NtRp1579
(dp1580
g61
(dp1581
g69
I5
ssg70
g1575
sg63
(lp1582
g56
(g65
g58
NtRp1583
(dp1584
g61
(dp1585
g69
I4
ssg70
Nsg63
(lp1586
g56
(g72
g58
NtRp1587
(dp1588
g61
(dp1589
sg70
g1583
sg63
(lp1590
g56
(g77
g58
NtRp1591
(dp1592
g61
(dp1593
g81
g82
ssg70
g1587
sg63
(lp1594
S'environ'
p1595
asbag56
(g77
g58
NtRp1596
(dp1597
g61
(dp1598
g88
g89
ssg70
g1587
sg63
(lp1599
S':'
asbag56
(g77
g58
NtRp1600
(dp1601
g61
(dp1602
sg70
g1587
sg63
(lp1603
g56
(g57
g58
NtRp1604
(dp1605
g61
(dp1606
g69
I4
ssg70
g1600
sg63
(lp1607
g56
(g65
g58
NtRp1608
(dp1609
g61
(dp1610
g69
I3
ssg70
Nsg63
(lp1611
g56
(g72
g58
NtRp1612
(dp1613
g61
(dp1614
sg70
g1608
sg63
(lp1615
g56
(g77
g58
NtRp1616
(dp1617
g61
(dp1618
g81
g82
ssg70
g1612
sg63
(lp1619
S'HTTP_ACCEPT'
p1620
asbag56
(g77
g58
NtRp1621
(dp1622
g61
(dp1623
g88
g89
ssg70
g1612
sg63
(lp1624
S':'
asbag56
(g77
g58
NtRp1625
(dp1626
g61
(dp1627
sg70
g1612
sg63
(lp1628
g56
(g57
g58
NtRp1629
(dp1630
g61
(dp1631
g69
I3
ssg70
g1625
sg63
(lp1632
g632
asbasbasbag56
(g72
g58
NtRp1633
(dp1634
g61
(dp1635
sg70
g1608
sg63
(lp1636
g56
(g77
g58
NtRp1637
(dp1638
g61
(dp1639
g81
g82
ssg70
g1633
sg63
(lp1640
S'HTTP_ACCEPT_CHARSET'
p1641
asbag56
(g77
g58
NtRp1642
(dp1643
g61
(dp1644
g88
g89
ssg70
g1633
sg63
(lp1645
S':'
asbag56
(g77
g58
NtRp1646
(dp1647
g61
(dp1648
sg70
g1633
sg63
(lp1649
g56
(g57
g58
NtRp1650
(dp1651
g61
(dp1652
g69
I3
ssg70
g1646
sg63
(lp1653
g654
asbasbasbag56
(g72
g58
NtRp1654
(dp1655
g61
(dp1656
sg70
g1608
sg63
(lp1657
g56
(g77
g58
NtRp1658
(dp1659
g61
(dp1660
g81
g82
ssg70
g1654
sg63
(lp1661
S'HTTP_ACCEPT_ENCODING'
p1662
asbag56
(g77
g58
NtRp1663
(dp1664
g61
(dp1665
g88
g89
ssg70
g1654
sg63
(lp1666
S':'
asbag56
(g77
g58
NtRp1667
(dp1668
g61
(dp1669
sg70
g1654
sg63
(lp1670
g56
(g57
g58
NtRp1671
(dp1672
g61
(dp1673
g69
I3
ssg70
g1667
sg63
(lp1674
g676
asbasbasbag56
(g72
g58
NtRp1675
(dp1676
g61
(dp1677
sg70
g1608
sg63
(lp1678
g56
(g77
g58
NtRp1679
(dp1680
g61
(dp1681
g81
g82
ssg70
g1675
sg63
(lp1682
S'HTTP_ACCEPT_LANGUAGE'
p1683
asbag56
(g77
g58
NtRp1684
(dp1685
g61
(dp1686
g88
g89
ssg70
g1675
sg63
(lp1687
S':'
asbag56
(g77
g58
NtRp1688
(dp1689
g61
(dp1690
sg70
g1675
sg63
(lp1691
g56
(g57
g58
NtRp1692
(dp1693
g61
(dp1694
g69
I3
ssg70
g1688
sg63
(lp1695
g698
asbasbasbag56
(g72
g58
NtRp1696
(dp1697
g61
(dp1698
sg70
g1608
sg63
(lp1699
g56
(g77
g58
NtRp1700
(dp1701
g61
(dp1702
g81
g82
ssg70
g1696
sg63
(lp1703
S'HTTP_CACHE_CONTROL'
p1704
asbag56
(g77
g58
NtRp1705
(dp1706
g61
(dp1707
g88
g89
ssg70
g1696
sg63
(lp1708
S':'
asbag56
(g77
g58
NtRp1709
(dp1710
g61
(dp1711
sg70
g1696
sg63
(lp1712
g56
(g57
g58
NtRp1713
(dp1714
g61
(dp1715
g69
I3
ssg70
g1709
sg63
(lp1716
g720
asbasbasbag56
(g72
g58
NtRp1717
(dp1718
g61
(dp1719
sg70
g1608
sg63
(lp1720
g56
(g77
g58
NtRp1721
(dp1722
g61
(dp1723
g81
g82
ssg70
g1717
sg63
(lp1724
S'HTTP_CONNECTION'
p1725
asbag56
(g77
g58
NtRp1726
(dp1727
g61
(dp1728
g88
g89
ssg70
g1717
sg63
(lp1729
S':'
asbag56
(g77
g58
NtRp1730
(dp1731
g61
(dp1732
sg70
g1717
sg63
(lp1733
g56
(g57
g58
NtRp1734
(dp1735
g61
(dp1736
g69
I3
ssg70
g1730
sg63
(lp1737
g742
asbasbasbag56
(g72
g58
NtRp1738
(dp1739
g61
(dp1740
sg70
g1608
sg63
(lp1741
g56
(g77
g58
NtRp1742
(dp1743
g61
(dp1744
g81
g82
ssg70
g1738
sg63
(lp1745
S'HTTP_COOKIE'
p1746
asbag56
(g77
g58
NtRp1747
(dp1748
g61
(dp1749
g88
g89
ssg70
g1738
sg63
(lp1750
S':'
asbag56
(g77
g58
NtRp1751
(dp1752
g61
(dp1753
sg70
g1738
sg63
(lp1754
g56
(g57
g58
NtRp1755
(dp1756
g61
(dp1757
g69
I3
ssg70
g1751
sg63
(lp1758
g764
asbasbasbag56
(g72
g58
NtRp1759
(dp1760
g61
(dp1761
sg70
g1608
sg63
(lp1762
g56
(g77
g58
NtRp1763
(dp1764
g61
(dp1765
g81
g82
ssg70
g1759
sg63
(lp1766
S'HTTP_HOST'
p1767
asbag56
(g77
g58
NtRp1768
(dp1769
g61
(dp1770
g88
g89
ssg70
g1759
sg63
(lp1771
S':'
asbag56
(g77
g58
NtRp1772
(dp1773
g61
(dp1774
sg70
g1759
sg63
(lp1775
g56
(g57
g58
NtRp1776
(dp1777
g61
(dp1778
g69
I3
ssg70
g1772
sg63
(lp1779
g786
asbasbasbag56
(g72
g58
NtRp1780
(dp1781
g61
(dp1782
sg70
g1608
sg63
(lp1783
g56
(g77
g58
NtRp1784
(dp1785
g61
(dp1786
g81
g82
ssg70
g1780
sg63
(lp1787
S'HTTP_USER_AGENT'
p1788
asbag56
(g77
g58
NtRp1789
(dp1790
g61
(dp1791
g88
g89
ssg70
g1780
sg63
(lp1792
S':'
asbag56
(g77
g58
NtRp1793
(dp1794
g61
(dp1795
sg70
g1780
sg63
(lp1796
g56
(g57
g58
NtRp1797
(dp1798
g61
(dp1799
g69
I3
ssg70
g1793
sg63
(lp1800
g808
asbasbasbag56
(g72
g58
NtRp1801
(dp1802
g61
(dp1803
sg70
g1608
sg63
(lp1804
g56
(g77
g58
NtRp1805
(dp1806
g61
(dp1807
g81
g82
ssg70
g1801
sg63
(lp1808
S'PATH_INFO'
p1809
asbag56
(g77
g58
NtRp1810
(dp1811
g61
(dp1812
g88
g89
ssg70
g1801
sg63
(lp1813
S':'
asbag56
(g77
g58
NtRp1814
(dp1815
g61
(dp1816
sg70
g1801
sg63
(lp1817
g56
(g57
g58
NtRp1818
(dp1819
g61
(dp1820
g69
I3
ssg70
g1814
sg63
(lp1821
g830
asbasbasbag56
(g72
g58
NtRp1822
(dp1823
g61
(dp1824
sg70
g1608
sg63
(lp1825
g56
(g77
g58
NtRp1826
(dp1827
g61
(dp1828
g81
g82
ssg70
g1822
sg63
(lp1829
S'QUERY_STRING'
p1830
asbag56
(g77
g58
NtRp1831
(dp1832
g61
(dp1833
g88
g89
ssg70
g1822
sg63
(lp1834
S':'
asbag56
(g77
g58
NtRp1835
(dp1836
g61
(dp1837
sg70
g1822
sg63
(lp1838
g56
(g57
g58
NtRp1839
(dp1840
g61
(dp1841
g69
I3
ssg70
g1835
sg63
(lp1842
S''
asbasbasbag56
(g72
g58
NtRp1843
(dp1844
g61
(dp1845
sg70
g1608
sg63
(lp1846
g56
(g77
g58
NtRp1847
(dp1848
g61
(dp1849
g81
g82
ssg70
g1843
sg63
(lp1850
S'REMOTE_ADDR'
p1851
asbag56
(g77
g58
NtRp1852
(dp1853
g61
(dp1854
g88
g89
ssg70
g1843
sg63
(lp1855
S':'
asbag56
(g77
g58
NtRp1856
(dp1857
g61
(dp1858
sg70
g1843
sg63
(lp1859
g56
(g57
g58
NtRp1860
(dp1861
g61
(dp1862
g69
I3
ssg70
g1856
sg63
(lp1863
g189
asbasbasbag56
(g72
g58
NtRp1864
(dp1865
g61
(dp1866
sg70
g1608
sg63
(lp1867
g56
(g77
g58
NtRp1868
(dp1869
g61
(dp1870
g81
g82
ssg70
g1864
sg63
(lp1871
S'REMOTE_PORT'
p1872
asbag56
(g77
g58
NtRp1873
(dp1874
g61
(dp1875
g88
g89
ssg70
g1864
sg63
(lp1876
S':'
asbag56
(g77
g58
NtRp1877
(dp1878
g61
(dp1879
sg70
g1864
sg63
(lp1880
g56
(g57
g58
NtRp1881
(dp1882
g61
(dp1883
g69
I3
ssg70
g1877
sg63
(lp1884
g894
asbasbasbag56
(g72
g58
NtRp1885
(dp1886
g61
(dp1887
sg70
g1608
sg63
(lp1888
g56
(g77
g58
NtRp1889
(dp1890
g61
(dp1891
g81
g82
ssg70
g1885
sg63
(lp1892
S'REQUEST_METHOD'
p1893
asbag56
(g77
g58
NtRp1894
(dp1895
g61
(dp1896
g88
g89
ssg70
g1885
sg63
(lp1897
S':'
asbag56
(g77
g58
NtRp1898
(dp1899
g61
(dp1900
sg70
g1885
sg63
(lp1901
g56
(g57
g58
NtRp1902
(dp1903
g61
(dp1904
g69
I3
ssg70
g1898
sg63
(lp1905
g916
asbasbasbag56
(g72
g58
NtRp1906
(dp1907
g61
(dp1908
sg70
g1608
sg63
(lp1909
g56
(g77
g58
NtRp1910
(dp1911
g61
(dp1912
g81
g82
ssg70
g1906
sg63
(lp1913
S'SCRIPT_NAME'
p1914
asbag56
(g77
g58
NtRp1915
(dp1916
g61
(dp1917
g88
g89
ssg70
g1906
sg63
(lp1918
S':'
asbag56
(g77
g58
NtRp1919
(dp1920
g61
(dp1921
sg70
g1906
sg63
(lp1922
g56
(g57
g58
NtRp1923
(dp1924
g61
(dp1925
g69
I3
ssg70
g1919
sg63
(lp1926
S''
asbasbasbag56
(g72
g58
NtRp1927
(dp1928
g61
(dp1929
sg70
g1608
sg63
(lp1930
g56
(g77
g58
NtRp1931
(dp1932
g61
(dp1933
g81
g82
ssg70
g1927
sg63
(lp1934
S'SERVER_NAME'
p1935
asbag56
(g77
g58
NtRp1936
(dp1937
g61
(dp1938
g88
g89
ssg70
g1927
sg63
(lp1939
S':'
asbag56
(g77
g58
NtRp1940
(dp1941
g61
(dp1942
sg70
g1927
sg63
(lp1943
g56
(g57
g58
NtRp1944
(dp1945
g61
(dp1946
g69
I3
ssg70
g1940
sg63
(lp1947
g959
asbasbasbag56
(g72
g58
NtRp1948
(dp1949
g61
(dp1950
sg70
g1608
sg63
(lp1951
g56
(g77
g58
NtRp1952
(dp1953
g61
(dp1954
g81
g82
ssg70
g1948
sg63
(lp1955
S'SERVER_PORT'
p1956
asbag56
(g77
g58
NtRp1957
(dp1958
g61
(dp1959
g88
g89
ssg70
g1948
sg63
(lp1960
S':'
asbag56
(g77
g58
NtRp1961
(dp1962
g61
(dp1963
sg70
g1948
sg63
(lp1964
g56
(g57
g58
NtRp1965
(dp1966
g61
(dp1967
g69
I3
ssg70
g1961
sg63
(lp1968
g981
asbasbasbag56
(g72
g58
NtRp1969
(dp1970
g61
(dp1971
sg70
g1608
sg63
(lp1972
g56
(g77
g58
NtRp1973
(dp1974
g61
(dp1975
g81
g82
ssg70
g1969
sg63
(lp1976
S'SERVER_PROTOCOL'
p1977
asbag56
(g77
g58
NtRp1978
(dp1979
g61
(dp1980
g88
g89
ssg70
g1969
sg63
(lp1981
S':'
asbag56
(g77
g58
NtRp1982
(dp1983
g61
(dp1984
sg70
g1969
sg63
(lp1985
g56
(g57
g58
NtRp1986
(dp1987
g61
(dp1988
g69
I3
ssg70
g1982
sg63
(lp1989
g1003
asbasbasbag56
(g72
g58
NtRp1990
(dp1991
g61
(dp1992
sg70
g1608
sg63
(lp1993
g56
(g77
g58
NtRp1994
(dp1995
g61
(dp1996
g81
g82
ssg70
g1990
sg63
(lp1997
S'SERVER_SOFTWARE'
p1998
asbag56
(g77
g58
NtRp1999
(dp2000
g61
(dp2001
g88
g89
ssg70
g1990
sg63
(lp2002
S':'
asbag56
(g77
g58
NtRp2003
(dp2004
g61
(dp2005
sg70
g1990
sg63
(lp2006
g56
(g57
g58
NtRp2007
(dp2008
g61
(dp2009
g69
I3
ssg70
g2003
sg63
(lp2010
g1025
asbasbasbag56
(g72
g58
NtRp2011
(dp2012
g61
(dp2013
sg70
g1608
sg63
(lp2014
g56
(g77
g58
NtRp2015
(dp2016
g61
(dp2017
g81
g82
ssg70
g2011
sg63
(lp2018
S'wsgi.errors'
p2019
asbag56
(g77
g58
NtRp2020
(dp2021
g61
(dp2022
g88
g89
ssg70
g2011
sg63
(lp2023
S':'
asbag56
(g77
g58
NtRp2024
(dp2025
g61
(dp2026
sg70
g2011
sg63
(lp2027
g56
(g57
g58
NtRp2028
(dp2029
g61
(dp2030
g69
I3
ssg70
g2024
sg63
(lp2031
S"<open file '<stderr>', mode 'w' at 0x100283270>"
p2032
asbasbasbag56
(g72
g58
NtRp2033
(dp2034
g61
(dp2035
sg70
g1608
sg63
(lp2036
g56
(g77
g58
NtRp2037
(dp2038
g61
(dp2039
g81
g82
ssg70
g2033
sg63
(lp2040
S'wsgi.file_wrapper'
p2041
asbag56
(g77
g58
NtRp2042
(dp2043
g61
(dp2044
g88
g89
ssg70
g2033
sg63
(lp2045
S':'
asbag56
(g77
g58
NtRp2046
(dp2047
g61
(dp2048
sg70
g2033
sg63
(lp2049
g56
(g57
g58
NtRp2050
(dp2051
g61
(dp2052
g69
I3
ssg70
g2046
sg63
(lp2053
S'<class gluon.rocket.FileWrapper at 0x101976ef0>'
p2054
asbasbasbag56
(g72
g58
NtRp2055
(dp2056
g61
(dp2057
sg70
g1608
sg63
(lp2058
g56
(g77
g58
NtRp2059
(dp2060
g61
(dp2061
g81
g82
ssg70
g2055
sg63
(lp2062
S'wsgi.input'
p2063
asbag56
(g77
g58
NtRp2064
(dp2065
g61
(dp2066
g88
g89
ssg70
g2055
sg63
(lp2067
S':'
asbag56
(g77
g58
NtRp2068
(dp2069
g61
(dp2070
sg70
g2055
sg63
(lp2071
g56
(g57
g58
NtRp2072
(dp2073
g61
(dp2074
g69
I3
ssg70
g2068
sg63
(lp2075
S'<cStringIO.StringO object at 0x105fe9ab0>'
p2076
asbasbasbag56
(g72
g58
NtRp2077
(dp2078
g61
(dp2079
sg70
g1608
sg63
(lp2080
g56
(g77
g58
NtRp2081
(dp2082
g61
(dp2083
g81
g82
ssg70
g2077
sg63
(lp2084
S'wsgi.multiprocess'
p2085
asbag56
(g77
g58
NtRp2086
(dp2087
g61
(dp2088
g88
g89
ssg70
g2077
sg63
(lp2089
S':'
asbag56
(g77
g58
NtRp2090
(dp2091
g61
(dp2092
sg70
g2077
sg63
(lp2093
g56
(g57
g58
NtRp2094
(dp2095
g61
(dp2096
g69
I3
ssg70
g2090
sg63
(lp2097
g99
asbasbasbag56
(g72
g58
NtRp2098
(dp2099
g61
(dp2100
sg70
g1608
sg63
(lp2101
g56
(g77
g58
NtRp2102
(dp2103
g61
(dp2104
g81
g82
ssg70
g2098
sg63
(lp2105
S'wsgi.multithread'
p2106
asbag56
(g77
g58
NtRp2107
(dp2108
g61
(dp2109
g88
g89
ssg70
g2098
sg63
(lp2110
S':'
asbag56
(g77
g58
NtRp2111
(dp2112
g61
(dp2113
sg70
g2098
sg63
(lp2114
g56
(g57
g58
NtRp2115
(dp2116
g61
(dp2117
g69
I3
ssg70
g2111
sg63
(lp2118
g1199
asbasbasbag56
(g72
g58
NtRp2119
(dp2120
g61
(dp2121
sg70
g1608
sg63
(lp2122
g56
(g77
g58
NtRp2123
(dp2124
g61
(dp2125
g81
g82
ssg70
g2119
sg63
(lp2126
S'wsgi.run_once'
p2127
asbag56
(g77
g58
NtRp2128
(dp2129
g61
(dp2130
g88
g89
ssg70
g2119
sg63
(lp2131
S':'
asbag56
(g77
g58
NtRp2132
(dp2133
g61
(dp2134
sg70
g2119
sg63
(lp2135
g56
(g57
g58
NtRp2136
(dp2137
g61
(dp2138
g69
I3
ssg70
g2132
sg63
(lp2139
g99
asbasbasbag56
(g72
g58
NtRp2140
(dp2141
g61
(dp2142
sg70
g1608
sg63
(lp2143
g56
(g77
g58
NtRp2144
(dp2145
g61
(dp2146
g81
g82
ssg70
g2140
sg63
(lp2147
S'wsgi.url_scheme'
p2148
asbag56
(g77
g58
NtRp2149
(dp2150
g61
(dp2151
g88
g89
ssg70
g2140
sg63
(lp2152
S':'
asbag56
(g77
g58
NtRp2153
(dp2154
g61
(dp2155
sg70
g2140
sg63
(lp2156
g56
(g57
g58
NtRp2157
(dp2158
g61
(dp2159
g69
I3
ssg70
g2153
sg63
(lp2160
g1242
asbasbasbag56
(g72
g58
NtRp2161
(dp2162
g61
(dp2163
sg70
g1608
sg63
(lp2164
g56
(g77
g58
NtRp2165
(dp2166
g61
(dp2167
g81
g82
ssg70
g2161
sg63
(lp2168
S'wsgi.version'
p2169
asbag56
(g77
g58
NtRp2170
(dp2171
g61
(dp2172
g88
g89
ssg70
g2161
sg63
(lp2173
S':'
asbag56
(g77
g58
NtRp2174
(dp2175
g61
(dp2176
sg70
g2161
sg63
(lp2177
g56
(g57
g58
NtRp2178
(dp2179
g61
(dp2180
g69
I3
ssg70
g2174
sg63
(lp2181
S'1'
asbasbasbasbasbasbasbasbasbasbasbasbasbsS'frames'
p2182
(lp2183
(dp2184
S'file'
p2185
S'/Users/schultzc/workspace/wherespuppet/web2py/gluon/restricted.py'
p2186
sS'dump'
p2187
(dp2188
S'environment'
p2189
S"{'A': <class 'gluon.html.A'>, 'B': <class 'gluon.html.B'>, 'BEAUTIFY': <class 'gluon.html.BEAUTIFY'>, 'BODY': <class 'gluon.html.BODY'>, 'BR': <class 'gluon.html.BR'>, 'BUTTON': <class 'gluon.html.BUTTON'>, 'CENTER': <class 'gluon.html.CENTER'>, 'CLEANUP': <class 'gluon.validators.CLEANUP'>, 'CODE': <class 'gluon.html.CODE'>, 'CRYPT': <class 'gluon.validators.CRYPT'>, ...}"
p2190
sS'ccode'
p2191
S'<code object <module> at 0x1027291b0, file "/Use...applications/wp/controllers/default.py", line 11>'
p2192
ssS'lnum'
p2193
I192
sS'lines'
p2194
(dp2195
I192
S'        exec ccode in environment'
p2196
sI193
S'    except HTTP:'
p2197
sI194
S'        raise'
p2198
sI195
S'    except Exception:'
p2199
sI196
S'        # XXX Show exception in Wing IDE if running in debugger'
p2200
sI187
S'    try:'
p2201
sI188
S'        if type(code) == types.CodeType:'
p2202
sI189
S'            ccode = code'
p2203
sI190
S'        else:'
p2204
sI191
S'            ccode = compile2(code,layer)'
p2205
ssS'call'
p2206
S'(code="# -*- coding: utf-8 -*-\\n# this file is released ...())\\n\'\'\'\\n\\nresponse._vars=response._caller(submit)\\n", environment={\'A\': <class \'gluon.html.A\'>, \'B\': <class \'gluon.html.B\'>, \'BEAUTIFY\': <class \'gluon.html.BEAUTIFY\'>, \'BODY\': <class \'gluon.html.BODY\'>, \'BR\': <class \'gluon.html.BR\'>, \'BUTTON\': <class \'gluon.html.BUTTON\'>, \'CENTER\': <class \'gluon.html.CENTER\'>, \'CLEANUP\': <class \'gluon.validators.CLEANUP\'>, \'CODE\': <class \'gluon.html.CODE\'>, \'CRYPT\': <class \'gluon.validators.CRYPT\'>, ...}, layer=\'/Users/schultzc/workspace/wherespuppet/web2py/applications/wp/controllers/default.py\')'
p2207
sS'func'
p2208
S'restricted'
p2209
sa(dp2210
g2185
S'/Users/schultzc/workspace/wherespuppet/web2py/applications/wp/controllers/default.py'
p2211
sg2187
(dp2212
sg2193
I96
sg2194
(dp2213
I85
S'    http://..../[app]/default/data/delete/[table]/[id['
p2214
sI86
S'    http://..../[app]/default/data/select/[table]'
p2215
sI87
S'    http://..../[app]/default/data/search/[table]'
p2216
sI88
S'    but URLs bust be signed, i.e. linked with'
p2217
sI89
S"      A('table',_href=URL('data/tables',user_signature=True))"
p2218
sI90
S'    or with the signed load operator'
p2219
sI91
S"      LOAD('default','data.load',args='tables',ajax=True,user_signature=True)"
p2220
sI92
S'    """'
p2221
sI93
S'    return dict(form=crud())'
p2222
sI94
S"'''"
p2223
ssg2206
S'()'
p2224
sg2208
S'<module>'
p2225
sa(dp2226
g2185
S'/Users/schultzc/workspace/wherespuppet/web2py/gluon/globals.py'
p2227
sg2187
(dp2228
S'self'
p2229
S'undefined'
p2230
sS'f'
S'<function submit>'
p2231
ssg2193
I137
sg2194
(dp2232
I132
S"        self.flash = ''           # used by the default view layout"
p2233
sI133
S'        self.meta = Storage()     # used by web2py_ajax.html'
p2234
sI134
S'        self.menu = []            # used by the default view layout'
p2235
sI135
S'        self.files = []           # used by web2py_ajax.html'
p2236
sI136
S'        self._vars = None'
p2237
sI137
S'        self._caller = lambda f: f()'
p2238
sI138
S'        self._view_environment = None'
p2239
sI139
S'        self._custom_commit = None'
p2240
sI140
S'        self._custom_rollback = None'
p2241
sI141
S''
ssg2206
S'(f=<function submit>)'
p2242
sg2208
S'<lambda>'
p2243
sa(dp2244
g2185
S'/Users/schultzc/workspace/wherespuppet/web2py/applications/wp/controllers/default.py'
p2245
sg2187
(dp2246
S'latitude'
p2247
g2230
sS'builtinNone'
p2248
S'None'
p2249
ssg2193
I29
sg2194
(dp2250
I32
S'        dict(form=form, latitude=latitude)'
p2251
sI33
S''
sI24
S'    elif form.errors:'
p2252
sI25
S"        response.flash = 'form has errors'"
p2253
sI26
S'    else:'
p2254
sI27
S"        response.flash = 'please fill out the form'"
p2255
sI28
S''
sI29
S'    if latitude is None:'
p2256
sI30
S'        return dict(form=form)'
p2257
sI31
S'    else:'
p2258
ssg2206
S'()'
p2259
sg2208
S'submit'
p2260
sasS'pyver'
p2261
S'Python 2.7.2: /opt/local/Library/Frameworks/Python.framework/Versions/2.7/Resources/Python.app/Contents/MacOS/Python'
p2262
sS'session'
p2263
g56
(g57
g58
NtRp2264
(dp2265
g61
(dp2266
sg63
(lp2267
g56
(g65
g58
NtRp2268
(dp2269
g61
(dp2270
g69
I5
ssg70
Nsg63
(lp2271
sbasbsS'etype'
p2272
S"<type 'exceptions.UnboundLocalError'>"
p2273
sS'date'
p2274
S'Mon Jul 25 12:31:44 2011'
p2275
sS'response'
p2276
g56
(g57
g58
NtRp2277
(dp2278
g61
(dp2279
sg63
(lp2280
g56
(g65
g58
NtRp2281
(dp2282
g61
(dp2283
g69
I5
ssg70
Nsg63
(lp2284
g56
(g72
g58
NtRp2285
(dp2286
g61
(dp2287
sg70
g2281
sg63
(lp2288
g56
(g77
g58
NtRp2289
(dp2290
g61
(dp2291
g81
g82
ssg70
g2285
sg63
(lp2292
g154
asbag56
(g77
g58
NtRp2293
(dp2294
g61
(dp2295
g88
g89
ssg70
g2285
sg63
(lp2296
S':'
asbag56
(g77
g58
NtRp2297
(dp2298
g61
(dp2299
sg70
g2285
sg63
(lp2300
g56
(g57
g58
NtRp2301
(dp2302
g61
(dp2303
g69
I5
ssg70
g2297
sg63
(lp2304
S'<cStringIO.StringO object at 0x10279c340>'
p2305
asbasbasbag56
(g72
g58
NtRp2306
(dp2307
g61
(dp2308
sg70
g2281
sg63
(lp2309
g56
(g77
g58
NtRp2310
(dp2311
g61
(dp2312
g81
g82
ssg70
g2306
sg63
(lp2313
g220
asbag56
(g77
g58
NtRp2314
(dp2315
g61
(dp2316
g88
g89
ssg70
g2306
sg63
(lp2317
S':'
asbag56
(g77
g58
NtRp2318
(dp2319
g61
(dp2320
sg70
g2306
sg63
(lp2321
g56
(g57
g58
NtRp2322
(dp2323
g61
(dp2324
g69
I5
ssg70
g2318
sg63
(lp2325
g56
(g65
g58
NtRp2326
(dp2327
g61
(dp2328
g69
I4
ssg70
Nsg63
(lp2329
g56
(g72
g58
NtRp2330
(dp2331
g61
(dp2332
sg70
g2326
sg63
(lp2333
g56
(g77
g58
NtRp2334
(dp2335
g61
(dp2336
g81
g82
ssg70
g2330
sg63
(lp2337
S'session_id_wp'
p2338
asbag56
(g77
g58
NtRp2339
(dp2340
g61
(dp2341
g88
g89
ssg70
g2330
sg63
(lp2342
S':'
asbag56
(g77
g58
NtRp2343
(dp2344
g61
(dp2345
sg70
g2330
sg63
(lp2346
g56
(g57
g58
NtRp2347
(dp2348
g61
(dp2349
g69
I4
ssg70
g2343
sg63
(lp2350
g56
(g65
g58
NtRp2351
(dp2352
g61
(dp2353
g69
I3
ssg70
Nsg63
(lp2354
g56
(g72
g58
NtRp2355
(dp2356
g61
(dp2357
sg70
g2351
sg63
(lp2358
g56
(g77
g58
NtRp2359
(dp2360
g61
(dp2361
g81
g82
ssg70
g2355
sg63
(lp2362
g270
asbag56
(g77
g58
NtRp2363
(dp2364
g61
(dp2365
g88
g89
ssg70
g2355
sg63
(lp2366
S':'
asbag56
(g77
g58
NtRp2367
(dp2368
g61
(dp2369
sg70
g2355
sg63
(lp2370
g56
(g57
g58
NtRp2371
(dp2372
g61
(dp2373
g69
I3
ssg70
g2367
sg63
(lp2374
S''
asbasbasbag56
(g72
g58
NtRp2375
(dp2376
g61
(dp2377
sg70
g2351
sg63
(lp2378
g56
(g77
g58
NtRp2379
(dp2380
g61
(dp2381
g81
g82
ssg70
g2375
sg63
(lp2382
g291
asbag56
(g77
g58
NtRp2383
(dp2384
g61
(dp2385
g88
g89
ssg70
g2375
sg63
(lp2386
S':'
asbag56
(g77
g58
NtRp2387
(dp2388
g61
(dp2389
sg70
g2375
sg63
(lp2390
g56
(g57
g58
NtRp2391
(dp2392
g61
(dp2393
g69
I3
ssg70
g2387
sg63
(lp2394
S''
asbasbasbag56
(g72
g58
NtRp2395
(dp2396
g61
(dp2397
sg70
g2351
sg63
(lp2398
g56
(g77
g58
NtRp2399
(dp2400
g61
(dp2401
g81
g82
ssg70
g2395
sg63
(lp2402
g312
asbag56
(g77
g58
NtRp2403
(dp2404
g61
(dp2405
g88
g89
ssg70
g2395
sg63
(lp2406
S':'
asbag56
(g77
g58
NtRp2407
(dp2408
g61
(dp2409
sg70
g2395
sg63
(lp2410
g56
(g57
g58
NtRp2411
(dp2412
g61
(dp2413
g69
I3
ssg70
g2407
sg63
(lp2414
S''
asbasbasbag56
(g72
g58
NtRp2415
(dp2416
g61
(dp2417
sg70
g2351
sg63
(lp2418
g56
(g77
g58
NtRp2419
(dp2420
g61
(dp2421
g81
g82
ssg70
g2415
sg63
(lp2422
g333
asbag56
(g77
g58
NtRp2423
(dp2424
g61
(dp2425
g88
g89
ssg70
g2415
sg63
(lp2426
S':'
asbag56
(g77
g58
NtRp2427
(dp2428
g61
(dp2429
sg70
g2415
sg63
(lp2430
g56
(g57
g58
NtRp2431
(dp2432
g61
(dp2433
g69
I3
ssg70
g2427
sg63
(lp2434
S''
asbasbasbag56
(g72
g58
NtRp2435
(dp2436
g61
(dp2437
sg70
g2351
sg63
(lp2438
g56
(g77
g58
NtRp2439
(dp2440
g61
(dp2441
g81
g82
ssg70
g2435
sg63
(lp2442
g354
asbag56
(g77
g58
NtRp2443
(dp2444
g61
(dp2445
g88
g89
ssg70
g2435
sg63
(lp2446
S':'
asbag56
(g77
g58
NtRp2447
(dp2448
g61
(dp2449
sg70
g2435
sg63
(lp2450
g56
(g57
g58
NtRp2451
(dp2452
g61
(dp2453
g69
I3
ssg70
g2447
sg63
(lp2454
S''
asbasbasbag56
(g72
g58
NtRp2455
(dp2456
g61
(dp2457
sg70
g2351
sg63
(lp2458
g56
(g77
g58
NtRp2459
(dp2460
g61
(dp2461
g81
g82
ssg70
g2455
sg63
(lp2462
g375
asbag56
(g77
g58
NtRp2463
(dp2464
g61
(dp2465
g88
g89
ssg70
g2455
sg63
(lp2466
S':'
asbag56
(g77
g58
NtRp2467
(dp2468
g61
(dp2469
sg70
g2455
sg63
(lp2470
g56
(g57
g58
NtRp2471
(dp2472
g61
(dp2473
g69
I3
ssg70
g2467
sg63
(lp2474
S'/'
asbasbasbag56
(g72
g58
NtRp2475
(dp2476
g61
(dp2477
sg70
g2351
sg63
(lp2478
g56
(g77
g58
NtRp2479
(dp2480
g61
(dp2481
g81
g82
ssg70
g2475
sg63
(lp2482
g396
asbag56
(g77
g58
NtRp2483
(dp2484
g61
(dp2485
g88
g89
ssg70
g2475
sg63
(lp2486
S':'
asbag56
(g77
g58
NtRp2487
(dp2488
g61
(dp2489
sg70
g2475
sg63
(lp2490
g56
(g57
g58
NtRp2491
(dp2492
g61
(dp2493
g69
I3
ssg70
g2487
sg63
(lp2494
S''
asbasbasbag56
(g72
g58
NtRp2495
(dp2496
g61
(dp2497
sg70
g2351
sg63
(lp2498
g56
(g77
g58
NtRp2499
(dp2500
g61
(dp2501
g81
g82
ssg70
g2495
sg63
(lp2502
g417
asbag56
(g77
g58
NtRp2503
(dp2504
g61
(dp2505
g88
g89
ssg70
g2495
sg63
(lp2506
S':'
asbag56
(g77
g58
NtRp2507
(dp2508
g61
(dp2509
sg70
g2495
sg63
(lp2510
g56
(g57
g58
NtRp2511
(dp2512
g61
(dp2513
g69
I3
ssg70
g2507
sg63
(lp2514
S''
asbasbasbasbasbasbasbasbasbasbasbag56
(g72
g58
NtRp2515
(dp2516
g61
(dp2517
sg70
g2281
sg63
(lp2518
g56
(g77
g58
NtRp2519
(dp2520
g61
(dp2521
g81
g82
ssg70
g2515
sg63
(lp2522
S'files'
p2523
asbag56
(g77
g58
NtRp2524
(dp2525
g61
(dp2526
g88
g89
ssg70
g2515
sg63
(lp2527
S':'
asbag56
(g77
g58
NtRp2528
(dp2529
g61
(dp2530
sg70
g2515
sg63
(lp2531
g56
(g57
g58
NtRp2532
(dp2533
g61
(dp2534
g69
I5
ssg70
g2528
sg63
(lp2535
g56
(g65
g58
NtRp2536
(dp2537
g61
(dp2538
g69
I4
ssg70
Nsg63
(lp2539
sbasbasbasbag56
(g72
g58
NtRp2540
(dp2541
g61
(dp2542
sg70
g2281
sg63
(lp2543
g56
(g77
g58
NtRp2544
(dp2545
g61
(dp2546
g81
g82
ssg70
g2540
sg63
(lp2547
S'flash'
p2548
asbag56
(g77
g58
NtRp2549
(dp2550
g61
(dp2551
g88
g89
ssg70
g2540
sg63
(lp2552
S':'
asbag56
(g77
g58
NtRp2553
(dp2554
g61
(dp2555
sg70
g2540
sg63
(lp2556
g56
(g57
g58
NtRp2557
(dp2558
g61
(dp2559
g69
I5
ssg70
g2553
sg63
(lp2560
S'please fill out the form'
p2561
asbasbasbag56
(g72
g58
NtRp2562
(dp2563
g61
(dp2564
sg70
g2281
sg63
(lp2565
g56
(g77
g58
NtRp2566
(dp2567
g61
(dp2568
g81
g82
ssg70
g2562
sg63
(lp2569
S'headers'
p2570
asbag56
(g77
g58
NtRp2571
(dp2572
g61
(dp2573
g88
g89
ssg70
g2562
sg63
(lp2574
S':'
asbag56
(g77
g58
NtRp2575
(dp2576
g61
(dp2577
sg70
g2562
sg63
(lp2578
g56
(g57
g58
NtRp2579
(dp2580
g61
(dp2581
g69
I5
ssg70
g2575
sg63
(lp2582
g56
(g65
g58
NtRp2583
(dp2584
g61
(dp2585
g69
I4
ssg70
Nsg63
(lp2586
g56
(g72
g58
NtRp2587
(dp2588
g61
(dp2589
sg70
g2583
sg63
(lp2590
g56
(g77
g58
NtRp2591
(dp2592
g61
(dp2593
g81
g82
ssg70
g2587
sg63
(lp2594
S'Cache-Control'
p2595
asbag56
(g77
g58
NtRp2596
(dp2597
g61
(dp2598
g88
g89
ssg70
g2587
sg63
(lp2599
S':'
asbag56
(g77
g58
NtRp2600
(dp2601
g61
(dp2602
sg70
g2587
sg63
(lp2603
g56
(g57
g58
NtRp2604
(dp2605
g61
(dp2606
g69
I4
ssg70
g2600
sg63
(lp2607
S'no-store, no-cache, must-revalidate, post-check=0, pre-check=0'
p2608
asbasbasbag56
(g72
g58
NtRp2609
(dp2610
g61
(dp2611
sg70
g2583
sg63
(lp2612
g56
(g77
g58
NtRp2613
(dp2614
g61
(dp2615
g81
g82
ssg70
g2609
sg63
(lp2616
S'Content-Type'
p2617
asbag56
(g77
g58
NtRp2618
(dp2619
g61
(dp2620
g88
g89
ssg70
g2609
sg63
(lp2621
S':'
asbag56
(g77
g58
NtRp2622
(dp2623
g61
(dp2624
sg70
g2609
sg63
(lp2625
g56
(g57
g58
NtRp2626
(dp2627
g61
(dp2628
g69
I4
ssg70
g2622
sg63
(lp2629
S'text/html; charset=utf-8'
p2630
asbasbasbag56
(g72
g58
NtRp2631
(dp2632
g61
(dp2633
sg70
g2583
sg63
(lp2634
g56
(g77
g58
NtRp2635
(dp2636
g61
(dp2637
g81
g82
ssg70
g2631
sg63
(lp2638
S'Expires'
p2639
asbag56
(g77
g58
NtRp2640
(dp2641
g61
(dp2642
g88
g89
ssg70
g2631
sg63
(lp2643
S':'
asbag56
(g77
g58
NtRp2644
(dp2645
g61
(dp2646
sg70
g2631
sg63
(lp2647
g56
(g57
g58
NtRp2648
(dp2649
g61
(dp2650
g69
I4
ssg70
g2644
sg63
(lp2651
S'Mon, 25 Jul 2011 19:31:44 GMT'
p2652
asbasbasbag56
(g72
g58
NtRp2653
(dp2654
g61
(dp2655
sg70
g2583
sg63
(lp2656
g56
(g77
g58
NtRp2657
(dp2658
g61
(dp2659
g81
g82
ssg70
g2653
sg63
(lp2660
S'Pragma'
p2661
asbag56
(g77
g58
NtRp2662
(dp2663
g61
(dp2664
g88
g89
ssg70
g2653
sg63
(lp2665
S':'
asbag56
(g77
g58
NtRp2666
(dp2667
g61
(dp2668
sg70
g2653
sg63
(lp2669
g56
(g57
g58
NtRp2670
(dp2671
g61
(dp2672
g69
I4
ssg70
g2666
sg63
(lp2673
S'no-cache'
p2674
asbasbasbag56
(g72
g58
NtRp2675
(dp2676
g61
(dp2677
sg70
g2583
sg63
(lp2678
g56
(g77
g58
NtRp2679
(dp2680
g61
(dp2681
g81
g82
ssg70
g2675
sg63
(lp2682
S'X-Powered-By'
p2683
asbag56
(g77
g58
NtRp2684
(dp2685
g61
(dp2686
g88
g89
ssg70
g2675
sg63
(lp2687
S':'
asbag56
(g77
g58
NtRp2688
(dp2689
g61
(dp2690
sg70
g2675
sg63
(lp2691
g56
(g57
g58
NtRp2692
(dp2693
g61
(dp2694
g69
I4
ssg70
g2688
sg63
(lp2695
S'web2py'
p2696
asbasbasbasbasbasbasbag56
(g72
g58
NtRp2697
(dp2698
g61
(dp2699
sg70
g2281
sg63
(lp2700
g56
(g77
g58
NtRp2701
(dp2702
g61
(dp2703
g81
g82
ssg70
g2697
sg63
(lp2704
S'menu'
p2705
asbag56
(g77
g58
NtRp2706
(dp2707
g61
(dp2708
g88
g89
ssg70
g2697
sg63
(lp2709
S':'
asbag56
(g77
g58
NtRp2710
(dp2711
g61
(dp2712
sg70
g2697
sg63
(lp2713
g56
(g57
g58
NtRp2714
(dp2715
g61
(dp2716
g69
I5
ssg70
g2710
sg63
(lp2717
g56
(g65
g58
NtRp2718
(dp2719
g61
(dp2720
g69
I4
ssg70
Nsg63
(lp2721
g56
(g72
g58
NtRp2722
(dp2723
g61
(dp2724
sg70
g2718
sg63
(lp2725
g56
(g77
g58
NtRp2726
(dp2727
g61
(dp2728
sg70
g2722
sg63
(lp2729
g56
(g57
g58
NtRp2730
(dp2731
g61
(dp2732
g69
I4
ssg70
g2726
sg63
(lp2733
g56
(g65
g58
NtRp2734
(dp2735
g61
(dp2736
g69
I3
ssg70
Nsg63
(lp2737
g56
(g72
g58
NtRp2738
(dp2739
g61
(dp2740
sg70
g2734
sg63
(lp2741
g56
(g77
g58
NtRp2742
(dp2743
g61
(dp2744
sg70
g2738
sg63
(lp2745
g56
(g57
g58
NtRp2746
(dp2747
g61
(dp2748
g69
I3
ssg70
g2742
sg63
(lp2749
cgluon.languages
lazyT_unpickle
p2750
(S't\x04\x00\x00\x00Home'
tRp2751
asbasbasbag56
(g72
g58
NtRp2752
(dp2753
g61
(dp2754
sg70
g2734
sg63
(lp2755
g56
(g77
g58
NtRp2756
(dp2757
g61
(dp2758
sg70
g2752
sg63
(lp2759
g56
(g57
g58
NtRp2760
(dp2761
g61
(dp2762
g69
I3
ssg70
g2756
sg63
(lp2763
g99
asbasbasbag56
(g72
g58
NtRp2764
(dp2765
g61
(dp2766
sg70
g2734
sg63
(lp2767
g56
(g77
g58
NtRp2768
(dp2769
g61
(dp2770
sg70
g2764
sg63
(lp2771
g56
(g57
g58
NtRp2772
(dp2773
g61
(dp2774
g69
I3
ssg70
g2768
sg63
(lp2775
S'/wp/default/index'
p2776
asbasbasbag56
(g72
g58
NtRp2777
(dp2778
g61
(dp2779
sg70
g2734
sg63
(lp2780
g56
(g77
g58
NtRp2781
(dp2782
g61
(dp2783
sg70
g2777
sg63
(lp2784
g56
(g57
g58
NtRp2785
(dp2786
g61
(dp2787
g69
I3
ssg70
g2781
sg63
(lp2788
g56
(g65
g58
NtRp2789
(dp2790
g61
(dp2791
g69
I2
ssg70
Nsg63
(lp2792
sbasbasbasbasbasbasbasbag56
(g72
g58
NtRp2793
(dp2794
g61
(dp2795
sg70
g2718
sg63
(lp2796
g56
(g77
g58
NtRp2797
(dp2798
g61
(dp2799
sg70
g2793
sg63
(lp2800
g56
(g57
g58
NtRp2801
(dp2802
g61
(dp2803
g69
I4
ssg70
g2797
sg63
(lp2804
g56
(g65
g58
NtRp2805
(dp2806
g61
(dp2807
g69
I3
ssg70
Nsg63
(lp2808
g56
(g72
g58
NtRp2809
(dp2810
g61
(dp2811
sg70
g2805
sg63
(lp2812
g56
(g77
g58
NtRp2813
(dp2814
g61
(dp2815
sg70
g2809
sg63
(lp2816
g56
(g57
g58
NtRp2817
(dp2818
g61
(dp2819
g69
I3
ssg70
g2813
sg63
(lp2820
g2750
(S's\x08\x00\x00\x00This App'
tRp2821
asbasbasbag56
(g72
g58
NtRp2822
(dp2823
g61
(dp2824
sg70
g2805
sg63
(lp2825
g56
(g77
g58
NtRp2826
(dp2827
g61
(dp2828
sg70
g2822
sg63
(lp2829
g56
(g57
g58
NtRp2830
(dp2831
g61
(dp2832
g69
I3
ssg70
g2826
sg63
(lp2833
g99
asbasbasbag56
(g72
g58
NtRp2834
(dp2835
g61
(dp2836
sg70
g2805
sg63
(lp2837
g56
(g77
g58
NtRp2838
(dp2839
g61
(dp2840
sg70
g2834
sg63
(lp2841
g56
(g57
g58
NtRp2842
(dp2843
g61
(dp2844
g69
I3
ssg70
g2838
sg63
(lp2845
S'/admin/default/design/wp'
p2846
asbasbasbag56
(g72
g58
NtRp2847
(dp2848
g61
(dp2849
sg70
g2805
sg63
(lp2850
g56
(g77
g58
NtRp2851
(dp2852
g61
(dp2853
sg70
g2847
sg63
(lp2854
g56
(g57
g58
NtRp2855
(dp2856
g61
(dp2857
g69
I3
ssg70
g2851
sg63
(lp2858
g56
(g65
g58
NtRp2859
(dp2860
g61
(dp2861
g69
I2
ssg70
Nsg63
(lp2862
g56
(g72
g58
NtRp2863
(dp2864
g61
(dp2865
sg70
g2859
sg63
(lp2866
g56
(g77
g58
NtRp2867
(dp2868
g61
(dp2869
sg70
g2863
sg63
(lp2870
g56
(g57
g58
NtRp2871
(dp2872
g61
(dp2873
g69
I2
ssg70
g2867
sg63
(lp2874
g56
(g65
g58
NtRp2875
(dp2876
g61
(dp2877
g69
I1
ssg70
Nsg63
(lp2878
g56
(g72
g58
NtRp2879
(dp2880
g61
(dp2881
sg70
g2875
sg63
(lp2882
g56
(g77
g58
NtRp2883
(dp2884
g61
(dp2885
sg70
g2879
sg63
(lp2886
g56
(g57
g58
NtRp2887
(dp2888
g61
(dp2889
g69
I1
ssg70
g2883
sg63
(lp2890
g2750
(S't\n\x00\x00\x00Controller'
tRp2891
asbasbasbag56
(g72
g58
NtRp2892
(dp2893
g61
(dp2894
sg70
g2875
sg63
(lp2895
g56
(g77
g58
NtRp2896
(dp2897
g61
(dp2898
sg70
g2892
sg63
(lp2899
g56
(g57
g58
NtRp2900
(dp2901
g61
(dp2902
g69
I1
ssg70
g2896
sg63
(lp2903
I00
asbasbasbag56
(g72
g58
NtRp2904
(dp2905
g61
(dp2906
sg70
g2875
sg63
(lp2907
g56
(g77
g58
NtRp2908
(dp2909
g61
(dp2910
sg70
g2904
sg63
(lp2911
g56
(g57
g58
NtRp2912
(dp2913
g61
(dp2914
g69
I1
ssg70
g2908
sg63
(lp2915
S'/admin/default/edit/wp/controllers/default.py'
p2916
asbasbasbasbasbasbasbag56
(g72
g58
NtRp2917
(dp2918
g61
(dp2919
sg70
g2859
sg63
(lp2920
g56
(g77
g58
NtRp2921
(dp2922
g61
(dp2923
sg70
g2917
sg63
(lp2924
g56
(g57
g58
NtRp2925
(dp2926
g61
(dp2927
g69
I2
ssg70
g2921
sg63
(lp2928
g56
(g65
g58
NtRp2929
(dp2930
g61
(dp2931
g69
I1
ssg70
Nsg63
(lp2932
g56
(g72
g58
NtRp2933
(dp2934
g61
(dp2935
sg70
g2929
sg63
(lp2936
g56
(g77
g58
NtRp2937
(dp2938
g61
(dp2939
sg70
g2933
sg63
(lp2940
g56
(g57
g58
NtRp2941
(dp2942
g61
(dp2943
g69
I1
ssg70
g2937
sg63
(lp2944
g2750
(S't\x04\x00\x00\x00View'
tRp2945
asbasbasbag56
(g72
g58
NtRp2946
(dp2947
g61
(dp2948
sg70
g2929
sg63
(lp2949
g56
(g77
g58
NtRp2950
(dp2951
g61
(dp2952
sg70
g2946
sg63
(lp2953
g56
(g57
g58
NtRp2954
(dp2955
g61
(dp2956
g69
I1
ssg70
g2950
sg63
(lp2957
I00
asbasbasbag56
(g72
g58
NtRp2958
(dp2959
g61
(dp2960
sg70
g2929
sg63
(lp2961
g56
(g77
g58
NtRp2962
(dp2963
g61
(dp2964
sg70
g2958
sg63
(lp2965
g56
(g57
g58
NtRp2966
(dp2967
g61
(dp2968
g69
I1
ssg70
g2962
sg63
(lp2969
S'/admin/default/edit/wp/views/default/submit.html'
p2970
asbasbasbasbasbasbasbag56
(g72
g58
NtRp2971
(dp2972
g61
(dp2973
sg70
g2859
sg63
(lp2974
g56
(g77
g58
NtRp2975
(dp2976
g61
(dp2977
sg70
g2971
sg63
(lp2978
g56
(g57
g58
NtRp2979
(dp2980
g61
(dp2981
g69
I2
ssg70
g2975
sg63
(lp2982
g56
(g65
g58
NtRp2983
(dp2984
g61
(dp2985
g69
I1
ssg70
Nsg63
(lp2986
g56
(g72
g58
NtRp2987
(dp2988
g61
(dp2989
sg70
g2983
sg63
(lp2990
g56
(g77
g58
NtRp2991
(dp2992
g61
(dp2993
sg70
g2987
sg63
(lp2994
g56
(g57
g58
NtRp2995
(dp2996
g61
(dp2997
g69
I1
ssg70
g2991
sg63
(lp2998
g2750
(S't\x06\x00\x00\x00Layout'
tRp2999
asbasbasbag56
(g72
g58
NtRp3000
(dp3001
g61
(dp3002
sg70
g2983
sg63
(lp3003
g56
(g77
g58
NtRp3004
(dp3005
g61
(dp3006
sg70
g3000
sg63
(lp3007
g56
(g57
g58
NtRp3008
(dp3009
g61
(dp3010
g69
I1
ssg70
g3004
sg63
(lp3011
I00
asbasbasbag56
(g72
g58
NtRp3012
(dp3013
g61
(dp3014
sg70
g2983
sg63
(lp3015
g56
(g77
g58
NtRp3016
(dp3017
g61
(dp3018
sg70
g3012
sg63
(lp3019
g56
(g57
g58
NtRp3020
(dp3021
g61
(dp3022
g69
I1
ssg70
g3016
sg63
(lp3023
S'/admin/default/edit/wp/views/layout.html'
p3024
asbasbasbasbasbasbasbag56
(g72
g58
NtRp3025
(dp3026
g61
(dp3027
sg70
g2859
sg63
(lp3028
g56
(g77
g58
NtRp3029
(dp3030
g61
(dp3031
sg70
g3025
sg63
(lp3032
g56
(g57
g58
NtRp3033
(dp3034
g61
(dp3035
g69
I2
ssg70
g3029
sg63
(lp3036
g56
(g65
g58
NtRp3037
(dp3038
g61
(dp3039
g69
I1
ssg70
Nsg63
(lp3040
g56
(g72
g58
NtRp3041
(dp3042
g61
(dp3043
sg70
g3037
sg63
(lp3044
g56
(g77
g58
NtRp3045
(dp3046
g61
(dp3047
sg70
g3041
sg63
(lp3048
g56
(g57
g58
NtRp3049
(dp3050
g61
(dp3051
g69
I1
ssg70
g3045
sg63
(lp3052
g2750
(S't\n\x00\x00\x00Stylesheet'
tRp3053
asbasbasbag56
(g72
g58
NtRp3054
(dp3055
g61
(dp3056
sg70
g3037
sg63
(lp3057
g56
(g77
g58
NtRp3058
(dp3059
g61
(dp3060
sg70
g3054
sg63
(lp3061
g56
(g57
g58
NtRp3062
(dp3063
g61
(dp3064
g69
I1
ssg70
g3058
sg63
(lp3065
I00
asbasbasbag56
(g72
g58
NtRp3066
(dp3067
g61
(dp3068
sg70
g3037
sg63
(lp3069
g56
(g77
g58
NtRp3070
(dp3071
g61
(dp3072
sg70
g3066
sg63
(lp3073
g56
(g57
g58
NtRp3074
(dp3075
g61
(dp3076
g69
I1
ssg70
g3070
sg63
(lp3077
S'/admin/default/edit/wp/static/base.css'
p3078
asbasbasbasbasbasbasbag56
(g72
g58
NtRp3079
(dp3080
g61
(dp3081
sg70
g2859
sg63
(lp3082
g56
(g77
g58
NtRp3083
(dp3084
g61
(dp3085
sg70
g3079
sg63
(lp3086
g56
(g57
g58
NtRp3087
(dp3088
g61
(dp3089
g69
I2
ssg70
g3083
sg63
(lp3090
g56
(g65
g58
NtRp3091
(dp3092
g61
(dp3093
g69
I1
ssg70
Nsg63
(lp3094
g56
(g72
g58
NtRp3095
(dp3096
g61
(dp3097
sg70
g3091
sg63
(lp3098
g56
(g77
g58
NtRp3099
(dp3100
g61
(dp3101
sg70
g3095
sg63
(lp3102
g56
(g57
g58
NtRp3103
(dp3104
g61
(dp3105
g69
I1
ssg70
g3099
sg63
(lp3106
g2750
(S's\x08\x00\x00\x00DB Model'
tRp3107
asbasbasbag56
(g72
g58
NtRp3108
(dp3109
g61
(dp3110
sg70
g3091
sg63
(lp3111
g56
(g77
g58
NtRp3112
(dp3113
g61
(dp3114
sg70
g3108
sg63
(lp3115
g56
(g57
g58
NtRp3116
(dp3117
g61
(dp3118
g69
I1
ssg70
g3112
sg63
(lp3119
I00
asbasbasbag56
(g72
g58
NtRp3120
(dp3121
g61
(dp3122
sg70
g3091
sg63
(lp3123
g56
(g77
g58
NtRp3124
(dp3125
g61
(dp3126
sg70
g3120
sg63
(lp3127
g56
(g57
g58
NtRp3128
(dp3129
g61
(dp3130
g69
I1
ssg70
g3124
sg63
(lp3131
S'/admin/default/edit/wp/models/db.py'
p3132
asbasbasbasbasbasbasbag56
(g72
g58
NtRp3133
(dp3134
g61
(dp3135
sg70
g2859
sg63
(lp3136
g56
(g77
g58
NtRp3137
(dp3138
g61
(dp3139
sg70
g3133
sg63
(lp3140
g56
(g57
g58
NtRp3141
(dp3142
g61
(dp3143
g69
I2
ssg70
g3137
sg63
(lp3144
g56
(g65
g58
NtRp3145
(dp3146
g61
(dp3147
g69
I1
ssg70
Nsg63
(lp3148
g56
(g72
g58
NtRp3149
(dp3150
g61
(dp3151
sg70
g3145
sg63
(lp3152
g56
(g77
g58
NtRp3153
(dp3154
g61
(dp3155
sg70
g3149
sg63
(lp3156
g56
(g57
g58
NtRp3157
(dp3158
g61
(dp3159
g69
I1
ssg70
g3153
sg63
(lp3160
g2750
(S's\n\x00\x00\x00Menu Model'
tRp3161
asbasbasbag56
(g72
g58
NtRp3162
(dp3163
g61
(dp3164
sg70
g3145
sg63
(lp3165
g56
(g77
g58
NtRp3166
(dp3167
g61
(dp3168
sg70
g3162
sg63
(lp3169
g56
(g57
g58
NtRp3170
(dp3171
g61
(dp3172
g69
I1
ssg70
g3166
sg63
(lp3173
I00
asbasbasbag56
(g72
g58
NtRp3174
(dp3175
g61
(dp3176
sg70
g3145
sg63
(lp3177
g56
(g77
g58
NtRp3178
(dp3179
g61
(dp3180
sg70
g3174
sg63
(lp3181
g56
(g57
g58
NtRp3182
(dp3183
g61
(dp3184
g69
I1
ssg70
g3178
sg63
(lp3185
S'/admin/default/edit/wp/models/menu.py'
p3186
asbasbasbasbasbasbasbag56
(g72
g58
NtRp3187
(dp3188
g61
(dp3189
sg70
g2859
sg63
(lp3190
g56
(g77
g58
NtRp3191
(dp3192
g61
(dp3193
sg70
g3187
sg63
(lp3194
g56
(g57
g58
NtRp3195
(dp3196
g61
(dp3197
g69
I2
ssg70
g3191
sg63
(lp3198
g56
(g65
g58
NtRp3199
(dp3200
g61
(dp3201
g69
I1
ssg70
Nsg63
(lp3202
g56
(g72
g58
NtRp3203
(dp3204
g61
(dp3205
sg70
g3199
sg63
(lp3206
g56
(g77
g58
NtRp3207
(dp3208
g61
(dp3209
sg70
g3203
sg63
(lp3210
g56
(g57
g58
NtRp3211
(dp3212
g61
(dp3213
g69
I1
ssg70
g3207
sg63
(lp3214
g2750
(S't\x08\x00\x00\x00Database'
tRp3215
asbasbasbag56
(g72
g58
NtRp3216
(dp3217
g61
(dp3218
sg70
g3199
sg63
(lp3219
g56
(g77
g58
NtRp3220
(dp3221
g61
(dp3222
sg70
g3216
sg63
(lp3223
g56
(g57
g58
NtRp3224
(dp3225
g61
(dp3226
g69
I1
ssg70
g3220
sg63
(lp3227
I00
asbasbasbag56
(g72
g58
NtRp3228
(dp3229
g61
(dp3230
sg70
g3199
sg63
(lp3231
g56
(g77
g58
NtRp3232
(dp3233
g61
(dp3234
sg70
g3228
sg63
(lp3235
g56
(g57
g58
NtRp3236
(dp3237
g61
(dp3238
g69
I1
ssg70
g3232
sg63
(lp3239
S'/wp/appadmin/index'
p3240
asbasbasbasbasbasbasbag56
(g72
g58
NtRp3241
(dp3242
g61
(dp3243
sg70
g2859
sg63
(lp3244
g56
(g77
g58
NtRp3245
(dp3246
g61
(dp3247
sg70
g3241
sg63
(lp3248
g56
(g57
g58
NtRp3249
(dp3250
g61
(dp3251
g69
I2
ssg70
g3245
sg63
(lp3252
g56
(g65
g58
NtRp3253
(dp3254
g61
(dp3255
g69
I1
ssg70
Nsg63
(lp3256
g56
(g72
g58
NtRp3257
(dp3258
g61
(dp3259
sg70
g3253
sg63
(lp3260
g56
(g77
g58
NtRp3261
(dp3262
g61
(dp3263
sg70
g3257
sg63
(lp3264
g56
(g57
g58
NtRp3265
(dp3266
g61
(dp3267
g69
I1
ssg70
g3261
sg63
(lp3268
g2750
(S't\x06\x00\x00\x00Errors'
tRp3269
asbasbasbag56
(g72
g58
NtRp3270
(dp3271
g61
(dp3272
sg70
g3253
sg63
(lp3273
g56
(g77
g58
NtRp3274
(dp3275
g61
(dp3276
sg70
g3270
sg63
(lp3277
g56
(g57
g58
NtRp3278
(dp3279
g61
(dp3280
g69
I1
ssg70
g3274
sg63
(lp3281
I00
asbasbasbag56
(g72
g58
NtRp3282
(dp3283
g61
(dp3284
sg70
g3253
sg63
(lp3285
g56
(g77
g58
NtRp3286
(dp3287
g61
(dp3288
sg70
g3282
sg63
(lp3289
g56
(g57
g58
NtRp3290
(dp3291
g61
(dp3292
g69
I1
ssg70
g3286
sg63
(lp3293
S'/admin/default/errors/wp'
p3294
asbasbasbasbasbasbasbag56
(g72
g58
NtRp3295
(dp3296
g61
(dp3297
sg70
g2859
sg63
(lp3298
g56
(g77
g58
NtRp3299
(dp3300
g61
(dp3301
sg70
g3295
sg63
(lp3302
g56
(g57
g58
NtRp3303
(dp3304
g61
(dp3305
g69
I2
ssg70
g3299
sg63
(lp3306
g56
(g65
g58
NtRp3307
(dp3308
g61
(dp3309
g69
I1
ssg70
Nsg63
(lp3310
g56
(g72
g58
NtRp3311
(dp3312
g61
(dp3313
sg70
g3307
sg63
(lp3314
g56
(g77
g58
NtRp3315
(dp3316
g61
(dp3317
sg70
g3311
sg63
(lp3318
g56
(g57
g58
NtRp3319
(dp3320
g61
(dp3321
g69
I1
ssg70
g3315
sg63
(lp3322
g2750
(S't\x05\x00\x00\x00About'
tRp3323
asbasbasbag56
(g72
g58
NtRp3324
(dp3325
g61
(dp3326
sg70
g3307
sg63
(lp3327
g56
(g77
g58
NtRp3328
(dp3329
g61
(dp3330
sg70
g3324
sg63
(lp3331
g56
(g57
g58
NtRp3332
(dp3333
g61
(dp3334
g69
I1
ssg70
g3328
sg63
(lp3335
I00
asbasbasbag56
(g72
g58
NtRp3336
(dp3337
g61
(dp3338
sg70
g3307
sg63
(lp3339
g56
(g77
g58
NtRp3340
(dp3341
g61
(dp3342
sg70
g3336
sg63
(lp3343
g56
(g57
g58
NtRp3344
(dp3345
g61
(dp3346
g69
I1
ssg70
g3340
sg63
(lp3347
S'/admin/default/about/wp'
p3348
asbasbasbasbasbasbasbasbasbasbasbasbasbasbasbag56
(g72
g58
NtRp3349
(dp3350
g61
(dp3351
sg70
g2718
sg63
(lp3352
g56
(g77
g58
NtRp3353
(dp3354
g61
(dp3355
sg70
g3349
sg63
(lp3356
g56
(g57
g58
NtRp3357
(dp3358
g61
(dp3359
g69
I4
ssg70
g3353
sg63
(lp3360
g56
(g65
g58
NtRp3361
(dp3362
g61
(dp3363
g69
I3
ssg70
Nsg63
(lp3364
g56
(g72
g58
NtRp3365
(dp3366
g61
(dp3367
sg70
g3361
sg63
(lp3368
g56
(g77
g58
NtRp3369
(dp3370
g61
(dp3371
sg70
g3365
sg63
(lp3372
g56
(g57
g58
NtRp3373
(dp3374
g61
(dp3375
g69
I3
ssg70
g3369
sg63
(lp3376
g2750
(S't\t\x00\x00\x00Resources'
tRp3377
asbasbasbag56
(g72
g58
NtRp3378
(dp3379
g61
(dp3380
sg70
g3361
sg63
(lp3381
g56
(g77
g58
NtRp3382
(dp3383
g61
(dp3384
sg70
g3378
sg63
(lp3385
g56
(g57
g58
NtRp3386
(dp3387
g61
(dp3388
g69
I3
ssg70
g3382
sg63
(lp3389
g99
asbasbasbag56
(g72
g58
NtRp3390
(dp3391
g61
(dp3392
sg70
g3361
sg63
(lp3393
g56
(g77
g58
NtRp3394
(dp3395
g61
(dp3396
sg70
g3390
sg63
(lp3397
g56
(g57
g58
NtRp3398
(dp3399
g61
(dp3400
g69
I3
ssg70
g3394
sg63
(lp3401
S'None'
p3402
asbasbasbag56
(g72
g58
NtRp3403
(dp3404
g61
(dp3405
sg70
g3361
sg63
(lp3406
g56
(g77
g58
NtRp3407
(dp3408
g61
(dp3409
sg70
g3403
sg63
(lp3410
g56
(g57
g58
NtRp3411
(dp3412
g61
(dp3413
g69
I3
ssg70
g3407
sg63
(lp3414
g56
(g65
g58
NtRp3415
(dp3416
g61
(dp3417
g69
I2
ssg70
Nsg63
(lp3418
g56
(g72
g58
NtRp3419
(dp3420
g61
(dp3421
sg70
g3415
sg63
(lp3422
g56
(g77
g58
NtRp3423
(dp3424
g61
(dp3425
sg70
g3419
sg63
(lp3426
g56
(g57
g58
NtRp3427
(dp3428
g61
(dp3429
g69
I2
ssg70
g3423
sg63
(lp3430
g56
(g65
g58
NtRp3431
(dp3432
g61
(dp3433
g69
I1
ssg70
Nsg63
(lp3434
g56
(g72
g58
NtRp3435
(dp3436
g61
(dp3437
sg70
g3431
sg63
(lp3438
g56
(g77
g58
NtRp3439
(dp3440
g61
(dp3441
sg70
g3435
sg63
(lp3442
g56
(g57
g58
NtRp3443
(dp3444
g61
(dp3445
g69
I1
ssg70
g3439
sg63
(lp3446
g2750
(S't\r\x00\x00\x00Documentation'
tRp3447
asbasbasbag56
(g72
g58
NtRp3448
(dp3449
g61
(dp3450
sg70
g3431
sg63
(lp3451
g56
(g77
g58
NtRp3452
(dp3453
g61
(dp3454
sg70
g3448
sg63
(lp3455
g56
(g57
g58
NtRp3456
(dp3457
g61
(dp3458
g69
I1
ssg70
g3452
sg63
(lp3459
I00
asbasbasbag56
(g72
g58
NtRp3460
(dp3461
g61
(dp3462
sg70
g3431
sg63
(lp3463
g56
(g77
g58
NtRp3464
(dp3465
g61
(dp3466
sg70
g3460
sg63
(lp3467
g56
(g57
g58
NtRp3468
(dp3469
g61
(dp3470
g69
I1
ssg70
g3464
sg63
(lp3471
S'http://www.web2py.com/book'
p3472
asbasbasbag56
(g72
g58
NtRp3473
(dp3474
g61
(dp3475
sg70
g3431
sg63
(lp3476
g56
(g77
g58
NtRp3477
(dp3478
g61
(dp3479
sg70
g3473
sg63
(lp3480
g56
(g57
g58
NtRp3481
(dp3482
g61
(dp3483
g69
I1
ssg70
g3477
sg63
(lp3484
(lp3485
(g2750
(S't\x07\x00\x00\x00Preface'
tRp3486
I00
S'http://www.web2py.com/book/default/chapter/00'
tp3487
a(g2750
(S't\x0c\x00\x00\x00Introduction'
tRp3488
I00
S'http://www.web2py.com/book/default/chapter/01'
tp3489
a(g2750
(S't\x06\x00\x00\x00Python'
tRp3490
I00
S'http://www.web2py.com/book/default/chapter/02'
tp3491
a(g2750
(S't\x08\x00\x00\x00Overview'
tRp3492
I00
S'http://www.web2py.com/book/default/chapter/03'
tp3493
a(g2750
(S's\x08\x00\x00\x00The Core'
tRp3494
I00
S'http://www.web2py.com/book/default/chapter/04'
tp3495
a(g2750
(S's\t\x00\x00\x00The Views'
tRp3496
I00
S'http://www.web2py.com/book/default/chapter/05'
tp3497
a(g2750
(S't\x08\x00\x00\x00Database'
tRp3498
I00
S'http://www.web2py.com/book/default/chapter/06'
tp3499
a(g2750
(S's\x14\x00\x00\x00Forms and Validators'
tRp3500
I00
S'http://www.web2py.com/book/default/chapter/07'
tp3501
a(g2750
(S's\x0e\x00\x00\x00Access Control'
tRp3502
I00
S'http://www.web2py.com/book/default/chapter/08'
tp3503
a(g2750
(S't\x08\x00\x00\x00Services'
tRp3504
I00
S'http://www.web2py.com/book/default/chapter/09'
tp3505
a(g2750
(S's\x0c\x00\x00\x00Ajax Recipes'
tRp3506
I00
S'http://www.web2py.com/book/default/chapter/10'
tp3507
a(g2750
(S's\x12\x00\x00\x00Deployment Recipes'
tRp3508
I00
S'http://www.web2py.com/book/default/chapter/11'
tp3509
a(g2750
(S's\r\x00\x00\x00Other Recipes'
tRp3510
I00
S'http://www.web2py.com/book/default/chapter/12'
tp3511
a(g2750
(S's\r\x00\x00\x00Buy this book'
tRp3512
I00
S'http://stores.lulu.com/web2py'
tp3513
aasbasbasbasbasbasbasbag56
(g72
g58
NtRp3514
(dp3515
g61
(dp3516
sg70
g3415
sg63
(lp3517
g56
(g77
g58
NtRp3518
(dp3519
g61
(dp3520
sg70
g3514
sg63
(lp3521
g56
(g57
g58
NtRp3522
(dp3523
g61
(dp3524
g69
I2
ssg70
g3518
sg63
(lp3525
g56
(g65
g58
NtRp3526
(dp3527
g61
(dp3528
g69
I1
ssg70
Nsg63
(lp3529
g56
(g72
g58
NtRp3530
(dp3531
g61
(dp3532
sg70
g3526
sg63
(lp3533
g56
(g77
g58
NtRp3534
(dp3535
g61
(dp3536
sg70
g3530
sg63
(lp3537
g56
(g57
g58
NtRp3538
(dp3539
g61
(dp3540
g69
I1
ssg70
g3534
sg63
(lp3541
g2750
(S't\t\x00\x00\x00Community'
tRp3542
asbasbasbag56
(g72
g58
NtRp3543
(dp3544
g61
(dp3545
sg70
g3526
sg63
(lp3546
g56
(g77
g58
NtRp3547
(dp3548
g61
(dp3549
sg70
g3543
sg63
(lp3550
g56
(g57
g58
NtRp3551
(dp3552
g61
(dp3553
g69
I1
ssg70
g3547
sg63
(lp3554
I00
asbasbasbag56
(g72
g58
NtRp3555
(dp3556
g61
(dp3557
sg70
g3526
sg63
(lp3558
g56
(g77
g58
NtRp3559
(dp3560
g61
(dp3561
sg70
g3555
sg63
(lp3562
g56
(g57
g58
NtRp3563
(dp3564
g61
(dp3565
g69
I1
ssg70
g3559
sg63
(lp3566
Nasbasbasbag56
(g72
g58
NtRp3567
(dp3568
g61
(dp3569
sg70
g3526
sg63
(lp3570
g56
(g77
g58
NtRp3571
(dp3572
g61
(dp3573
sg70
g3567
sg63
(lp3574
g56
(g57
g58
NtRp3575
(dp3576
g61
(dp3577
g69
I1
ssg70
g3571
sg63
(lp3578
(lp3579
(g2750
(S't\x06\x00\x00\x00Groups'
tRp3580
I00
S'http://www.web2py.com/examples/default/usergroups'
tp3581
a(g2750
(S't\x07\x00\x00\x00Twitter'
tRp3582
I00
S'http://twitter.com/web2py'
tp3583
a(g2750
(S's\t\x00\x00\x00Live chat'
tRp3584
I00
S'http://mibbit.com/?channel=%23web2py&server=irc.mibbit.net'
tp3585
a(g2750
(S's\n\x00\x00\x00User Voice'
tRp3586
I00
S'http://web2py.uservoice.com/'
tp3587
aasbasbasbasbasbasbasbag56
(g72
g58
NtRp3588
(dp3589
g61
(dp3590
sg70
g3415
sg63
(lp3591
g56
(g77
g58
NtRp3592
(dp3593
g61
(dp3594
sg70
g3588
sg63
(lp3595
g56
(g57
g58
NtRp3596
(dp3597
g61
(dp3598
g69
I2
ssg70
g3592
sg63
(lp3599
g56
(g65
g58
NtRp3600
(dp3601
g61
(dp3602
g69
I1
ssg70
Nsg63
(lp3603
g56
(g72
g58
NtRp3604
(dp3605
g61
(dp3606
sg70
g3600
sg63
(lp3607
g56
(g77
g58
NtRp3608
(dp3609
g61
(dp3610
sg70
g3604
sg63
(lp3611
g56
(g57
g58
NtRp3612
(dp3613
g61
(dp3614
g69
I1
ssg70
g3608
sg63
(lp3615
g2750
(S't\x06\x00\x00\x00Web2py'
tRp3616
asbasbasbag56
(g72
g58
NtRp3617
(dp3618
g61
(dp3619
sg70
g3600
sg63
(lp3620
g56
(g77
g58
NtRp3621
(dp3622
g61
(dp3623
sg70
g3617
sg63
(lp3624
g56
(g57
g58
NtRp3625
(dp3626
g61
(dp3627
g69
I1
ssg70
g3621
sg63
(lp3628
I00
asbasbasbag56
(g72
g58
NtRp3629
(dp3630
g61
(dp3631
sg70
g3600
sg63
(lp3632
g56
(g77
g58
NtRp3633
(dp3634
g61
(dp3635
sg70
g3629
sg63
(lp3636
g56
(g57
g58
NtRp3637
(dp3638
g61
(dp3639
g69
I1
ssg70
g3633
sg63
(lp3640
S'http://www.web2py.com'
p3641
asbasbasbag56
(g72
g58
NtRp3642
(dp3643
g61
(dp3644
sg70
g3600
sg63
(lp3645
g56
(g77
g58
NtRp3646
(dp3647
g61
(dp3648
sg70
g3642
sg63
(lp3649
g56
(g57
g58
NtRp3650
(dp3651
g61
(dp3652
g69
I1
ssg70
g3646
sg63
(lp3653
(lp3654
(g2750
(S't\x08\x00\x00\x00Download'
tRp3655
I00
S'http://www.web2py.com/examples/default/download'
tp3656
a(g2750
(S't\x07\x00\x00\x00Support'
tRp3657
I00
S'http://www.web2py.com/examples/default/support'
tp3658
a(g2750
(S's\x0e\x00\x00\x00Quick Examples'
tRp3659
I00
S'http://web2py.com/examples/default/examples'
tp3660
a(g2750
(S't\x03\x00\x00\x00FAQ'
tRp3661
I00
S'http://web2py.com/AlterEgo'
tp3662
a(g2750
(S's\x11\x00\x00\x00Free Applications'
tRp3663
I00
S'http://web2py.com/appliances'
tp3664
a(g2750
(S't\x07\x00\x00\x00Plugins'
tRp3665
I00
S'http://web2py.com/plugins'
tp3666
a(g2750
(S't\x07\x00\x00\x00Recipes'
tRp3667
I00
S'http://web2pyslices.com/'
tp3668
a(g2750
(S't\x04\x00\x00\x00Demo'
tRp3669
I00
S'http://web2py.com/demo_admin'
tp3670
a(g2750
(S't\x08\x00\x00\x00Semantic'
tRp3671
I00
S'http://web2py.com/semantic'
tp3672
a(g2750
(S't\x07\x00\x00\x00Layouts'
tRp3673
I00
S'http://web2py.com/layouts'
tp3674
a(g2750
(S't\x06\x00\x00\x00Videos'
tRp3675
I00
S'http://www.web2py.com/examples/default/videos/'
tp3676
aasbasbasbasbasbasbasbasbasbasbasbasbasbasbasbasbasbasbasbag56
(g72
g58
NtRp3677
(dp3678
g61
(dp3679
sg70
g2281
sg63
(lp3680
g56
(g77
g58
NtRp3681
(dp3682
g61
(dp3683
g81
g82
ssg70
g3677
sg63
(lp3684
S'meta'
p3685
asbag56
(g77
g58
NtRp3686
(dp3687
g61
(dp3688
g88
g89
ssg70
g3677
sg63
(lp3689
S':'
asbag56
(g77
g58
NtRp3690
(dp3691
g61
(dp3692
sg70
g3677
sg63
(lp3693
g56
(g57
g58
NtRp3694
(dp3695
g61
(dp3696
g69
I5
ssg70
g3690
sg63
(lp3697
g56
(g65
g58
NtRp3698
(dp3699
g61
(dp3700
g69
I4
ssg70
Nsg63
(lp3701
g56
(g72
g58
NtRp3702
(dp3703
g61
(dp3704
sg70
g3698
sg63
(lp3705
g56
(g77
g58
NtRp3706
(dp3707
g61
(dp3708
g81
g82
ssg70
g3702
sg63
(lp3709
S'author'
p3710
asbag56
(g77
g58
NtRp3711
(dp3712
g61
(dp3713
g88
g89
ssg70
g3702
sg63
(lp3714
S':'
asbag56
(g77
g58
NtRp3715
(dp3716
g61
(dp3717
sg70
g3702
sg63
(lp3718
g56
(g57
g58
NtRp3719
(dp3720
g61
(dp3721
g69
I4
ssg70
g3715
sg63
(lp3722
S'you'
p3723
asbasbasbag56
(g72
g58
NtRp3724
(dp3725
g61
(dp3726
sg70
g3698
sg63
(lp3727
g56
(g77
g58
NtRp3728
(dp3729
g61
(dp3730
g81
g82
ssg70
g3724
sg63
(lp3731
S'copyright'
p3732
asbag56
(g77
g58
NtRp3733
(dp3734
g61
(dp3735
g88
g89
ssg70
g3724
sg63
(lp3736
S':'
asbag56
(g77
g58
NtRp3737
(dp3738
g61
(dp3739
sg70
g3724
sg63
(lp3740
g56
(g57
g58
NtRp3741
(dp3742
g61
(dp3743
g69
I4
ssg70
g3737
sg63
(lp3744
S'Copyright 2007-2010'
p3745
asbasbasbag56
(g72
g58
NtRp3746
(dp3747
g61
(dp3748
sg70
g3698
sg63
(lp3749
g56
(g77
g58
NtRp3750
(dp3751
g61
(dp3752
g81
g82
ssg70
g3746
sg63
(lp3753
S'description'
p3754
asbag56
(g77
g58
NtRp3755
(dp3756
g61
(dp3757
g88
g89
ssg70
g3746
sg63
(lp3758
S':'
asbag56
(g77
g58
NtRp3759
(dp3760
g61
(dp3761
sg70
g3746
sg63
(lp3762
g56
(g57
g58
NtRp3763
(dp3764
g61
(dp3765
g69
I4
ssg70
g3759
sg63
(lp3766
S'Free and open source full-stack enterprise framework for agile development of fast, scalable, secure and portable database-driven web-based applications. Written and programmable in Python'
p3767
asbasbasbag56
(g72
g58
NtRp3768
(dp3769
g61
(dp3770
sg70
g3698
sg63
(lp3771
g56
(g77
g58
NtRp3772
(dp3773
g61
(dp3774
g81
g82
ssg70
g3768
sg63
(lp3775
S'generator'
p3776
asbag56
(g77
g58
NtRp3777
(dp3778
g61
(dp3779
g88
g89
ssg70
g3768
sg63
(lp3780
S':'
asbag56
(g77
g58
NtRp3781
(dp3782
g61
(dp3783
sg70
g3768
sg63
(lp3784
g56
(g57
g58
NtRp3785
(dp3786
g61
(dp3787
g69
I4
ssg70
g3781
sg63
(lp3788
S'Web2py Enterprise Framework'
p3789
asbasbasbag56
(g72
g58
NtRp3790
(dp3791
g61
(dp3792
sg70
g3698
sg63
(lp3793
g56
(g77
g58
NtRp3794
(dp3795
g61
(dp3796
g81
g82
ssg70
g3790
sg63
(lp3797
S'keywords'
p3798
asbag56
(g77
g58
NtRp3799
(dp3800
g61
(dp3801
g88
g89
ssg70
g3790
sg63
(lp3802
S':'
asbag56
(g77
g58
NtRp3803
(dp3804
g61
(dp3805
sg70
g3790
sg63
(lp3806
g56
(g57
g58
NtRp3807
(dp3808
g61
(dp3809
g69
I4
ssg70
g3803
sg63
(lp3810
S'web2py, python, framework'
p3811
asbasbasbasbasbasbasbag56
(g72
g58
NtRp3812
(dp3813
g61
(dp3814
sg70
g2281
sg63
(lp3815
g56
(g77
g58
NtRp3816
(dp3817
g61
(dp3818
g81
g82
ssg70
g3812
sg63
(lp3819
S'postprocessing'
p3820
asbag56
(g77
g58
NtRp3821
(dp3822
g61
(dp3823
g88
g89
ssg70
g3812
sg63
(lp3824
S':'
asbag56
(g77
g58
NtRp3825
(dp3826
g61
(dp3827
sg70
g3812
sg63
(lp3828
g56
(g57
g58
NtRp3829
(dp3830
g61
(dp3831
g69
I5
ssg70
g3825
sg63
(lp3832
g56
(g65
g58
NtRp3833
(dp3834
g61
(dp3835
g69
I4
ssg70
Nsg63
(lp3836
sbasbasbasbag56
(g72
g58
NtRp3837
(dp3838
g61
(dp3839
sg70
g2281
sg63
(lp3840
g56
(g77
g58
NtRp3841
(dp3842
g61
(dp3843
g81
g82
ssg70
g3837
sg63
(lp3844
S'session_filename'
p3845
asbag56
(g77
g58
NtRp3846
(dp3847
g61
(dp3848
g88
g89
ssg70
g3837
sg63
(lp3849
S':'
asbag56
(g77
g58
NtRp3850
(dp3851
g61
(dp3852
sg70
g3837
sg63
(lp3853
g56
(g57
g58
NtRp3854
(dp3855
g61
(dp3856
g69
I5
ssg70
g3850
sg63
(lp3857
S'/Users/schultzc/workspace/wherespuppet/web2py/applications/wp/sessions/127.0.0.1-3a068907-4096-4f69-8349-8613150fcfee'
p3858
asbasbasbag56
(g72
g58
NtRp3859
(dp3860
g61
(dp3861
sg70
g2281
sg63
(lp3862
g56
(g77
g58
NtRp3863
(dp3864
g61
(dp3865
g81
g82
ssg70
g3859
sg63
(lp3866
S'session_id'
p3867
asbag56
(g77
g58
NtRp3868
(dp3869
g61
(dp3870
g88
g89
ssg70
g3859
sg63
(lp3871
S':'
asbag56
(g77
g58
NtRp3872
(dp3873
g61
(dp3874
sg70
g3859
sg63
(lp3875
g56
(g57
g58
NtRp3876
(dp3877
g61
(dp3878
g69
I5
ssg70
g3872
sg63
(lp3879
S'127.0.0.1-3a068907-4096-4f69-8349-8613150fcfee'
p3880
asbasbasbag56
(g72
g58
NtRp3881
(dp3882
g61
(dp3883
sg70
g2281
sg63
(lp3884
g56
(g77
g58
NtRp3885
(dp3886
g61
(dp3887
g81
g82
ssg70
g3881
sg63
(lp3888
S'session_id_name'
p3889
asbag56
(g77
g58
NtRp3890
(dp3891
g61
(dp3892
g88
g89
ssg70
g3881
sg63
(lp3893
S':'
asbag56
(g77
g58
NtRp3894
(dp3895
g61
(dp3896
sg70
g3881
sg63
(lp3897
g56
(g57
g58
NtRp3898
(dp3899
g61
(dp3900
g69
I5
ssg70
g3894
sg63
(lp3901
g2338
asbasbasbag56
(g72
g58
NtRp3902
(dp3903
g61
(dp3904
sg70
g2281
sg63
(lp3905
g56
(g77
g58
NtRp3906
(dp3907
g61
(dp3908
g81
g82
ssg70
g3902
sg63
(lp3909
S'session_new'
p3910
asbag56
(g77
g58
NtRp3911
(dp3912
g61
(dp3913
g88
g89
ssg70
g3902
sg63
(lp3914
S':'
asbag56
(g77
g58
NtRp3915
(dp3916
g61
(dp3917
sg70
g3902
sg63
(lp3918
g56
(g57
g58
NtRp3919
(dp3920
g61
(dp3921
g69
I5
ssg70
g3915
sg63
(lp3922
g1199
asbasbasbag56
(g72
g58
NtRp3923
(dp3924
g61
(dp3925
sg70
g2281
sg63
(lp3926
g56
(g77
g58
NtRp3927
(dp3928
g61
(dp3929
g81
g82
ssg70
g3923
sg63
(lp3930
S'status'
p3931
asbag56
(g77
g58
NtRp3932
(dp3933
g61
(dp3934
g88
g89
ssg70
g3923
sg63
(lp3935
S':'
asbag56
(g77
g58
NtRp3936
(dp3937
g61
(dp3938
sg70
g3923
sg63
(lp3939
g56
(g57
g58
NtRp3940
(dp3941
g61
(dp3942
g69
I5
ssg70
g3936
sg63
(lp3943
S'200'
p3944
asbasbasbag56
(g72
g58
NtRp3945
(dp3946
g61
(dp3947
sg70
g2281
sg63
(lp3948
g56
(g77
g58
NtRp3949
(dp3950
g61
(dp3951
g81
g82
ssg70
g3945
sg63
(lp3952
S'subtitle'
p3953
asbag56
(g77
g58
NtRp3954
(dp3955
g61
(dp3956
g88
g89
ssg70
g3945
sg63
(lp3957
S':'
asbag56
(g77
g58
NtRp3958
(dp3959
g61
(dp3960
sg70
g3945
sg63
(lp3961
g56
(g57
g58
NtRp3962
(dp3963
g61
(dp3964
g69
I5
ssg70
g3958
sg63
(lp3965
g2750
(S's\r\x00\x00\x00customize me!'
tRp3966
asbasbasbag56
(g72
g58
NtRp3967
(dp3968
g61
(dp3969
sg70
g2281
sg63
(lp3970
g56
(g77
g58
NtRp3971
(dp3972
g61
(dp3973
g81
g82
ssg70
g3967
sg63
(lp3974
S'title'
p3975
asbag56
(g77
g58
NtRp3976
(dp3977
g61
(dp3978
g88
g89
ssg70
g3967
sg63
(lp3979
S':'
asbag56
(g77
g58
NtRp3980
(dp3981
g61
(dp3982
sg70
g3967
sg63
(lp3983
g56
(g57
g58
NtRp3984
(dp3985
g61
(dp3986
g69
I5
ssg70
g3980
sg63
(lp3987
g121
asbasbasbag56
(g72
g58
NtRp3988
(dp3989
g61
(dp3990
sg70
g2281
sg63
(lp3991
g56
(g77
g58
NtRp3992
(dp3993
g61
(dp3994
g81
g82
ssg70
g3988
sg63
(lp3995
g1523
asbag56
(g77
g58
NtRp3996
(dp3997
g61
(dp3998
g88
g89
ssg70
g3988
sg63
(lp3999
S':'
asbag56
(g77
g58
NtRp4000
(dp4001
g61
(dp4002
sg70
g3988
sg63
(lp4003
g56
(g57
g58
NtRp4004
(dp4005
g61
(dp4006
g69
I5
ssg70
g4000
sg63
(lp4007
g1536
asbasbasbag56
(g72
g58
NtRp4008
(dp4009
g61
(dp4010
sg70
g2281
sg63
(lp4011
g56
(g77
g58
NtRp4012
(dp4013
g61
(dp4014
g81
g82
ssg70
g4008
sg63
(lp4015
S'view'
p4016
asbag56
(g77
g58
NtRp4017
(dp4018
g61
(dp4019
g88
g89
ssg70
g4008
sg63
(lp4020
S':'
asbag56
(g77
g58
NtRp4021
(dp4022
g61
(dp4023
sg70
g4008
sg63
(lp4024
g56
(g57
g58
NtRp4025
(dp4026
g61
(dp4027
g69
I5
ssg70
g4021
sg63
(lp4028
S'default/submit.html'
p4029
asbasbasbasbasbsS'locals'
p4030
(dp4031
S'form'
p4032
S'<gluon.sqlhtml.SQLFORM object>'
p4033
sssS'traceback'
p4034
S'Traceback (most recent call last):\n  File "/Users/schultzc/workspace/wherespuppet/web2py/gluon/restricted.py", line 192, in restricted\n    exec ccode in environment\n  File "/Users/schultzc/workspace/wherespuppet/web2py/applications/wp/controllers/default.py", line 96, in <module>\n  File "/Users/schultzc/workspace/wherespuppet/web2py/gluon/globals.py", line 137, in <lambda>\n    self._caller = lambda f: f()\n  File "/Users/schultzc/workspace/wherespuppet/web2py/applications/wp/controllers/default.py", line 29, in submit\n    if latitude is None:\nUnboundLocalError: local variable \'latitude\' referenced before assignment\n'
p4035
s.