(dp1
S'output'
p2
S''
sS'layer'
p3
S'/Users/schultzc/workspace/wherespuppet/web2py/applications/wp/views/default/submit.html'
p4
sS'code'
p5
S'response.write(\'<!DOCTYPE html>\\n<html lang="\', escape=False)\nresponse.write(T.accepted_language or \'en\')\nresponse.write(\'" class="no-js"><!-- no-js need it for modernzr -->\\n  <head>\\n    \\n    <meta charset="utf-8" />        \\n    <!-- www.phpied.com/conditional-comments-block-downloads/ -->\\n    <!--[if IE]><![endif]-->    \\n    <!-- Always force latest IE rendering engine \\n     (even in intranet) & Chrome Frame \\n     Remove this if you use the .htaccess -->\\n    <meta http-equiv="X-UA-Compatible" content="IE=edge,chrome=1">\\n    \\n    <title>\', escape=False)\nresponse.write(response.title or request.application)\nresponse.write(\'</title>\\n    \\n    <!-- http://dev.w3.org/html5/markup/meta.name.html -->\\n    <meta name="application-name" content="\', escape=False)\nresponse.write(request.application)\nresponse.write(\'" /> \\n    \\n    <!-- Speaking of Google, don\\\'t forget to set your site up: \\n     http://google.com/webmasters -->\\n    <meta name="google-site-verification" content="" />\\n    \\n    <!--  Mobile Viewport Fix\\n      j.mp/mobileviewport & davidbcalhoun.com/2010/viewport-metatag \\n      device-width: Occupy full width of the screen in its current orientation\\n      initial-scale = 1.0 retains dimensions instead of zooming out if page height > device height\\n      maximum-scale = 1.0 retains dimensions instead of zooming in if page width < device width\\n      -->\\n    <meta name="viewport" content="width=device-width, initial-scale=1.0, maximum-scale=1.0">\\n    \\n    <!-- Place favicon.ico and apple-touch-icon.png in the root of your domain and delete these references -->\\n    <link rel="shortcut icon" href="\', escape=False)\nresponse.write(URL(\'static\',\'favicon.ico\'))\nresponse.write(\'" type="image/x-icon">\\n    <link rel="apple-touch-icon" href="\', escape=False)\nresponse.write(URL(\'static\',\'favicon.png\'))\nresponse.write(\'">\\n\\n    <!-- For the less-enabled mobile browsers like Opera Mini -->\\n    <link rel="stylesheet" media="handheld" href="\', escape=False)\nresponse.write(URL(\'static\',\'css/handheld.css\'))\nresponse.write(\'">\\n    \\n    <!-- All JavaScript at the bottom, except for Modernizr which enables HTML5 elements & feature detects -->\\n    <script src="\', escape=False)\nresponse.write(URL(\'static\',\'js/modernizr-1.7.min.js\'))\nresponse.write(\'"></script>\\n    \\n    \', escape=False)\n#------  require CSS and JS files for this page (read info in base.css) ------\nresponse.write(\'\\n    \', escape=False)\nresponse.files.append(URL(\'static\',\'css/base.css\'))\nresponse.write(\'\\n    \', escape=False)\nresponse.files.append(URL(\'static\',\'css/superfish.css\'))\nresponse.write(\'\\n    \', escape=False)\nresponse.files.append(URL(\'static\',\'js/superfish.js\'))\nresponse.write(\'\\n    \', escape=False)\nresponse.files.append(URL(\'static\',\'js/jquery.cookie.js\'))\nresponse.write(\'\\n    \', escape=False)\n#------ include web2py specific js code (jquery, calendar, form stuff) ------\nresponse.write(\'\\n    \', escape=False)\nresponse.files.insert(0,URL(\'static\',\'js/jquery.js\'))\nresponse.files.insert(1,URL(\'static\',\'css/calendar.css\'))\nresponse.files.insert(2,URL(\'static\',\'js/calendar.js\'))\nfor _item in response.meta or []:\n    response.write(\'\\n     <meta name="\', escape=False)\n    response.write(_item)\n    response.write(\'" content="\', escape=False)\n    response.write(response.meta[_item])\n    response.write(\'" />\', escape=False)\n    pass\nfor _k,_file in enumerate(response.files or []):\n    if _file in response.files[:_k]:\n        continue\n    _file0=_file.lower().split(\'?\')[0]\n    if _file0.endswith(\'.css\'):\n        response.write(\'\\n     <link href="\', escape=False)\n        response.write(_file)\n        response.write(\'" rel="stylesheet" type="text/css" />\', escape=False)\n    elif _file0.endswith(\'.js\'):\n        response.write(\'\\n     <script src="\', escape=False)\n        response.write(_file)\n        response.write(\'" type="text/javascript"></script>\', escape=False)\n        pass\n    pass\nresponse.write(\'\\n    <script type="text/javascript"><!--\\n    // These variables are used by the web2py_ajax_init function in web2py_ajax.js (which is loaded below).\\n    var w2p_ajax_confirm_message = "\', escape=False)\nresponse.write(T(\'Are you sure you want to delete this object?\'))\nresponse.write(\'";\\n    var w2p_ajax_date_format = "\', escape=False)\nresponse.write(T(\'%Y-%m-%d\'))\nresponse.write(\'";\\n    var w2p_ajax_datetime_format = "\', escape=False)\nresponse.write(T(\'%Y-%m-%d %H:%M:%S\'))\nresponse.write(\'";\\n    //--></script>\\n    <script src="\', escape=False)\nresponse.write(URL(\'static\',\'js/web2py_ajax.js\'))\nresponse.write(\'" type="text/javascript"></script>\\n\', escape=False)\nresponse.write(\'\\n    \\n\\n    \', escape=False)\n#using sidebars need to know what sidebar you want to use\n#prior of using it, because of static width size of content, you can use\n#left_sidebar, right_sidebar, both or none (False left and right)\nleft_sidebar_enabled = globals().get(\'left_sidebar_enabled\',False)\nright_sidebar_enabled = globals().get(\'right_sidebar_enabled\',False)\nif left_sidebar_enabled and right_sidebar_enabled: width_content=\'63%\'\nelif left_sidebar_enabled != right_sidebar_enabled: width_content=\'740px\'\nelse: width_content=\'100%\'\nif left_sidebar_enabled: left_sidebar_style = \'style="display: block;"\'\nelse: left_sidebar_style = \'style="display: none;"\'\nif right_sidebar_enabled: right_sidebar_style = \'style="display: block;"\'\nelse: right_sidebar_style = \'style="display: none;"\'\nstyle_content = \'style="width: %s"\' % width_content\nresponse.write(\'\\n  </head>\\n  \\n  <!-- paulirish.com/2008/conditional-stylesheets-vs-css-hacks-answer-neither/ -->  \\n  <!--[if lt IE 7 ]> <body class="ie6"> <![endif]-->\\n  <!--[if IE 7 ]>    <body class="ie7"> <![endif]-->\\n  <!--[if IE 8 ]>    <body class="ie8"> <![endif]-->\\n  <!--[if IE 9 ]>    <body class="ie9"> <![endif]-->\\n  <!--[if (gt IE 9)|!(IE)]><!--> <body> <!--<![endif]-->\\n    \\n    <div class="flash">\', escape=False)\nresponse.write(response.flash or \'\')\nresponse.write(\'</div> <!-- notification div -->\\n    \\n    <div id="container">                        \\n      \\n      <div id="wrapper">        \\n    \\n    <div id="header"> <!-- header and login nav -->\\n      \', escape=False)\nresponse.write(\' <!-- this is default header -->\\n      \', escape=False)\ntry:\n    response.write(auth.navbar(action=URL(\'default\',\'user\')))\nexcept:pass\nresponse.write(\'               \\n      <h1><span id="appname">\', escape=False)\nresponse.write(request.application.capitalize())\nresponse.write(\'</span>App</h1>\\n      <div style="clear: both;"></div><!-- Clear the divs -->\\n      \', escape=False)\nresponse.write(\'                                     \\n    </div><!-- header  -->\\n    \\n    <div id="statusbar"><!-- statusbar is menu zone -->\\n      \', escape=False)\nresponse.write(\' <!-- this is default statusbar -->\\n      \', escape=False)\n#------ superfish menu ------\nresponse.write(\'\\n      \', escape=False)\nresponse.write(MENU(response.menu,_class=\'sf-menu\'))\nresponse.write(\'\\n      <script type="text/javascript">\\n        jQuery(document).ready(function(){\\n        jQuery(\\\'ul.sf-menu\\\').superfish();});\\n      </script>\\n      <div style="clear: both;"></div><!-- Clear the divs -->   \\n      \', escape=False)\nresponse.write(\'               \\n    </div><!-- statusbar -->\\n    \\n    <div id="page"> <!-- Here my central body -->     \\n\\n      \', escape=False)\nif left_sidebar_enabled:\n    response.write(\'\\n          <div id="left_sidebar" \', escape=False)\n    response.write(XML(left_sidebar_style))\n    response.write(\' >\\n            <div style="padding: 4px;">\\n          \', escape=False)\n    response.write(\'Content Left Sidebar\', escape=False)\n    response.write(\'       \\n            </div>\\n          </div><!-- left_sidebar -->\\n      \', escape=False)\n    pass\nresponse.write(\'\\n\\n      <!-- content -->\\n      <div id="content" \', escape=False)\nresponse.write(XML(style_content))\nresponse.write(\' >\\n        \', escape=False)\nresponse.write(\'\\n<h2>Submit a Puppet Pic:</h2>\\n\\n<script> \\n        function initiate_geolocation() {  \\n            navigator.geolocation.getCurrentPosition(success_handler);  \\n        }  \\n  \\n        function success_handler(position) {\\n            latitude = position.coords.latitude;\\n            longitude = position.coords.longitude;\\n            accuracy = position.coords.accuracy;\\n            timestamp = position.timestamp\\n            \\n            if (!latitude || !longitude) {\\n                document.getElementById("status").innerHTML = "HTML5 Geolocation supported, but location data is currently unavailable.";\\n                return;\\n            }\\n            \\n            $.cookie("posLat", latitude);\\n            $.cookie("posLon", longitude);\\n            $.cookie("posAccuracy", accuracy);\\n            $.cookie("posTimestamp", timestamp);\\n      \\n        } \\n</script>\\n<script>initiate_geolocation();</script>\\n\', escape=False)\nresponse.write(form)\nresponse.write(\'\\n<br/><br/>\\nCurrent Latitude:\', escape=False)\nresponse.write(latitude)\nresponse.write(\'\\n\', escape=False)\nresponse.write(\' \\n      </div>\\n      <!-- content -->\\n\\n      \', escape=False)\nif right_sidebar_enabled:\n    response.write(\'\\n          <div id="right_sidebar" \', escape=False)\n    response.write(XML(right_sidebar_style))\n    response.write(\' >\\n            <div style="padding: 4px;">\\n              \', escape=False)\n    response.write(\'Content Right Sidebar\', escape=False)\n    response.write(\'\\n            </div>\\n      </div><!-- right_sidebar -->\\n          \', escape=False)\n    pass\nresponse.write(\'\\n\\n\\n      <div style="clear: both;"></div><!-- Clear the divs -->\\n      \\n    </div><!-- page -->                         \\n    \\n    <div id="footer">\\n      \', escape=False)\nresponse.write(\' <!-- this is default footer -->\\n      <a href="http://www.web2py.com/" style="float: left; padding-right: 6px;">\\n        <img src="\', escape=False)\nresponse.write(URL(\'static\',\'images/poweredby.png\'))\nresponse.write(\'"/>\\n      </a>\\n      \', escape=False)\nresponse.write(T(\'Copyleft\'))\nresponse.write(\' &#169; 2011               \\n      <div style="clear: both;"></div><!-- Clear the divs -->\\n      \', escape=False)\nresponse.write(\'\\n\\n    </div><!-- footer -->           \\n      </div><!-- wrapper -->\\n    </div><!-- container -->        \\n    \\n    <!--[if lt IE 7 ]>\\n    <script src="\', escape=False)\nresponse.write(URL(\'static\',\'js/dd_belatedpng.js\'))\nresponse.write(\'"></script>\\n    <script> DD_belatedPNG.fix(\\\'img, .png_bg\\\'); //fix any <img> or .png_bg background-images </script>\\n    <![endif]-->\\n    \\n    <!-- asynchronous google analytics: mathiasbynens.be/notes/async-analytics-snippet \\n     change the UA-XXXXX-X to be your site\\\'s ID -->\\n    <!--   \\n       <script>\\n         var _gaq = [[\\\'_setAccount\\\', \\\'UA-XXXXX-X\\\'], [\\\'_trackPageview\\\']];\\n         (function(d, t) {\\n         var g = d.createElement(t),\\n         s = d.getElementsByTagName(t)[0];\\n         g.async = true;\\n         g.src = \\\'//www.google-analytics.com/ga.js\\\';\\n         s.parentNode.insertBefore(g, s);\\n         })(document, \\\'script\\\');\\n       </script>\\n       -->    \\n  </body>\\n</html>\\n\', escape=False)'
p6
sS'snapshot'
p7
(dp8
S'exception'
p9
(dp10
S'__hash__'
p11
S"<method-wrapper '__hash__' of exceptions.NameError object>"
p12
sS'__setattr__'
p13
S"<method-wrapper '__setattr__' of exceptions.NameError object>"
p14
sS'__reduce_ex__'
p15
S'<built-in method __reduce_ex__ of exceptions.NameError object>'
p16
sS'__getslice__'
p17
S"<method-wrapper '__getslice__' of exceptions.NameError object>"
p18
sS'__getitem__'
p19
S"<method-wrapper '__getitem__' of exceptions.NameError object>"
p20
sS'__setstate__'
p21
S'<built-in method __setstate__ of exceptions.NameError object>'
p22
sS'args'
p23
S'("name \'latitude\' is not defined",)'
p24
sS'__reduce__'
p25
S'<built-in method __reduce__ of exceptions.NameError object>'
p26
sS'__str__'
p27
S"<method-wrapper '__str__' of exceptions.NameError object>"
p28
sS'__format__'
p29
S'<built-in method __format__ of exceptions.NameError object>'
p30
sS'__getattribute__'
p31
S"<method-wrapper '__getattribute__' of exceptions.NameError object>"
p32
sS'__class__'
p33
S"<type 'exceptions.NameError'>"
p34
sS'__unicode__'
p35
S'<built-in method __unicode__ of exceptions.NameError object>'
p36
sS'__delattr__'
p37
S"<method-wrapper '__delattr__' of exceptions.NameError object>"
p38
sS'__subclasshook__'
p39
S'<built-in method __subclasshook__ of type object>'
p40
sS'__repr__'
p41
S"<method-wrapper '__repr__' of exceptions.NameError object>"
p42
sS'__dict__'
p43
S'{}'
p44
sS'__sizeof__'
p45
S'<built-in method __sizeof__ of exceptions.NameError object>'
p46
sS'__doc__'
p47
S"'Name not found globally.'"
p48
sS'__init__'
p49
S"<method-wrapper '__init__' of exceptions.NameError object>"
p50
sS'__new__'
p51
S'<built-in method __new__ of type object>'
p52
ssS'evalue'
p53
S"name 'latitude' is not defined"
p54
sS'request'
p55
ccopy_reg
_reconstructor
p56
(cgluon.html
BEAUTIFY
p57
c__builtin__
object
p58
NtRp59
(dp60
S'attributes'
p61
(dp62
sS'components'
p63
(lp64
g56
(cgluon.html
TABLE
p65
g58
NtRp66
(dp67
g61
(dp68
S'level'
p69
I5
ssS'parent'
p70
Nsg63
(lp71
g56
(cgluon.html
TR
p72
g58
NtRp73
(dp74
g61
(dp75
sg70
g66
sg63
(lp76
g56
(cgluon.html
TD
p77
g58
NtRp78
(dp79
g61
(dp80
S'_style'
p81
S'font-weight:bold;'
p82
ssg70
g73
sg63
(lp83
S'ajax'
p84
asbag56
(g77
g58
NtRp85
(dp86
g61
(dp87
S'_valign'
p88
S'top'
p89
ssg70
g73
sg63
(lp90
S':'
asbag56
(g77
g58
NtRp91
(dp92
g61
(dp93
sg70
g73
sg63
(lp94
g56
(g57
g58
NtRp95
(dp96
g61
(dp97
g69
I5
ssg70
g91
sg63
(lp98
S'False'
p99
asbasbasbag56
(g72
g58
NtRp100
(dp101
g61
(dp102
sg70
g66
sg63
(lp103
g56
(g77
g58
NtRp104
(dp105
g61
(dp106
g81
g82
ssg70
g100
sg63
(lp107
S'application'
p108
asbag56
(g77
g58
NtRp109
(dp110
g61
(dp111
g88
g89
ssg70
g100
sg63
(lp112
S':'
asbag56
(g77
g58
NtRp113
(dp114
g61
(dp115
sg70
g100
sg63
(lp116
g56
(g57
g58
NtRp117
(dp118
g61
(dp119
g69
I5
ssg70
g113
sg63
(lp120
S'wp'
p121
asbasbasbag56
(g72
g58
NtRp122
(dp123
g61
(dp124
sg70
g66
sg63
(lp125
g56
(g77
g58
NtRp126
(dp127
g61
(dp128
g81
g82
ssg70
g122
sg63
(lp129
g23
asbag56
(g77
g58
NtRp130
(dp131
g61
(dp132
g88
g89
ssg70
g122
sg63
(lp133
S':'
asbag56
(g77
g58
NtRp134
(dp135
g61
(dp136
sg70
g122
sg63
(lp137
g56
(g57
g58
NtRp138
(dp139
g61
(dp140
g69
I5
ssg70
g134
sg63
(lp141
g56
(g65
g58
NtRp142
(dp143
g61
(dp144
g69
I4
ssg70
Nsg63
(lp145
sbasbasbasbag56
(g72
g58
NtRp146
(dp147
g61
(dp148
sg70
g66
sg63
(lp149
g56
(g77
g58
NtRp150
(dp151
g61
(dp152
g81
g82
ssg70
g146
sg63
(lp153
S'body'
p154
asbag56
(g77
g58
NtRp155
(dp156
g61
(dp157
g88
g89
ssg70
g146
sg63
(lp158
S':'
asbag56
(g77
g58
NtRp159
(dp160
g61
(dp161
sg70
g146
sg63
(lp162
g56
(g57
g58
NtRp163
(dp164
g61
(dp165
g69
I5
ssg70
g159
sg63
(lp166
S'<cStringIO.StringO object at 0x101b3b998>'
p167
asbasbasbag56
(g72
g58
NtRp168
(dp169
g61
(dp170
sg70
g66
sg63
(lp171
g56
(g77
g58
NtRp172
(dp173
g61
(dp174
g81
g82
ssg70
g168
sg63
(lp175
S'client'
p176
asbag56
(g77
g58
NtRp177
(dp178
g61
(dp179
g88
g89
ssg70
g168
sg63
(lp180
S':'
asbag56
(g77
g58
NtRp181
(dp182
g61
(dp183
sg70
g168
sg63
(lp184
g56
(g57
g58
NtRp185
(dp186
g61
(dp187
g69
I5
ssg70
g181
sg63
(lp188
S'127.0.0.1'
p189
asbasbasbag56
(g72
g58
NtRp190
(dp191
g61
(dp192
sg70
g66
sg63
(lp193
g56
(g77
g58
NtRp194
(dp195
g61
(dp196
g81
g82
ssg70
g190
sg63
(lp197
S'controller'
p198
asbag56
(g77
g58
NtRp199
(dp200
g61
(dp201
g88
g89
ssg70
g190
sg63
(lp202
S':'
asbag56
(g77
g58
NtRp203
(dp204
g61
(dp205
sg70
g190
sg63
(lp206
g56
(g57
g58
NtRp207
(dp208
g61
(dp209
g69
I5
ssg70
g203
sg63
(lp210
S'default'
p211
asbasbasbag56
(g72
g58
NtRp212
(dp213
g61
(dp214
sg70
g66
sg63
(lp215
g56
(g77
g58
NtRp216
(dp217
g61
(dp218
g81
g82
ssg70
g212
sg63
(lp219
S'cookies'
p220
asbag56
(g77
g58
NtRp221
(dp222
g61
(dp223
g88
g89
ssg70
g212
sg63
(lp224
S':'
asbag56
(g77
g58
NtRp225
(dp226
g61
(dp227
sg70
g212
sg63
(lp228
g56
(g57
g58
NtRp229
(dp230
g61
(dp231
g69
I5
ssg70
g225
sg63
(lp232
g56
(g65
g58
NtRp233
(dp234
g61
(dp235
g69
I4
ssg70
Nsg63
(lp236
g56
(g72
g58
NtRp237
(dp238
g61
(dp239
sg70
g233
sg63
(lp240
g56
(g77
g58
NtRp241
(dp242
g61
(dp243
g81
g82
ssg70
g237
sg63
(lp244
S'session_id_admin'
p245
asbag56
(g77
g58
NtRp246
(dp247
g61
(dp248
g88
g89
ssg70
g237
sg63
(lp249
S':'
asbag56
(g77
g58
NtRp250
(dp251
g61
(dp252
sg70
g237
sg63
(lp253
g56
(g57
g58
NtRp254
(dp255
g61
(dp256
g69
I4
ssg70
g250
sg63
(lp257
g56
(g65
g58
NtRp258
(dp259
g61
(dp260
g69
I3
ssg70
Nsg63
(lp261
g56
(g72
g58
NtRp262
(dp263
g61
(dp264
sg70
g258
sg63
(lp265
g56
(g77
g58
NtRp266
(dp267
g61
(dp268
g81
g82
ssg70
g262
sg63
(lp269
S'comment'
p270
asbag56
(g77
g58
NtRp271
(dp272
g61
(dp273
g88
g89
ssg70
g262
sg63
(lp274
S':'
asbag56
(g77
g58
NtRp275
(dp276
g61
(dp277
sg70
g262
sg63
(lp278
g56
(g57
g58
NtRp279
(dp280
g61
(dp281
g69
I3
ssg70
g275
sg63
(lp282
S''
asbasbasbag56
(g72
g58
NtRp283
(dp284
g61
(dp285
sg70
g258
sg63
(lp286
g56
(g77
g58
NtRp287
(dp288
g61
(dp289
g81
g82
ssg70
g283
sg63
(lp290
S'domain'
p291
asbag56
(g77
g58
NtRp292
(dp293
g61
(dp294
g88
g89
ssg70
g283
sg63
(lp295
S':'
asbag56
(g77
g58
NtRp296
(dp297
g61
(dp298
sg70
g283
sg63
(lp299
g56
(g57
g58
NtRp300
(dp301
g61
(dp302
g69
I3
ssg70
g296
sg63
(lp303
S''
asbasbasbag56
(g72
g58
NtRp304
(dp305
g61
(dp306
sg70
g258
sg63
(lp307
g56
(g77
g58
NtRp308
(dp309
g61
(dp310
g81
g82
ssg70
g304
sg63
(lp311
S'expires'
p312
asbag56
(g77
g58
NtRp313
(dp314
g61
(dp315
g88
g89
ssg70
g304
sg63
(lp316
S':'
asbag56
(g77
g58
NtRp317
(dp318
g61
(dp319
sg70
g304
sg63
(lp320
g56
(g57
g58
NtRp321
(dp322
g61
(dp323
g69
I3
ssg70
g317
sg63
(lp324
S''
asbasbasbag56
(g72
g58
NtRp325
(dp326
g61
(dp327
sg70
g258
sg63
(lp328
g56
(g77
g58
NtRp329
(dp330
g61
(dp331
g81
g82
ssg70
g325
sg63
(lp332
S'httponly'
p333
asbag56
(g77
g58
NtRp334
(dp335
g61
(dp336
g88
g89
ssg70
g325
sg63
(lp337
S':'
asbag56
(g77
g58
NtRp338
(dp339
g61
(dp340
sg70
g325
sg63
(lp341
g56
(g57
g58
NtRp342
(dp343
g61
(dp344
g69
I3
ssg70
g338
sg63
(lp345
S''
asbasbasbag56
(g72
g58
NtRp346
(dp347
g61
(dp348
sg70
g258
sg63
(lp349
g56
(g77
g58
NtRp350
(dp351
g61
(dp352
g81
g82
ssg70
g346
sg63
(lp353
S'max-age'
p354
asbag56
(g77
g58
NtRp355
(dp356
g61
(dp357
g88
g89
ssg70
g346
sg63
(lp358
S':'
asbag56
(g77
g58
NtRp359
(dp360
g61
(dp361
sg70
g346
sg63
(lp362
g56
(g57
g58
NtRp363
(dp364
g61
(dp365
g69
I3
ssg70
g359
sg63
(lp366
S''
asbasbasbag56
(g72
g58
NtRp367
(dp368
g61
(dp369
sg70
g258
sg63
(lp370
g56
(g77
g58
NtRp371
(dp372
g61
(dp373
g81
g82
ssg70
g367
sg63
(lp374
S'path'
p375
asbag56
(g77
g58
NtRp376
(dp377
g61
(dp378
g88
g89
ssg70
g367
sg63
(lp379
S':'
asbag56
(g77
g58
NtRp380
(dp381
g61
(dp382
sg70
g367
sg63
(lp383
g56
(g57
g58
NtRp384
(dp385
g61
(dp386
g69
I3
ssg70
g380
sg63
(lp387
S''
asbasbasbag56
(g72
g58
NtRp388
(dp389
g61
(dp390
sg70
g258
sg63
(lp391
g56
(g77
g58
NtRp392
(dp393
g61
(dp394
g81
g82
ssg70
g388
sg63
(lp395
S'secure'
p396
asbag56
(g77
g58
NtRp397
(dp398
g61
(dp399
g88
g89
ssg70
g388
sg63
(lp400
S':'
asbag56
(g77
g58
NtRp401
(dp402
g61
(dp403
sg70
g388
sg63
(lp404
g56
(g57
g58
NtRp405
(dp406
g61
(dp407
g69
I3
ssg70
g401
sg63
(lp408
S''
asbasbasbag56
(g72
g58
NtRp409
(dp410
g61
(dp411
sg70
g258
sg63
(lp412
g56
(g77
g58
NtRp413
(dp414
g61
(dp415
g81
g82
ssg70
g409
sg63
(lp416
S'version'
p417
asbag56
(g77
g58
NtRp418
(dp419
g61
(dp420
g88
g89
ssg70
g409
sg63
(lp421
S':'
asbag56
(g77
g58
NtRp422
(dp423
g61
(dp424
sg70
g409
sg63
(lp425
g56
(g57
g58
NtRp426
(dp427
g61
(dp428
g69
I3
ssg70
g422
sg63
(lp429
S''
asbasbasbasbasbasbasbasbasbasbasbag56
(g72
g58
NtRp430
(dp431
g61
(dp432
sg70
g66
sg63
(lp433
g56
(g77
g58
NtRp434
(dp435
g61
(dp436
g81
g82
ssg70
g430
sg63
(lp437
S'env'
p438
asbag56
(g77
g58
NtRp439
(dp440
g61
(dp441
g88
g89
ssg70
g430
sg63
(lp442
S':'
asbag56
(g77
g58
NtRp443
(dp444
g61
(dp445
sg70
g430
sg63
(lp446
g56
(g57
g58
NtRp447
(dp448
g61
(dp449
g69
I5
ssg70
g443
sg63
(lp450
g56
(g65
g58
NtRp451
(dp452
g61
(dp453
g69
I4
ssg70
Nsg63
(lp454
g56
(g72
g58
NtRp455
(dp456
g61
(dp457
sg70
g451
sg63
(lp458
g56
(g77
g58
NtRp459
(dp460
g61
(dp461
g81
g82
ssg70
g455
sg63
(lp462
S'app_folders'
p463
asbag56
(g77
g58
NtRp464
(dp465
g61
(dp466
g88
g89
ssg70
g455
sg63
(lp467
S':'
asbag56
(g77
g58
NtRp468
(dp469
g61
(dp470
sg70
g455
sg63
(lp471
g56
(g57
g58
NtRp472
(dp473
g61
(dp474
g69
I4
ssg70
g468
sg63
(lp475
S"set(['/Users/schultzc/workspace/wherespuppet/web2py/applications/wp/', '/Users/schultzc/workspace/wherespuppet/web2py/applications/admin/'])"
p476
asbasbasbag56
(g72
g58
NtRp477
(dp478
g61
(dp479
sg70
g451
sg63
(lp480
g56
(g77
g58
NtRp481
(dp482
g61
(dp483
g81
g82
ssg70
g477
sg63
(lp484
S'applications_parent'
p485
asbag56
(g77
g58
NtRp486
(dp487
g61
(dp488
g88
g89
ssg70
g477
sg63
(lp489
S':'
asbag56
(g77
g58
NtRp490
(dp491
g61
(dp492
sg70
g477
sg63
(lp493
g56
(g57
g58
NtRp494
(dp495
g61
(dp496
g69
I4
ssg70
g490
sg63
(lp497
S'/Users/schultzc/workspace/wherespuppet/web2py'
p498
asbasbasbag56
(g72
g58
NtRp499
(dp500
g61
(dp501
sg70
g451
sg63
(lp502
g56
(g77
g58
NtRp503
(dp504
g61
(dp505
g81
g82
ssg70
g499
sg63
(lp506
S'cmd_args'
p507
asbag56
(g77
g58
NtRp508
(dp509
g61
(dp510
g88
g89
ssg70
g499
sg63
(lp511
S':'
asbag56
(g77
g58
NtRp512
(dp513
g61
(dp514
sg70
g499
sg63
(lp515
g56
(g57
g58
NtRp516
(dp517
g61
(dp518
g69
I4
ssg70
g512
sg63
(lp519
g56
(g65
g58
NtRp520
(dp521
g61
(dp522
g69
I3
ssg70
Nsg63
(lp523
sbasbasbasbag56
(g72
g58
NtRp524
(dp525
g61
(dp526
sg70
g451
sg63
(lp527
g56
(g77
g58
NtRp528
(dp529
g61
(dp530
g81
g82
ssg70
g524
sg63
(lp531
S'cmd_options'
p532
asbag56
(g77
g58
NtRp533
(dp534
g61
(dp535
g88
g89
ssg70
g524
sg63
(lp536
S':'
asbag56
(g77
g58
NtRp537
(dp538
g61
(dp539
sg70
g524
sg63
(lp540
g56
(g57
g58
NtRp541
(dp542
g61
(dp543
g69
I4
ssg70
g537
sg63
(lp544
S"<Values at 0x101b19ab8: {'verbose': False, 'ip': '127.0.0.1', 'shutdown_timeout': 5, 'taskbar': False, 'port': 8000, 'maxthreads': None, 'softcron': False, 'server_name': 'Magnus-Specialis.local', 'bpython': False, 'nogui': False, 'nocron': False, 'extcron': False, 'debuglevel': 30, 'test': None, 'folder': '/Users/schultzc/workspace/wherespuppet/web2py', 'config': '', 'import_models': False, 'winservice': '', 'shell': None, 'run': '', 'log_filename': 'httpserver.log', 'args': [''], 'profiler_filename': None, 'ssl_private_key': '', 'password': 'hello', 'request_queue_size': 5, 'ssl_certificate': '', 'cronjob': False, 'plain': False, 'quiet': False, 'interfaces': None, 'minthreads': None, 'timeout': 10, 'numthreads': None, 'nobanner': False, 'pid_filename': 'httpserver.pid'}>"
p545
asbasbasbag56
(g72
g58
NtRp546
(dp547
g61
(dp548
sg70
g451
sg63
(lp549
g56
(g77
g58
NtRp550
(dp551
g61
(dp552
g81
g82
ssg70
g546
sg63
(lp553
S'db_sessions'
p554
asbag56
(g77
g58
NtRp555
(dp556
g61
(dp557
g88
g89
ssg70
g546
sg63
(lp558
S':'
asbag56
(g77
g58
NtRp559
(dp560
g61
(dp561
sg70
g546
sg63
(lp562
g56
(g57
g58
NtRp563
(dp564
g61
(dp565
g69
I4
ssg70
g559
sg63
(lp566
S'set([])'
p567
asbasbasbag56
(g72
g58
NtRp568
(dp569
g61
(dp570
sg70
g451
sg63
(lp571
g56
(g77
g58
NtRp572
(dp573
g61
(dp574
g81
g82
ssg70
g568
sg63
(lp575
S'debugging'
p576
asbag56
(g77
g58
NtRp577
(dp578
g61
(dp579
g88
g89
ssg70
g568
sg63
(lp580
S':'
asbag56
(g77
g58
NtRp581
(dp582
g61
(dp583
sg70
g568
sg63
(lp584
g56
(g57
g58
NtRp585
(dp586
g61
(dp587
g69
I4
ssg70
g581
sg63
(lp588
g99
asbasbasbag56
(g72
g58
NtRp589
(dp590
g61
(dp591
sg70
g451
sg63
(lp592
g56
(g77
g58
NtRp593
(dp594
g61
(dp595
g81
g82
ssg70
g589
sg63
(lp596
S'gluon_parent'
p597
asbag56
(g77
g58
NtRp598
(dp599
g61
(dp600
g88
g89
ssg70
g589
sg63
(lp601
S':'
asbag56
(g77
g58
NtRp602
(dp603
g61
(dp604
sg70
g589
sg63
(lp605
g56
(g57
g58
NtRp606
(dp607
g61
(dp608
g69
I4
ssg70
g602
sg63
(lp609
S'/Users/schultzc/workspace/wherespuppet/web2py'
p610
asbasbasbag56
(g72
g58
NtRp611
(dp612
g61
(dp613
sg70
g451
sg63
(lp614
g56
(g77
g58
NtRp615
(dp616
g61
(dp617
g81
g82
ssg70
g611
sg63
(lp618
S'http_accept'
p619
asbag56
(g77
g58
NtRp620
(dp621
g61
(dp622
g88
g89
ssg70
g611
sg63
(lp623
S':'
asbag56
(g77
g58
NtRp624
(dp625
g61
(dp626
sg70
g611
sg63
(lp627
g56
(g57
g58
NtRp628
(dp629
g61
(dp630
g69
I4
ssg70
g624
sg63
(lp631
S'text/html,application/xhtml+xml,application/xml;q=0.9,*/*;q=0.8'
p632
asbasbasbag56
(g72
g58
NtRp633
(dp634
g61
(dp635
sg70
g451
sg63
(lp636
g56
(g77
g58
NtRp637
(dp638
g61
(dp639
g81
g82
ssg70
g633
sg63
(lp640
S'http_accept_charset'
p641
asbag56
(g77
g58
NtRp642
(dp643
g61
(dp644
g88
g89
ssg70
g633
sg63
(lp645
S':'
asbag56
(g77
g58
NtRp646
(dp647
g61
(dp648
sg70
g633
sg63
(lp649
g56
(g57
g58
NtRp650
(dp651
g61
(dp652
g69
I4
ssg70
g646
sg63
(lp653
S'ISO-8859-1,utf-8;q=0.7,*;q=0.3'
p654
asbasbasbag56
(g72
g58
NtRp655
(dp656
g61
(dp657
sg70
g451
sg63
(lp658
g56
(g77
g58
NtRp659
(dp660
g61
(dp661
g81
g82
ssg70
g655
sg63
(lp662
S'http_accept_encoding'
p663
asbag56
(g77
g58
NtRp664
(dp665
g61
(dp666
g88
g89
ssg70
g655
sg63
(lp667
S':'
asbag56
(g77
g58
NtRp668
(dp669
g61
(dp670
sg70
g655
sg63
(lp671
g56
(g57
g58
NtRp672
(dp673
g61
(dp674
g69
I4
ssg70
g668
sg63
(lp675
S'gzip,deflate,sdch'
p676
asbasbasbag56
(g72
g58
NtRp677
(dp678
g61
(dp679
sg70
g451
sg63
(lp680
g56
(g77
g58
NtRp681
(dp682
g61
(dp683
g81
g82
ssg70
g677
sg63
(lp684
S'http_accept_language'
p685
asbag56
(g77
g58
NtRp686
(dp687
g61
(dp688
g88
g89
ssg70
g677
sg63
(lp689
S':'
asbag56
(g77
g58
NtRp690
(dp691
g61
(dp692
sg70
g677
sg63
(lp693
g56
(g57
g58
NtRp694
(dp695
g61
(dp696
g69
I4
ssg70
g690
sg63
(lp697
S'en-US,en;q=0.8'
p698
asbasbasbag56
(g72
g58
NtRp699
(dp700
g61
(dp701
sg70
g451
sg63
(lp702
g56
(g77
g58
NtRp703
(dp704
g61
(dp705
g81
g82
ssg70
g699
sg63
(lp706
S'http_cache_control'
p707
asbag56
(g77
g58
NtRp708
(dp709
g61
(dp710
g88
g89
ssg70
g699
sg63
(lp711
S':'
asbag56
(g77
g58
NtRp712
(dp713
g61
(dp714
sg70
g699
sg63
(lp715
g56
(g57
g58
NtRp716
(dp717
g61
(dp718
g69
I4
ssg70
g712
sg63
(lp719
S'max-age=0'
p720
asbasbasbag56
(g72
g58
NtRp721
(dp722
g61
(dp723
sg70
g451
sg63
(lp724
g56
(g77
g58
NtRp725
(dp726
g61
(dp727
g81
g82
ssg70
g721
sg63
(lp728
S'http_connection'
p729
asbag56
(g77
g58
NtRp730
(dp731
g61
(dp732
g88
g89
ssg70
g721
sg63
(lp733
S':'
asbag56
(g77
g58
NtRp734
(dp735
g61
(dp736
sg70
g721
sg63
(lp737
g56
(g57
g58
NtRp738
(dp739
g61
(dp740
g69
I4
ssg70
g734
sg63
(lp741
S'keep-alive'
p742
asbasbasbag56
(g72
g58
NtRp743
(dp744
g61
(dp745
sg70
g451
sg63
(lp746
g56
(g77
g58
NtRp747
(dp748
g61
(dp749
g81
g82
ssg70
g743
sg63
(lp750
S'http_cookie'
p751
asbag56
(g77
g58
NtRp752
(dp753
g61
(dp754
g88
g89
ssg70
g743
sg63
(lp755
S':'
asbag56
(g77
g58
NtRp756
(dp757
g61
(dp758
sg70
g743
sg63
(lp759
g56
(g57
g58
NtRp760
(dp761
g61
(dp762
g69
I4
ssg70
g756
sg63
(lp763
S'session_id_admin=127.0.0.1-3e3fe103-b184-49b1-800c-35f788f78918'
p764
asbasbasbag56
(g72
g58
NtRp765
(dp766
g61
(dp767
sg70
g451
sg63
(lp768
g56
(g77
g58
NtRp769
(dp770
g61
(dp771
g81
g82
ssg70
g765
sg63
(lp772
S'http_host'
p773
asbag56
(g77
g58
NtRp774
(dp775
g61
(dp776
g88
g89
ssg70
g765
sg63
(lp777
S':'
asbag56
(g77
g58
NtRp778
(dp779
g61
(dp780
sg70
g765
sg63
(lp781
g56
(g57
g58
NtRp782
(dp783
g61
(dp784
g69
I4
ssg70
g778
sg63
(lp785
S'localhost:8000'
p786
asbasbasbag56
(g72
g58
NtRp787
(dp788
g61
(dp789
sg70
g451
sg63
(lp790
g56
(g77
g58
NtRp791
(dp792
g61
(dp793
g81
g82
ssg70
g787
sg63
(lp794
S'http_user_agent'
p795
asbag56
(g77
g58
NtRp796
(dp797
g61
(dp798
g88
g89
ssg70
g787
sg63
(lp799
S':'
asbag56
(g77
g58
NtRp800
(dp801
g61
(dp802
sg70
g787
sg63
(lp803
g56
(g57
g58
NtRp804
(dp805
g61
(dp806
g69
I4
ssg70
g800
sg63
(lp807
S'Mozilla/5.0 (Macintosh; Intel Mac OS X 10_6_8) AppleWebKit/534.30 (KHTML, like Gecko) Chrome/12.0.742.122 Safari/534.30'
p808
asbasbasbag56
(g72
g58
NtRp809
(dp810
g61
(dp811
sg70
g451
sg63
(lp812
g56
(g77
g58
NtRp813
(dp814
g61
(dp815
g81
g82
ssg70
g809
sg63
(lp816
S'path_info'
p817
asbag56
(g77
g58
NtRp818
(dp819
g61
(dp820
g88
g89
ssg70
g809
sg63
(lp821
S':'
asbag56
(g77
g58
NtRp822
(dp823
g61
(dp824
sg70
g809
sg63
(lp825
g56
(g57
g58
NtRp826
(dp827
g61
(dp828
g69
I4
ssg70
g822
sg63
(lp829
S'/wp/default/submit'
p830
asbasbasbag56
(g72
g58
NtRp831
(dp832
g61
(dp833
sg70
g451
sg63
(lp834
g56
(g77
g58
NtRp835
(dp836
g61
(dp837
g81
g82
ssg70
g831
sg63
(lp838
S'query_string'
p839
asbag56
(g77
g58
NtRp840
(dp841
g61
(dp842
g88
g89
ssg70
g831
sg63
(lp843
S':'
asbag56
(g77
g58
NtRp844
(dp845
g61
(dp846
sg70
g831
sg63
(lp847
g56
(g57
g58
NtRp848
(dp849
g61
(dp850
g69
I4
ssg70
g844
sg63
(lp851
S''
asbasbasbag56
(g72
g58
NtRp852
(dp853
g61
(dp854
sg70
g451
sg63
(lp855
g56
(g77
g58
NtRp856
(dp857
g61
(dp858
g81
g82
ssg70
g852
sg63
(lp859
S'remote_addr'
p860
asbag56
(g77
g58
NtRp861
(dp862
g61
(dp863
g88
g89
ssg70
g852
sg63
(lp864
S':'
asbag56
(g77
g58
NtRp865
(dp866
g61
(dp867
sg70
g852
sg63
(lp868
g56
(g57
g58
NtRp869
(dp870
g61
(dp871
g69
I4
ssg70
g865
sg63
(lp872
g189
asbasbasbag56
(g72
g58
NtRp873
(dp874
g61
(dp875
sg70
g451
sg63
(lp876
g56
(g77
g58
NtRp877
(dp878
g61
(dp879
g81
g82
ssg70
g873
sg63
(lp880
S'remote_port'
p881
asbag56
(g77
g58
NtRp882
(dp883
g61
(dp884
g88
g89
ssg70
g873
sg63
(lp885
S':'
asbag56
(g77
g58
NtRp886
(dp887
g61
(dp888
sg70
g873
sg63
(lp889
g56
(g57
g58
NtRp890
(dp891
g61
(dp892
g69
I4
ssg70
g886
sg63
(lp893
S'55588'
p894
asbasbasbag56
(g72
g58
NtRp895
(dp896
g61
(dp897
sg70
g451
sg63
(lp898
g56
(g77
g58
NtRp899
(dp900
g61
(dp901
g81
g82
ssg70
g895
sg63
(lp902
S'request_method'
p903
asbag56
(g77
g58
NtRp904
(dp905
g61
(dp906
g88
g89
ssg70
g895
sg63
(lp907
S':'
asbag56
(g77
g58
NtRp908
(dp909
g61
(dp910
sg70
g895
sg63
(lp911
g56
(g57
g58
NtRp912
(dp913
g61
(dp914
g69
I4
ssg70
g908
sg63
(lp915
S'GET'
p916
asbasbasbag56
(g72
g58
NtRp917
(dp918
g61
(dp919
sg70
g451
sg63
(lp920
g56
(g77
g58
NtRp921
(dp922
g61
(dp923
g81
g82
ssg70
g917
sg63
(lp924
S'script_name'
p925
asbag56
(g77
g58
NtRp926
(dp927
g61
(dp928
g88
g89
ssg70
g917
sg63
(lp929
S':'
asbag56
(g77
g58
NtRp930
(dp931
g61
(dp932
sg70
g917
sg63
(lp933
g56
(g57
g58
NtRp934
(dp935
g61
(dp936
g69
I4
ssg70
g930
sg63
(lp937
S''
asbasbasbag56
(g72
g58
NtRp938
(dp939
g61
(dp940
sg70
g451
sg63
(lp941
g56
(g77
g58
NtRp942
(dp943
g61
(dp944
g81
g82
ssg70
g938
sg63
(lp945
S'server_name'
p946
asbag56
(g77
g58
NtRp947
(dp948
g61
(dp949
g88
g89
ssg70
g938
sg63
(lp950
S':'
asbag56
(g77
g58
NtRp951
(dp952
g61
(dp953
sg70
g938
sg63
(lp954
g56
(g57
g58
NtRp955
(dp956
g61
(dp957
g69
I4
ssg70
g951
sg63
(lp958
S'Magnus-Specialis.local'
p959
asbasbasbag56
(g72
g58
NtRp960
(dp961
g61
(dp962
sg70
g451
sg63
(lp963
g56
(g77
g58
NtRp964
(dp965
g61
(dp966
g81
g82
ssg70
g960
sg63
(lp967
S'server_port'
p968
asbag56
(g77
g58
NtRp969
(dp970
g61
(dp971
g88
g89
ssg70
g960
sg63
(lp972
S':'
asbag56
(g77
g58
NtRp973
(dp974
g61
(dp975
sg70
g960
sg63
(lp976
g56
(g57
g58
NtRp977
(dp978
g61
(dp979
g69
I4
ssg70
g973
sg63
(lp980
S'8000'
p981
asbasbasbag56
(g72
g58
NtRp982
(dp983
g61
(dp984
sg70
g451
sg63
(lp985
g56
(g77
g58
NtRp986
(dp987
g61
(dp988
g81
g82
ssg70
g982
sg63
(lp989
S'server_protocol'
p990
asbag56
(g77
g58
NtRp991
(dp992
g61
(dp993
g88
g89
ssg70
g982
sg63
(lp994
S':'
asbag56
(g77
g58
NtRp995
(dp996
g61
(dp997
sg70
g982
sg63
(lp998
g56
(g57
g58
NtRp999
(dp1000
g61
(dp1001
g69
I4
ssg70
g995
sg63
(lp1002
S'HTTP/1.1'
p1003
asbasbasbag56
(g72
g58
NtRp1004
(dp1005
g61
(dp1006
sg70
g451
sg63
(lp1007
g56
(g77
g58
NtRp1008
(dp1009
g61
(dp1010
g81
g82
ssg70
g1004
sg63
(lp1011
S'server_software'
p1012
asbag56
(g77
g58
NtRp1013
(dp1014
g61
(dp1015
g88
g89
ssg70
g1004
sg63
(lp1016
S':'
asbag56
(g77
g58
NtRp1017
(dp1018
g61
(dp1019
sg70
g1004
sg63
(lp1020
g56
(g57
g58
NtRp1021
(dp1022
g61
(dp1023
g69
I4
ssg70
g1017
sg63
(lp1024
S'Rocket 1.2.2'
p1025
asbasbasbag56
(g72
g58
NtRp1026
(dp1027
g61
(dp1028
sg70
g451
sg63
(lp1029
g56
(g77
g58
NtRp1030
(dp1031
g61
(dp1032
g81
g82
ssg70
g1026
sg63
(lp1033
S'web2py_crontype'
p1034
asbag56
(g77
g58
NtRp1035
(dp1036
g61
(dp1037
g88
g89
ssg70
g1026
sg63
(lp1038
S':'
asbag56
(g77
g58
NtRp1039
(dp1040
g61
(dp1041
sg70
g1026
sg63
(lp1042
g56
(g57
g58
NtRp1043
(dp1044
g61
(dp1045
g69
I4
ssg70
g1039
sg63
(lp1046
S'hard'
p1047
asbasbasbag56
(g72
g58
NtRp1048
(dp1049
g61
(dp1050
sg70
g451
sg63
(lp1051
g56
(g77
g58
NtRp1052
(dp1053
g61
(dp1054
g81
g82
ssg70
g1048
sg63
(lp1055
S'web2py_path'
p1056
asbag56
(g77
g58
NtRp1057
(dp1058
g61
(dp1059
g88
g89
ssg70
g1048
sg63
(lp1060
S':'
asbag56
(g77
g58
NtRp1061
(dp1062
g61
(dp1063
sg70
g1048
sg63
(lp1064
g56
(g57
g58
NtRp1065
(dp1066
g61
(dp1067
g69
I4
ssg70
g1061
sg63
(lp1068
g498
asbasbasbag56
(g72
g58
NtRp1069
(dp1070
g61
(dp1071
sg70
g451
sg63
(lp1072
g56
(g77
g58
NtRp1073
(dp1074
g61
(dp1075
g81
g82
ssg70
g1069
sg63
(lp1076
S'web2py_version'
p1077
asbag56
(g77
g58
NtRp1078
(dp1079
g61
(dp1080
g88
g89
ssg70
g1069
sg63
(lp1081
S':'
asbag56
(g77
g58
NtRp1082
(dp1083
g61
(dp1084
sg70
g1069
sg63
(lp1085
g56
(g57
g58
NtRp1086
(dp1087
g61
(dp1088
g69
I4
ssg70
g1082
sg63
(lp1089
S'Version 1.97.1 (2011-06-26 19:25:44)\n'
p1090
asbasbasbag56
(g72
g58
NtRp1091
(dp1092
g61
(dp1093
sg70
g451
sg63
(lp1094
g56
(g77
g58
NtRp1095
(dp1096
g61
(dp1097
g81
g82
ssg70
g1091
sg63
(lp1098
S'wsgi_errors'
p1099
asbag56
(g77
g58
NtRp1100
(dp1101
g61
(dp1102
g88
g89
ssg70
g1091
sg63
(lp1103
S':'
asbag56
(g77
g58
NtRp1104
(dp1105
g61
(dp1106
sg70
g1091
sg63
(lp1107
g56
(g57
g58
NtRp1108
(dp1109
g61
(dp1110
g69
I4
ssg70
g1104
sg63
(lp1111
S"<open file '<stderr>', mode 'w' at 0x100283270>"
p1112
asbasbasbag56
(g72
g58
NtRp1113
(dp1114
g61
(dp1115
sg70
g451
sg63
(lp1116
g56
(g77
g58
NtRp1117
(dp1118
g61
(dp1119
g81
g82
ssg70
g1113
sg63
(lp1120
S'wsgi_file_wrapper'
p1121
asbag56
(g77
g58
NtRp1122
(dp1123
g61
(dp1124
g88
g89
ssg70
g1113
sg63
(lp1125
S':'
asbag56
(g77
g58
NtRp1126
(dp1127
g61
(dp1128
sg70
g1113
sg63
(lp1129
g56
(g57
g58
NtRp1130
(dp1131
g61
(dp1132
g69
I4
ssg70
g1126
sg63
(lp1133
S'<class gluon.rocket.FileWrapper at 0x101976ef0>'
p1134
asbasbasbag56
(g72
g58
NtRp1135
(dp1136
g61
(dp1137
sg70
g451
sg63
(lp1138
g56
(g77
g58
NtRp1139
(dp1140
g61
(dp1141
g81
g82
ssg70
g1135
sg63
(lp1142
S'wsgi_input'
p1143
asbag56
(g77
g58
NtRp1144
(dp1145
g61
(dp1146
g88
g89
ssg70
g1135
sg63
(lp1147
S':'
asbag56
(g77
g58
NtRp1148
(dp1149
g61
(dp1150
sg70
g1135
sg63
(lp1151
g56
(g57
g58
NtRp1152
(dp1153
g61
(dp1154
g69
I4
ssg70
g1148
sg63
(lp1155
S'<socket._fileobject object at 0x102725550>'
p1156
asbasbasbag56
(g72
g58
NtRp1157
(dp1158
g61
(dp1159
sg70
g451
sg63
(lp1160
g56
(g77
g58
NtRp1161
(dp1162
g61
(dp1163
g81
g82
ssg70
g1157
sg63
(lp1164
S'wsgi_multiprocess'
p1165
asbag56
(g77
g58
NtRp1166
(dp1167
g61
(dp1168
g88
g89
ssg70
g1157
sg63
(lp1169
S':'
asbag56
(g77
g58
NtRp1170
(dp1171
g61
(dp1172
sg70
g1157
sg63
(lp1173
g56
(g57
g58
NtRp1174
(dp1175
g61
(dp1176
g69
I4
ssg70
g1170
sg63
(lp1177
g99
asbasbasbag56
(g72
g58
NtRp1178
(dp1179
g61
(dp1180
sg70
g451
sg63
(lp1181
g56
(g77
g58
NtRp1182
(dp1183
g61
(dp1184
g81
g82
ssg70
g1178
sg63
(lp1185
S'wsgi_multithread'
p1186
asbag56
(g77
g58
NtRp1187
(dp1188
g61
(dp1189
g88
g89
ssg70
g1178
sg63
(lp1190
S':'
asbag56
(g77
g58
NtRp1191
(dp1192
g61
(dp1193
sg70
g1178
sg63
(lp1194
g56
(g57
g58
NtRp1195
(dp1196
g61
(dp1197
g69
I4
ssg70
g1191
sg63
(lp1198
S'True'
p1199
asbasbasbag56
(g72
g58
NtRp1200
(dp1201
g61
(dp1202
sg70
g451
sg63
(lp1203
g56
(g77
g58
NtRp1204
(dp1205
g61
(dp1206
g81
g82
ssg70
g1200
sg63
(lp1207
S'wsgi_run_once'
p1208
asbag56
(g77
g58
NtRp1209
(dp1210
g61
(dp1211
g88
g89
ssg70
g1200
sg63
(lp1212
S':'
asbag56
(g77
g58
NtRp1213
(dp1214
g61
(dp1215
sg70
g1200
sg63
(lp1216
g56
(g57
g58
NtRp1217
(dp1218
g61
(dp1219
g69
I4
ssg70
g1213
sg63
(lp1220
g99
asbasbasbag56
(g72
g58
NtRp1221
(dp1222
g61
(dp1223
sg70
g451
sg63
(lp1224
g56
(g77
g58
NtRp1225
(dp1226
g61
(dp1227
g81
g82
ssg70
g1221
sg63
(lp1228
S'wsgi_url_scheme'
p1229
asbag56
(g77
g58
NtRp1230
(dp1231
g61
(dp1232
g88
g89
ssg70
g1221
sg63
(lp1233
S':'
asbag56
(g77
g58
NtRp1234
(dp1235
g61
(dp1236
sg70
g1221
sg63
(lp1237
g56
(g57
g58
NtRp1238
(dp1239
g61
(dp1240
g69
I4
ssg70
g1234
sg63
(lp1241
S'http'
p1242
asbasbasbag56
(g72
g58
NtRp1243
(dp1244
g61
(dp1245
sg70
g451
sg63
(lp1246
g56
(g77
g58
NtRp1247
(dp1248
g61
(dp1249
g81
g82
ssg70
g1243
sg63
(lp1250
S'wsgi_version'
p1251
asbag56
(g77
g58
NtRp1252
(dp1253
g61
(dp1254
g88
g89
ssg70
g1243
sg63
(lp1255
S':'
asbag56
(g77
g58
NtRp1256
(dp1257
g61
(dp1258
sg70
g1243
sg63
(lp1259
g56
(g57
g58
NtRp1260
(dp1261
g61
(dp1262
g69
I4
ssg70
g1256
sg63
(lp1263
g56
(g65
g58
NtRp1264
(dp1265
g61
(dp1266
g69
I3
ssg70
Nsg63
(lp1267
g56
(g72
g58
NtRp1268
(dp1269
g61
(dp1270
sg70
g1264
sg63
(lp1271
g56
(g77
g58
NtRp1272
(dp1273
g61
(dp1274
sg70
g1268
sg63
(lp1275
g56
(g57
g58
NtRp1276
(dp1277
g61
(dp1278
g69
I3
ssg70
g1272
sg63
(lp1279
S'1'
asbasbasbag56
(g72
g58
NtRp1280
(dp1281
g61
(dp1282
sg70
g1264
sg63
(lp1283
g56
(g77
g58
NtRp1284
(dp1285
g61
(dp1286
sg70
g1280
sg63
(lp1287
g56
(g57
g58
NtRp1288
(dp1289
g61
(dp1290
g69
I3
ssg70
g1284
sg63
(lp1291
S'0'
asbasbasbasbasbasbasbasbasbasbasbag56
(g72
g58
NtRp1292
(dp1293
g61
(dp1294
sg70
g66
sg63
(lp1295
g56
(g77
g58
NtRp1296
(dp1297
g61
(dp1298
g81
g82
ssg70
g1292
sg63
(lp1299
S'extension'
p1300
asbag56
(g77
g58
NtRp1301
(dp1302
g61
(dp1303
g88
g89
ssg70
g1292
sg63
(lp1304
S':'
asbag56
(g77
g58
NtRp1305
(dp1306
g61
(dp1307
sg70
g1292
sg63
(lp1308
g56
(g57
g58
NtRp1309
(dp1310
g61
(dp1311
g69
I5
ssg70
g1305
sg63
(lp1312
S'html'
p1313
asbasbasbag56
(g72
g58
NtRp1314
(dp1315
g61
(dp1316
sg70
g66
sg63
(lp1317
g56
(g77
g58
NtRp1318
(dp1319
g61
(dp1320
g81
g82
ssg70
g1314
sg63
(lp1321
S'folder'
p1322
asbag56
(g77
g58
NtRp1323
(dp1324
g61
(dp1325
g88
g89
ssg70
g1314
sg63
(lp1326
S':'
asbag56
(g77
g58
NtRp1327
(dp1328
g61
(dp1329
sg70
g1314
sg63
(lp1330
g56
(g57
g58
NtRp1331
(dp1332
g61
(dp1333
g69
I5
ssg70
g1327
sg63
(lp1334
S'/Users/schultzc/workspace/wherespuppet/web2py/applications/wp/'
p1335
asbasbasbag56
(g72
g58
NtRp1336
(dp1337
g61
(dp1338
sg70
g66
sg63
(lp1339
g56
(g77
g58
NtRp1340
(dp1341
g61
(dp1342
g81
g82
ssg70
g1336
sg63
(lp1343
S'function'
p1344
asbag56
(g77
g58
NtRp1345
(dp1346
g61
(dp1347
g88
g89
ssg70
g1336
sg63
(lp1348
S':'
asbag56
(g77
g58
NtRp1349
(dp1350
g61
(dp1351
sg70
g1336
sg63
(lp1352
g56
(g57
g58
NtRp1353
(dp1354
g61
(dp1355
g69
I5
ssg70
g1349
sg63
(lp1356
S'submit'
p1357
asbasbasbag56
(g72
g58
NtRp1358
(dp1359
g61
(dp1360
sg70
g66
sg63
(lp1361
g56
(g77
g58
NtRp1362
(dp1363
g61
(dp1364
g81
g82
ssg70
g1358
sg63
(lp1365
S'get_vars'
p1366
asbag56
(g77
g58
NtRp1367
(dp1368
g61
(dp1369
g88
g89
ssg70
g1358
sg63
(lp1370
S':'
asbag56
(g77
g58
NtRp1371
(dp1372
g61
(dp1373
sg70
g1358
sg63
(lp1374
g56
(g57
g58
NtRp1375
(dp1376
g61
(dp1377
g69
I5
ssg70
g1371
sg63
(lp1378
g56
(g65
g58
NtRp1379
(dp1380
g61
(dp1381
g69
I4
ssg70
Nsg63
(lp1382
sbasbasbasbag56
(g72
g58
NtRp1383
(dp1384
g61
(dp1385
sg70
g66
sg63
(lp1386
g56
(g77
g58
NtRp1387
(dp1388
g61
(dp1389
g81
g82
ssg70
g1383
sg63
(lp1390
S'is_https'
p1391
asbag56
(g77
g58
NtRp1392
(dp1393
g61
(dp1394
g88
g89
ssg70
g1383
sg63
(lp1395
S':'
asbag56
(g77
g58
NtRp1396
(dp1397
g61
(dp1398
sg70
g1383
sg63
(lp1399
g56
(g57
g58
NtRp1400
(dp1401
g61
(dp1402
g69
I5
ssg70
g1396
sg63
(lp1403
g99
asbasbasbag56
(g72
g58
NtRp1404
(dp1405
g61
(dp1406
sg70
g66
sg63
(lp1407
g56
(g77
g58
NtRp1408
(dp1409
g61
(dp1410
g81
g82
ssg70
g1404
sg63
(lp1411
S'is_local'
p1412
asbag56
(g77
g58
NtRp1413
(dp1414
g61
(dp1415
g88
g89
ssg70
g1404
sg63
(lp1416
S':'
asbag56
(g77
g58
NtRp1417
(dp1418
g61
(dp1419
sg70
g1404
sg63
(lp1420
g56
(g57
g58
NtRp1421
(dp1422
g61
(dp1423
g69
I5
ssg70
g1417
sg63
(lp1424
g1199
asbasbasbag56
(g72
g58
NtRp1425
(dp1426
g61
(dp1427
sg70
g66
sg63
(lp1428
g56
(g77
g58
NtRp1429
(dp1430
g61
(dp1431
g81
g82
ssg70
g1425
sg63
(lp1432
S'is_restful'
p1433
asbag56
(g77
g58
NtRp1434
(dp1435
g61
(dp1436
g88
g89
ssg70
g1425
sg63
(lp1437
S':'
asbag56
(g77
g58
NtRp1438
(dp1439
g61
(dp1440
sg70
g1425
sg63
(lp1441
g56
(g57
g58
NtRp1442
(dp1443
g61
(dp1444
g69
I5
ssg70
g1438
sg63
(lp1445
g99
asbasbasbag56
(g72
g58
NtRp1446
(dp1447
g61
(dp1448
sg70
g66
sg63
(lp1449
g56
(g77
g58
NtRp1450
(dp1451
g61
(dp1452
g81
g82
ssg70
g1446
sg63
(lp1453
S'now'
p1454
asbag56
(g77
g58
NtRp1455
(dp1456
g61
(dp1457
g88
g89
ssg70
g1446
sg63
(lp1458
S':'
asbag56
(g77
g58
NtRp1459
(dp1460
g61
(dp1461
sg70
g1446
sg63
(lp1462
g56
(g57
g58
NtRp1463
(dp1464
g61
(dp1465
g69
I5
ssg70
g1459
sg63
(lp1466
S'datetime.datetime(2011, 7, 25, 12, 38, 44, 708156)'
p1467
asbasbasbag56
(g72
g58
NtRp1468
(dp1469
g61
(dp1470
sg70
g66
sg63
(lp1471
g56
(g77
g58
NtRp1472
(dp1473
g61
(dp1474
g81
g82
ssg70
g1468
sg63
(lp1475
S'post_vars'
p1476
asbag56
(g77
g58
NtRp1477
(dp1478
g61
(dp1479
g88
g89
ssg70
g1468
sg63
(lp1480
S':'
asbag56
(g77
g58
NtRp1481
(dp1482
g61
(dp1483
sg70
g1468
sg63
(lp1484
g56
(g57
g58
NtRp1485
(dp1486
g61
(dp1487
g69
I5
ssg70
g1481
sg63
(lp1488
g56
(g65
g58
NtRp1489
(dp1490
g61
(dp1491
g69
I4
ssg70
Nsg63
(lp1492
sbasbasbasbag56
(g72
g58
NtRp1493
(dp1494
g61
(dp1495
sg70
g66
sg63
(lp1496
g56
(g77
g58
NtRp1497
(dp1498
g61
(dp1499
g81
g82
ssg70
g1493
sg63
(lp1500
S'url'
p1501
asbag56
(g77
g58
NtRp1502
(dp1503
g61
(dp1504
g88
g89
ssg70
g1493
sg63
(lp1505
S':'
asbag56
(g77
g58
NtRp1506
(dp1507
g61
(dp1508
sg70
g1493
sg63
(lp1509
g56
(g57
g58
NtRp1510
(dp1511
g61
(dp1512
g69
I5
ssg70
g1506
sg63
(lp1513
S'/wp/default/submit'
p1514
asbasbasbag56
(g72
g58
NtRp1515
(dp1516
g61
(dp1517
sg70
g66
sg63
(lp1518
g56
(g77
g58
NtRp1519
(dp1520
g61
(dp1521
g81
g82
ssg70
g1515
sg63
(lp1522
S'uuid'
p1523
asbag56
(g77
g58
NtRp1524
(dp1525
g61
(dp1526
g88
g89
ssg70
g1515
sg63
(lp1527
S':'
asbag56
(g77
g58
NtRp1528
(dp1529
g61
(dp1530
sg70
g1515
sg63
(lp1531
g56
(g57
g58
NtRp1532
(dp1533
g61
(dp1534
g69
I5
ssg70
g1528
sg63
(lp1535
S'wp/127.0.0.1.2011-07-25.12-38-44.e4373edf-6c5d-4774-8de2-833fbfd36cfd'
p1536
asbasbasbag56
(g72
g58
NtRp1537
(dp1538
g61
(dp1539
sg70
g66
sg63
(lp1540
g56
(g77
g58
NtRp1541
(dp1542
g61
(dp1543
g81
g82
ssg70
g1537
sg63
(lp1544
S'vars'
p1545
asbag56
(g77
g58
NtRp1546
(dp1547
g61
(dp1548
g88
g89
ssg70
g1537
sg63
(lp1549
S':'
asbag56
(g77
g58
NtRp1550
(dp1551
g61
(dp1552
sg70
g1537
sg63
(lp1553
g56
(g57
g58
NtRp1554
(dp1555
g61
(dp1556
g69
I5
ssg70
g1550
sg63
(lp1557
g56
(g65
g58
NtRp1558
(dp1559
g61
(dp1560
g69
I4
ssg70
Nsg63
(lp1561
sbasbasbasbag56
(g72
g58
NtRp1562
(dp1563
g61
(dp1564
sg70
g66
sg63
(lp1565
g56
(g77
g58
NtRp1566
(dp1567
g61
(dp1568
g81
g82
ssg70
g1562
sg63
(lp1569
S'wsgi'
p1570
asbag56
(g77
g58
NtRp1571
(dp1572
g61
(dp1573
g88
g89
ssg70
g1562
sg63
(lp1574
S':'
asbag56
(g77
g58
NtRp1575
(dp1576
g61
(dp1577
sg70
g1562
sg63
(lp1578
g56
(g57
g58
NtRp1579
(dp1580
g61
(dp1581
g69
I5
ssg70
g1575
sg63
(lp1582
g56
(g65
g58
NtRp1583
(dp1584
g61
(dp1585
g69
I4
ssg70
Nsg63
(lp1586
g56
(g72
g58
NtRp1587
(dp1588
g61
(dp1589
sg70
g1583
sg63
(lp1590
g56
(g77
g58
NtRp1591
(dp1592
g61
(dp1593
g81
g82
ssg70
g1587
sg63
(lp1594
S'environ'
p1595
asbag56
(g77
g58
NtRp1596
(dp1597
g61
(dp1598
g88
g89
ssg70
g1587
sg63
(lp1599
S':'
asbag56
(g77
g58
NtRp1600
(dp1601
g61
(dp1602
sg70
g1587
sg63
(lp1603
g56
(g57
g58
NtRp1604
(dp1605
g61
(dp1606
g69
I4
ssg70
g1600
sg63
(lp1607
g56
(g65
g58
NtRp1608
(dp1609
g61
(dp1610
g69
I3
ssg70
Nsg63
(lp1611
g56
(g72
g58
NtRp1612
(dp1613
g61
(dp1614
sg70
g1608
sg63
(lp1615
g56
(g77
g58
NtRp1616
(dp1617
g61
(dp1618
g81
g82
ssg70
g1612
sg63
(lp1619
S'HTTP_ACCEPT'
p1620
asbag56
(g77
g58
NtRp1621
(dp1622
g61
(dp1623
g88
g89
ssg70
g1612
sg63
(lp1624
S':'
asbag56
(g77
g58
NtRp1625
(dp1626
g61
(dp1627
sg70
g1612
sg63
(lp1628
g56
(g57
g58
NtRp1629
(dp1630
g61
(dp1631
g69
I3
ssg70
g1625
sg63
(lp1632
g632
asbasbasbag56
(g72
g58
NtRp1633
(dp1634
g61
(dp1635
sg70
g1608
sg63
(lp1636
g56
(g77
g58
NtRp1637
(dp1638
g61
(dp1639
g81
g82
ssg70
g1633
sg63
(lp1640
S'HTTP_ACCEPT_CHARSET'
p1641
asbag56
(g77
g58
NtRp1642
(dp1643
g61
(dp1644
g88
g89
ssg70
g1633
sg63
(lp1645
S':'
asbag56
(g77
g58
NtRp1646
(dp1647
g61
(dp1648
sg70
g1633
sg63
(lp1649
g56
(g57
g58
NtRp1650
(dp1651
g61
(dp1652
g69
I3
ssg70
g1646
sg63
(lp1653
g654
asbasbasbag56
(g72
g58
NtRp1654
(dp1655
g61
(dp1656
sg70
g1608
sg63
(lp1657
g56
(g77
g58
NtRp1658
(dp1659
g61
(dp1660
g81
g82
ssg70
g1654
sg63
(lp1661
S'HTTP_ACCEPT_ENCODING'
p1662
asbag56
(g77
g58
NtRp1663
(dp1664
g61
(dp1665
g88
g89
ssg70
g1654
sg63
(lp1666
S':'
asbag56
(g77
g58
NtRp1667
(dp1668
g61
(dp1669
sg70
g1654
sg63
(lp1670
g56
(g57
g58
NtRp1671
(dp1672
g61
(dp1673
g69
I3
ssg70
g1667
sg63
(lp1674
g676
asbasbasbag56
(g72
g58
NtRp1675
(dp1676
g61
(dp1677
sg70
g1608
sg63
(lp1678
g56
(g77
g58
NtRp1679
(dp1680
g61
(dp1681
g81
g82
ssg70
g1675
sg63
(lp1682
S'HTTP_ACCEPT_LANGUAGE'
p1683
asbag56
(g77
g58
NtRp1684
(dp1685
g61
(dp1686
g88
g89
ssg70
g1675
sg63
(lp1687
S':'
asbag56
(g77
g58
NtRp1688
(dp1689
g61
(dp1690
sg70
g1675
sg63
(lp1691
g56
(g57
g58
NtRp1692
(dp1693
g61
(dp1694
g69
I3
ssg70
g1688
sg63
(lp1695
g698
asbasbasbag56
(g72
g58
NtRp1696
(dp1697
g61
(dp1698
sg70
g1608
sg63
(lp1699
g56
(g77
g58
NtRp1700
(dp1701
g61
(dp1702
g81
g82
ssg70
g1696
sg63
(lp1703
S'HTTP_CACHE_CONTROL'
p1704
asbag56
(g77
g58
NtRp1705
(dp1706
g61
(dp1707
g88
g89
ssg70
g1696
sg63
(lp1708
S':'
asbag56
(g77
g58
NtRp1709
(dp1710
g61
(dp1711
sg70
g1696
sg63
(lp1712
g56
(g57
g58
NtRp1713
(dp1714
g61
(dp1715
g69
I3
ssg70
g1709
sg63
(lp1716
g720
asbasbasbag56
(g72
g58
NtRp1717
(dp1718
g61
(dp1719
sg70
g1608
sg63
(lp1720
g56
(g77
g58
NtRp1721
(dp1722
g61
(dp1723
g81
g82
ssg70
g1717
sg63
(lp1724
S'HTTP_CONNECTION'
p1725
asbag56
(g77
g58
NtRp1726
(dp1727
g61
(dp1728
g88
g89
ssg70
g1717
sg63
(lp1729
S':'
asbag56
(g77
g58
NtRp1730
(dp1731
g61
(dp1732
sg70
g1717
sg63
(lp1733
g56
(g57
g58
NtRp1734
(dp1735
g61
(dp1736
g69
I3
ssg70
g1730
sg63
(lp1737
g742
asbasbasbag56
(g72
g58
NtRp1738
(dp1739
g61
(dp1740
sg70
g1608
sg63
(lp1741
g56
(g77
g58
NtRp1742
(dp1743
g61
(dp1744
g81
g82
ssg70
g1738
sg63
(lp1745
S'HTTP_COOKIE'
p1746
asbag56
(g77
g58
NtRp1747
(dp1748
g61
(dp1749
g88
g89
ssg70
g1738
sg63
(lp1750
S':'
asbag56
(g77
g58
NtRp1751
(dp1752
g61
(dp1753
sg70
g1738
sg63
(lp1754
g56
(g57
g58
NtRp1755
(dp1756
g61
(dp1757
g69
I3
ssg70
g1751
sg63
(lp1758
g764
asbasbasbag56
(g72
g58
NtRp1759
(dp1760
g61
(dp1761
sg70
g1608
sg63
(lp1762
g56
(g77
g58
NtRp1763
(dp1764
g61
(dp1765
g81
g82
ssg70
g1759
sg63
(lp1766
S'HTTP_HOST'
p1767
asbag56
(g77
g58
NtRp1768
(dp1769
g61
(dp1770
g88
g89
ssg70
g1759
sg63
(lp1771
S':'
asbag56
(g77
g58
NtRp1772
(dp1773
g61
(dp1774
sg70
g1759
sg63
(lp1775
g56
(g57
g58
NtRp1776
(dp1777
g61
(dp1778
g69
I3
ssg70
g1772
sg63
(lp1779
g786
asbasbasbag56
(g72
g58
NtRp1780
(dp1781
g61
(dp1782
sg70
g1608
sg63
(lp1783
g56
(g77
g58
NtRp1784
(dp1785
g61
(dp1786
g81
g82
ssg70
g1780
sg63
(lp1787
S'HTTP_USER_AGENT'
p1788
asbag56
(g77
g58
NtRp1789
(dp1790
g61
(dp1791
g88
g89
ssg70
g1780
sg63
(lp1792
S':'
asbag56
(g77
g58
NtRp1793
(dp1794
g61
(dp1795
sg70
g1780
sg63
(lp1796
g56
(g57
g58
NtRp1797
(dp1798
g61
(dp1799
g69
I3
ssg70
g1793
sg63
(lp1800
g808
asbasbasbag56
(g72
g58
NtRp1801
(dp1802
g61
(dp1803
sg70
g1608
sg63
(lp1804
g56
(g77
g58
NtRp1805
(dp1806
g61
(dp1807
g81
g82
ssg70
g1801
sg63
(lp1808
S'PATH_INFO'
p1809
asbag56
(g77
g58
NtRp1810
(dp1811
g61
(dp1812
g88
g89
ssg70
g1801
sg63
(lp1813
S':'
asbag56
(g77
g58
NtRp1814
(dp1815
g61
(dp1816
sg70
g1801
sg63
(lp1817
g56
(g57
g58
NtRp1818
(dp1819
g61
(dp1820
g69
I3
ssg70
g1814
sg63
(lp1821
g830
asbasbasbag56
(g72
g58
NtRp1822
(dp1823
g61
(dp1824
sg70
g1608
sg63
(lp1825
g56
(g77
g58
NtRp1826
(dp1827
g61
(dp1828
g81
g82
ssg70
g1822
sg63
(lp1829
S'QUERY_STRING'
p1830
asbag56
(g77
g58
NtRp1831
(dp1832
g61
(dp1833
g88
g89
ssg70
g1822
sg63
(lp1834
S':'
asbag56
(g77
g58
NtRp1835
(dp1836
g61
(dp1837
sg70
g1822
sg63
(lp1838
g56
(g57
g58
NtRp1839
(dp1840
g61
(dp1841
g69
I3
ssg70
g1835
sg63
(lp1842
S''
asbasbasbag56
(g72
g58
NtRp1843
(dp1844
g61
(dp1845
sg70
g1608
sg63
(lp1846
g56
(g77
g58
NtRp1847
(dp1848
g61
(dp1849
g81
g82
ssg70
g1843
sg63
(lp1850
S'REMOTE_ADDR'
p1851
asbag56
(g77
g58
NtRp1852
(dp1853
g61
(dp1854
g88
g89
ssg70
g1843
sg63
(lp1855
S':'
asbag56
(g77
g58
NtRp1856
(dp1857
g61
(dp1858
sg70
g1843
sg63
(lp1859
g56
(g57
g58
NtRp1860
(dp1861
g61
(dp1862
g69
I3
ssg70
g1856
sg63
(lp1863
g189
asbasbasbag56
(g72
g58
NtRp1864
(dp1865
g61
(dp1866
sg70
g1608
sg63
(lp1867
g56
(g77
g58
NtRp1868
(dp1869
g61
(dp1870
g81
g82
ssg70
g1864
sg63
(lp1871
S'REMOTE_PORT'
p1872
asbag56
(g77
g58
NtRp1873
(dp1874
g61
(dp1875
g88
g89
ssg70
g1864
sg63
(lp1876
S':'
asbag56
(g77
g58
NtRp1877
(dp1878
g61
(dp1879
sg70
g1864
sg63
(lp1880
g56
(g57
g58
NtRp1881
(dp1882
g61
(dp1883
g69
I3
ssg70
g1877
sg63
(lp1884
g894
asbasbasbag56
(g72
g58
NtRp1885
(dp1886
g61
(dp1887
sg70
g1608
sg63
(lp1888
g56
(g77
g58
NtRp1889
(dp1890
g61
(dp1891
g81
g82
ssg70
g1885
sg63
(lp1892
S'REQUEST_METHOD'
p1893
asbag56
(g77
g58
NtRp1894
(dp1895
g61
(dp1896
g88
g89
ssg70
g1885
sg63
(lp1897
S':'
asbag56
(g77
g58
NtRp1898
(dp1899
g61
(dp1900
sg70
g1885
sg63
(lp1901
g56
(g57
g58
NtRp1902
(dp1903
g61
(dp1904
g69
I3
ssg70
g1898
sg63
(lp1905
g916
asbasbasbag56
(g72
g58
NtRp1906
(dp1907
g61
(dp1908
sg70
g1608
sg63
(lp1909
g56
(g77
g58
NtRp1910
(dp1911
g61
(dp1912
g81
g82
ssg70
g1906
sg63
(lp1913
S'SCRIPT_NAME'
p1914
asbag56
(g77
g58
NtRp1915
(dp1916
g61
(dp1917
g88
g89
ssg70
g1906
sg63
(lp1918
S':'
asbag56
(g77
g58
NtRp1919
(dp1920
g61
(dp1921
sg70
g1906
sg63
(lp1922
g56
(g57
g58
NtRp1923
(dp1924
g61
(dp1925
g69
I3
ssg70
g1919
sg63
(lp1926
S''
asbasbasbag56
(g72
g58
NtRp1927
(dp1928
g61
(dp1929
sg70
g1608
sg63
(lp1930
g56
(g77
g58
NtRp1931
(dp1932
g61
(dp1933
g81
g82
ssg70
g1927
sg63
(lp1934
S'SERVER_NAME'
p1935
asbag56
(g77
g58
NtRp1936
(dp1937
g61
(dp1938
g88
g89
ssg70
g1927
sg63
(lp1939
S':'
asbag56
(g77
g58
NtRp1940
(dp1941
g61
(dp1942
sg70
g1927
sg63
(lp1943
g56
(g57
g58
NtRp1944
(dp1945
g61
(dp1946
g69
I3
ssg70
g1940
sg63
(lp1947
g959
asbasbasbag56
(g72
g58
NtRp1948
(dp1949
g61
(dp1950
sg70
g1608
sg63
(lp1951
g56
(g77
g58
NtRp1952
(dp1953
g61
(dp1954
g81
g82
ssg70
g1948
sg63
(lp1955
S'SERVER_PORT'
p1956
asbag56
(g77
g58
NtRp1957
(dp1958
g61
(dp1959
g88
g89
ssg70
g1948
sg63
(lp1960
S':'
asbag56
(g77
g58
NtRp1961
(dp1962
g61
(dp1963
sg70
g1948
sg63
(lp1964
g56
(g57
g58
NtRp1965
(dp1966
g61
(dp1967
g69
I3
ssg70
g1961
sg63
(lp1968
g981
asbasbasbag56
(g72
g58
NtRp1969
(dp1970
g61
(dp1971
sg70
g1608
sg63
(lp1972
g56
(g77
g58
NtRp1973
(dp1974
g61
(dp1975
g81
g82
ssg70
g1969
sg63
(lp1976
S'SERVER_PROTOCOL'
p1977
asbag56
(g77
g58
NtRp1978
(dp1979
g61
(dp1980
g88
g89
ssg70
g1969
sg63
(lp1981
S':'
asbag56
(g77
g58
NtRp1982
(dp1983
g61
(dp1984
sg70
g1969
sg63
(lp1985
g56
(g57
g58
NtRp1986
(dp1987
g61
(dp1988
g69
I3
ssg70
g1982
sg63
(lp1989
g1003
asbasbasbag56
(g72
g58
NtRp1990
(dp1991
g61
(dp1992
sg70
g1608
sg63
(lp1993
g56
(g77
g58
NtRp1994
(dp1995
g61
(dp1996
g81
g82
ssg70
g1990
sg63
(lp1997
S'SERVER_SOFTWARE'
p1998
asbag56
(g77
g58
NtRp1999
(dp2000
g61
(dp2001
g88
g89
ssg70
g1990
sg63
(lp2002
S':'
asbag56
(g77
g58
NtRp2003
(dp2004
g61
(dp2005
sg70
g1990
sg63
(lp2006
g56
(g57
g58
NtRp2007
(dp2008
g61
(dp2009
g69
I3
ssg70
g2003
sg63
(lp2010
g1025
asbasbasbag56
(g72
g58
NtRp2011
(dp2012
g61
(dp2013
sg70
g1608
sg63
(lp2014
g56
(g77
g58
NtRp2015
(dp2016
g61
(dp2017
g81
g82
ssg70
g2011
sg63
(lp2018
S'wsgi.errors'
p2019
asbag56
(g77
g58
NtRp2020
(dp2021
g61
(dp2022
g88
g89
ssg70
g2011
sg63
(lp2023
S':'
asbag56
(g77
g58
NtRp2024
(dp2025
g61
(dp2026
sg70
g2011
sg63
(lp2027
g56
(g57
g58
NtRp2028
(dp2029
g61
(dp2030
g69
I3
ssg70
g2024
sg63
(lp2031
S"<open file '<stderr>', mode 'w' at 0x100283270>"
p2032
asbasbasbag56
(g72
g58
NtRp2033
(dp2034
g61
(dp2035
sg70
g1608
sg63
(lp2036
g56
(g77
g58
NtRp2037
(dp2038
g61
(dp2039
g81
g82
ssg70
g2033
sg63
(lp2040
S'wsgi.file_wrapper'
p2041
asbag56
(g77
g58
NtRp2042
(dp2043
g61
(dp2044
g88
g89
ssg70
g2033
sg63
(lp2045
S':'
asbag56
(g77
g58
NtRp2046
(dp2047
g61
(dp2048
sg70
g2033
sg63
(lp2049
g56
(g57
g58
NtRp2050
(dp2051
g61
(dp2052
g69
I3
ssg70
g2046
sg63
(lp2053
S'<class gluon.rocket.FileWrapper at 0x101976ef0>'
p2054
asbasbasbag56
(g72
g58
NtRp2055
(dp2056
g61
(dp2057
sg70
g1608
sg63
(lp2058
g56
(g77
g58
NtRp2059
(dp2060
g61
(dp2061
g81
g82
ssg70
g2055
sg63
(lp2062
S'wsgi.input'
p2063
asbag56
(g77
g58
NtRp2064
(dp2065
g61
(dp2066
g88
g89
ssg70
g2055
sg63
(lp2067
S':'
asbag56
(g77
g58
NtRp2068
(dp2069
g61
(dp2070
sg70
g2055
sg63
(lp2071
g56
(g57
g58
NtRp2072
(dp2073
g61
(dp2074
g69
I3
ssg70
g2068
sg63
(lp2075
S'<cStringIO.StringO object at 0x101b3b998>'
p2076
asbasbasbag56
(g72
g58
NtRp2077
(dp2078
g61
(dp2079
sg70
g1608
sg63
(lp2080
g56
(g77
g58
NtRp2081
(dp2082
g61
(dp2083
g81
g82
ssg70
g2077
sg63
(lp2084
S'wsgi.multiprocess'
p2085
asbag56
(g77
g58
NtRp2086
(dp2087
g61
(dp2088
g88
g89
ssg70
g2077
sg63
(lp2089
S':'
asbag56
(g77
g58
NtRp2090
(dp2091
g61
(dp2092
sg70
g2077
sg63
(lp2093
g56
(g57
g58
NtRp2094
(dp2095
g61
(dp2096
g69
I3
ssg70
g2090
sg63
(lp2097
g99
asbasbasbag56
(g72
g58
NtRp2098
(dp2099
g61
(dp2100
sg70
g1608
sg63
(lp2101
g56
(g77
g58
NtRp2102
(dp2103
g61
(dp2104
g81
g82
ssg70
g2098
sg63
(lp2105
S'wsgi.multithread'
p2106
asbag56
(g77
g58
NtRp2107
(dp2108
g61
(dp2109
g88
g89
ssg70
g2098
sg63
(lp2110
S':'
asbag56
(g77
g58
NtRp2111
(dp2112
g61
(dp2113
sg70
g2098
sg63
(lp2114
g56
(g57
g58
NtRp2115
(dp2116
g61
(dp2117
g69
I3
ssg70
g2111
sg63
(lp2118
g1199
asbasbasbag56
(g72
g58
NtRp2119
(dp2120
g61
(dp2121
sg70
g1608
sg63
(lp2122
g56
(g77
g58
NtRp2123
(dp2124
g61
(dp2125
g81
g82
ssg70
g2119
sg63
(lp2126
S'wsgi.run_once'
p2127
asbag56
(g77
g58
NtRp2128
(dp2129
g61
(dp2130
g88
g89
ssg70
g2119
sg63
(lp2131
S':'
asbag56
(g77
g58
NtRp2132
(dp2133
g61
(dp2134
sg70
g2119
sg63
(lp2135
g56
(g57
g58
NtRp2136
(dp2137
g61
(dp2138
g69
I3
ssg70
g2132
sg63
(lp2139
g99
asbasbasbag56
(g72
g58
NtRp2140
(dp2141
g61
(dp2142
sg70
g1608
sg63
(lp2143
g56
(g77
g58
NtRp2144
(dp2145
g61
(dp2146
g81
g82
ssg70
g2140
sg63
(lp2147
S'wsgi.url_scheme'
p2148
asbag56
(g77
g58
NtRp2149
(dp2150
g61
(dp2151
g88
g89
ssg70
g2140
sg63
(lp2152
S':'
asbag56
(g77
g58
NtRp2153
(dp2154
g61
(dp2155
sg70
g2140
sg63
(lp2156
g56
(g57
g58
NtRp2157
(dp2158
g61
(dp2159
g69
I3
ssg70
g2153
sg63
(lp2160
g1242
asbasbasbag56
(g72
g58
NtRp2161
(dp2162
g61
(dp2163
sg70
g1608
sg63
(lp2164
g56
(g77
g58
NtRp2165
(dp2166
g61
(dp2167
g81
g82
ssg70
g2161
sg63
(lp2168
S'wsgi.version'
p2169
asbag56
(g77
g58
NtRp2170
(dp2171
g61
(dp2172
g88
g89
ssg70
g2161
sg63
(lp2173
S':'
asbag56
(g77
g58
NtRp2174
(dp2175
g61
(dp2176
sg70
g2161
sg63
(lp2177
g56
(g57
g58
NtRp2178
(dp2179
g61
(dp2180
g69
I3
ssg70
g2174
sg63
(lp2181
S'1'
asbasbasbasbasbasbasbasbasbasbasbasbasbsS'frames'
p2182
(lp2183
(dp2184
S'file'
p2185
S'/Users/schultzc/workspace/wherespuppet/web2py/gluon/restricted.py'
p2186
sS'dump'
p2187
(dp2188
S'environment'
p2189
S"{'A': <class 'gluon.html.A'>, 'B': <class 'gluon.html.B'>, 'BEAUTIFY': <class 'gluon.html.BEAUTIFY'>, 'BODY': <class 'gluon.html.BODY'>, 'BR': <class 'gluon.html.BR'>, 'BUTTON': <class 'gluon.html.BUTTON'>, 'CENTER': <class 'gluon.html.CENTER'>, 'CLEANUP': <class 'gluon.validators.CLEANUP'>, 'CODE': <class 'gluon.html.CODE'>, 'CRYPT': <class 'gluon.validators.CRYPT'>, ...}"
p2190
sS'ccode'
p2191
S'<code object <module> at 0x102725cb0, file "/Use...plications/wp/views/default/submit.html", line 1>'
p2192
ssS'lnum'
p2193
I192
sS'lines'
p2194
(dp2195
I192
S'        exec ccode in environment'
p2196
sI193
S'    except HTTP:'
p2197
sI194
S'        raise'
p2198
sI195
S'    except Exception:'
p2199
sI196
S'        # XXX Show exception in Wing IDE if running in debugger'
p2200
sI187
S'    try:'
p2201
sI188
S'        if type(code) == types.CodeType:'
p2202
sI189
S'            ccode = code'
p2203
sI190
S'        else:'
p2204
sI191
S'            ccode = compile2(code,layer)'
p2205
ssS'call'
p2206
S'(code=\'response.write(\\\'<!DOCTYPE html>\\\\n<html lang="\\\', ...    -->    \\\\n  </body>\\\\n</html>\\\\n\\\', escape=False)\', environment={\'A\': <class \'gluon.html.A\'>, \'B\': <class \'gluon.html.B\'>, \'BEAUTIFY\': <class \'gluon.html.BEAUTIFY\'>, \'BODY\': <class \'gluon.html.BODY\'>, \'BR\': <class \'gluon.html.BR\'>, \'BUTTON\': <class \'gluon.html.BUTTON\'>, \'CENTER\': <class \'gluon.html.CENTER\'>, \'CLEANUP\': <class \'gluon.validators.CLEANUP\'>, \'CODE\': <class \'gluon.html.CODE\'>, \'CRYPT\': <class \'gluon.validators.CRYPT\'>, ...}, layer=\'/Users/schultzc/workspace/wherespuppet/web2py/applications/wp/views/default/submit.html\')'
p2207
sS'func'
p2208
S'restricted'
p2209
sa(dp2210
g2185
S'/Users/schultzc/workspace/wherespuppet/web2py/applications/wp/views/default/submit.html'
p2211
sg2187
(dp2212
sg2193
I105
sg2194
(dp2213
I96
S"    response.write('Content Left Sidebar', escape=False)"
p2214
sI97
S"    response.write('       \\n            </div>\\n          </div><!-- left_sidebar -->\\n      ', escape=False)"
p2215
sI98
S'    pass'
p2216
sI99
S'response.write(\'\\n\\n      <!-- content -->\\n      <div id="content" \', escape=False)'
p2217
sI100
S'response.write(XML(style_content))'
p2218
sI101
S"response.write(' >\\n        ', escape=False)"
p2219
sI102
S'response.write(\'\\n<h2>Submit a Puppet Pic:</h2>\\n\\n<script> \\n        function initiate_geolocation() {  \\n            navigator.geolocation.getCurrentPosition(success_handler);  \\n        }  \\n  \\n        function success_handler(position) {\\n            latitude = position.coords.latitude;\\n            longitude = position.coords.longitude;\\n            accuracy = position.coords.accuracy;\\n            timestamp = position.timestamp\\n            \\n            if (!latitude || !longitude) {\\n                document.getElementById("status").innerHTML = "HTML5 Geolocation supported, but location data is currently unavailable.";\\n                return;\\n            }\\n            \\n            $.cookie("posLat", latitude);\\n            $.cookie("posLon", longitude);\\n            $.cookie("posAccuracy", accuracy);\\n            $.cookie("posTimestamp", timestamp);\\n      \\n        } \\n</script>\\n<script>initiate_geolocation();</script>\\n\', escape=False)'
p2220
sI103
S'response.write(form)'
p2221
sI104
S"response.write('\\n<br/><br/>\\nCurrent Latitude:', escape=False)"
p2222
sI105
S'response.write(latitude)'
p2223
sI106
S"response.write('\\n', escape=False)"
p2224
sI107
S"response.write(' \\n      </div>\\n      <!-- content -->\\n\\n      ', escape=False)"
p2225
sI108
S'if right_sidebar_enabled:'
p2226
sI109
S'    response.write(\'\\n          <div id="right_sidebar" \', escape=False)'
p2227
sI110
S'    response.write(XML(right_sidebar_style))'
p2228
sI111
S'    response.write(\' >\\n            <div style="padding: 4px;">\\n              \', escape=False)'
p2229
sI112
S"    response.write('Content Right Sidebar', escape=False)"
p2230
sI113
S"    response.write('\\n            </div>\\n      </div><!-- right_sidebar -->\\n          ', escape=False)"
p2231
sI114
S'    pass'
p2232
sI115
S'response.write(\'\\n\\n\\n      <div style="clear: both;"></div><!-- Clear the divs -->\\n      \\n    </div><!-- page -->                         \\n    \\n    <div id="footer">\\n      \', escape=False)'
p2233
ssg2206
S'()'
p2234
sg2208
S'<module>'
p2235
sasS'pyver'
p2236
S'Python 2.7.2: /opt/local/Library/Frameworks/Python.framework/Versions/2.7/Resources/Python.app/Contents/MacOS/Python'
p2237
sS'session'
p2238
g56
(g57
g58
NtRp2239
(dp2240
g61
(dp2241
sg63
(lp2242
g56
(g65
g58
NtRp2243
(dp2244
g61
(dp2245
g69
I5
ssg70
Nsg63
(lp2246
sbasbsS'etype'
p2247
S"<type 'exceptions.NameError'>"
p2248
sS'date'
p2249
S'Mon Jul 25 12:38:44 2011'
p2250
sS'response'
p2251
g56
(g57
g58
NtRp2252
(dp2253
g61
(dp2254
sg63
(lp2255
g56
(g65
g58
NtRp2256
(dp2257
g61
(dp2258
g69
I5
ssg70
Nsg63
(lp2259
g56
(g72
g58
NtRp2260
(dp2261
g61
(dp2262
sg70
g2256
sg63
(lp2263
g56
(g77
g58
NtRp2264
(dp2265
g61
(dp2266
g81
g82
ssg70
g2260
sg63
(lp2267
g154
asbag56
(g77
g58
NtRp2268
(dp2269
g61
(dp2270
g88
g89
ssg70
g2260
sg63
(lp2271
S':'
asbag56
(g77
g58
NtRp2272
(dp2273
g61
(dp2274
sg70
g2260
sg63
(lp2275
g56
(g57
g58
NtRp2276
(dp2277
g61
(dp2278
g69
I5
ssg70
g2272
sg63
(lp2279
S'<cStringIO.StringO object at 0x105f79c00>'
p2280
asbasbasbag56
(g72
g58
NtRp2281
(dp2282
g61
(dp2283
sg70
g2256
sg63
(lp2284
g56
(g77
g58
NtRp2285
(dp2286
g61
(dp2287
g81
g82
ssg70
g2281
sg63
(lp2288
g220
asbag56
(g77
g58
NtRp2289
(dp2290
g61
(dp2291
g88
g89
ssg70
g2281
sg63
(lp2292
S':'
asbag56
(g77
g58
NtRp2293
(dp2294
g61
(dp2295
sg70
g2281
sg63
(lp2296
g56
(g57
g58
NtRp2297
(dp2298
g61
(dp2299
g69
I5
ssg70
g2293
sg63
(lp2300
g56
(g65
g58
NtRp2301
(dp2302
g61
(dp2303
g69
I4
ssg70
Nsg63
(lp2304
g56
(g72
g58
NtRp2305
(dp2306
g61
(dp2307
sg70
g2301
sg63
(lp2308
g56
(g77
g58
NtRp2309
(dp2310
g61
(dp2311
g81
g82
ssg70
g2305
sg63
(lp2312
S'session_id_wp'
p2313
asbag56
(g77
g58
NtRp2314
(dp2315
g61
(dp2316
g88
g89
ssg70
g2305
sg63
(lp2317
S':'
asbag56
(g77
g58
NtRp2318
(dp2319
g61
(dp2320
sg70
g2305
sg63
(lp2321
g56
(g57
g58
NtRp2322
(dp2323
g61
(dp2324
g69
I4
ssg70
g2318
sg63
(lp2325
g56
(g65
g58
NtRp2326
(dp2327
g61
(dp2328
g69
I3
ssg70
Nsg63
(lp2329
g56
(g72
g58
NtRp2330
(dp2331
g61
(dp2332
sg70
g2326
sg63
(lp2333
g56
(g77
g58
NtRp2334
(dp2335
g61
(dp2336
g81
g82
ssg70
g2330
sg63
(lp2337
g270
asbag56
(g77
g58
NtRp2338
(dp2339
g61
(dp2340
g88
g89
ssg70
g2330
sg63
(lp2341
S':'
asbag56
(g77
g58
NtRp2342
(dp2343
g61
(dp2344
sg70
g2330
sg63
(lp2345
g56
(g57
g58
NtRp2346
(dp2347
g61
(dp2348
g69
I3
ssg70
g2342
sg63
(lp2349
S''
asbasbasbag56
(g72
g58
NtRp2350
(dp2351
g61
(dp2352
sg70
g2326
sg63
(lp2353
g56
(g77
g58
NtRp2354
(dp2355
g61
(dp2356
g81
g82
ssg70
g2350
sg63
(lp2357
g291
asbag56
(g77
g58
NtRp2358
(dp2359
g61
(dp2360
g88
g89
ssg70
g2350
sg63
(lp2361
S':'
asbag56
(g77
g58
NtRp2362
(dp2363
g61
(dp2364
sg70
g2350
sg63
(lp2365
g56
(g57
g58
NtRp2366
(dp2367
g61
(dp2368
g69
I3
ssg70
g2362
sg63
(lp2369
S''
asbasbasbag56
(g72
g58
NtRp2370
(dp2371
g61
(dp2372
sg70
g2326
sg63
(lp2373
g56
(g77
g58
NtRp2374
(dp2375
g61
(dp2376
g81
g82
ssg70
g2370
sg63
(lp2377
g312
asbag56
(g77
g58
NtRp2378
(dp2379
g61
(dp2380
g88
g89
ssg70
g2370
sg63
(lp2381
S':'
asbag56
(g77
g58
NtRp2382
(dp2383
g61
(dp2384
sg70
g2370
sg63
(lp2385
g56
(g57
g58
NtRp2386
(dp2387
g61
(dp2388
g69
I3
ssg70
g2382
sg63
(lp2389
S''
asbasbasbag56
(g72
g58
NtRp2390
(dp2391
g61
(dp2392
sg70
g2326
sg63
(lp2393
g56
(g77
g58
NtRp2394
(dp2395
g61
(dp2396
g81
g82
ssg70
g2390
sg63
(lp2397
g333
asbag56
(g77
g58
NtRp2398
(dp2399
g61
(dp2400
g88
g89
ssg70
g2390
sg63
(lp2401
S':'
asbag56
(g77
g58
NtRp2402
(dp2403
g61
(dp2404
sg70
g2390
sg63
(lp2405
g56
(g57
g58
NtRp2406
(dp2407
g61
(dp2408
g69
I3
ssg70
g2402
sg63
(lp2409
S''
asbasbasbag56
(g72
g58
NtRp2410
(dp2411
g61
(dp2412
sg70
g2326
sg63
(lp2413
g56
(g77
g58
NtRp2414
(dp2415
g61
(dp2416
g81
g82
ssg70
g2410
sg63
(lp2417
g354
asbag56
(g77
g58
NtRp2418
(dp2419
g61
(dp2420
g88
g89
ssg70
g2410
sg63
(lp2421
S':'
asbag56
(g77
g58
NtRp2422
(dp2423
g61
(dp2424
sg70
g2410
sg63
(lp2425
g56
(g57
g58
NtRp2426
(dp2427
g61
(dp2428
g69
I3
ssg70
g2422
sg63
(lp2429
S''
asbasbasbag56
(g72
g58
NtRp2430
(dp2431
g61
(dp2432
sg70
g2326
sg63
(lp2433
g56
(g77
g58
NtRp2434
(dp2435
g61
(dp2436
g81
g82
ssg70
g2430
sg63
(lp2437
g375
asbag56
(g77
g58
NtRp2438
(dp2439
g61
(dp2440
g88
g89
ssg70
g2430
sg63
(lp2441
S':'
asbag56
(g77
g58
NtRp2442
(dp2443
g61
(dp2444
sg70
g2430
sg63
(lp2445
g56
(g57
g58
NtRp2446
(dp2447
g61
(dp2448
g69
I3
ssg70
g2442
sg63
(lp2449
S'/'
asbasbasbag56
(g72
g58
NtRp2450
(dp2451
g61
(dp2452
sg70
g2326
sg63
(lp2453
g56
(g77
g58
NtRp2454
(dp2455
g61
(dp2456
g81
g82
ssg70
g2450
sg63
(lp2457
g396
asbag56
(g77
g58
NtRp2458
(dp2459
g61
(dp2460
g88
g89
ssg70
g2450
sg63
(lp2461
S':'
asbag56
(g77
g58
NtRp2462
(dp2463
g61
(dp2464
sg70
g2450
sg63
(lp2465
g56
(g57
g58
NtRp2466
(dp2467
g61
(dp2468
g69
I3
ssg70
g2462
sg63
(lp2469
S''
asbasbasbag56
(g72
g58
NtRp2470
(dp2471
g61
(dp2472
sg70
g2326
sg63
(lp2473
g56
(g77
g58
NtRp2474
(dp2475
g61
(dp2476
g81
g82
ssg70
g2470
sg63
(lp2477
g417
asbag56
(g77
g58
NtRp2478
(dp2479
g61
(dp2480
g88
g89
ssg70
g2470
sg63
(lp2481
S':'
asbag56
(g77
g58
NtRp2482
(dp2483
g61
(dp2484
sg70
g2470
sg63
(lp2485
g56
(g57
g58
NtRp2486
(dp2487
g61
(dp2488
g69
I3
ssg70
g2482
sg63
(lp2489
S''
asbasbasbasbasbasbasbasbasbasbasbag56
(g72
g58
NtRp2490
(dp2491
g61
(dp2492
sg70
g2256
sg63
(lp2493
g56
(g77
g58
NtRp2494
(dp2495
g61
(dp2496
g81
g82
ssg70
g2490
sg63
(lp2497
S'files'
p2498
asbag56
(g77
g58
NtRp2499
(dp2500
g61
(dp2501
g88
g89
ssg70
g2490
sg63
(lp2502
S':'
asbag56
(g77
g58
NtRp2503
(dp2504
g61
(dp2505
sg70
g2490
sg63
(lp2506
g56
(g57
g58
NtRp2507
(dp2508
g61
(dp2509
g69
I5
ssg70
g2503
sg63
(lp2510
g56
(g65
g58
NtRp2511
(dp2512
g61
(dp2513
g69
I4
ssg70
Nsg63
(lp2514
g56
(g72
g58
NtRp2515
(dp2516
g61
(dp2517
sg70
g2511
sg63
(lp2518
g56
(g77
g58
NtRp2519
(dp2520
g61
(dp2521
sg70
g2515
sg63
(lp2522
g56
(g57
g58
NtRp2523
(dp2524
g61
(dp2525
g69
I4
ssg70
g2519
sg63
(lp2526
S'/wp/static/js/jquery.js'
p2527
asbasbasbag56
(g72
g58
NtRp2528
(dp2529
g61
(dp2530
sg70
g2511
sg63
(lp2531
g56
(g77
g58
NtRp2532
(dp2533
g61
(dp2534
sg70
g2528
sg63
(lp2535
g56
(g57
g58
NtRp2536
(dp2537
g61
(dp2538
g69
I4
ssg70
g2532
sg63
(lp2539
S'/wp/static/css/calendar.css'
p2540
asbasbasbag56
(g72
g58
NtRp2541
(dp2542
g61
(dp2543
sg70
g2511
sg63
(lp2544
g56
(g77
g58
NtRp2545
(dp2546
g61
(dp2547
sg70
g2541
sg63
(lp2548
g56
(g57
g58
NtRp2549
(dp2550
g61
(dp2551
g69
I4
ssg70
g2545
sg63
(lp2552
S'/wp/static/js/calendar.js'
p2553
asbasbasbag56
(g72
g58
NtRp2554
(dp2555
g61
(dp2556
sg70
g2511
sg63
(lp2557
g56
(g77
g58
NtRp2558
(dp2559
g61
(dp2560
sg70
g2554
sg63
(lp2561
g56
(g57
g58
NtRp2562
(dp2563
g61
(dp2564
g69
I4
ssg70
g2558
sg63
(lp2565
S'/wp/static/css/base.css'
p2566
asbasbasbag56
(g72
g58
NtRp2567
(dp2568
g61
(dp2569
sg70
g2511
sg63
(lp2570
g56
(g77
g58
NtRp2571
(dp2572
g61
(dp2573
sg70
g2567
sg63
(lp2574
g56
(g57
g58
NtRp2575
(dp2576
g61
(dp2577
g69
I4
ssg70
g2571
sg63
(lp2578
S'/wp/static/css/superfish.css'
p2579
asbasbasbag56
(g72
g58
NtRp2580
(dp2581
g61
(dp2582
sg70
g2511
sg63
(lp2583
g56
(g77
g58
NtRp2584
(dp2585
g61
(dp2586
sg70
g2580
sg63
(lp2587
g56
(g57
g58
NtRp2588
(dp2589
g61
(dp2590
g69
I4
ssg70
g2584
sg63
(lp2591
S'/wp/static/js/superfish.js'
p2592
asbasbasbag56
(g72
g58
NtRp2593
(dp2594
g61
(dp2595
sg70
g2511
sg63
(lp2596
g56
(g77
g58
NtRp2597
(dp2598
g61
(dp2599
sg70
g2593
sg63
(lp2600
g56
(g57
g58
NtRp2601
(dp2602
g61
(dp2603
g69
I4
ssg70
g2597
sg63
(lp2604
S'/wp/static/js/jquery.cookie.js'
p2605
asbasbasbasbasbasbasbag56
(g72
g58
NtRp2606
(dp2607
g61
(dp2608
sg70
g2256
sg63
(lp2609
g56
(g77
g58
NtRp2610
(dp2611
g61
(dp2612
g81
g82
ssg70
g2606
sg63
(lp2613
S'flash'
p2614
asbag56
(g77
g58
NtRp2615
(dp2616
g61
(dp2617
g88
g89
ssg70
g2606
sg63
(lp2618
S':'
asbag56
(g77
g58
NtRp2619
(dp2620
g61
(dp2621
sg70
g2606
sg63
(lp2622
g56
(g57
g58
NtRp2623
(dp2624
g61
(dp2625
g69
I5
ssg70
g2619
sg63
(lp2626
S'please fill out the form'
p2627
asbasbasbag56
(g72
g58
NtRp2628
(dp2629
g61
(dp2630
sg70
g2256
sg63
(lp2631
g56
(g77
g58
NtRp2632
(dp2633
g61
(dp2634
g81
g82
ssg70
g2628
sg63
(lp2635
S'headers'
p2636
asbag56
(g77
g58
NtRp2637
(dp2638
g61
(dp2639
g88
g89
ssg70
g2628
sg63
(lp2640
S':'
asbag56
(g77
g58
NtRp2641
(dp2642
g61
(dp2643
sg70
g2628
sg63
(lp2644
g56
(g57
g58
NtRp2645
(dp2646
g61
(dp2647
g69
I5
ssg70
g2641
sg63
(lp2648
g56
(g65
g58
NtRp2649
(dp2650
g61
(dp2651
g69
I4
ssg70
Nsg63
(lp2652
g56
(g72
g58
NtRp2653
(dp2654
g61
(dp2655
sg70
g2649
sg63
(lp2656
g56
(g77
g58
NtRp2657
(dp2658
g61
(dp2659
g81
g82
ssg70
g2653
sg63
(lp2660
S'Cache-Control'
p2661
asbag56
(g77
g58
NtRp2662
(dp2663
g61
(dp2664
g88
g89
ssg70
g2653
sg63
(lp2665
S':'
asbag56
(g77
g58
NtRp2666
(dp2667
g61
(dp2668
sg70
g2653
sg63
(lp2669
g56
(g57
g58
NtRp2670
(dp2671
g61
(dp2672
g69
I4
ssg70
g2666
sg63
(lp2673
S'no-store, no-cache, must-revalidate, post-check=0, pre-check=0'
p2674
asbasbasbag56
(g72
g58
NtRp2675
(dp2676
g61
(dp2677
sg70
g2649
sg63
(lp2678
g56
(g77
g58
NtRp2679
(dp2680
g61
(dp2681
g81
g82
ssg70
g2675
sg63
(lp2682
S'Content-Type'
p2683
asbag56
(g77
g58
NtRp2684
(dp2685
g61
(dp2686
g88
g89
ssg70
g2675
sg63
(lp2687
S':'
asbag56
(g77
g58
NtRp2688
(dp2689
g61
(dp2690
sg70
g2675
sg63
(lp2691
g56
(g57
g58
NtRp2692
(dp2693
g61
(dp2694
g69
I4
ssg70
g2688
sg63
(lp2695
S'text/html; charset=utf-8'
p2696
asbasbasbag56
(g72
g58
NtRp2697
(dp2698
g61
(dp2699
sg70
g2649
sg63
(lp2700
g56
(g77
g58
NtRp2701
(dp2702
g61
(dp2703
g81
g82
ssg70
g2697
sg63
(lp2704
S'Expires'
p2705
asbag56
(g77
g58
NtRp2706
(dp2707
g61
(dp2708
g88
g89
ssg70
g2697
sg63
(lp2709
S':'
asbag56
(g77
g58
NtRp2710
(dp2711
g61
(dp2712
sg70
g2697
sg63
(lp2713
g56
(g57
g58
NtRp2714
(dp2715
g61
(dp2716
g69
I4
ssg70
g2710
sg63
(lp2717
S'Mon, 25 Jul 2011 19:38:44 GMT'
p2718
asbasbasbag56
(g72
g58
NtRp2719
(dp2720
g61
(dp2721
sg70
g2649
sg63
(lp2722
g56
(g77
g58
NtRp2723
(dp2724
g61
(dp2725
g81
g82
ssg70
g2719
sg63
(lp2726
S'Pragma'
p2727
asbag56
(g77
g58
NtRp2728
(dp2729
g61
(dp2730
g88
g89
ssg70
g2719
sg63
(lp2731
S':'
asbag56
(g77
g58
NtRp2732
(dp2733
g61
(dp2734
sg70
g2719
sg63
(lp2735
g56
(g57
g58
NtRp2736
(dp2737
g61
(dp2738
g69
I4
ssg70
g2732
sg63
(lp2739
S'no-cache'
p2740
asbasbasbag56
(g72
g58
NtRp2741
(dp2742
g61
(dp2743
sg70
g2649
sg63
(lp2744
g56
(g77
g58
NtRp2745
(dp2746
g61
(dp2747
g81
g82
ssg70
g2741
sg63
(lp2748
S'X-Powered-By'
p2749
asbag56
(g77
g58
NtRp2750
(dp2751
g61
(dp2752
g88
g89
ssg70
g2741
sg63
(lp2753
S':'
asbag56
(g77
g58
NtRp2754
(dp2755
g61
(dp2756
sg70
g2741
sg63
(lp2757
g56
(g57
g58
NtRp2758
(dp2759
g61
(dp2760
g69
I4
ssg70
g2754
sg63
(lp2761
S'web2py'
p2762
asbasbasbasbasbasbasbag56
(g72
g58
NtRp2763
(dp2764
g61
(dp2765
sg70
g2256
sg63
(lp2766
g56
(g77
g58
NtRp2767
(dp2768
g61
(dp2769
g81
g82
ssg70
g2763
sg63
(lp2770
S'menu'
p2771
asbag56
(g77
g58
NtRp2772
(dp2773
g61
(dp2774
g88
g89
ssg70
g2763
sg63
(lp2775
S':'
asbag56
(g77
g58
NtRp2776
(dp2777
g61
(dp2778
sg70
g2763
sg63
(lp2779
g56
(g57
g58
NtRp2780
(dp2781
g61
(dp2782
g69
I5
ssg70
g2776
sg63
(lp2783
g56
(g65
g58
NtRp2784
(dp2785
g61
(dp2786
g69
I4
ssg70
Nsg63
(lp2787
g56
(g72
g58
NtRp2788
(dp2789
g61
(dp2790
sg70
g2784
sg63
(lp2791
g56
(g77
g58
NtRp2792
(dp2793
g61
(dp2794
sg70
g2788
sg63
(lp2795
g56
(g57
g58
NtRp2796
(dp2797
g61
(dp2798
g69
I4
ssg70
g2792
sg63
(lp2799
g56
(g65
g58
NtRp2800
(dp2801
g61
(dp2802
g69
I3
ssg70
Nsg63
(lp2803
g56
(g72
g58
NtRp2804
(dp2805
g61
(dp2806
sg70
g2800
sg63
(lp2807
g56
(g77
g58
NtRp2808
(dp2809
g61
(dp2810
sg70
g2804
sg63
(lp2811
g56
(g57
g58
NtRp2812
(dp2813
g61
(dp2814
g69
I3
ssg70
g2808
sg63
(lp2815
cgluon.languages
lazyT_unpickle
p2816
(S't\x04\x00\x00\x00Home'
tRp2817
asbasbasbag56
(g72
g58
NtRp2818
(dp2819
g61
(dp2820
sg70
g2800
sg63
(lp2821
g56
(g77
g58
NtRp2822
(dp2823
g61
(dp2824
sg70
g2818
sg63
(lp2825
g56
(g57
g58
NtRp2826
(dp2827
g61
(dp2828
g69
I3
ssg70
g2822
sg63
(lp2829
g99
asbasbasbag56
(g72
g58
NtRp2830
(dp2831
g61
(dp2832
sg70
g2800
sg63
(lp2833
g56
(g77
g58
NtRp2834
(dp2835
g61
(dp2836
sg70
g2830
sg63
(lp2837
g56
(g57
g58
NtRp2838
(dp2839
g61
(dp2840
g69
I3
ssg70
g2834
sg63
(lp2841
S'/wp/default/index'
p2842
asbasbasbag56
(g72
g58
NtRp2843
(dp2844
g61
(dp2845
sg70
g2800
sg63
(lp2846
g56
(g77
g58
NtRp2847
(dp2848
g61
(dp2849
sg70
g2843
sg63
(lp2850
g56
(g57
g58
NtRp2851
(dp2852
g61
(dp2853
g69
I3
ssg70
g2847
sg63
(lp2854
g56
(g65
g58
NtRp2855
(dp2856
g61
(dp2857
g69
I2
ssg70
Nsg63
(lp2858
sbasbasbasbasbasbasbasbag56
(g72
g58
NtRp2859
(dp2860
g61
(dp2861
sg70
g2784
sg63
(lp2862
g56
(g77
g58
NtRp2863
(dp2864
g61
(dp2865
sg70
g2859
sg63
(lp2866
g56
(g57
g58
NtRp2867
(dp2868
g61
(dp2869
g69
I4
ssg70
g2863
sg63
(lp2870
g56
(g65
g58
NtRp2871
(dp2872
g61
(dp2873
g69
I3
ssg70
Nsg63
(lp2874
g56
(g72
g58
NtRp2875
(dp2876
g61
(dp2877
sg70
g2871
sg63
(lp2878
g56
(g77
g58
NtRp2879
(dp2880
g61
(dp2881
sg70
g2875
sg63
(lp2882
g56
(g57
g58
NtRp2883
(dp2884
g61
(dp2885
g69
I3
ssg70
g2879
sg63
(lp2886
g2816
(S's\x08\x00\x00\x00This App'
tRp2887
asbasbasbag56
(g72
g58
NtRp2888
(dp2889
g61
(dp2890
sg70
g2871
sg63
(lp2891
g56
(g77
g58
NtRp2892
(dp2893
g61
(dp2894
sg70
g2888
sg63
(lp2895
g56
(g57
g58
NtRp2896
(dp2897
g61
(dp2898
g69
I3
ssg70
g2892
sg63
(lp2899
g99
asbasbasbag56
(g72
g58
NtRp2900
(dp2901
g61
(dp2902
sg70
g2871
sg63
(lp2903
g56
(g77
g58
NtRp2904
(dp2905
g61
(dp2906
sg70
g2900
sg63
(lp2907
g56
(g57
g58
NtRp2908
(dp2909
g61
(dp2910
g69
I3
ssg70
g2904
sg63
(lp2911
S'/admin/default/design/wp'
p2912
asbasbasbag56
(g72
g58
NtRp2913
(dp2914
g61
(dp2915
sg70
g2871
sg63
(lp2916
g56
(g77
g58
NtRp2917
(dp2918
g61
(dp2919
sg70
g2913
sg63
(lp2920
g56
(g57
g58
NtRp2921
(dp2922
g61
(dp2923
g69
I3
ssg70
g2917
sg63
(lp2924
g56
(g65
g58
NtRp2925
(dp2926
g61
(dp2927
g69
I2
ssg70
Nsg63
(lp2928
g56
(g72
g58
NtRp2929
(dp2930
g61
(dp2931
sg70
g2925
sg63
(lp2932
g56
(g77
g58
NtRp2933
(dp2934
g61
(dp2935
sg70
g2929
sg63
(lp2936
g56
(g57
g58
NtRp2937
(dp2938
g61
(dp2939
g69
I2
ssg70
g2933
sg63
(lp2940
g56
(g65
g58
NtRp2941
(dp2942
g61
(dp2943
g69
I1
ssg70
Nsg63
(lp2944
g56
(g72
g58
NtRp2945
(dp2946
g61
(dp2947
sg70
g2941
sg63
(lp2948
g56
(g77
g58
NtRp2949
(dp2950
g61
(dp2951
sg70
g2945
sg63
(lp2952
g56
(g57
g58
NtRp2953
(dp2954
g61
(dp2955
g69
I1
ssg70
g2949
sg63
(lp2956
g2816
(S't\n\x00\x00\x00Controller'
tRp2957
asbasbasbag56
(g72
g58
NtRp2958
(dp2959
g61
(dp2960
sg70
g2941
sg63
(lp2961
g56
(g77
g58
NtRp2962
(dp2963
g61
(dp2964
sg70
g2958
sg63
(lp2965
g56
(g57
g58
NtRp2966
(dp2967
g61
(dp2968
g69
I1
ssg70
g2962
sg63
(lp2969
I00
asbasbasbag56
(g72
g58
NtRp2970
(dp2971
g61
(dp2972
sg70
g2941
sg63
(lp2973
g56
(g77
g58
NtRp2974
(dp2975
g61
(dp2976
sg70
g2970
sg63
(lp2977
g56
(g57
g58
NtRp2978
(dp2979
g61
(dp2980
g69
I1
ssg70
g2974
sg63
(lp2981
S'/admin/default/edit/wp/controllers/default.py'
p2982
asbasbasbasbasbasbasbag56
(g72
g58
NtRp2983
(dp2984
g61
(dp2985
sg70
g2925
sg63
(lp2986
g56
(g77
g58
NtRp2987
(dp2988
g61
(dp2989
sg70
g2983
sg63
(lp2990
g56
(g57
g58
NtRp2991
(dp2992
g61
(dp2993
g69
I2
ssg70
g2987
sg63
(lp2994
g56
(g65
g58
NtRp2995
(dp2996
g61
(dp2997
g69
I1
ssg70
Nsg63
(lp2998
g56
(g72
g58
NtRp2999
(dp3000
g61
(dp3001
sg70
g2995
sg63
(lp3002
g56
(g77
g58
NtRp3003
(dp3004
g61
(dp3005
sg70
g2999
sg63
(lp3006
g56
(g57
g58
NtRp3007
(dp3008
g61
(dp3009
g69
I1
ssg70
g3003
sg63
(lp3010
g2816
(S't\x04\x00\x00\x00View'
tRp3011
asbasbasbag56
(g72
g58
NtRp3012
(dp3013
g61
(dp3014
sg70
g2995
sg63
(lp3015
g56
(g77
g58
NtRp3016
(dp3017
g61
(dp3018
sg70
g3012
sg63
(lp3019
g56
(g57
g58
NtRp3020
(dp3021
g61
(dp3022
g69
I1
ssg70
g3016
sg63
(lp3023
I00
asbasbasbag56
(g72
g58
NtRp3024
(dp3025
g61
(dp3026
sg70
g2995
sg63
(lp3027
g56
(g77
g58
NtRp3028
(dp3029
g61
(dp3030
sg70
g3024
sg63
(lp3031
g56
(g57
g58
NtRp3032
(dp3033
g61
(dp3034
g69
I1
ssg70
g3028
sg63
(lp3035
S'/admin/default/edit/wp/views/default/submit.html'
p3036
asbasbasbasbasbasbasbag56
(g72
g58
NtRp3037
(dp3038
g61
(dp3039
sg70
g2925
sg63
(lp3040
g56
(g77
g58
NtRp3041
(dp3042
g61
(dp3043
sg70
g3037
sg63
(lp3044
g56
(g57
g58
NtRp3045
(dp3046
g61
(dp3047
g69
I2
ssg70
g3041
sg63
(lp3048
g56
(g65
g58
NtRp3049
(dp3050
g61
(dp3051
g69
I1
ssg70
Nsg63
(lp3052
g56
(g72
g58
NtRp3053
(dp3054
g61
(dp3055
sg70
g3049
sg63
(lp3056
g56
(g77
g58
NtRp3057
(dp3058
g61
(dp3059
sg70
g3053
sg63
(lp3060
g56
(g57
g58
NtRp3061
(dp3062
g61
(dp3063
g69
I1
ssg70
g3057
sg63
(lp3064
g2816
(S't\x06\x00\x00\x00Layout'
tRp3065
asbasbasbag56
(g72
g58
NtRp3066
(dp3067
g61
(dp3068
sg70
g3049
sg63
(lp3069
g56
(g77
g58
NtRp3070
(dp3071
g61
(dp3072
sg70
g3066
sg63
(lp3073
g56
(g57
g58
NtRp3074
(dp3075
g61
(dp3076
g69
I1
ssg70
g3070
sg63
(lp3077
I00
asbasbasbag56
(g72
g58
NtRp3078
(dp3079
g61
(dp3080
sg70
g3049
sg63
(lp3081
g56
(g77
g58
NtRp3082
(dp3083
g61
(dp3084
sg70
g3078
sg63
(lp3085
g56
(g57
g58
NtRp3086
(dp3087
g61
(dp3088
g69
I1
ssg70
g3082
sg63
(lp3089
S'/admin/default/edit/wp/views/layout.html'
p3090
asbasbasbasbasbasbasbag56
(g72
g58
NtRp3091
(dp3092
g61
(dp3093
sg70
g2925
sg63
(lp3094
g56
(g77
g58
NtRp3095
(dp3096
g61
(dp3097
sg70
g3091
sg63
(lp3098
g56
(g57
g58
NtRp3099
(dp3100
g61
(dp3101
g69
I2
ssg70
g3095
sg63
(lp3102
g56
(g65
g58
NtRp3103
(dp3104
g61
(dp3105
g69
I1
ssg70
Nsg63
(lp3106
g56
(g72
g58
NtRp3107
(dp3108
g61
(dp3109
sg70
g3103
sg63
(lp3110
g56
(g77
g58
NtRp3111
(dp3112
g61
(dp3113
sg70
g3107
sg63
(lp3114
g56
(g57
g58
NtRp3115
(dp3116
g61
(dp3117
g69
I1
ssg70
g3111
sg63
(lp3118
g2816
(S't\n\x00\x00\x00Stylesheet'
tRp3119
asbasbasbag56
(g72
g58
NtRp3120
(dp3121
g61
(dp3122
sg70
g3103
sg63
(lp3123
g56
(g77
g58
NtRp3124
(dp3125
g61
(dp3126
sg70
g3120
sg63
(lp3127
g56
(g57
g58
NtRp3128
(dp3129
g61
(dp3130
g69
I1
ssg70
g3124
sg63
(lp3131
I00
asbasbasbag56
(g72
g58
NtRp3132
(dp3133
g61
(dp3134
sg70
g3103
sg63
(lp3135
g56
(g77
g58
NtRp3136
(dp3137
g61
(dp3138
sg70
g3132
sg63
(lp3139
g56
(g57
g58
NtRp3140
(dp3141
g61
(dp3142
g69
I1
ssg70
g3136
sg63
(lp3143
S'/admin/default/edit/wp/static/base.css'
p3144
asbasbasbasbasbasbasbag56
(g72
g58
NtRp3145
(dp3146
g61
(dp3147
sg70
g2925
sg63
(lp3148
g56
(g77
g58
NtRp3149
(dp3150
g61
(dp3151
sg70
g3145
sg63
(lp3152
g56
(g57
g58
NtRp3153
(dp3154
g61
(dp3155
g69
I2
ssg70
g3149
sg63
(lp3156
g56
(g65
g58
NtRp3157
(dp3158
g61
(dp3159
g69
I1
ssg70
Nsg63
(lp3160
g56
(g72
g58
NtRp3161
(dp3162
g61
(dp3163
sg70
g3157
sg63
(lp3164
g56
(g77
g58
NtRp3165
(dp3166
g61
(dp3167
sg70
g3161
sg63
(lp3168
g56
(g57
g58
NtRp3169
(dp3170
g61
(dp3171
g69
I1
ssg70
g3165
sg63
(lp3172
g2816
(S's\x08\x00\x00\x00DB Model'
tRp3173
asbasbasbag56
(g72
g58
NtRp3174
(dp3175
g61
(dp3176
sg70
g3157
sg63
(lp3177
g56
(g77
g58
NtRp3178
(dp3179
g61
(dp3180
sg70
g3174
sg63
(lp3181
g56
(g57
g58
NtRp3182
(dp3183
g61
(dp3184
g69
I1
ssg70
g3178
sg63
(lp3185
I00
asbasbasbag56
(g72
g58
NtRp3186
(dp3187
g61
(dp3188
sg70
g3157
sg63
(lp3189
g56
(g77
g58
NtRp3190
(dp3191
g61
(dp3192
sg70
g3186
sg63
(lp3193
g56
(g57
g58
NtRp3194
(dp3195
g61
(dp3196
g69
I1
ssg70
g3190
sg63
(lp3197
S'/admin/default/edit/wp/models/db.py'
p3198
asbasbasbasbasbasbasbag56
(g72
g58
NtRp3199
(dp3200
g61
(dp3201
sg70
g2925
sg63
(lp3202
g56
(g77
g58
NtRp3203
(dp3204
g61
(dp3205
sg70
g3199
sg63
(lp3206
g56
(g57
g58
NtRp3207
(dp3208
g61
(dp3209
g69
I2
ssg70
g3203
sg63
(lp3210
g56
(g65
g58
NtRp3211
(dp3212
g61
(dp3213
g69
I1
ssg70
Nsg63
(lp3214
g56
(g72
g58
NtRp3215
(dp3216
g61
(dp3217
sg70
g3211
sg63
(lp3218
g56
(g77
g58
NtRp3219
(dp3220
g61
(dp3221
sg70
g3215
sg63
(lp3222
g56
(g57
g58
NtRp3223
(dp3224
g61
(dp3225
g69
I1
ssg70
g3219
sg63
(lp3226
g2816
(S's\n\x00\x00\x00Menu Model'
tRp3227
asbasbasbag56
(g72
g58
NtRp3228
(dp3229
g61
(dp3230
sg70
g3211
sg63
(lp3231
g56
(g77
g58
NtRp3232
(dp3233
g61
(dp3234
sg70
g3228
sg63
(lp3235
g56
(g57
g58
NtRp3236
(dp3237
g61
(dp3238
g69
I1
ssg70
g3232
sg63
(lp3239
I00
asbasbasbag56
(g72
g58
NtRp3240
(dp3241
g61
(dp3242
sg70
g3211
sg63
(lp3243
g56
(g77
g58
NtRp3244
(dp3245
g61
(dp3246
sg70
g3240
sg63
(lp3247
g56
(g57
g58
NtRp3248
(dp3249
g61
(dp3250
g69
I1
ssg70
g3244
sg63
(lp3251
S'/admin/default/edit/wp/models/menu.py'
p3252
asbasbasbasbasbasbasbag56
(g72
g58
NtRp3253
(dp3254
g61
(dp3255
sg70
g2925
sg63
(lp3256
g56
(g77
g58
NtRp3257
(dp3258
g61
(dp3259
sg70
g3253
sg63
(lp3260
g56
(g57
g58
NtRp3261
(dp3262
g61
(dp3263
g69
I2
ssg70
g3257
sg63
(lp3264
g56
(g65
g58
NtRp3265
(dp3266
g61
(dp3267
g69
I1
ssg70
Nsg63
(lp3268
g56
(g72
g58
NtRp3269
(dp3270
g61
(dp3271
sg70
g3265
sg63
(lp3272
g56
(g77
g58
NtRp3273
(dp3274
g61
(dp3275
sg70
g3269
sg63
(lp3276
g56
(g57
g58
NtRp3277
(dp3278
g61
(dp3279
g69
I1
ssg70
g3273
sg63
(lp3280
g2816
(S't\x08\x00\x00\x00Database'
tRp3281
asbasbasbag56
(g72
g58
NtRp3282
(dp3283
g61
(dp3284
sg70
g3265
sg63
(lp3285
g56
(g77
g58
NtRp3286
(dp3287
g61
(dp3288
sg70
g3282
sg63
(lp3289
g56
(g57
g58
NtRp3290
(dp3291
g61
(dp3292
g69
I1
ssg70
g3286
sg63
(lp3293
I00
asbasbasbag56
(g72
g58
NtRp3294
(dp3295
g61
(dp3296
sg70
g3265
sg63
(lp3297
g56
(g77
g58
NtRp3298
(dp3299
g61
(dp3300
sg70
g3294
sg63
(lp3301
g56
(g57
g58
NtRp3302
(dp3303
g61
(dp3304
g69
I1
ssg70
g3298
sg63
(lp3305
S'/wp/appadmin/index'
p3306
asbasbasbasbasbasbasbag56
(g72
g58
NtRp3307
(dp3308
g61
(dp3309
sg70
g2925
sg63
(lp3310
g56
(g77
g58
NtRp3311
(dp3312
g61
(dp3313
sg70
g3307
sg63
(lp3314
g56
(g57
g58
NtRp3315
(dp3316
g61
(dp3317
g69
I2
ssg70
g3311
sg63
(lp3318
g56
(g65
g58
NtRp3319
(dp3320
g61
(dp3321
g69
I1
ssg70
Nsg63
(lp3322
g56
(g72
g58
NtRp3323
(dp3324
g61
(dp3325
sg70
g3319
sg63
(lp3326
g56
(g77
g58
NtRp3327
(dp3328
g61
(dp3329
sg70
g3323
sg63
(lp3330
g56
(g57
g58
NtRp3331
(dp3332
g61
(dp3333
g69
I1
ssg70
g3327
sg63
(lp3334
g2816
(S't\x06\x00\x00\x00Errors'
tRp3335
asbasbasbag56
(g72
g58
NtRp3336
(dp3337
g61
(dp3338
sg70
g3319
sg63
(lp3339
g56
(g77
g58
NtRp3340
(dp3341
g61
(dp3342
sg70
g3336
sg63
(lp3343
g56
(g57
g58
NtRp3344
(dp3345
g61
(dp3346
g69
I1
ssg70
g3340
sg63
(lp3347
I00
asbasbasbag56
(g72
g58
NtRp3348
(dp3349
g61
(dp3350
sg70
g3319
sg63
(lp3351
g56
(g77
g58
NtRp3352
(dp3353
g61
(dp3354
sg70
g3348
sg63
(lp3355
g56
(g57
g58
NtRp3356
(dp3357
g61
(dp3358
g69
I1
ssg70
g3352
sg63
(lp3359
S'/admin/default/errors/wp'
p3360
asbasbasbasbasbasbasbag56
(g72
g58
NtRp3361
(dp3362
g61
(dp3363
sg70
g2925
sg63
(lp3364
g56
(g77
g58
NtRp3365
(dp3366
g61
(dp3367
sg70
g3361
sg63
(lp3368
g56
(g57
g58
NtRp3369
(dp3370
g61
(dp3371
g69
I2
ssg70
g3365
sg63
(lp3372
g56
(g65
g58
NtRp3373
(dp3374
g61
(dp3375
g69
I1
ssg70
Nsg63
(lp3376
g56
(g72
g58
NtRp3377
(dp3378
g61
(dp3379
sg70
g3373
sg63
(lp3380
g56
(g77
g58
NtRp3381
(dp3382
g61
(dp3383
sg70
g3377
sg63
(lp3384
g56
(g57
g58
NtRp3385
(dp3386
g61
(dp3387
g69
I1
ssg70
g3381
sg63
(lp3388
g2816
(S't\x05\x00\x00\x00About'
tRp3389
asbasbasbag56
(g72
g58
NtRp3390
(dp3391
g61
(dp3392
sg70
g3373
sg63
(lp3393
g56
(g77
g58
NtRp3394
(dp3395
g61
(dp3396
sg70
g3390
sg63
(lp3397
g56
(g57
g58
NtRp3398
(dp3399
g61
(dp3400
g69
I1
ssg70
g3394
sg63
(lp3401
I00
asbasbasbag56
(g72
g58
NtRp3402
(dp3403
g61
(dp3404
sg70
g3373
sg63
(lp3405
g56
(g77
g58
NtRp3406
(dp3407
g61
(dp3408
sg70
g3402
sg63
(lp3409
g56
(g57
g58
NtRp3410
(dp3411
g61
(dp3412
g69
I1
ssg70
g3406
sg63
(lp3413
S'/admin/default/about/wp'
p3414
asbasbasbasbasbasbasbasbasbasbasbasbasbasbasbag56
(g72
g58
NtRp3415
(dp3416
g61
(dp3417
sg70
g2784
sg63
(lp3418
g56
(g77
g58
NtRp3419
(dp3420
g61
(dp3421
sg70
g3415
sg63
(lp3422
g56
(g57
g58
NtRp3423
(dp3424
g61
(dp3425
g69
I4
ssg70
g3419
sg63
(lp3426
g56
(g65
g58
NtRp3427
(dp3428
g61
(dp3429
g69
I3
ssg70
Nsg63
(lp3430
g56
(g72
g58
NtRp3431
(dp3432
g61
(dp3433
sg70
g3427
sg63
(lp3434
g56
(g77
g58
NtRp3435
(dp3436
g61
(dp3437
sg70
g3431
sg63
(lp3438
g56
(g57
g58
NtRp3439
(dp3440
g61
(dp3441
g69
I3
ssg70
g3435
sg63
(lp3442
g2816
(S't\t\x00\x00\x00Resources'
tRp3443
asbasbasbag56
(g72
g58
NtRp3444
(dp3445
g61
(dp3446
sg70
g3427
sg63
(lp3447
g56
(g77
g58
NtRp3448
(dp3449
g61
(dp3450
sg70
g3444
sg63
(lp3451
g56
(g57
g58
NtRp3452
(dp3453
g61
(dp3454
g69
I3
ssg70
g3448
sg63
(lp3455
g99
asbasbasbag56
(g72
g58
NtRp3456
(dp3457
g61
(dp3458
sg70
g3427
sg63
(lp3459
g56
(g77
g58
NtRp3460
(dp3461
g61
(dp3462
sg70
g3456
sg63
(lp3463
g56
(g57
g58
NtRp3464
(dp3465
g61
(dp3466
g69
I3
ssg70
g3460
sg63
(lp3467
S'None'
p3468
asbasbasbag56
(g72
g58
NtRp3469
(dp3470
g61
(dp3471
sg70
g3427
sg63
(lp3472
g56
(g77
g58
NtRp3473
(dp3474
g61
(dp3475
sg70
g3469
sg63
(lp3476
g56
(g57
g58
NtRp3477
(dp3478
g61
(dp3479
g69
I3
ssg70
g3473
sg63
(lp3480
g56
(g65
g58
NtRp3481
(dp3482
g61
(dp3483
g69
I2
ssg70
Nsg63
(lp3484
g56
(g72
g58
NtRp3485
(dp3486
g61
(dp3487
sg70
g3481
sg63
(lp3488
g56
(g77
g58
NtRp3489
(dp3490
g61
(dp3491
sg70
g3485
sg63
(lp3492
g56
(g57
g58
NtRp3493
(dp3494
g61
(dp3495
g69
I2
ssg70
g3489
sg63
(lp3496
g56
(g65
g58
NtRp3497
(dp3498
g61
(dp3499
g69
I1
ssg70
Nsg63
(lp3500
g56
(g72
g58
NtRp3501
(dp3502
g61
(dp3503
sg70
g3497
sg63
(lp3504
g56
(g77
g58
NtRp3505
(dp3506
g61
(dp3507
sg70
g3501
sg63
(lp3508
g56
(g57
g58
NtRp3509
(dp3510
g61
(dp3511
g69
I1
ssg70
g3505
sg63
(lp3512
g2816
(S't\r\x00\x00\x00Documentation'
tRp3513
asbasbasbag56
(g72
g58
NtRp3514
(dp3515
g61
(dp3516
sg70
g3497
sg63
(lp3517
g56
(g77
g58
NtRp3518
(dp3519
g61
(dp3520
sg70
g3514
sg63
(lp3521
g56
(g57
g58
NtRp3522
(dp3523
g61
(dp3524
g69
I1
ssg70
g3518
sg63
(lp3525
I00
asbasbasbag56
(g72
g58
NtRp3526
(dp3527
g61
(dp3528
sg70
g3497
sg63
(lp3529
g56
(g77
g58
NtRp3530
(dp3531
g61
(dp3532
sg70
g3526
sg63
(lp3533
g56
(g57
g58
NtRp3534
(dp3535
g61
(dp3536
g69
I1
ssg70
g3530
sg63
(lp3537
S'http://www.web2py.com/book'
p3538
asbasbasbag56
(g72
g58
NtRp3539
(dp3540
g61
(dp3541
sg70
g3497
sg63
(lp3542
g56
(g77
g58
NtRp3543
(dp3544
g61
(dp3545
sg70
g3539
sg63
(lp3546
g56
(g57
g58
NtRp3547
(dp3548
g61
(dp3549
g69
I1
ssg70
g3543
sg63
(lp3550
(lp3551
(g2816
(S't\x07\x00\x00\x00Preface'
tRp3552
I00
S'http://www.web2py.com/book/default/chapter/00'
p3553
tp3554
a(g2816
(S't\x0c\x00\x00\x00Introduction'
tRp3555
I00
S'http://www.web2py.com/book/default/chapter/01'
p3556
tp3557
a(g2816
(S't\x06\x00\x00\x00Python'
tRp3558
I00
S'http://www.web2py.com/book/default/chapter/02'
p3559
tp3560
a(g2816
(S't\x08\x00\x00\x00Overview'
tRp3561
I00
S'http://www.web2py.com/book/default/chapter/03'
p3562
tp3563
a(g2816
(S's\x08\x00\x00\x00The Core'
tRp3564
I00
S'http://www.web2py.com/book/default/chapter/04'
p3565
tp3566
a(g2816
(S's\t\x00\x00\x00The Views'
tRp3567
I00
S'http://www.web2py.com/book/default/chapter/05'
p3568
tp3569
a(g2816
(S't\x08\x00\x00\x00Database'
tRp3570
I00
S'http://www.web2py.com/book/default/chapter/06'
p3571
tp3572
a(g2816
(S's\x14\x00\x00\x00Forms and Validators'
tRp3573
I00
S'http://www.web2py.com/book/default/chapter/07'
p3574
tp3575
a(g2816
(S's\x0e\x00\x00\x00Access Control'
tRp3576
I00
S'http://www.web2py.com/book/default/chapter/08'
p3577
tp3578
a(g2816
(S't\x08\x00\x00\x00Services'
tRp3579
I00
S'http://www.web2py.com/book/default/chapter/09'
p3580
tp3581
a(g2816
(S's\x0c\x00\x00\x00Ajax Recipes'
tRp3582
I00
S'http://www.web2py.com/book/default/chapter/10'
p3583
tp3584
a(g2816
(S's\x12\x00\x00\x00Deployment Recipes'
tRp3585
I00
S'http://www.web2py.com/book/default/chapter/11'
p3586
tp3587
a(g2816
(S's\r\x00\x00\x00Other Recipes'
tRp3588
I00
S'http://www.web2py.com/book/default/chapter/12'
p3589
tp3590
a(g2816
(S's\r\x00\x00\x00Buy this book'
tRp3591
I00
S'http://stores.lulu.com/web2py'
p3592
tp3593
aasbasbasbasbasbasbasbag56
(g72
g58
NtRp3594
(dp3595
g61
(dp3596
sg70
g3481
sg63
(lp3597
g56
(g77
g58
NtRp3598
(dp3599
g61
(dp3600
sg70
g3594
sg63
(lp3601
g56
(g57
g58
NtRp3602
(dp3603
g61
(dp3604
g69
I2
ssg70
g3598
sg63
(lp3605
g56
(g65
g58
NtRp3606
(dp3607
g61
(dp3608
g69
I1
ssg70
Nsg63
(lp3609
g56
(g72
g58
NtRp3610
(dp3611
g61
(dp3612
sg70
g3606
sg63
(lp3613
g56
(g77
g58
NtRp3614
(dp3615
g61
(dp3616
sg70
g3610
sg63
(lp3617
g56
(g57
g58
NtRp3618
(dp3619
g61
(dp3620
g69
I1
ssg70
g3614
sg63
(lp3621
g2816
(S't\t\x00\x00\x00Community'
tRp3622
asbasbasbag56
(g72
g58
NtRp3623
(dp3624
g61
(dp3625
sg70
g3606
sg63
(lp3626
g56
(g77
g58
NtRp3627
(dp3628
g61
(dp3629
sg70
g3623
sg63
(lp3630
g56
(g57
g58
NtRp3631
(dp3632
g61
(dp3633
g69
I1
ssg70
g3627
sg63
(lp3634
I00
asbasbasbag56
(g72
g58
NtRp3635
(dp3636
g61
(dp3637
sg70
g3606
sg63
(lp3638
g56
(g77
g58
NtRp3639
(dp3640
g61
(dp3641
sg70
g3635
sg63
(lp3642
g56
(g57
g58
NtRp3643
(dp3644
g61
(dp3645
g69
I1
ssg70
g3639
sg63
(lp3646
Nasbasbasbag56
(g72
g58
NtRp3647
(dp3648
g61
(dp3649
sg70
g3606
sg63
(lp3650
g56
(g77
g58
NtRp3651
(dp3652
g61
(dp3653
sg70
g3647
sg63
(lp3654
g56
(g57
g58
NtRp3655
(dp3656
g61
(dp3657
g69
I1
ssg70
g3651
sg63
(lp3658
(lp3659
(g2816
(S't\x06\x00\x00\x00Groups'
tRp3660
I00
S'http://www.web2py.com/examples/default/usergroups'
p3661
tp3662
a(g2816
(S't\x07\x00\x00\x00Twitter'
tRp3663
I00
S'http://twitter.com/web2py'
p3664
tp3665
a(g2816
(S's\t\x00\x00\x00Live chat'
tRp3666
I00
S'http://mibbit.com/?channel=%23web2py&server=irc.mibbit.net'
p3667
tp3668
a(g2816
(S's\n\x00\x00\x00User Voice'
tRp3669
I00
S'http://web2py.uservoice.com/'
p3670
tp3671
aasbasbasbasbasbasbasbag56
(g72
g58
NtRp3672
(dp3673
g61
(dp3674
sg70
g3481
sg63
(lp3675
g56
(g77
g58
NtRp3676
(dp3677
g61
(dp3678
sg70
g3672
sg63
(lp3679
g56
(g57
g58
NtRp3680
(dp3681
g61
(dp3682
g69
I2
ssg70
g3676
sg63
(lp3683
g56
(g65
g58
NtRp3684
(dp3685
g61
(dp3686
g69
I1
ssg70
Nsg63
(lp3687
g56
(g72
g58
NtRp3688
(dp3689
g61
(dp3690
sg70
g3684
sg63
(lp3691
g56
(g77
g58
NtRp3692
(dp3693
g61
(dp3694
sg70
g3688
sg63
(lp3695
g56
(g57
g58
NtRp3696
(dp3697
g61
(dp3698
g69
I1
ssg70
g3692
sg63
(lp3699
g2816
(S't\x06\x00\x00\x00Web2py'
tRp3700
asbasbasbag56
(g72
g58
NtRp3701
(dp3702
g61
(dp3703
sg70
g3684
sg63
(lp3704
g56
(g77
g58
NtRp3705
(dp3706
g61
(dp3707
sg70
g3701
sg63
(lp3708
g56
(g57
g58
NtRp3709
(dp3710
g61
(dp3711
g69
I1
ssg70
g3705
sg63
(lp3712
I00
asbasbasbag56
(g72
g58
NtRp3713
(dp3714
g61
(dp3715
sg70
g3684
sg63
(lp3716
g56
(g77
g58
NtRp3717
(dp3718
g61
(dp3719
sg70
g3713
sg63
(lp3720
g56
(g57
g58
NtRp3721
(dp3722
g61
(dp3723
g69
I1
ssg70
g3717
sg63
(lp3724
S'http://www.web2py.com'
p3725
asbasbasbag56
(g72
g58
NtRp3726
(dp3727
g61
(dp3728
sg70
g3684
sg63
(lp3729
g56
(g77
g58
NtRp3730
(dp3731
g61
(dp3732
sg70
g3726
sg63
(lp3733
g56
(g57
g58
NtRp3734
(dp3735
g61
(dp3736
g69
I1
ssg70
g3730
sg63
(lp3737
(lp3738
(g2816
(S't\x08\x00\x00\x00Download'
tRp3739
I00
S'http://www.web2py.com/examples/default/download'
p3740
tp3741
a(g2816
(S't\x07\x00\x00\x00Support'
tRp3742
I00
S'http://www.web2py.com/examples/default/support'
p3743
tp3744
a(g2816
(S's\x0e\x00\x00\x00Quick Examples'
tRp3745
I00
S'http://web2py.com/examples/default/examples'
p3746
tp3747
a(g2816
(S't\x03\x00\x00\x00FAQ'
tRp3748
I00
S'http://web2py.com/AlterEgo'
p3749
tp3750
a(g2816
(S's\x11\x00\x00\x00Free Applications'
tRp3751
I00
S'http://web2py.com/appliances'
p3752
tp3753
a(g2816
(S't\x07\x00\x00\x00Plugins'
tRp3754
I00
S'http://web2py.com/plugins'
p3755
tp3756
a(g2816
(S't\x07\x00\x00\x00Recipes'
tRp3757
I00
S'http://web2pyslices.com/'
p3758
tp3759
a(g2816
(S't\x04\x00\x00\x00Demo'
tRp3760
I00
S'http://web2py.com/demo_admin'
p3761
tp3762
a(g2816
(S't\x08\x00\x00\x00Semantic'
tRp3763
I00
S'http://web2py.com/semantic'
p3764
tp3765
a(g2816
(S't\x07\x00\x00\x00Layouts'
tRp3766
I00
S'http://web2py.com/layouts'
p3767
tp3768
a(g2816
(S't\x06\x00\x00\x00Videos'
tRp3769
I00
S'http://www.web2py.com/examples/default/videos/'
p3770
tp3771
aasbasbasbasbasbasbasbasbasbasbasbasbasbasbasbasbasbasbasbag56
(g72
g58
NtRp3772
(dp3773
g61
(dp3774
sg70
g2256
sg63
(lp3775
g56
(g77
g58
NtRp3776
(dp3777
g61
(dp3778
g81
g82
ssg70
g3772
sg63
(lp3779
S'meta'
p3780
asbag56
(g77
g58
NtRp3781
(dp3782
g61
(dp3783
g88
g89
ssg70
g3772
sg63
(lp3784
S':'
asbag56
(g77
g58
NtRp3785
(dp3786
g61
(dp3787
sg70
g3772
sg63
(lp3788
g56
(g57
g58
NtRp3789
(dp3790
g61
(dp3791
g69
I5
ssg70
g3785
sg63
(lp3792
g56
(g65
g58
NtRp3793
(dp3794
g61
(dp3795
g69
I4
ssg70
Nsg63
(lp3796
g56
(g72
g58
NtRp3797
(dp3798
g61
(dp3799
sg70
g3793
sg63
(lp3800
g56
(g77
g58
NtRp3801
(dp3802
g61
(dp3803
g81
g82
ssg70
g3797
sg63
(lp3804
S'author'
p3805
asbag56
(g77
g58
NtRp3806
(dp3807
g61
(dp3808
g88
g89
ssg70
g3797
sg63
(lp3809
S':'
asbag56
(g77
g58
NtRp3810
(dp3811
g61
(dp3812
sg70
g3797
sg63
(lp3813
g56
(g57
g58
NtRp3814
(dp3815
g61
(dp3816
g69
I4
ssg70
g3810
sg63
(lp3817
S'you'
p3818
asbasbasbag56
(g72
g58
NtRp3819
(dp3820
g61
(dp3821
sg70
g3793
sg63
(lp3822
g56
(g77
g58
NtRp3823
(dp3824
g61
(dp3825
g81
g82
ssg70
g3819
sg63
(lp3826
S'copyright'
p3827
asbag56
(g77
g58
NtRp3828
(dp3829
g61
(dp3830
g88
g89
ssg70
g3819
sg63
(lp3831
S':'
asbag56
(g77
g58
NtRp3832
(dp3833
g61
(dp3834
sg70
g3819
sg63
(lp3835
g56
(g57
g58
NtRp3836
(dp3837
g61
(dp3838
g69
I4
ssg70
g3832
sg63
(lp3839
S'Copyright 2007-2010'
p3840
asbasbasbag56
(g72
g58
NtRp3841
(dp3842
g61
(dp3843
sg70
g3793
sg63
(lp3844
g56
(g77
g58
NtRp3845
(dp3846
g61
(dp3847
g81
g82
ssg70
g3841
sg63
(lp3848
S'description'
p3849
asbag56
(g77
g58
NtRp3850
(dp3851
g61
(dp3852
g88
g89
ssg70
g3841
sg63
(lp3853
S':'
asbag56
(g77
g58
NtRp3854
(dp3855
g61
(dp3856
sg70
g3841
sg63
(lp3857
g56
(g57
g58
NtRp3858
(dp3859
g61
(dp3860
g69
I4
ssg70
g3854
sg63
(lp3861
S'Free and open source full-stack enterprise framework for agile development of fast, scalable, secure and portable database-driven web-based applications. Written and programmable in Python'
p3862
asbasbasbag56
(g72
g58
NtRp3863
(dp3864
g61
(dp3865
sg70
g3793
sg63
(lp3866
g56
(g77
g58
NtRp3867
(dp3868
g61
(dp3869
g81
g82
ssg70
g3863
sg63
(lp3870
S'generator'
p3871
asbag56
(g77
g58
NtRp3872
(dp3873
g61
(dp3874
g88
g89
ssg70
g3863
sg63
(lp3875
S':'
asbag56
(g77
g58
NtRp3876
(dp3877
g61
(dp3878
sg70
g3863
sg63
(lp3879
g56
(g57
g58
NtRp3880
(dp3881
g61
(dp3882
g69
I4
ssg70
g3876
sg63
(lp3883
S'Web2py Enterprise Framework'
p3884
asbasbasbag56
(g72
g58
NtRp3885
(dp3886
g61
(dp3887
sg70
g3793
sg63
(lp3888
g56
(g77
g58
NtRp3889
(dp3890
g61
(dp3891
g81
g82
ssg70
g3885
sg63
(lp3892
S'keywords'
p3893
asbag56
(g77
g58
NtRp3894
(dp3895
g61
(dp3896
g88
g89
ssg70
g3885
sg63
(lp3897
S':'
asbag56
(g77
g58
NtRp3898
(dp3899
g61
(dp3900
sg70
g3885
sg63
(lp3901
g56
(g57
g58
NtRp3902
(dp3903
g61
(dp3904
g69
I4
ssg70
g3898
sg63
(lp3905
S'web2py, python, framework'
p3906
asbasbasbasbasbasbasbag56
(g72
g58
NtRp3907
(dp3908
g61
(dp3909
sg70
g2256
sg63
(lp3910
g56
(g77
g58
NtRp3911
(dp3912
g61
(dp3913
g81
g82
ssg70
g3907
sg63
(lp3914
S'postprocessing'
p3915
asbag56
(g77
g58
NtRp3916
(dp3917
g61
(dp3918
g88
g89
ssg70
g3907
sg63
(lp3919
S':'
asbag56
(g77
g58
NtRp3920
(dp3921
g61
(dp3922
sg70
g3907
sg63
(lp3923
g56
(g57
g58
NtRp3924
(dp3925
g61
(dp3926
g69
I5
ssg70
g3920
sg63
(lp3927
g56
(g65
g58
NtRp3928
(dp3929
g61
(dp3930
g69
I4
ssg70
Nsg63
(lp3931
sbasbasbasbag56
(g72
g58
NtRp3932
(dp3933
g61
(dp3934
sg70
g2256
sg63
(lp3935
g56
(g77
g58
NtRp3936
(dp3937
g61
(dp3938
g81
g82
ssg70
g3932
sg63
(lp3939
S'session_filename'
p3940
asbag56
(g77
g58
NtRp3941
(dp3942
g61
(dp3943
g88
g89
ssg70
g3932
sg63
(lp3944
S':'
asbag56
(g77
g58
NtRp3945
(dp3946
g61
(dp3947
sg70
g3932
sg63
(lp3948
g56
(g57
g58
NtRp3949
(dp3950
g61
(dp3951
g69
I5
ssg70
g3945
sg63
(lp3952
S'/Users/schultzc/workspace/wherespuppet/web2py/applications/wp/sessions/127.0.0.1-1e00cb88-7ecf-4d6d-8c01-391ec0341a1d'
p3953
asbasbasbag56
(g72
g58
NtRp3954
(dp3955
g61
(dp3956
sg70
g2256
sg63
(lp3957
g56
(g77
g58
NtRp3958
(dp3959
g61
(dp3960
g81
g82
ssg70
g3954
sg63
(lp3961
S'session_id'
p3962
asbag56
(g77
g58
NtRp3963
(dp3964
g61
(dp3965
g88
g89
ssg70
g3954
sg63
(lp3966
S':'
asbag56
(g77
g58
NtRp3967
(dp3968
g61
(dp3969
sg70
g3954
sg63
(lp3970
g56
(g57
g58
NtRp3971
(dp3972
g61
(dp3973
g69
I5
ssg70
g3967
sg63
(lp3974
S'127.0.0.1-1e00cb88-7ecf-4d6d-8c01-391ec0341a1d'
p3975
asbasbasbag56
(g72
g58
NtRp3976
(dp3977
g61
(dp3978
sg70
g2256
sg63
(lp3979
g56
(g77
g58
NtRp3980
(dp3981
g61
(dp3982
g81
g82
ssg70
g3976
sg63
(lp3983
S'session_id_name'
p3984
asbag56
(g77
g58
NtRp3985
(dp3986
g61
(dp3987
g88
g89
ssg70
g3976
sg63
(lp3988
S':'
asbag56
(g77
g58
NtRp3989
(dp3990
g61
(dp3991
sg70
g3976
sg63
(lp3992
g56
(g57
g58
NtRp3993
(dp3994
g61
(dp3995
g69
I5
ssg70
g3989
sg63
(lp3996
g2313
asbasbasbag56
(g72
g58
NtRp3997
(dp3998
g61
(dp3999
sg70
g2256
sg63
(lp4000
g56
(g77
g58
NtRp4001
(dp4002
g61
(dp4003
g81
g82
ssg70
g3997
sg63
(lp4004
S'session_new'
p4005
asbag56
(g77
g58
NtRp4006
(dp4007
g61
(dp4008
g88
g89
ssg70
g3997
sg63
(lp4009
S':'
asbag56
(g77
g58
NtRp4010
(dp4011
g61
(dp4012
sg70
g3997
sg63
(lp4013
g56
(g57
g58
NtRp4014
(dp4015
g61
(dp4016
g69
I5
ssg70
g4010
sg63
(lp4017
g1199
asbasbasbag56
(g72
g58
NtRp4018
(dp4019
g61
(dp4020
sg70
g2256
sg63
(lp4021
g56
(g77
g58
NtRp4022
(dp4023
g61
(dp4024
g81
g82
ssg70
g4018
sg63
(lp4025
S'status'
p4026
asbag56
(g77
g58
NtRp4027
(dp4028
g61
(dp4029
g88
g89
ssg70
g4018
sg63
(lp4030
S':'
asbag56
(g77
g58
NtRp4031
(dp4032
g61
(dp4033
sg70
g4018
sg63
(lp4034
g56
(g57
g58
NtRp4035
(dp4036
g61
(dp4037
g69
I5
ssg70
g4031
sg63
(lp4038
S'200'
p4039
asbasbasbag56
(g72
g58
NtRp4040
(dp4041
g61
(dp4042
sg70
g2256
sg63
(lp4043
g56
(g77
g58
NtRp4044
(dp4045
g61
(dp4046
g81
g82
ssg70
g4040
sg63
(lp4047
S'subtitle'
p4048
asbag56
(g77
g58
NtRp4049
(dp4050
g61
(dp4051
g88
g89
ssg70
g4040
sg63
(lp4052
S':'
asbag56
(g77
g58
NtRp4053
(dp4054
g61
(dp4055
sg70
g4040
sg63
(lp4056
g56
(g57
g58
NtRp4057
(dp4058
g61
(dp4059
g69
I5
ssg70
g4053
sg63
(lp4060
g2816
(S's\r\x00\x00\x00customize me!'
tRp4061
asbasbasbag56
(g72
g58
NtRp4062
(dp4063
g61
(dp4064
sg70
g2256
sg63
(lp4065
g56
(g77
g58
NtRp4066
(dp4067
g61
(dp4068
g81
g82
ssg70
g4062
sg63
(lp4069
S'title'
p4070
asbag56
(g77
g58
NtRp4071
(dp4072
g61
(dp4073
g88
g89
ssg70
g4062
sg63
(lp4074
S':'
asbag56
(g77
g58
NtRp4075
(dp4076
g61
(dp4077
sg70
g4062
sg63
(lp4078
g56
(g57
g58
NtRp4079
(dp4080
g61
(dp4081
g69
I5
ssg70
g4075
sg63
(lp4082
g121
asbasbasbag56
(g72
g58
NtRp4083
(dp4084
g61
(dp4085
sg70
g2256
sg63
(lp4086
g56
(g77
g58
NtRp4087
(dp4088
g61
(dp4089
g81
g82
ssg70
g4083
sg63
(lp4090
g1523
asbag56
(g77
g58
NtRp4091
(dp4092
g61
(dp4093
g88
g89
ssg70
g4083
sg63
(lp4094
S':'
asbag56
(g77
g58
NtRp4095
(dp4096
g61
(dp4097
sg70
g4083
sg63
(lp4098
g56
(g57
g58
NtRp4099
(dp4100
g61
(dp4101
g69
I5
ssg70
g4095
sg63
(lp4102
g1536
asbasbasbag56
(g72
g58
NtRp4103
(dp4104
g61
(dp4105
sg70
g2256
sg63
(lp4106
g56
(g77
g58
NtRp4107
(dp4108
g61
(dp4109
g81
g82
ssg70
g4103
sg63
(lp4110
S'view'
p4111
asbag56
(g77
g58
NtRp4112
(dp4113
g61
(dp4114
g88
g89
ssg70
g4103
sg63
(lp4115
S':'
asbag56
(g77
g58
NtRp4116
(dp4117
g61
(dp4118
sg70
g4103
sg63
(lp4119
g56
(g57
g58
NtRp4120
(dp4121
g61
(dp4122
g69
I5
ssg70
g4116
sg63
(lp4123
S'default/submit.html'
p4124
asbasbasbasbasbsS'locals'
p4125
(dp4126
S'OBJECT'
p4127
S"<class 'gluon.html.OBJECT'>"
p4128
sS'_file'
p4129
S"'/wp/static/js/jquery.cookie.js'"
p4130
sS'SQLDB'
p4131
S"<class 'gluon.dal.DAL'>"
p4132
sg2238
S"<Storage {'_formkey[image/create]': 'bca7c250-f5...\\xc8[\\xd5\\xc1#\\xd8e\\x10\\xe3\\x06\\x0ba\\xddT\\x92m'}>"
p4133
sS'LINK'
p4134
S"<class 'gluon.html.LINK'>"
p4135
sS'BR'
p4136
S"<class 'gluon.html.BR'>"
p4137
sS'local_import'
p4138
S'<function <lambda>>'
p4139
sS'OPTGROUP'
p4140
S"<class 'gluon.html.OPTGROUP'>"
p4141
sS'PRE'
p4142
S"<class 'gluon.html.PRE'>"
p4143
sS'IS_INT_IN_RANGE'
p4144
S"<class 'gluon.validators.IS_INT_IN_RANGE'>"
p4145
sS'left_sidebar_enabled'
p4146
g99
sS'IS_LOWER'
p4147
S"<class 'gluon.validators.IS_LOWER'>"
p4148
sS'IS_STRONG'
p4149
S"<class 'gluon.validators.IS_STRONG'>"
p4150
sS'cache'
p4151
S'<gluon.cache.Cache object>'
p4152
sS'IS_IN_DB'
p4153
S"<class 'gluon.validators.IS_IN_DB'>"
p4154
sS'TAG'
p4155
S'<gluon.html.__TAG__ object>'
p4156
sS'_k'
p4157
S'6'
sS'SQLField'
p4158
S"<class 'gluon.dal.Field'>"
p4159
sS'BODY'
p4160
S"<class 'gluon.html.BODY'>"
p4161
sS'IS_DATE_IN_RANGE'
p4162
S"<class 'gluon.validators.IS_DATE_IN_RANGE'>"
p4163
sS'TH'
p4164
S"<class 'gluon.html.TH'>"
p4165
sS'URL'
p4166
S'<function URL>'
p4167
sS'__file__'
p4168
S"'/Users/schultzc/workspace/wherespuppet/web2py/applications/wp/views/default/submit.html'"
p4169
sS'db'
p4170
S"<DAL {'_migrate_enabled': True, '_lastsql': '', ...'_uri_hash': 'fb87181b96a99be45f5a23f4277867ce'}>"
p4171
sS'P'
S"<class 'gluon.html.P'>"
p4172
sS'TFOOT'
p4173
S"<class 'gluon.html.TFOOT'>"
p4174
sS'XHTML'
p4175
S"<class 'gluon.html.XHTML'>"
p4176
sS'ON'
p4177
g1199
sS'OL'
p4178
S"<class 'gluon.html.OL'>"
p4179
sS'TEXTAREA'
p4180
S"<class 'gluon.html.TEXTAREA'>"
p4181
sS'MENU'
p4182
S"<class 'gluon.html.MENU'>"
p4183
sS'_file0'
p4184
S"'/wp/static/js/jquery.cookie.js'"
p4185
sS'LOAD'
p4186
S'<gluon.compileapp.LoadFactory object>'
p4187
sS'CODE'
p4188
S"<class 'gluon.html.CODE'>"
p4189
sS'HTTP'
p4190
S"<class 'gluon.http.HTTP'>"
p4191
sS'HR'
p4192
S"<class 'gluon.html.HR'>"
p4193
sS'IS_DATETIME'
p4194
S"<class 'gluon.validators.IS_DATETIME'>"
p4195
sS'HEAD'
p4196
S"<class 'gluon.html.HEAD'>"
p4197
sS'LABEL'
p4198
S"<class 'gluon.html.LABEL'>"
p4199
sS'CLEANUP'
p4200
S"<class 'gluon.validators.CLEANUP'>"
p4201
sS'SELECT'
p4202
S"<class 'gluon.html.SELECT'>"
p4203
sS'CENTER'
p4204
S"<class 'gluon.html.CENTER'>"
p4205
sS'left_sidebar_style'
p4206
S'\'style="display: none;"\''
p4207
sS'__builtins__'
p4208
S"{'ArithmeticError': <type 'exceptions.ArithmeticError'>, 'AssertionError': <type 'exceptions.AssertionError'>, 'AttributeError': <type 'exceptions.AttributeError'>, 'BaseException': <type 'exceptions.BaseException'>, 'BufferError': <type 'exceptions.BufferError'>, 'BytesWarning': <type 'exceptions.BytesWarning'>, 'DeprecationWarning': <type 'exceptions.DeprecationWarning'>, 'EOFError': <type 'exceptions.EOFError'>, 'Ellipsis': Ellipsis, 'EnvironmentError': <type 'exceptions.EnvironmentError'>, ...}"
p4209
sS'IS_LIST_OF'
p4210
S"<class 'gluon.validators.IS_LIST_OF'>"
p4211
sS'SQLFORM'
p4212
S"<class 'gluon.sqlhtml.SQLFORM'>"
p4213
sS'_item'
p4214
S"'author'"
p4215
sS'EM'
p4216
S"<class 'gluon.html.EM'>"
p4217
sS'redirect'
p4218
S'<function redirect>'
p4219
sS'FIELDSET'
p4220
S"<class 'gluon.html.FIELDSET'>"
p4221
sS'IS_EQUAL_TO'
p4222
S"<class 'gluon.validators.IS_EQUAL_TO'>"
p4223
sS'embed64'
p4224
S'<function embed64>'
p4225
sS'INPUT'
p4226
S"<class 'gluon.html.INPUT'>"
p4227
sS'EMBED'
p4228
S"<class 'gluon.html.EMBED'>"
p4229
sS'FORM'
p4230
S"<class 'gluon.html.FORM'>"
p4231
sS'width_content'
p4232
S"'100%'"
p4233
sS'H2'
p4234
S"<class 'gluon.html.H2'>"
p4235
sS'H3'
p4236
S"<class 'gluon.html.H3'>"
p4237
sS'BUTTON'
p4238
S"<class 'gluon.html.BUTTON'>"
p4239
sS'H1'
p4240
S"<class 'gluon.html.H1'>"
p4241
sS'H6'
p4242
S"<class 'gluon.html.H6'>"
p4243
sS'H4'
p4244
S"<class 'gluon.html.H4'>"
p4245
sS'H5'
p4246
S"<class 'gluon.html.H5'>"
p4247
sS'UL'
p4248
S"<class 'gluon.html.UL'>"
p4249
sS'IS_UPPER'
p4250
S"<class 'gluon.validators.IS_UPPER'>"
p4251
sS'xmlescape'
p4252
S'<function xmlescape>'
p4253
sS'IS_TIME'
p4254
S"<class 'gluon.validators.IS_TIME'>"
p4255
sS'OPTION'
p4256
S"<class 'gluon.html.OPTION'>"
p4257
sS'TITLE'
p4258
S"<class 'gluon.html.TITLE'>"
p4259
sS'CRYPT'
p4260
S"<class 'gluon.validators.CRYPT'>"
p4261
sS'IS_EMPTY_OR'
p4262
S"<class 'gluon.validators.IS_EMPTY_OR'>"
p4263
sS'MARKMIN'
p4264
S"<class 'gluon.html.MARKMIN'>"
p4265
sS'SCRIPT'
p4266
S"<class 'gluon.html.SCRIPT'>"
p4267
sS'TABLE'
p4268
S"<class 'gluon.html.TABLE'>"
p4269
sS'IS_IPV4'
p4270
S"<class 'gluon.validators.IS_IPV4'>"
p4271
sS'IS_LENGTH'
p4272
S"<class 'gluon.validators.IS_LENGTH'>"
p4273
sS'XML'
p4274
S"<class 'gluon.html.XML'>"
p4275
sS'B'
S"<class 'gluon.html.B'>"
p4276
sS'form'
p4277
S'<gluon.sqlhtml.SQLFORM object>'
p4278
sS'SQLTABLE'
p4279
S"<class 'gluon.sqlhtml.SQLTABLE'>"
p4280
sS'IS_MATCH'
p4281
S"<class 'gluon.validators.IS_MATCH'>"
p4282
sS'IS_ALPHANUMERIC'
p4283
S"<class 'gluon.validators.IS_ALPHANUMERIC'>"
p4284
sS'SPAN'
p4285
S"<class 'gluon.html.SPAN'>"
p4286
sS'IS_SLUG'
p4287
S"<class 'gluon.validators.IS_SLUG'>"
p4288
sS'BEAUTIFY'
p4289
S"<class 'gluon.html.BEAUTIFY'>"
p4290
sS'META'
p4291
S"<class 'gluon.html.META'>"
p4292
sS'IS_DATE'
p4293
S"<class 'gluon.validators.IS_DATE'>"
p4294
sS'IS_EMAIL'
p4295
S"<class 'gluon.validators.IS_EMAIL'>"
p4296
sS'IS_NOT_EMPTY'
p4297
S"<class 'gluon.validators.IS_NOT_EMPTY'>"
p4298
sg55
S"<Storage {'is_local': True, 'function': 'submit'....12-38-44.e4373edf-6c5d-4774-8de2-833fbfd36cfd'}>"
p4299
sS'TBODY'
p4300
S"<class 'gluon.html.TBODY'>"
p4301
sS'Field'
p4302
S"<class 'gluon.dal.Field'>"
p4303
sS'DIV'
p4304
S"<class 'gluon.html.DIV'>"
p4305
sS'LEGEND'
p4306
S"<class 'gluon.html.LEGEND'>"
p4307
sS'IMG'
p4308
S"<class 'gluon.html.IMG'>"
p4309
sS'DAL'
p4310
S"<class 'gluon.dal.DAL'>"
p4311
sS'TT'
p4312
S"<class 'gluon.html.TT'>"
p4313
sS'TR'
p4314
S"<class 'gluon.html.TR'>"
p4315
sS'LI'
p4316
S"<class 'gluon.html.LI'>"
p4317
sS'right_sidebar_enabled'
p4318
g99
sS'IFRAME'
p4319
S"<class 'gluon.html.IFRAME'>"
p4320
sS'TD'
p4321
S"<class 'gluon.html.TD'>"
p4322
sS'IS_URL'
p4323
S"<class 'gluon.validators.IS_URL'>"
p4324
sS'A'
S"<class 'gluon.html.A'>"
p4325
sS'STYLE'
p4326
S"<class 'gluon.html.STYLE'>"
p4327
sS'IS_DATETIME_IN_RANGE'
p4328
S"<class 'gluon.validators.IS_DATETIME_IN_RANGE'>"
p4329
sS'HTML'
p4330
S"<class 'gluon.html.HTML'>"
p4331
sS'IS_IMAGE'
p4332
S"<class 'gluon.validators.IS_IMAGE'>"
p4333
sS'I'
S"<class 'gluon.html.I'>"
p4334
sS'right_sidebar_style'
p4335
S'\'style="display: none;"\''
p4336
sS'IS_NOT_IN_DB'
p4337
S"<class 'gluon.validators.IS_NOT_IN_DB'>"
p4338
sg2251
S"<Storage {'status': 200, 'body': <cStringIO.Stri...uery.cookie.js'], 'view': 'default/submit.html'}>"
p4339
sS'THEAD'
p4340
S"<class 'gluon.html.THEAD'>"
p4341
sS'IS_NULL_OR'
p4342
S"<class 'gluon.validators.IS_EMPTY_OR'>"
p4343
sS'IS_FLOAT_IN_RANGE'
p4344
S"<class 'gluon.validators.IS_FLOAT_IN_RANGE'>"
p4345
sS'IS_EXPR'
p4346
S"<class 'gluon.validators.IS_EXPR'>"
p4347
sS'T'
S'<gluon.languages.translator object>'
p4348
sS'IS_IN_SET'
p4349
S"<class 'gluon.validators.IS_IN_SET'>"
p4350
sS'IS_UPLOAD_FILENAME'
p4351
S"<class 'gluon.validators.IS_UPLOAD_FILENAME'>"
p4352
sS'style_content'
p4353
S'\'style="width: 100%"\''
p4354
sS'IS_DECIMAL_IN_RANGE'
p4355
S"<class 'gluon.validators.IS_DECIMAL_IN_RANGE'>"
p4356
sssS'traceback'
p4357
S'Traceback (most recent call last):\n  File "/Users/schultzc/workspace/wherespuppet/web2py/gluon/restricted.py", line 192, in restricted\n    exec ccode in environment\n  File "/Users/schultzc/workspace/wherespuppet/web2py/applications/wp/views/default/submit.html", line 105, in <module>\nNameError: name \'latitude\' is not defined\n'
p4358
s.