(dp1
S'output'
p2
S''
sS'layer'
p3
S'/Users/schultzc/workspace/wherespuppet/web2py/applications/wp/controllers/default.py'
p4
sS'code'
p5
S'# -*- coding: utf-8 -*-\n# this file is released under public domain and you can use without limitations\n\n#########################################################################\n## This is a samples controller\n## - index is the default action of any application\n## - user is required for authentication and authorization\n## - download is for downloading files uploaded in the db (does streaming)\n## - call exposes all registered services (none by default)\n#########################################################################\nimport datetime\n\n\ndef index():\n    images = db().select(db.image.ALL, orderby=db.image.title)\n    return dict(images=images)\n    \ndef submit():\n    response.cookies[\'expires\'] = 360\n    form = SQLFORM(db.image, submit_button=\'Submit Puppet\', _id = "submission",formstyle="divs")\n    if request.cookies.has_key(\'posLat\') and request.cookies.has_key(\'posLon\'):\n        latitude = request.cookies[\'posLat\'].value\n        longitude = request.cookies[\'posLon\'].value\n        ##insert geolocate data to db here: \n    else:\n        latitude = 0\n        longitude = 0\n    if form.accepts(request.vars, session):\n        response.flash = \'form accepted\'\n    elif form.errors:\n        response.flash = \'form has errors\'\n    else:\n        response.flash = \'please fill out the form\'\n\n    return dict(form=form, latitude=latitude, longitude=longitude)\n   \ndef show():\n    image = db(db.image.id==request.args(0)).select().first()\n    form = SQLFORM(db.comment)\n    form.vars.image_id = image.id\n    if form.accepts(request.vars, session):\n        response.flash = \'your comment is posted\'\n    comments = db(db.comment.image_id==image.id).select()\n    return dict(image=image, comments=comments, form=form)\n\ndef user():\n    """\n    exposes:\n    http://..../[app]/default/user/login\n    http://..../[app]/default/user/logout\n    http://..../[app]/default/user/register\n    http://..../[app]/default/user/profile\n    http://..../[app]/default/user/retrieve_password\n    http://..../[app]/default/user/change_password\n    use @auth.requires_login()\n        @auth.requires_membership(\'group name\')\n        @auth.requires_permission(\'read\',\'table name\',record_id)\n    to decorate functions that need access control\n    """\n    return dict(form=auth())\n\n\ndef download():\n    """\n    allows downloading of uploaded files\n    http://..../[app]/default/download/[filename]\n    """\n    return response.download(request,db)\n\n\ndef call():\n    """\n    exposes services. for example:\n    http://..../[app]/default/call/jsonrpc\n    decorate with @services.jsonrpc the functions to expose\n    supports xml, json, xmlrpc, jsonrpc, amfrpc, rss, csv\n    """\n    return service()\n\n\'\'\'\n@auth.requires_signature()\ndef data():\n    """\n    http://..../[app]/default/data/tables\n    http://..../[app]/default/data/create/[table]\n    http://..../[app]/default/data/read/[table]/[id]\n    http://..../[app]/default/data/update/[table]/[id]\n    http://..../[app]/default/data/delete/[table]/[id[\n    http://..../[app]/default/data/select/[table]\n    http://..../[app]/default/data/search/[table]\n    but URLs bust be signed, i.e. linked with\n      A(\'table\',_href=URL(\'data/tables\',user_signature=True))\n    or with the signed load operator\n      LOAD(\'default\',\'data.load\',args=\'tables\',ajax=True,user_signature=True)\n    """\n    return dict(form=crud())\n\'\'\'\n\nresponse._vars=response._caller(submit)\n'
p6
sS'snapshot'
p7
(dp8
S'exception'
p9
(dp10
S'__module__'
p11
S"'Cookie'"
p12
sS'__getslice__'
p13
S"<method-wrapper '__getslice__' of CookieError object>"
p14
sS'__str__'
p15
S"<method-wrapper '__str__' of CookieError object>"
p16
sS'__reduce__'
p17
S'<built-in method __reduce__ of CookieError object>'
p18
sS'__dict__'
p19
S'{}'
p20
sS'__sizeof__'
p21
S'<built-in method __sizeof__ of CookieError object>'
p22
sS'__weakref__'
p23
S'None'
p24
sS'__init__'
p25
S"<method-wrapper '__init__' of CookieError object>"
p26
sS'__setattr__'
p27
S"<method-wrapper '__setattr__' of CookieError object>"
p28
sS'__reduce_ex__'
p29
S'<built-in method __reduce_ex__ of CookieError object>'
p30
sS'__new__'
p31
S'<built-in method __new__ of type object>'
p32
sS'__format__'
p33
S'<built-in method __format__ of CookieError object>'
p34
sS'__class__'
p35
S"<class 'Cookie.CookieError'>"
p36
sS'__doc__'
p37
S'None'
p38
sS'__getitem__'
p39
S"<method-wrapper '__getitem__' of CookieError object>"
p40
sS'__setstate__'
p41
S'<built-in method __setstate__ of CookieError object>'
p42
sS'__getattribute__'
p43
S"<method-wrapper '__getattribute__' of CookieError object>"
p44
sS'args'
p45
S"('Attempt to set a reserved key: expires',)"
p46
sS'__subclasshook__'
p47
S'<built-in method __subclasshook__ of type object>'
p48
sS'__unicode__'
p49
S'<built-in method __unicode__ of CookieError object>'
p50
sS'__delattr__'
p51
S"<method-wrapper '__delattr__' of CookieError object>"
p52
sS'__repr__'
p53
S"<method-wrapper '__repr__' of CookieError object>"
p54
sS'__hash__'
p55
S"<method-wrapper '__hash__' of CookieError object>"
p56
ssS'evalue'
p57
S'Attempt to set a reserved key: expires'
p58
sS'request'
p59
ccopy_reg
_reconstructor
p60
(cgluon.html
BEAUTIFY
p61
c__builtin__
object
p62
NtRp63
(dp64
S'attributes'
p65
(dp66
sS'components'
p67
(lp68
g60
(cgluon.html
TABLE
p69
g62
NtRp70
(dp71
g65
(dp72
S'level'
p73
I5
ssS'parent'
p74
Nsg67
(lp75
g60
(cgluon.html
TR
p76
g62
NtRp77
(dp78
g65
(dp79
sg74
g70
sg67
(lp80
g60
(cgluon.html
TD
p81
g62
NtRp82
(dp83
g65
(dp84
S'_style'
p85
S'font-weight:bold;'
p86
ssg74
g77
sg67
(lp87
S'ajax'
p88
asbag60
(g81
g62
NtRp89
(dp90
g65
(dp91
S'_valign'
p92
S'top'
p93
ssg74
g77
sg67
(lp94
S':'
asbag60
(g81
g62
NtRp95
(dp96
g65
(dp97
sg74
g77
sg67
(lp98
g60
(g61
g62
NtRp99
(dp100
g65
(dp101
g73
I5
ssg74
g95
sg67
(lp102
S'False'
p103
asbasbasbag60
(g76
g62
NtRp104
(dp105
g65
(dp106
sg74
g70
sg67
(lp107
g60
(g81
g62
NtRp108
(dp109
g65
(dp110
g85
g86
ssg74
g104
sg67
(lp111
S'application'
p112
asbag60
(g81
g62
NtRp113
(dp114
g65
(dp115
g92
g93
ssg74
g104
sg67
(lp116
S':'
asbag60
(g81
g62
NtRp117
(dp118
g65
(dp119
sg74
g104
sg67
(lp120
g60
(g61
g62
NtRp121
(dp122
g65
(dp123
g73
I5
ssg74
g117
sg67
(lp124
S'wp'
p125
asbasbasbag60
(g76
g62
NtRp126
(dp127
g65
(dp128
sg74
g70
sg67
(lp129
g60
(g81
g62
NtRp130
(dp131
g65
(dp132
g85
g86
ssg74
g126
sg67
(lp133
g45
asbag60
(g81
g62
NtRp134
(dp135
g65
(dp136
g92
g93
ssg74
g126
sg67
(lp137
S':'
asbag60
(g81
g62
NtRp138
(dp139
g65
(dp140
sg74
g126
sg67
(lp141
g60
(g61
g62
NtRp142
(dp143
g65
(dp144
g73
I5
ssg74
g138
sg67
(lp145
g60
(g69
g62
NtRp146
(dp147
g65
(dp148
g73
I4
ssg74
Nsg67
(lp149
sbasbasbasbag60
(g76
g62
NtRp150
(dp151
g65
(dp152
sg74
g70
sg67
(lp153
g60
(g81
g62
NtRp154
(dp155
g65
(dp156
g85
g86
ssg74
g150
sg67
(lp157
S'body'
p158
asbag60
(g81
g62
NtRp159
(dp160
g65
(dp161
g92
g93
ssg74
g150
sg67
(lp162
S':'
asbag60
(g81
g62
NtRp163
(dp164
g65
(dp165
sg74
g150
sg67
(lp166
g60
(g61
g62
NtRp167
(dp168
g65
(dp169
g73
I5
ssg74
g163
sg67
(lp170
S'<cStringIO.StringO object at 0x102712730>'
p171
asbasbasbag60
(g76
g62
NtRp172
(dp173
g65
(dp174
sg74
g70
sg67
(lp175
g60
(g81
g62
NtRp176
(dp177
g65
(dp178
g85
g86
ssg74
g172
sg67
(lp179
S'client'
p180
asbag60
(g81
g62
NtRp181
(dp182
g65
(dp183
g92
g93
ssg74
g172
sg67
(lp184
S':'
asbag60
(g81
g62
NtRp185
(dp186
g65
(dp187
sg74
g172
sg67
(lp188
g60
(g61
g62
NtRp189
(dp190
g65
(dp191
g73
I5
ssg74
g185
sg67
(lp192
S'127.0.0.1'
p193
asbasbasbag60
(g76
g62
NtRp194
(dp195
g65
(dp196
sg74
g70
sg67
(lp197
g60
(g81
g62
NtRp198
(dp199
g65
(dp200
g85
g86
ssg74
g194
sg67
(lp201
S'controller'
p202
asbag60
(g81
g62
NtRp203
(dp204
g65
(dp205
g92
g93
ssg74
g194
sg67
(lp206
S':'
asbag60
(g81
g62
NtRp207
(dp208
g65
(dp209
sg74
g194
sg67
(lp210
g60
(g61
g62
NtRp211
(dp212
g65
(dp213
g73
I5
ssg74
g207
sg67
(lp214
S'default'
p215
asbasbasbag60
(g76
g62
NtRp216
(dp217
g65
(dp218
sg74
g70
sg67
(lp219
g60
(g81
g62
NtRp220
(dp221
g65
(dp222
g85
g86
ssg74
g216
sg67
(lp223
S'cookies'
p224
asbag60
(g81
g62
NtRp225
(dp226
g65
(dp227
g92
g93
ssg74
g216
sg67
(lp228
S':'
asbag60
(g81
g62
NtRp229
(dp230
g65
(dp231
sg74
g216
sg67
(lp232
g60
(g61
g62
NtRp233
(dp234
g65
(dp235
g73
I5
ssg74
g229
sg67
(lp236
g60
(g69
g62
NtRp237
(dp238
g65
(dp239
g73
I4
ssg74
Nsg67
(lp240
g60
(g76
g62
NtRp241
(dp242
g65
(dp243
sg74
g237
sg67
(lp244
g60
(g81
g62
NtRp245
(dp246
g65
(dp247
g85
g86
ssg74
g241
sg67
(lp248
S'posAccuracy'
p249
asbag60
(g81
g62
NtRp250
(dp251
g65
(dp252
g92
g93
ssg74
g241
sg67
(lp253
S':'
asbag60
(g81
g62
NtRp254
(dp255
g65
(dp256
sg74
g241
sg67
(lp257
g60
(g61
g62
NtRp258
(dp259
g65
(dp260
g73
I4
ssg74
g254
sg67
(lp261
g60
(g69
g62
NtRp262
(dp263
g65
(dp264
g73
I3
ssg74
Nsg67
(lp265
g60
(g76
g62
NtRp266
(dp267
g65
(dp268
sg74
g262
sg67
(lp269
g60
(g81
g62
NtRp270
(dp271
g65
(dp272
g85
g86
ssg74
g266
sg67
(lp273
S'comment'
p274
asbag60
(g81
g62
NtRp275
(dp276
g65
(dp277
g92
g93
ssg74
g266
sg67
(lp278
S':'
asbag60
(g81
g62
NtRp279
(dp280
g65
(dp281
sg74
g266
sg67
(lp282
g60
(g61
g62
NtRp283
(dp284
g65
(dp285
g73
I3
ssg74
g279
sg67
(lp286
S''
asbasbasbag60
(g76
g62
NtRp287
(dp288
g65
(dp289
sg74
g262
sg67
(lp290
g60
(g81
g62
NtRp291
(dp292
g65
(dp293
g85
g86
ssg74
g287
sg67
(lp294
S'domain'
p295
asbag60
(g81
g62
NtRp296
(dp297
g65
(dp298
g92
g93
ssg74
g287
sg67
(lp299
S':'
asbag60
(g81
g62
NtRp300
(dp301
g65
(dp302
sg74
g287
sg67
(lp303
g60
(g61
g62
NtRp304
(dp305
g65
(dp306
g73
I3
ssg74
g300
sg67
(lp307
S''
asbasbasbag60
(g76
g62
NtRp308
(dp309
g65
(dp310
sg74
g262
sg67
(lp311
g60
(g81
g62
NtRp312
(dp313
g65
(dp314
g85
g86
ssg74
g308
sg67
(lp315
S'expires'
p316
asbag60
(g81
g62
NtRp317
(dp318
g65
(dp319
g92
g93
ssg74
g308
sg67
(lp320
S':'
asbag60
(g81
g62
NtRp321
(dp322
g65
(dp323
sg74
g308
sg67
(lp324
g60
(g61
g62
NtRp325
(dp326
g65
(dp327
g73
I3
ssg74
g321
sg67
(lp328
S''
asbasbasbag60
(g76
g62
NtRp329
(dp330
g65
(dp331
sg74
g262
sg67
(lp332
g60
(g81
g62
NtRp333
(dp334
g65
(dp335
g85
g86
ssg74
g329
sg67
(lp336
S'httponly'
p337
asbag60
(g81
g62
NtRp338
(dp339
g65
(dp340
g92
g93
ssg74
g329
sg67
(lp341
S':'
asbag60
(g81
g62
NtRp342
(dp343
g65
(dp344
sg74
g329
sg67
(lp345
g60
(g61
g62
NtRp346
(dp347
g65
(dp348
g73
I3
ssg74
g342
sg67
(lp349
S''
asbasbasbag60
(g76
g62
NtRp350
(dp351
g65
(dp352
sg74
g262
sg67
(lp353
g60
(g81
g62
NtRp354
(dp355
g65
(dp356
g85
g86
ssg74
g350
sg67
(lp357
S'max-age'
p358
asbag60
(g81
g62
NtRp359
(dp360
g65
(dp361
g92
g93
ssg74
g350
sg67
(lp362
S':'
asbag60
(g81
g62
NtRp363
(dp364
g65
(dp365
sg74
g350
sg67
(lp366
g60
(g61
g62
NtRp367
(dp368
g65
(dp369
g73
I3
ssg74
g363
sg67
(lp370
S''
asbasbasbag60
(g76
g62
NtRp371
(dp372
g65
(dp373
sg74
g262
sg67
(lp374
g60
(g81
g62
NtRp375
(dp376
g65
(dp377
g85
g86
ssg74
g371
sg67
(lp378
S'path'
p379
asbag60
(g81
g62
NtRp380
(dp381
g65
(dp382
g92
g93
ssg74
g371
sg67
(lp383
S':'
asbag60
(g81
g62
NtRp384
(dp385
g65
(dp386
sg74
g371
sg67
(lp387
g60
(g61
g62
NtRp388
(dp389
g65
(dp390
g73
I3
ssg74
g384
sg67
(lp391
S''
asbasbasbag60
(g76
g62
NtRp392
(dp393
g65
(dp394
sg74
g262
sg67
(lp395
g60
(g81
g62
NtRp396
(dp397
g65
(dp398
g85
g86
ssg74
g392
sg67
(lp399
S'secure'
p400
asbag60
(g81
g62
NtRp401
(dp402
g65
(dp403
g92
g93
ssg74
g392
sg67
(lp404
S':'
asbag60
(g81
g62
NtRp405
(dp406
g65
(dp407
sg74
g392
sg67
(lp408
g60
(g61
g62
NtRp409
(dp410
g65
(dp411
g73
I3
ssg74
g405
sg67
(lp412
S''
asbasbasbag60
(g76
g62
NtRp413
(dp414
g65
(dp415
sg74
g262
sg67
(lp416
g60
(g81
g62
NtRp417
(dp418
g65
(dp419
g85
g86
ssg74
g413
sg67
(lp420
S'version'
p421
asbag60
(g81
g62
NtRp422
(dp423
g65
(dp424
g92
g93
ssg74
g413
sg67
(lp425
S':'
asbag60
(g81
g62
NtRp426
(dp427
g65
(dp428
sg74
g413
sg67
(lp429
g60
(g61
g62
NtRp430
(dp431
g65
(dp432
g73
I3
ssg74
g426
sg67
(lp433
S''
asbasbasbasbasbasbasbag60
(g76
g62
NtRp434
(dp435
g65
(dp436
sg74
g237
sg67
(lp437
g60
(g81
g62
NtRp438
(dp439
g65
(dp440
g85
g86
ssg74
g434
sg67
(lp441
S'posLat'
p442
asbag60
(g81
g62
NtRp443
(dp444
g65
(dp445
g92
g93
ssg74
g434
sg67
(lp446
S':'
asbag60
(g81
g62
NtRp447
(dp448
g65
(dp449
sg74
g434
sg67
(lp450
g60
(g61
g62
NtRp451
(dp452
g65
(dp453
g73
I4
ssg74
g447
sg67
(lp454
g60
(g69
g62
NtRp455
(dp456
g65
(dp457
g73
I3
ssg74
Nsg67
(lp458
g60
(g76
g62
NtRp459
(dp460
g65
(dp461
sg74
g455
sg67
(lp462
g60
(g81
g62
NtRp463
(dp464
g65
(dp465
g85
g86
ssg74
g459
sg67
(lp466
g274
asbag60
(g81
g62
NtRp467
(dp468
g65
(dp469
g92
g93
ssg74
g459
sg67
(lp470
S':'
asbag60
(g81
g62
NtRp471
(dp472
g65
(dp473
sg74
g459
sg67
(lp474
g60
(g61
g62
NtRp475
(dp476
g65
(dp477
g73
I3
ssg74
g471
sg67
(lp478
S''
asbasbasbag60
(g76
g62
NtRp479
(dp480
g65
(dp481
sg74
g455
sg67
(lp482
g60
(g81
g62
NtRp483
(dp484
g65
(dp485
g85
g86
ssg74
g479
sg67
(lp486
g295
asbag60
(g81
g62
NtRp487
(dp488
g65
(dp489
g92
g93
ssg74
g479
sg67
(lp490
S':'
asbag60
(g81
g62
NtRp491
(dp492
g65
(dp493
sg74
g479
sg67
(lp494
g60
(g61
g62
NtRp495
(dp496
g65
(dp497
g73
I3
ssg74
g491
sg67
(lp498
S''
asbasbasbag60
(g76
g62
NtRp499
(dp500
g65
(dp501
sg74
g455
sg67
(lp502
g60
(g81
g62
NtRp503
(dp504
g65
(dp505
g85
g86
ssg74
g499
sg67
(lp506
g316
asbag60
(g81
g62
NtRp507
(dp508
g65
(dp509
g92
g93
ssg74
g499
sg67
(lp510
S':'
asbag60
(g81
g62
NtRp511
(dp512
g65
(dp513
sg74
g499
sg67
(lp514
g60
(g61
g62
NtRp515
(dp516
g65
(dp517
g73
I3
ssg74
g511
sg67
(lp518
S''
asbasbasbag60
(g76
g62
NtRp519
(dp520
g65
(dp521
sg74
g455
sg67
(lp522
g60
(g81
g62
NtRp523
(dp524
g65
(dp525
g85
g86
ssg74
g519
sg67
(lp526
g337
asbag60
(g81
g62
NtRp527
(dp528
g65
(dp529
g92
g93
ssg74
g519
sg67
(lp530
S':'
asbag60
(g81
g62
NtRp531
(dp532
g65
(dp533
sg74
g519
sg67
(lp534
g60
(g61
g62
NtRp535
(dp536
g65
(dp537
g73
I3
ssg74
g531
sg67
(lp538
S''
asbasbasbag60
(g76
g62
NtRp539
(dp540
g65
(dp541
sg74
g455
sg67
(lp542
g60
(g81
g62
NtRp543
(dp544
g65
(dp545
g85
g86
ssg74
g539
sg67
(lp546
g358
asbag60
(g81
g62
NtRp547
(dp548
g65
(dp549
g92
g93
ssg74
g539
sg67
(lp550
S':'
asbag60
(g81
g62
NtRp551
(dp552
g65
(dp553
sg74
g539
sg67
(lp554
g60
(g61
g62
NtRp555
(dp556
g65
(dp557
g73
I3
ssg74
g551
sg67
(lp558
S''
asbasbasbag60
(g76
g62
NtRp559
(dp560
g65
(dp561
sg74
g455
sg67
(lp562
g60
(g81
g62
NtRp563
(dp564
g65
(dp565
g85
g86
ssg74
g559
sg67
(lp566
g379
asbag60
(g81
g62
NtRp567
(dp568
g65
(dp569
g92
g93
ssg74
g559
sg67
(lp570
S':'
asbag60
(g81
g62
NtRp571
(dp572
g65
(dp573
sg74
g559
sg67
(lp574
g60
(g61
g62
NtRp575
(dp576
g65
(dp577
g73
I3
ssg74
g571
sg67
(lp578
S''
asbasbasbag60
(g76
g62
NtRp579
(dp580
g65
(dp581
sg74
g455
sg67
(lp582
g60
(g81
g62
NtRp583
(dp584
g65
(dp585
g85
g86
ssg74
g579
sg67
(lp586
g400
asbag60
(g81
g62
NtRp587
(dp588
g65
(dp589
g92
g93
ssg74
g579
sg67
(lp590
S':'
asbag60
(g81
g62
NtRp591
(dp592
g65
(dp593
sg74
g579
sg67
(lp594
g60
(g61
g62
NtRp595
(dp596
g65
(dp597
g73
I3
ssg74
g591
sg67
(lp598
S''
asbasbasbag60
(g76
g62
NtRp599
(dp600
g65
(dp601
sg74
g455
sg67
(lp602
g60
(g81
g62
NtRp603
(dp604
g65
(dp605
g85
g86
ssg74
g599
sg67
(lp606
g421
asbag60
(g81
g62
NtRp607
(dp608
g65
(dp609
g92
g93
ssg74
g599
sg67
(lp610
S':'
asbag60
(g81
g62
NtRp611
(dp612
g65
(dp613
sg74
g599
sg67
(lp614
g60
(g61
g62
NtRp615
(dp616
g65
(dp617
g73
I3
ssg74
g611
sg67
(lp618
S''
asbasbasbasbasbasbasbag60
(g76
g62
NtRp619
(dp620
g65
(dp621
sg74
g237
sg67
(lp622
g60
(g81
g62
NtRp623
(dp624
g65
(dp625
g85
g86
ssg74
g619
sg67
(lp626
S'posLon'
p627
asbag60
(g81
g62
NtRp628
(dp629
g65
(dp630
g92
g93
ssg74
g619
sg67
(lp631
S':'
asbag60
(g81
g62
NtRp632
(dp633
g65
(dp634
sg74
g619
sg67
(lp635
g60
(g61
g62
NtRp636
(dp637
g65
(dp638
g73
I4
ssg74
g632
sg67
(lp639
g60
(g69
g62
NtRp640
(dp641
g65
(dp642
g73
I3
ssg74
Nsg67
(lp643
g60
(g76
g62
NtRp644
(dp645
g65
(dp646
sg74
g640
sg67
(lp647
g60
(g81
g62
NtRp648
(dp649
g65
(dp650
g85
g86
ssg74
g644
sg67
(lp651
g274
asbag60
(g81
g62
NtRp652
(dp653
g65
(dp654
g92
g93
ssg74
g644
sg67
(lp655
S':'
asbag60
(g81
g62
NtRp656
(dp657
g65
(dp658
sg74
g644
sg67
(lp659
g60
(g61
g62
NtRp660
(dp661
g65
(dp662
g73
I3
ssg74
g656
sg67
(lp663
S''
asbasbasbag60
(g76
g62
NtRp664
(dp665
g65
(dp666
sg74
g640
sg67
(lp667
g60
(g81
g62
NtRp668
(dp669
g65
(dp670
g85
g86
ssg74
g664
sg67
(lp671
g295
asbag60
(g81
g62
NtRp672
(dp673
g65
(dp674
g92
g93
ssg74
g664
sg67
(lp675
S':'
asbag60
(g81
g62
NtRp676
(dp677
g65
(dp678
sg74
g664
sg67
(lp679
g60
(g61
g62
NtRp680
(dp681
g65
(dp682
g73
I3
ssg74
g676
sg67
(lp683
S''
asbasbasbag60
(g76
g62
NtRp684
(dp685
g65
(dp686
sg74
g640
sg67
(lp687
g60
(g81
g62
NtRp688
(dp689
g65
(dp690
g85
g86
ssg74
g684
sg67
(lp691
g316
asbag60
(g81
g62
NtRp692
(dp693
g65
(dp694
g92
g93
ssg74
g684
sg67
(lp695
S':'
asbag60
(g81
g62
NtRp696
(dp697
g65
(dp698
sg74
g684
sg67
(lp699
g60
(g61
g62
NtRp700
(dp701
g65
(dp702
g73
I3
ssg74
g696
sg67
(lp703
S''
asbasbasbag60
(g76
g62
NtRp704
(dp705
g65
(dp706
sg74
g640
sg67
(lp707
g60
(g81
g62
NtRp708
(dp709
g65
(dp710
g85
g86
ssg74
g704
sg67
(lp711
g337
asbag60
(g81
g62
NtRp712
(dp713
g65
(dp714
g92
g93
ssg74
g704
sg67
(lp715
S':'
asbag60
(g81
g62
NtRp716
(dp717
g65
(dp718
sg74
g704
sg67
(lp719
g60
(g61
g62
NtRp720
(dp721
g65
(dp722
g73
I3
ssg74
g716
sg67
(lp723
S''
asbasbasbag60
(g76
g62
NtRp724
(dp725
g65
(dp726
sg74
g640
sg67
(lp727
g60
(g81
g62
NtRp728
(dp729
g65
(dp730
g85
g86
ssg74
g724
sg67
(lp731
g358
asbag60
(g81
g62
NtRp732
(dp733
g65
(dp734
g92
g93
ssg74
g724
sg67
(lp735
S':'
asbag60
(g81
g62
NtRp736
(dp737
g65
(dp738
sg74
g724
sg67
(lp739
g60
(g61
g62
NtRp740
(dp741
g65
(dp742
g73
I3
ssg74
g736
sg67
(lp743
S''
asbasbasbag60
(g76
g62
NtRp744
(dp745
g65
(dp746
sg74
g640
sg67
(lp747
g60
(g81
g62
NtRp748
(dp749
g65
(dp750
g85
g86
ssg74
g744
sg67
(lp751
g379
asbag60
(g81
g62
NtRp752
(dp753
g65
(dp754
g92
g93
ssg74
g744
sg67
(lp755
S':'
asbag60
(g81
g62
NtRp756
(dp757
g65
(dp758
sg74
g744
sg67
(lp759
g60
(g61
g62
NtRp760
(dp761
g65
(dp762
g73
I3
ssg74
g756
sg67
(lp763
S''
asbasbasbag60
(g76
g62
NtRp764
(dp765
g65
(dp766
sg74
g640
sg67
(lp767
g60
(g81
g62
NtRp768
(dp769
g65
(dp770
g85
g86
ssg74
g764
sg67
(lp771
g400
asbag60
(g81
g62
NtRp772
(dp773
g65
(dp774
g92
g93
ssg74
g764
sg67
(lp775
S':'
asbag60
(g81
g62
NtRp776
(dp777
g65
(dp778
sg74
g764
sg67
(lp779
g60
(g61
g62
NtRp780
(dp781
g65
(dp782
g73
I3
ssg74
g776
sg67
(lp783
S''
asbasbasbag60
(g76
g62
NtRp784
(dp785
g65
(dp786
sg74
g640
sg67
(lp787
g60
(g81
g62
NtRp788
(dp789
g65
(dp790
g85
g86
ssg74
g784
sg67
(lp791
g421
asbag60
(g81
g62
NtRp792
(dp793
g65
(dp794
g92
g93
ssg74
g784
sg67
(lp795
S':'
asbag60
(g81
g62
NtRp796
(dp797
g65
(dp798
sg74
g784
sg67
(lp799
g60
(g61
g62
NtRp800
(dp801
g65
(dp802
g73
I3
ssg74
g796
sg67
(lp803
S''
asbasbasbasbasbasbasbag60
(g76
g62
NtRp804
(dp805
g65
(dp806
sg74
g237
sg67
(lp807
g60
(g81
g62
NtRp808
(dp809
g65
(dp810
g85
g86
ssg74
g804
sg67
(lp811
S'posTimestamp'
p812
asbag60
(g81
g62
NtRp813
(dp814
g65
(dp815
g92
g93
ssg74
g804
sg67
(lp816
S':'
asbag60
(g81
g62
NtRp817
(dp818
g65
(dp819
sg74
g804
sg67
(lp820
g60
(g61
g62
NtRp821
(dp822
g65
(dp823
g73
I4
ssg74
g817
sg67
(lp824
g60
(g69
g62
NtRp825
(dp826
g65
(dp827
g73
I3
ssg74
Nsg67
(lp828
g60
(g76
g62
NtRp829
(dp830
g65
(dp831
sg74
g825
sg67
(lp832
g60
(g81
g62
NtRp833
(dp834
g65
(dp835
g85
g86
ssg74
g829
sg67
(lp836
g274
asbag60
(g81
g62
NtRp837
(dp838
g65
(dp839
g92
g93
ssg74
g829
sg67
(lp840
S':'
asbag60
(g81
g62
NtRp841
(dp842
g65
(dp843
sg74
g829
sg67
(lp844
g60
(g61
g62
NtRp845
(dp846
g65
(dp847
g73
I3
ssg74
g841
sg67
(lp848
S''
asbasbasbag60
(g76
g62
NtRp849
(dp850
g65
(dp851
sg74
g825
sg67
(lp852
g60
(g81
g62
NtRp853
(dp854
g65
(dp855
g85
g86
ssg74
g849
sg67
(lp856
g295
asbag60
(g81
g62
NtRp857
(dp858
g65
(dp859
g92
g93
ssg74
g849
sg67
(lp860
S':'
asbag60
(g81
g62
NtRp861
(dp862
g65
(dp863
sg74
g849
sg67
(lp864
g60
(g61
g62
NtRp865
(dp866
g65
(dp867
g73
I3
ssg74
g861
sg67
(lp868
S''
asbasbasbag60
(g76
g62
NtRp869
(dp870
g65
(dp871
sg74
g825
sg67
(lp872
g60
(g81
g62
NtRp873
(dp874
g65
(dp875
g85
g86
ssg74
g869
sg67
(lp876
g316
asbag60
(g81
g62
NtRp877
(dp878
g65
(dp879
g92
g93
ssg74
g869
sg67
(lp880
S':'
asbag60
(g81
g62
NtRp881
(dp882
g65
(dp883
sg74
g869
sg67
(lp884
g60
(g61
g62
NtRp885
(dp886
g65
(dp887
g73
I3
ssg74
g881
sg67
(lp888
S''
asbasbasbag60
(g76
g62
NtRp889
(dp890
g65
(dp891
sg74
g825
sg67
(lp892
g60
(g81
g62
NtRp893
(dp894
g65
(dp895
g85
g86
ssg74
g889
sg67
(lp896
g337
asbag60
(g81
g62
NtRp897
(dp898
g65
(dp899
g92
g93
ssg74
g889
sg67
(lp900
S':'
asbag60
(g81
g62
NtRp901
(dp902
g65
(dp903
sg74
g889
sg67
(lp904
g60
(g61
g62
NtRp905
(dp906
g65
(dp907
g73
I3
ssg74
g901
sg67
(lp908
S''
asbasbasbag60
(g76
g62
NtRp909
(dp910
g65
(dp911
sg74
g825
sg67
(lp912
g60
(g81
g62
NtRp913
(dp914
g65
(dp915
g85
g86
ssg74
g909
sg67
(lp916
g358
asbag60
(g81
g62
NtRp917
(dp918
g65
(dp919
g92
g93
ssg74
g909
sg67
(lp920
S':'
asbag60
(g81
g62
NtRp921
(dp922
g65
(dp923
sg74
g909
sg67
(lp924
g60
(g61
g62
NtRp925
(dp926
g65
(dp927
g73
I3
ssg74
g921
sg67
(lp928
S''
asbasbasbag60
(g76
g62
NtRp929
(dp930
g65
(dp931
sg74
g825
sg67
(lp932
g60
(g81
g62
NtRp933
(dp934
g65
(dp935
g85
g86
ssg74
g929
sg67
(lp936
g379
asbag60
(g81
g62
NtRp937
(dp938
g65
(dp939
g92
g93
ssg74
g929
sg67
(lp940
S':'
asbag60
(g81
g62
NtRp941
(dp942
g65
(dp943
sg74
g929
sg67
(lp944
g60
(g61
g62
NtRp945
(dp946
g65
(dp947
g73
I3
ssg74
g941
sg67
(lp948
S''
asbasbasbag60
(g76
g62
NtRp949
(dp950
g65
(dp951
sg74
g825
sg67
(lp952
g60
(g81
g62
NtRp953
(dp954
g65
(dp955
g85
g86
ssg74
g949
sg67
(lp956
g400
asbag60
(g81
g62
NtRp957
(dp958
g65
(dp959
g92
g93
ssg74
g949
sg67
(lp960
S':'
asbag60
(g81
g62
NtRp961
(dp962
g65
(dp963
sg74
g949
sg67
(lp964
g60
(g61
g62
NtRp965
(dp966
g65
(dp967
g73
I3
ssg74
g961
sg67
(lp968
S''
asbasbasbag60
(g76
g62
NtRp969
(dp970
g65
(dp971
sg74
g825
sg67
(lp972
g60
(g81
g62
NtRp973
(dp974
g65
(dp975
g85
g86
ssg74
g969
sg67
(lp976
g421
asbag60
(g81
g62
NtRp977
(dp978
g65
(dp979
g92
g93
ssg74
g969
sg67
(lp980
S':'
asbag60
(g81
g62
NtRp981
(dp982
g65
(dp983
sg74
g969
sg67
(lp984
g60
(g61
g62
NtRp985
(dp986
g65
(dp987
g73
I3
ssg74
g981
sg67
(lp988
S''
asbasbasbasbasbasbasbag60
(g76
g62
NtRp989
(dp990
g65
(dp991
sg74
g237
sg67
(lp992
g60
(g81
g62
NtRp993
(dp994
g65
(dp995
g85
g86
ssg74
g989
sg67
(lp996
S'session_id_admin'
p997
asbag60
(g81
g62
NtRp998
(dp999
g65
(dp1000
g92
g93
ssg74
g989
sg67
(lp1001
S':'
asbag60
(g81
g62
NtRp1002
(dp1003
g65
(dp1004
sg74
g989
sg67
(lp1005
g60
(g61
g62
NtRp1006
(dp1007
g65
(dp1008
g73
I4
ssg74
g1002
sg67
(lp1009
g60
(g69
g62
NtRp1010
(dp1011
g65
(dp1012
g73
I3
ssg74
Nsg67
(lp1013
g60
(g76
g62
NtRp1014
(dp1015
g65
(dp1016
sg74
g1010
sg67
(lp1017
g60
(g81
g62
NtRp1018
(dp1019
g65
(dp1020
g85
g86
ssg74
g1014
sg67
(lp1021
g274
asbag60
(g81
g62
NtRp1022
(dp1023
g65
(dp1024
g92
g93
ssg74
g1014
sg67
(lp1025
S':'
asbag60
(g81
g62
NtRp1026
(dp1027
g65
(dp1028
sg74
g1014
sg67
(lp1029
g60
(g61
g62
NtRp1030
(dp1031
g65
(dp1032
g73
I3
ssg74
g1026
sg67
(lp1033
S''
asbasbasbag60
(g76
g62
NtRp1034
(dp1035
g65
(dp1036
sg74
g1010
sg67
(lp1037
g60
(g81
g62
NtRp1038
(dp1039
g65
(dp1040
g85
g86
ssg74
g1034
sg67
(lp1041
g295
asbag60
(g81
g62
NtRp1042
(dp1043
g65
(dp1044
g92
g93
ssg74
g1034
sg67
(lp1045
S':'
asbag60
(g81
g62
NtRp1046
(dp1047
g65
(dp1048
sg74
g1034
sg67
(lp1049
g60
(g61
g62
NtRp1050
(dp1051
g65
(dp1052
g73
I3
ssg74
g1046
sg67
(lp1053
S''
asbasbasbag60
(g76
g62
NtRp1054
(dp1055
g65
(dp1056
sg74
g1010
sg67
(lp1057
g60
(g81
g62
NtRp1058
(dp1059
g65
(dp1060
g85
g86
ssg74
g1054
sg67
(lp1061
g316
asbag60
(g81
g62
NtRp1062
(dp1063
g65
(dp1064
g92
g93
ssg74
g1054
sg67
(lp1065
S':'
asbag60
(g81
g62
NtRp1066
(dp1067
g65
(dp1068
sg74
g1054
sg67
(lp1069
g60
(g61
g62
NtRp1070
(dp1071
g65
(dp1072
g73
I3
ssg74
g1066
sg67
(lp1073
S''
asbasbasbag60
(g76
g62
NtRp1074
(dp1075
g65
(dp1076
sg74
g1010
sg67
(lp1077
g60
(g81
g62
NtRp1078
(dp1079
g65
(dp1080
g85
g86
ssg74
g1074
sg67
(lp1081
g337
asbag60
(g81
g62
NtRp1082
(dp1083
g65
(dp1084
g92
g93
ssg74
g1074
sg67
(lp1085
S':'
asbag60
(g81
g62
NtRp1086
(dp1087
g65
(dp1088
sg74
g1074
sg67
(lp1089
g60
(g61
g62
NtRp1090
(dp1091
g65
(dp1092
g73
I3
ssg74
g1086
sg67
(lp1093
S''
asbasbasbag60
(g76
g62
NtRp1094
(dp1095
g65
(dp1096
sg74
g1010
sg67
(lp1097
g60
(g81
g62
NtRp1098
(dp1099
g65
(dp1100
g85
g86
ssg74
g1094
sg67
(lp1101
g358
asbag60
(g81
g62
NtRp1102
(dp1103
g65
(dp1104
g92
g93
ssg74
g1094
sg67
(lp1105
S':'
asbag60
(g81
g62
NtRp1106
(dp1107
g65
(dp1108
sg74
g1094
sg67
(lp1109
g60
(g61
g62
NtRp1110
(dp1111
g65
(dp1112
g73
I3
ssg74
g1106
sg67
(lp1113
S''
asbasbasbag60
(g76
g62
NtRp1114
(dp1115
g65
(dp1116
sg74
g1010
sg67
(lp1117
g60
(g81
g62
NtRp1118
(dp1119
g65
(dp1120
g85
g86
ssg74
g1114
sg67
(lp1121
g379
asbag60
(g81
g62
NtRp1122
(dp1123
g65
(dp1124
g92
g93
ssg74
g1114
sg67
(lp1125
S':'
asbag60
(g81
g62
NtRp1126
(dp1127
g65
(dp1128
sg74
g1114
sg67
(lp1129
g60
(g61
g62
NtRp1130
(dp1131
g65
(dp1132
g73
I3
ssg74
g1126
sg67
(lp1133
S''
asbasbasbag60
(g76
g62
NtRp1134
(dp1135
g65
(dp1136
sg74
g1010
sg67
(lp1137
g60
(g81
g62
NtRp1138
(dp1139
g65
(dp1140
g85
g86
ssg74
g1134
sg67
(lp1141
g400
asbag60
(g81
g62
NtRp1142
(dp1143
g65
(dp1144
g92
g93
ssg74
g1134
sg67
(lp1145
S':'
asbag60
(g81
g62
NtRp1146
(dp1147
g65
(dp1148
sg74
g1134
sg67
(lp1149
g60
(g61
g62
NtRp1150
(dp1151
g65
(dp1152
g73
I3
ssg74
g1146
sg67
(lp1153
S''
asbasbasbag60
(g76
g62
NtRp1154
(dp1155
g65
(dp1156
sg74
g1010
sg67
(lp1157
g60
(g81
g62
NtRp1158
(dp1159
g65
(dp1160
g85
g86
ssg74
g1154
sg67
(lp1161
g421
asbag60
(g81
g62
NtRp1162
(dp1163
g65
(dp1164
g92
g93
ssg74
g1154
sg67
(lp1165
S':'
asbag60
(g81
g62
NtRp1166
(dp1167
g65
(dp1168
sg74
g1154
sg67
(lp1169
g60
(g61
g62
NtRp1170
(dp1171
g65
(dp1172
g73
I3
ssg74
g1166
sg67
(lp1173
S''
asbasbasbasbasbasbasbag60
(g76
g62
NtRp1174
(dp1175
g65
(dp1176
sg74
g237
sg67
(lp1177
g60
(g81
g62
NtRp1178
(dp1179
g65
(dp1180
g85
g86
ssg74
g1174
sg67
(lp1181
S'session_id_wp'
p1182
asbag60
(g81
g62
NtRp1183
(dp1184
g65
(dp1185
g92
g93
ssg74
g1174
sg67
(lp1186
S':'
asbag60
(g81
g62
NtRp1187
(dp1188
g65
(dp1189
sg74
g1174
sg67
(lp1190
g60
(g61
g62
NtRp1191
(dp1192
g65
(dp1193
g73
I4
ssg74
g1187
sg67
(lp1194
g60
(g69
g62
NtRp1195
(dp1196
g65
(dp1197
g73
I3
ssg74
Nsg67
(lp1198
g60
(g76
g62
NtRp1199
(dp1200
g65
(dp1201
sg74
g1195
sg67
(lp1202
g60
(g81
g62
NtRp1203
(dp1204
g65
(dp1205
g85
g86
ssg74
g1199
sg67
(lp1206
g274
asbag60
(g81
g62
NtRp1207
(dp1208
g65
(dp1209
g92
g93
ssg74
g1199
sg67
(lp1210
S':'
asbag60
(g81
g62
NtRp1211
(dp1212
g65
(dp1213
sg74
g1199
sg67
(lp1214
g60
(g61
g62
NtRp1215
(dp1216
g65
(dp1217
g73
I3
ssg74
g1211
sg67
(lp1218
S''
asbasbasbag60
(g76
g62
NtRp1219
(dp1220
g65
(dp1221
sg74
g1195
sg67
(lp1222
g60
(g81
g62
NtRp1223
(dp1224
g65
(dp1225
g85
g86
ssg74
g1219
sg67
(lp1226
g295
asbag60
(g81
g62
NtRp1227
(dp1228
g65
(dp1229
g92
g93
ssg74
g1219
sg67
(lp1230
S':'
asbag60
(g81
g62
NtRp1231
(dp1232
g65
(dp1233
sg74
g1219
sg67
(lp1234
g60
(g61
g62
NtRp1235
(dp1236
g65
(dp1237
g73
I3
ssg74
g1231
sg67
(lp1238
S''
asbasbasbag60
(g76
g62
NtRp1239
(dp1240
g65
(dp1241
sg74
g1195
sg67
(lp1242
g60
(g81
g62
NtRp1243
(dp1244
g65
(dp1245
g85
g86
ssg74
g1239
sg67
(lp1246
g316
asbag60
(g81
g62
NtRp1247
(dp1248
g65
(dp1249
g92
g93
ssg74
g1239
sg67
(lp1250
S':'
asbag60
(g81
g62
NtRp1251
(dp1252
g65
(dp1253
sg74
g1239
sg67
(lp1254
g60
(g61
g62
NtRp1255
(dp1256
g65
(dp1257
g73
I3
ssg74
g1251
sg67
(lp1258
S''
asbasbasbag60
(g76
g62
NtRp1259
(dp1260
g65
(dp1261
sg74
g1195
sg67
(lp1262
g60
(g81
g62
NtRp1263
(dp1264
g65
(dp1265
g85
g86
ssg74
g1259
sg67
(lp1266
g337
asbag60
(g81
g62
NtRp1267
(dp1268
g65
(dp1269
g92
g93
ssg74
g1259
sg67
(lp1270
S':'
asbag60
(g81
g62
NtRp1271
(dp1272
g65
(dp1273
sg74
g1259
sg67
(lp1274
g60
(g61
g62
NtRp1275
(dp1276
g65
(dp1277
g73
I3
ssg74
g1271
sg67
(lp1278
S''
asbasbasbag60
(g76
g62
NtRp1279
(dp1280
g65
(dp1281
sg74
g1195
sg67
(lp1282
g60
(g81
g62
NtRp1283
(dp1284
g65
(dp1285
g85
g86
ssg74
g1279
sg67
(lp1286
g358
asbag60
(g81
g62
NtRp1287
(dp1288
g65
(dp1289
g92
g93
ssg74
g1279
sg67
(lp1290
S':'
asbag60
(g81
g62
NtRp1291
(dp1292
g65
(dp1293
sg74
g1279
sg67
(lp1294
g60
(g61
g62
NtRp1295
(dp1296
g65
(dp1297
g73
I3
ssg74
g1291
sg67
(lp1298
S''
asbasbasbag60
(g76
g62
NtRp1299
(dp1300
g65
(dp1301
sg74
g1195
sg67
(lp1302
g60
(g81
g62
NtRp1303
(dp1304
g65
(dp1305
g85
g86
ssg74
g1299
sg67
(lp1306
g379
asbag60
(g81
g62
NtRp1307
(dp1308
g65
(dp1309
g92
g93
ssg74
g1299
sg67
(lp1310
S':'
asbag60
(g81
g62
NtRp1311
(dp1312
g65
(dp1313
sg74
g1299
sg67
(lp1314
g60
(g61
g62
NtRp1315
(dp1316
g65
(dp1317
g73
I3
ssg74
g1311
sg67
(lp1318
S''
asbasbasbag60
(g76
g62
NtRp1319
(dp1320
g65
(dp1321
sg74
g1195
sg67
(lp1322
g60
(g81
g62
NtRp1323
(dp1324
g65
(dp1325
g85
g86
ssg74
g1319
sg67
(lp1326
g400
asbag60
(g81
g62
NtRp1327
(dp1328
g65
(dp1329
g92
g93
ssg74
g1319
sg67
(lp1330
S':'
asbag60
(g81
g62
NtRp1331
(dp1332
g65
(dp1333
sg74
g1319
sg67
(lp1334
g60
(g61
g62
NtRp1335
(dp1336
g65
(dp1337
g73
I3
ssg74
g1331
sg67
(lp1338
S''
asbasbasbag60
(g76
g62
NtRp1339
(dp1340
g65
(dp1341
sg74
g1195
sg67
(lp1342
g60
(g81
g62
NtRp1343
(dp1344
g65
(dp1345
g85
g86
ssg74
g1339
sg67
(lp1346
g421
asbag60
(g81
g62
NtRp1347
(dp1348
g65
(dp1349
g92
g93
ssg74
g1339
sg67
(lp1350
S':'
asbag60
(g81
g62
NtRp1351
(dp1352
g65
(dp1353
sg74
g1339
sg67
(lp1354
g60
(g61
g62
NtRp1355
(dp1356
g65
(dp1357
g73
I3
ssg74
g1351
sg67
(lp1358
S''
asbasbasbasbasbasbasbasbasbasbasbag60
(g76
g62
NtRp1359
(dp1360
g65
(dp1361
sg74
g70
sg67
(lp1362
g60
(g81
g62
NtRp1363
(dp1364
g65
(dp1365
g85
g86
ssg74
g1359
sg67
(lp1366
S'env'
p1367
asbag60
(g81
g62
NtRp1368
(dp1369
g65
(dp1370
g92
g93
ssg74
g1359
sg67
(lp1371
S':'
asbag60
(g81
g62
NtRp1372
(dp1373
g65
(dp1374
sg74
g1359
sg67
(lp1375
g60
(g61
g62
NtRp1376
(dp1377
g65
(dp1378
g73
I5
ssg74
g1372
sg67
(lp1379
g60
(g69
g62
NtRp1380
(dp1381
g65
(dp1382
g73
I4
ssg74
Nsg67
(lp1383
g60
(g76
g62
NtRp1384
(dp1385
g65
(dp1386
sg74
g1380
sg67
(lp1387
g60
(g81
g62
NtRp1388
(dp1389
g65
(dp1390
g85
g86
ssg74
g1384
sg67
(lp1391
S'app_folders'
p1392
asbag60
(g81
g62
NtRp1393
(dp1394
g65
(dp1395
g92
g93
ssg74
g1384
sg67
(lp1396
S':'
asbag60
(g81
g62
NtRp1397
(dp1398
g65
(dp1399
sg74
g1384
sg67
(lp1400
g60
(g61
g62
NtRp1401
(dp1402
g65
(dp1403
g73
I4
ssg74
g1397
sg67
(lp1404
S"set(['/Users/schultzc/workspace/wherespuppet/web2py/applications/wp/', '/Users/schultzc/workspace/wherespuppet/web2py/applications/admin/'])"
p1405
asbasbasbag60
(g76
g62
NtRp1406
(dp1407
g65
(dp1408
sg74
g1380
sg67
(lp1409
g60
(g81
g62
NtRp1410
(dp1411
g65
(dp1412
g85
g86
ssg74
g1406
sg67
(lp1413
S'applications_parent'
p1414
asbag60
(g81
g62
NtRp1415
(dp1416
g65
(dp1417
g92
g93
ssg74
g1406
sg67
(lp1418
S':'
asbag60
(g81
g62
NtRp1419
(dp1420
g65
(dp1421
sg74
g1406
sg67
(lp1422
g60
(g61
g62
NtRp1423
(dp1424
g65
(dp1425
g73
I4
ssg74
g1419
sg67
(lp1426
S'/Users/schultzc/workspace/wherespuppet/web2py'
p1427
asbasbasbag60
(g76
g62
NtRp1428
(dp1429
g65
(dp1430
sg74
g1380
sg67
(lp1431
g60
(g81
g62
NtRp1432
(dp1433
g65
(dp1434
g85
g86
ssg74
g1428
sg67
(lp1435
S'cmd_args'
p1436
asbag60
(g81
g62
NtRp1437
(dp1438
g65
(dp1439
g92
g93
ssg74
g1428
sg67
(lp1440
S':'
asbag60
(g81
g62
NtRp1441
(dp1442
g65
(dp1443
sg74
g1428
sg67
(lp1444
g60
(g61
g62
NtRp1445
(dp1446
g65
(dp1447
g73
I4
ssg74
g1441
sg67
(lp1448
g60
(g69
g62
NtRp1449
(dp1450
g65
(dp1451
g73
I3
ssg74
Nsg67
(lp1452
sbasbasbasbag60
(g76
g62
NtRp1453
(dp1454
g65
(dp1455
sg74
g1380
sg67
(lp1456
g60
(g81
g62
NtRp1457
(dp1458
g65
(dp1459
g85
g86
ssg74
g1453
sg67
(lp1460
S'cmd_options'
p1461
asbag60
(g81
g62
NtRp1462
(dp1463
g65
(dp1464
g92
g93
ssg74
g1453
sg67
(lp1465
S':'
asbag60
(g81
g62
NtRp1466
(dp1467
g65
(dp1468
sg74
g1453
sg67
(lp1469
g60
(g61
g62
NtRp1470
(dp1471
g65
(dp1472
g73
I4
ssg74
g1466
sg67
(lp1473
S"<Values at 0x101b19ab8: {'verbose': False, 'ip': '127.0.0.1', 'shutdown_timeout': 5, 'taskbar': False, 'port': 8000, 'maxthreads': None, 'softcron': False, 'server_name': 'Magnus-Specialis.local', 'bpython': False, 'nogui': False, 'nocron': False, 'extcron': False, 'debuglevel': 30, 'test': None, 'folder': '/Users/schultzc/workspace/wherespuppet/web2py', 'config': '', 'import_models': False, 'winservice': '', 'shell': None, 'run': '', 'log_filename': 'httpserver.log', 'args': [''], 'profiler_filename': None, 'ssl_private_key': '', 'password': 'hello', 'request_queue_size': 5, 'ssl_certificate': '', 'cronjob': False, 'plain': False, 'quiet': False, 'interfaces': None, 'minthreads': None, 'timeout': 10, 'numthreads': None, 'nobanner': False, 'pid_filename': 'httpserver.pid'}>"
p1474
asbasbasbag60
(g76
g62
NtRp1475
(dp1476
g65
(dp1477
sg74
g1380
sg67
(lp1478
g60
(g81
g62
NtRp1479
(dp1480
g65
(dp1481
g85
g86
ssg74
g1475
sg67
(lp1482
S'db_sessions'
p1483
asbag60
(g81
g62
NtRp1484
(dp1485
g65
(dp1486
g92
g93
ssg74
g1475
sg67
(lp1487
S':'
asbag60
(g81
g62
NtRp1488
(dp1489
g65
(dp1490
sg74
g1475
sg67
(lp1491
g60
(g61
g62
NtRp1492
(dp1493
g65
(dp1494
g73
I4
ssg74
g1488
sg67
(lp1495
S'set([])'
p1496
asbasbasbag60
(g76
g62
NtRp1497
(dp1498
g65
(dp1499
sg74
g1380
sg67
(lp1500
g60
(g81
g62
NtRp1501
(dp1502
g65
(dp1503
g85
g86
ssg74
g1497
sg67
(lp1504
S'debugging'
p1505
asbag60
(g81
g62
NtRp1506
(dp1507
g65
(dp1508
g92
g93
ssg74
g1497
sg67
(lp1509
S':'
asbag60
(g81
g62
NtRp1510
(dp1511
g65
(dp1512
sg74
g1497
sg67
(lp1513
g60
(g61
g62
NtRp1514
(dp1515
g65
(dp1516
g73
I4
ssg74
g1510
sg67
(lp1517
g103
asbasbasbag60
(g76
g62
NtRp1518
(dp1519
g65
(dp1520
sg74
g1380
sg67
(lp1521
g60
(g81
g62
NtRp1522
(dp1523
g65
(dp1524
g85
g86
ssg74
g1518
sg67
(lp1525
S'gluon_parent'
p1526
asbag60
(g81
g62
NtRp1527
(dp1528
g65
(dp1529
g92
g93
ssg74
g1518
sg67
(lp1530
S':'
asbag60
(g81
g62
NtRp1531
(dp1532
g65
(dp1533
sg74
g1518
sg67
(lp1534
g60
(g61
g62
NtRp1535
(dp1536
g65
(dp1537
g73
I4
ssg74
g1531
sg67
(lp1538
S'/Users/schultzc/workspace/wherespuppet/web2py'
p1539
asbasbasbag60
(g76
g62
NtRp1540
(dp1541
g65
(dp1542
sg74
g1380
sg67
(lp1543
g60
(g81
g62
NtRp1544
(dp1545
g65
(dp1546
g85
g86
ssg74
g1540
sg67
(lp1547
S'http_accept'
p1548
asbag60
(g81
g62
NtRp1549
(dp1550
g65
(dp1551
g92
g93
ssg74
g1540
sg67
(lp1552
S':'
asbag60
(g81
g62
NtRp1553
(dp1554
g65
(dp1555
sg74
g1540
sg67
(lp1556
g60
(g61
g62
NtRp1557
(dp1558
g65
(dp1559
g73
I4
ssg74
g1553
sg67
(lp1560
S'text/html,application/xhtml+xml,application/xml;q=0.9,*/*;q=0.8'
p1561
asbasbasbag60
(g76
g62
NtRp1562
(dp1563
g65
(dp1564
sg74
g1380
sg67
(lp1565
g60
(g81
g62
NtRp1566
(dp1567
g65
(dp1568
g85
g86
ssg74
g1562
sg67
(lp1569
S'http_accept_charset'
p1570
asbag60
(g81
g62
NtRp1571
(dp1572
g65
(dp1573
g92
g93
ssg74
g1562
sg67
(lp1574
S':'
asbag60
(g81
g62
NtRp1575
(dp1576
g65
(dp1577
sg74
g1562
sg67
(lp1578
g60
(g61
g62
NtRp1579
(dp1580
g65
(dp1581
g73
I4
ssg74
g1575
sg67
(lp1582
S'ISO-8859-1,utf-8;q=0.7,*;q=0.3'
p1583
asbasbasbag60
(g76
g62
NtRp1584
(dp1585
g65
(dp1586
sg74
g1380
sg67
(lp1587
g60
(g81
g62
NtRp1588
(dp1589
g65
(dp1590
g85
g86
ssg74
g1584
sg67
(lp1591
S'http_accept_encoding'
p1592
asbag60
(g81
g62
NtRp1593
(dp1594
g65
(dp1595
g92
g93
ssg74
g1584
sg67
(lp1596
S':'
asbag60
(g81
g62
NtRp1597
(dp1598
g65
(dp1599
sg74
g1584
sg67
(lp1600
g60
(g61
g62
NtRp1601
(dp1602
g65
(dp1603
g73
I4
ssg74
g1597
sg67
(lp1604
S'gzip,deflate,sdch'
p1605
asbasbasbag60
(g76
g62
NtRp1606
(dp1607
g65
(dp1608
sg74
g1380
sg67
(lp1609
g60
(g81
g62
NtRp1610
(dp1611
g65
(dp1612
g85
g86
ssg74
g1606
sg67
(lp1613
S'http_accept_language'
p1614
asbag60
(g81
g62
NtRp1615
(dp1616
g65
(dp1617
g92
g93
ssg74
g1606
sg67
(lp1618
S':'
asbag60
(g81
g62
NtRp1619
(dp1620
g65
(dp1621
sg74
g1606
sg67
(lp1622
g60
(g61
g62
NtRp1623
(dp1624
g65
(dp1625
g73
I4
ssg74
g1619
sg67
(lp1626
S'en-US,en;q=0.8'
p1627
asbasbasbag60
(g76
g62
NtRp1628
(dp1629
g65
(dp1630
sg74
g1380
sg67
(lp1631
g60
(g81
g62
NtRp1632
(dp1633
g65
(dp1634
g85
g86
ssg74
g1628
sg67
(lp1635
S'http_cache_control'
p1636
asbag60
(g81
g62
NtRp1637
(dp1638
g65
(dp1639
g92
g93
ssg74
g1628
sg67
(lp1640
S':'
asbag60
(g81
g62
NtRp1641
(dp1642
g65
(dp1643
sg74
g1628
sg67
(lp1644
g60
(g61
g62
NtRp1645
(dp1646
g65
(dp1647
g73
I4
ssg74
g1641
sg67
(lp1648
S'max-age=0'
p1649
asbasbasbag60
(g76
g62
NtRp1650
(dp1651
g65
(dp1652
sg74
g1380
sg67
(lp1653
g60
(g81
g62
NtRp1654
(dp1655
g65
(dp1656
g85
g86
ssg74
g1650
sg67
(lp1657
S'http_connection'
p1658
asbag60
(g81
g62
NtRp1659
(dp1660
g65
(dp1661
g92
g93
ssg74
g1650
sg67
(lp1662
S':'
asbag60
(g81
g62
NtRp1663
(dp1664
g65
(dp1665
sg74
g1650
sg67
(lp1666
g60
(g61
g62
NtRp1667
(dp1668
g65
(dp1669
g73
I4
ssg74
g1663
sg67
(lp1670
S'keep-alive'
p1671
asbasbasbag60
(g76
g62
NtRp1672
(dp1673
g65
(dp1674
sg74
g1380
sg67
(lp1675
g60
(g81
g62
NtRp1676
(dp1677
g65
(dp1678
g85
g86
ssg74
g1672
sg67
(lp1679
S'http_cookie'
p1680
asbag60
(g81
g62
NtRp1681
(dp1682
g65
(dp1683
g92
g93
ssg74
g1672
sg67
(lp1684
S':'
asbag60
(g81
g62
NtRp1685
(dp1686
g65
(dp1687
sg74
g1672
sg67
(lp1688
g60
(g61
g62
NtRp1689
(dp1690
g65
(dp1691
g73
I4
ssg74
g1685
sg67
(lp1692
S'posLat=33.414768; posLon=-111.909309; posAccuracy=24000; posTimestamp=1311623240959; session_id_wp=127.0.0.1-09828a0e-340c-4ab3-852d-d6e39d579d31; session_id_admin=127.0.0.1-f84e8c86-2225-4843-a4e6-bae8d5ead2c8'
p1693
asbasbasbag60
(g76
g62
NtRp1694
(dp1695
g65
(dp1696
sg74
g1380
sg67
(lp1697
g60
(g81
g62
NtRp1698
(dp1699
g65
(dp1700
g85
g86
ssg74
g1694
sg67
(lp1701
S'http_host'
p1702
asbag60
(g81
g62
NtRp1703
(dp1704
g65
(dp1705
g92
g93
ssg74
g1694
sg67
(lp1706
S':'
asbag60
(g81
g62
NtRp1707
(dp1708
g65
(dp1709
sg74
g1694
sg67
(lp1710
g60
(g61
g62
NtRp1711
(dp1712
g65
(dp1713
g73
I4
ssg74
g1707
sg67
(lp1714
S'localhost:8000'
p1715
asbasbasbag60
(g76
g62
NtRp1716
(dp1717
g65
(dp1718
sg74
g1380
sg67
(lp1719
g60
(g81
g62
NtRp1720
(dp1721
g65
(dp1722
g85
g86
ssg74
g1716
sg67
(lp1723
S'http_user_agent'
p1724
asbag60
(g81
g62
NtRp1725
(dp1726
g65
(dp1727
g92
g93
ssg74
g1716
sg67
(lp1728
S':'
asbag60
(g81
g62
NtRp1729
(dp1730
g65
(dp1731
sg74
g1716
sg67
(lp1732
g60
(g61
g62
NtRp1733
(dp1734
g65
(dp1735
g73
I4
ssg74
g1729
sg67
(lp1736
S'Mozilla/5.0 (Macintosh; Intel Mac OS X 10_6_8) AppleWebKit/534.30 (KHTML, like Gecko) Chrome/12.0.742.122 Safari/534.30'
p1737
asbasbasbag60
(g76
g62
NtRp1738
(dp1739
g65
(dp1740
sg74
g1380
sg67
(lp1741
g60
(g81
g62
NtRp1742
(dp1743
g65
(dp1744
g85
g86
ssg74
g1738
sg67
(lp1745
S'path_info'
p1746
asbag60
(g81
g62
NtRp1747
(dp1748
g65
(dp1749
g92
g93
ssg74
g1738
sg67
(lp1750
S':'
asbag60
(g81
g62
NtRp1751
(dp1752
g65
(dp1753
sg74
g1738
sg67
(lp1754
g60
(g61
g62
NtRp1755
(dp1756
g65
(dp1757
g73
I4
ssg74
g1751
sg67
(lp1758
S'/wp/default/submit'
p1759
asbasbasbag60
(g76
g62
NtRp1760
(dp1761
g65
(dp1762
sg74
g1380
sg67
(lp1763
g60
(g81
g62
NtRp1764
(dp1765
g65
(dp1766
g85
g86
ssg74
g1760
sg67
(lp1767
S'query_string'
p1768
asbag60
(g81
g62
NtRp1769
(dp1770
g65
(dp1771
g92
g93
ssg74
g1760
sg67
(lp1772
S':'
asbag60
(g81
g62
NtRp1773
(dp1774
g65
(dp1775
sg74
g1760
sg67
(lp1776
g60
(g61
g62
NtRp1777
(dp1778
g65
(dp1779
g73
I4
ssg74
g1773
sg67
(lp1780
S''
asbasbasbag60
(g76
g62
NtRp1781
(dp1782
g65
(dp1783
sg74
g1380
sg67
(lp1784
g60
(g81
g62
NtRp1785
(dp1786
g65
(dp1787
g85
g86
ssg74
g1781
sg67
(lp1788
S'remote_addr'
p1789
asbag60
(g81
g62
NtRp1790
(dp1791
g65
(dp1792
g92
g93
ssg74
g1781
sg67
(lp1793
S':'
asbag60
(g81
g62
NtRp1794
(dp1795
g65
(dp1796
sg74
g1781
sg67
(lp1797
g60
(g61
g62
NtRp1798
(dp1799
g65
(dp1800
g73
I4
ssg74
g1794
sg67
(lp1801
g193
asbasbasbag60
(g76
g62
NtRp1802
(dp1803
g65
(dp1804
sg74
g1380
sg67
(lp1805
g60
(g81
g62
NtRp1806
(dp1807
g65
(dp1808
g85
g86
ssg74
g1802
sg67
(lp1809
S'remote_port'
p1810
asbag60
(g81
g62
NtRp1811
(dp1812
g65
(dp1813
g92
g93
ssg74
g1802
sg67
(lp1814
S':'
asbag60
(g81
g62
NtRp1815
(dp1816
g65
(dp1817
sg74
g1802
sg67
(lp1818
g60
(g61
g62
NtRp1819
(dp1820
g65
(dp1821
g73
I4
ssg74
g1815
sg67
(lp1822
S'55973'
p1823
asbasbasbag60
(g76
g62
NtRp1824
(dp1825
g65
(dp1826
sg74
g1380
sg67
(lp1827
g60
(g81
g62
NtRp1828
(dp1829
g65
(dp1830
g85
g86
ssg74
g1824
sg67
(lp1831
S'request_method'
p1832
asbag60
(g81
g62
NtRp1833
(dp1834
g65
(dp1835
g92
g93
ssg74
g1824
sg67
(lp1836
S':'
asbag60
(g81
g62
NtRp1837
(dp1838
g65
(dp1839
sg74
g1824
sg67
(lp1840
g60
(g61
g62
NtRp1841
(dp1842
g65
(dp1843
g73
I4
ssg74
g1837
sg67
(lp1844
S'GET'
p1845
asbasbasbag60
(g76
g62
NtRp1846
(dp1847
g65
(dp1848
sg74
g1380
sg67
(lp1849
g60
(g81
g62
NtRp1850
(dp1851
g65
(dp1852
g85
g86
ssg74
g1846
sg67
(lp1853
S'script_name'
p1854
asbag60
(g81
g62
NtRp1855
(dp1856
g65
(dp1857
g92
g93
ssg74
g1846
sg67
(lp1858
S':'
asbag60
(g81
g62
NtRp1859
(dp1860
g65
(dp1861
sg74
g1846
sg67
(lp1862
g60
(g61
g62
NtRp1863
(dp1864
g65
(dp1865
g73
I4
ssg74
g1859
sg67
(lp1866
S''
asbasbasbag60
(g76
g62
NtRp1867
(dp1868
g65
(dp1869
sg74
g1380
sg67
(lp1870
g60
(g81
g62
NtRp1871
(dp1872
g65
(dp1873
g85
g86
ssg74
g1867
sg67
(lp1874
S'server_name'
p1875
asbag60
(g81
g62
NtRp1876
(dp1877
g65
(dp1878
g92
g93
ssg74
g1867
sg67
(lp1879
S':'
asbag60
(g81
g62
NtRp1880
(dp1881
g65
(dp1882
sg74
g1867
sg67
(lp1883
g60
(g61
g62
NtRp1884
(dp1885
g65
(dp1886
g73
I4
ssg74
g1880
sg67
(lp1887
S'Magnus-Specialis.local'
p1888
asbasbasbag60
(g76
g62
NtRp1889
(dp1890
g65
(dp1891
sg74
g1380
sg67
(lp1892
g60
(g81
g62
NtRp1893
(dp1894
g65
(dp1895
g85
g86
ssg74
g1889
sg67
(lp1896
S'server_port'
p1897
asbag60
(g81
g62
NtRp1898
(dp1899
g65
(dp1900
g92
g93
ssg74
g1889
sg67
(lp1901
S':'
asbag60
(g81
g62
NtRp1902
(dp1903
g65
(dp1904
sg74
g1889
sg67
(lp1905
g60
(g61
g62
NtRp1906
(dp1907
g65
(dp1908
g73
I4
ssg74
g1902
sg67
(lp1909
S'8000'
p1910
asbasbasbag60
(g76
g62
NtRp1911
(dp1912
g65
(dp1913
sg74
g1380
sg67
(lp1914
g60
(g81
g62
NtRp1915
(dp1916
g65
(dp1917
g85
g86
ssg74
g1911
sg67
(lp1918
S'server_protocol'
p1919
asbag60
(g81
g62
NtRp1920
(dp1921
g65
(dp1922
g92
g93
ssg74
g1911
sg67
(lp1923
S':'
asbag60
(g81
g62
NtRp1924
(dp1925
g65
(dp1926
sg74
g1911
sg67
(lp1927
g60
(g61
g62
NtRp1928
(dp1929
g65
(dp1930
g73
I4
ssg74
g1924
sg67
(lp1931
S'HTTP/1.1'
p1932
asbasbasbag60
(g76
g62
NtRp1933
(dp1934
g65
(dp1935
sg74
g1380
sg67
(lp1936
g60
(g81
g62
NtRp1937
(dp1938
g65
(dp1939
g85
g86
ssg74
g1933
sg67
(lp1940
S'server_software'
p1941
asbag60
(g81
g62
NtRp1942
(dp1943
g65
(dp1944
g92
g93
ssg74
g1933
sg67
(lp1945
S':'
asbag60
(g81
g62
NtRp1946
(dp1947
g65
(dp1948
sg74
g1933
sg67
(lp1949
g60
(g61
g62
NtRp1950
(dp1951
g65
(dp1952
g73
I4
ssg74
g1946
sg67
(lp1953
S'Rocket 1.2.2'
p1954
asbasbasbag60
(g76
g62
NtRp1955
(dp1956
g65
(dp1957
sg74
g1380
sg67
(lp1958
g60
(g81
g62
NtRp1959
(dp1960
g65
(dp1961
g85
g86
ssg74
g1955
sg67
(lp1962
S'web2py_crontype'
p1963
asbag60
(g81
g62
NtRp1964
(dp1965
g65
(dp1966
g92
g93
ssg74
g1955
sg67
(lp1967
S':'
asbag60
(g81
g62
NtRp1968
(dp1969
g65
(dp1970
sg74
g1955
sg67
(lp1971
g60
(g61
g62
NtRp1972
(dp1973
g65
(dp1974
g73
I4
ssg74
g1968
sg67
(lp1975
S'hard'
p1976
asbasbasbag60
(g76
g62
NtRp1977
(dp1978
g65
(dp1979
sg74
g1380
sg67
(lp1980
g60
(g81
g62
NtRp1981
(dp1982
g65
(dp1983
g85
g86
ssg74
g1977
sg67
(lp1984
S'web2py_path'
p1985
asbag60
(g81
g62
NtRp1986
(dp1987
g65
(dp1988
g92
g93
ssg74
g1977
sg67
(lp1989
S':'
asbag60
(g81
g62
NtRp1990
(dp1991
g65
(dp1992
sg74
g1977
sg67
(lp1993
g60
(g61
g62
NtRp1994
(dp1995
g65
(dp1996
g73
I4
ssg74
g1990
sg67
(lp1997
g1427
asbasbasbag60
(g76
g62
NtRp1998
(dp1999
g65
(dp2000
sg74
g1380
sg67
(lp2001
g60
(g81
g62
NtRp2002
(dp2003
g65
(dp2004
g85
g86
ssg74
g1998
sg67
(lp2005
S'web2py_version'
p2006
asbag60
(g81
g62
NtRp2007
(dp2008
g65
(dp2009
g92
g93
ssg74
g1998
sg67
(lp2010
S':'
asbag60
(g81
g62
NtRp2011
(dp2012
g65
(dp2013
sg74
g1998
sg67
(lp2014
g60
(g61
g62
NtRp2015
(dp2016
g65
(dp2017
g73
I4
ssg74
g2011
sg67
(lp2018
S'Version 1.97.1 (2011-06-26 19:25:44)\n'
p2019
asbasbasbag60
(g76
g62
NtRp2020
(dp2021
g65
(dp2022
sg74
g1380
sg67
(lp2023
g60
(g81
g62
NtRp2024
(dp2025
g65
(dp2026
g85
g86
ssg74
g2020
sg67
(lp2027
S'wsgi_errors'
p2028
asbag60
(g81
g62
NtRp2029
(dp2030
g65
(dp2031
g92
g93
ssg74
g2020
sg67
(lp2032
S':'
asbag60
(g81
g62
NtRp2033
(dp2034
g65
(dp2035
sg74
g2020
sg67
(lp2036
g60
(g61
g62
NtRp2037
(dp2038
g65
(dp2039
g73
I4
ssg74
g2033
sg67
(lp2040
S"<open file '<stderr>', mode 'w' at 0x100283270>"
p2041
asbasbasbag60
(g76
g62
NtRp2042
(dp2043
g65
(dp2044
sg74
g1380
sg67
(lp2045
g60
(g81
g62
NtRp2046
(dp2047
g65
(dp2048
g85
g86
ssg74
g2042
sg67
(lp2049
S'wsgi_file_wrapper'
p2050
asbag60
(g81
g62
NtRp2051
(dp2052
g65
(dp2053
g92
g93
ssg74
g2042
sg67
(lp2054
S':'
asbag60
(g81
g62
NtRp2055
(dp2056
g65
(dp2057
sg74
g2042
sg67
(lp2058
g60
(g61
g62
NtRp2059
(dp2060
g65
(dp2061
g73
I4
ssg74
g2055
sg67
(lp2062
S'<class gluon.rocket.FileWrapper at 0x101976ef0>'
p2063
asbasbasbag60
(g76
g62
NtRp2064
(dp2065
g65
(dp2066
sg74
g1380
sg67
(lp2067
g60
(g81
g62
NtRp2068
(dp2069
g65
(dp2070
g85
g86
ssg74
g2064
sg67
(lp2071
S'wsgi_input'
p2072
asbag60
(g81
g62
NtRp2073
(dp2074
g65
(dp2075
g92
g93
ssg74
g2064
sg67
(lp2076
S':'
asbag60
(g81
g62
NtRp2077
(dp2078
g65
(dp2079
sg74
g2064
sg67
(lp2080
g60
(g61
g62
NtRp2081
(dp2082
g65
(dp2083
g73
I4
ssg74
g2077
sg67
(lp2084
S'<socket._fileobject object at 0x104cce750>'
p2085
asbasbasbag60
(g76
g62
NtRp2086
(dp2087
g65
(dp2088
sg74
g1380
sg67
(lp2089
g60
(g81
g62
NtRp2090
(dp2091
g65
(dp2092
g85
g86
ssg74
g2086
sg67
(lp2093
S'wsgi_multiprocess'
p2094
asbag60
(g81
g62
NtRp2095
(dp2096
g65
(dp2097
g92
g93
ssg74
g2086
sg67
(lp2098
S':'
asbag60
(g81
g62
NtRp2099
(dp2100
g65
(dp2101
sg74
g2086
sg67
(lp2102
g60
(g61
g62
NtRp2103
(dp2104
g65
(dp2105
g73
I4
ssg74
g2099
sg67
(lp2106
g103
asbasbasbag60
(g76
g62
NtRp2107
(dp2108
g65
(dp2109
sg74
g1380
sg67
(lp2110
g60
(g81
g62
NtRp2111
(dp2112
g65
(dp2113
g85
g86
ssg74
g2107
sg67
(lp2114
S'wsgi_multithread'
p2115
asbag60
(g81
g62
NtRp2116
(dp2117
g65
(dp2118
g92
g93
ssg74
g2107
sg67
(lp2119
S':'
asbag60
(g81
g62
NtRp2120
(dp2121
g65
(dp2122
sg74
g2107
sg67
(lp2123
g60
(g61
g62
NtRp2124
(dp2125
g65
(dp2126
g73
I4
ssg74
g2120
sg67
(lp2127
S'True'
p2128
asbasbasbag60
(g76
g62
NtRp2129
(dp2130
g65
(dp2131
sg74
g1380
sg67
(lp2132
g60
(g81
g62
NtRp2133
(dp2134
g65
(dp2135
g85
g86
ssg74
g2129
sg67
(lp2136
S'wsgi_run_once'
p2137
asbag60
(g81
g62
NtRp2138
(dp2139
g65
(dp2140
g92
g93
ssg74
g2129
sg67
(lp2141
S':'
asbag60
(g81
g62
NtRp2142
(dp2143
g65
(dp2144
sg74
g2129
sg67
(lp2145
g60
(g61
g62
NtRp2146
(dp2147
g65
(dp2148
g73
I4
ssg74
g2142
sg67
(lp2149
g103
asbasbasbag60
(g76
g62
NtRp2150
(dp2151
g65
(dp2152
sg74
g1380
sg67
(lp2153
g60
(g81
g62
NtRp2154
(dp2155
g65
(dp2156
g85
g86
ssg74
g2150
sg67
(lp2157
S'wsgi_url_scheme'
p2158
asbag60
(g81
g62
NtRp2159
(dp2160
g65
(dp2161
g92
g93
ssg74
g2150
sg67
(lp2162
S':'
asbag60
(g81
g62
NtRp2163
(dp2164
g65
(dp2165
sg74
g2150
sg67
(lp2166
g60
(g61
g62
NtRp2167
(dp2168
g65
(dp2169
g73
I4
ssg74
g2163
sg67
(lp2170
S'http'
p2171
asbasbasbag60
(g76
g62
NtRp2172
(dp2173
g65
(dp2174
sg74
g1380
sg67
(lp2175
g60
(g81
g62
NtRp2176
(dp2177
g65
(dp2178
g85
g86
ssg74
g2172
sg67
(lp2179
S'wsgi_version'
p2180
asbag60
(g81
g62
NtRp2181
(dp2182
g65
(dp2183
g92
g93
ssg74
g2172
sg67
(lp2184
S':'
asbag60
(g81
g62
NtRp2185
(dp2186
g65
(dp2187
sg74
g2172
sg67
(lp2188
g60
(g61
g62
NtRp2189
(dp2190
g65
(dp2191
g73
I4
ssg74
g2185
sg67
(lp2192
g60
(g69
g62
NtRp2193
(dp2194
g65
(dp2195
g73
I3
ssg74
Nsg67
(lp2196
g60
(g76
g62
NtRp2197
(dp2198
g65
(dp2199
sg74
g2193
sg67
(lp2200
g60
(g81
g62
NtRp2201
(dp2202
g65
(dp2203
sg74
g2197
sg67
(lp2204
g60
(g61
g62
NtRp2205
(dp2206
g65
(dp2207
g73
I3
ssg74
g2201
sg67
(lp2208
S'1'
asbasbasbag60
(g76
g62
NtRp2209
(dp2210
g65
(dp2211
sg74
g2193
sg67
(lp2212
g60
(g81
g62
NtRp2213
(dp2214
g65
(dp2215
sg74
g2209
sg67
(lp2216
g60
(g61
g62
NtRp2217
(dp2218
g65
(dp2219
g73
I3
ssg74
g2213
sg67
(lp2220
S'0'
asbasbasbasbasbasbasbasbasbasbasbag60
(g76
g62
NtRp2221
(dp2222
g65
(dp2223
sg74
g70
sg67
(lp2224
g60
(g81
g62
NtRp2225
(dp2226
g65
(dp2227
g85
g86
ssg74
g2221
sg67
(lp2228
S'extension'
p2229
asbag60
(g81
g62
NtRp2230
(dp2231
g65
(dp2232
g92
g93
ssg74
g2221
sg67
(lp2233
S':'
asbag60
(g81
g62
NtRp2234
(dp2235
g65
(dp2236
sg74
g2221
sg67
(lp2237
g60
(g61
g62
NtRp2238
(dp2239
g65
(dp2240
g73
I5
ssg74
g2234
sg67
(lp2241
S'html'
p2242
asbasbasbag60
(g76
g62
NtRp2243
(dp2244
g65
(dp2245
sg74
g70
sg67
(lp2246
g60
(g81
g62
NtRp2247
(dp2248
g65
(dp2249
g85
g86
ssg74
g2243
sg67
(lp2250
S'folder'
p2251
asbag60
(g81
g62
NtRp2252
(dp2253
g65
(dp2254
g92
g93
ssg74
g2243
sg67
(lp2255
S':'
asbag60
(g81
g62
NtRp2256
(dp2257
g65
(dp2258
sg74
g2243
sg67
(lp2259
g60
(g61
g62
NtRp2260
(dp2261
g65
(dp2262
g73
I5
ssg74
g2256
sg67
(lp2263
S'/Users/schultzc/workspace/wherespuppet/web2py/applications/wp/'
p2264
asbasbasbag60
(g76
g62
NtRp2265
(dp2266
g65
(dp2267
sg74
g70
sg67
(lp2268
g60
(g81
g62
NtRp2269
(dp2270
g65
(dp2271
g85
g86
ssg74
g2265
sg67
(lp2272
S'function'
p2273
asbag60
(g81
g62
NtRp2274
(dp2275
g65
(dp2276
g92
g93
ssg74
g2265
sg67
(lp2277
S':'
asbag60
(g81
g62
NtRp2278
(dp2279
g65
(dp2280
sg74
g2265
sg67
(lp2281
g60
(g61
g62
NtRp2282
(dp2283
g65
(dp2284
g73
I5
ssg74
g2278
sg67
(lp2285
S'submit'
p2286
asbasbasbag60
(g76
g62
NtRp2287
(dp2288
g65
(dp2289
sg74
g70
sg67
(lp2290
g60
(g81
g62
NtRp2291
(dp2292
g65
(dp2293
g85
g86
ssg74
g2287
sg67
(lp2294
S'get_vars'
p2295
asbag60
(g81
g62
NtRp2296
(dp2297
g65
(dp2298
g92
g93
ssg74
g2287
sg67
(lp2299
S':'
asbag60
(g81
g62
NtRp2300
(dp2301
g65
(dp2302
sg74
g2287
sg67
(lp2303
g60
(g61
g62
NtRp2304
(dp2305
g65
(dp2306
g73
I5
ssg74
g2300
sg67
(lp2307
g60
(g69
g62
NtRp2308
(dp2309
g65
(dp2310
g73
I4
ssg74
Nsg67
(lp2311
sbasbasbasbag60
(g76
g62
NtRp2312
(dp2313
g65
(dp2314
sg74
g70
sg67
(lp2315
g60
(g81
g62
NtRp2316
(dp2317
g65
(dp2318
g85
g86
ssg74
g2312
sg67
(lp2319
S'is_https'
p2320
asbag60
(g81
g62
NtRp2321
(dp2322
g65
(dp2323
g92
g93
ssg74
g2312
sg67
(lp2324
S':'
asbag60
(g81
g62
NtRp2325
(dp2326
g65
(dp2327
sg74
g2312
sg67
(lp2328
g60
(g61
g62
NtRp2329
(dp2330
g65
(dp2331
g73
I5
ssg74
g2325
sg67
(lp2332
g103
asbasbasbag60
(g76
g62
NtRp2333
(dp2334
g65
(dp2335
sg74
g70
sg67
(lp2336
g60
(g81
g62
NtRp2337
(dp2338
g65
(dp2339
g85
g86
ssg74
g2333
sg67
(lp2340
S'is_local'
p2341
asbag60
(g81
g62
NtRp2342
(dp2343
g65
(dp2344
g92
g93
ssg74
g2333
sg67
(lp2345
S':'
asbag60
(g81
g62
NtRp2346
(dp2347
g65
(dp2348
sg74
g2333
sg67
(lp2349
g60
(g61
g62
NtRp2350
(dp2351
g65
(dp2352
g73
I5
ssg74
g2346
sg67
(lp2353
g2128
asbasbasbag60
(g76
g62
NtRp2354
(dp2355
g65
(dp2356
sg74
g70
sg67
(lp2357
g60
(g81
g62
NtRp2358
(dp2359
g65
(dp2360
g85
g86
ssg74
g2354
sg67
(lp2361
S'is_restful'
p2362
asbag60
(g81
g62
NtRp2363
(dp2364
g65
(dp2365
g92
g93
ssg74
g2354
sg67
(lp2366
S':'
asbag60
(g81
g62
NtRp2367
(dp2368
g65
(dp2369
sg74
g2354
sg67
(lp2370
g60
(g61
g62
NtRp2371
(dp2372
g65
(dp2373
g73
I5
ssg74
g2367
sg67
(lp2374
g103
asbasbasbag60
(g76
g62
NtRp2375
(dp2376
g65
(dp2377
sg74
g70
sg67
(lp2378
g60
(g81
g62
NtRp2379
(dp2380
g65
(dp2381
g85
g86
ssg74
g2375
sg67
(lp2382
S'now'
p2383
asbag60
(g81
g62
NtRp2384
(dp2385
g65
(dp2386
g92
g93
ssg74
g2375
sg67
(lp2387
S':'
asbag60
(g81
g62
NtRp2388
(dp2389
g65
(dp2390
sg74
g2375
sg67
(lp2391
g60
(g61
g62
NtRp2392
(dp2393
g65
(dp2394
g73
I5
ssg74
g2388
sg67
(lp2395
S'datetime.datetime(2011, 7, 25, 13, 50, 32, 138417)'
p2396
asbasbasbag60
(g76
g62
NtRp2397
(dp2398
g65
(dp2399
sg74
g70
sg67
(lp2400
g60
(g81
g62
NtRp2401
(dp2402
g65
(dp2403
g85
g86
ssg74
g2397
sg67
(lp2404
S'post_vars'
p2405
asbag60
(g81
g62
NtRp2406
(dp2407
g65
(dp2408
g92
g93
ssg74
g2397
sg67
(lp2409
S':'
asbag60
(g81
g62
NtRp2410
(dp2411
g65
(dp2412
sg74
g2397
sg67
(lp2413
g60
(g61
g62
NtRp2414
(dp2415
g65
(dp2416
g73
I5
ssg74
g2410
sg67
(lp2417
g60
(g69
g62
NtRp2418
(dp2419
g65
(dp2420
g73
I4
ssg74
Nsg67
(lp2421
sbasbasbasbag60
(g76
g62
NtRp2422
(dp2423
g65
(dp2424
sg74
g70
sg67
(lp2425
g60
(g81
g62
NtRp2426
(dp2427
g65
(dp2428
g85
g86
ssg74
g2422
sg67
(lp2429
S'url'
p2430
asbag60
(g81
g62
NtRp2431
(dp2432
g65
(dp2433
g92
g93
ssg74
g2422
sg67
(lp2434
S':'
asbag60
(g81
g62
NtRp2435
(dp2436
g65
(dp2437
sg74
g2422
sg67
(lp2438
g60
(g61
g62
NtRp2439
(dp2440
g65
(dp2441
g73
I5
ssg74
g2435
sg67
(lp2442
S'/wp/default/submit'
p2443
asbasbasbag60
(g76
g62
NtRp2444
(dp2445
g65
(dp2446
sg74
g70
sg67
(lp2447
g60
(g81
g62
NtRp2448
(dp2449
g65
(dp2450
g85
g86
ssg74
g2444
sg67
(lp2451
S'uuid'
p2452
asbag60
(g81
g62
NtRp2453
(dp2454
g65
(dp2455
g92
g93
ssg74
g2444
sg67
(lp2456
S':'
asbag60
(g81
g62
NtRp2457
(dp2458
g65
(dp2459
sg74
g2444
sg67
(lp2460
g60
(g61
g62
NtRp2461
(dp2462
g65
(dp2463
g73
I5
ssg74
g2457
sg67
(lp2464
S'wp/127.0.0.1.2011-07-25.13-50-32.eb504642-b5f4-4614-8925-b64bfd72f108'
p2465
asbasbasbag60
(g76
g62
NtRp2466
(dp2467
g65
(dp2468
sg74
g70
sg67
(lp2469
g60
(g81
g62
NtRp2470
(dp2471
g65
(dp2472
g85
g86
ssg74
g2466
sg67
(lp2473
S'vars'
p2474
asbag60
(g81
g62
NtRp2475
(dp2476
g65
(dp2477
g92
g93
ssg74
g2466
sg67
(lp2478
S':'
asbag60
(g81
g62
NtRp2479
(dp2480
g65
(dp2481
sg74
g2466
sg67
(lp2482
g60
(g61
g62
NtRp2483
(dp2484
g65
(dp2485
g73
I5
ssg74
g2479
sg67
(lp2486
g60
(g69
g62
NtRp2487
(dp2488
g65
(dp2489
g73
I4
ssg74
Nsg67
(lp2490
sbasbasbasbag60
(g76
g62
NtRp2491
(dp2492
g65
(dp2493
sg74
g70
sg67
(lp2494
g60
(g81
g62
NtRp2495
(dp2496
g65
(dp2497
g85
g86
ssg74
g2491
sg67
(lp2498
S'wsgi'
p2499
asbag60
(g81
g62
NtRp2500
(dp2501
g65
(dp2502
g92
g93
ssg74
g2491
sg67
(lp2503
S':'
asbag60
(g81
g62
NtRp2504
(dp2505
g65
(dp2506
sg74
g2491
sg67
(lp2507
g60
(g61
g62
NtRp2508
(dp2509
g65
(dp2510
g73
I5
ssg74
g2504
sg67
(lp2511
g60
(g69
g62
NtRp2512
(dp2513
g65
(dp2514
g73
I4
ssg74
Nsg67
(lp2515
g60
(g76
g62
NtRp2516
(dp2517
g65
(dp2518
sg74
g2512
sg67
(lp2519
g60
(g81
g62
NtRp2520
(dp2521
g65
(dp2522
g85
g86
ssg74
g2516
sg67
(lp2523
S'environ'
p2524
asbag60
(g81
g62
NtRp2525
(dp2526
g65
(dp2527
g92
g93
ssg74
g2516
sg67
(lp2528
S':'
asbag60
(g81
g62
NtRp2529
(dp2530
g65
(dp2531
sg74
g2516
sg67
(lp2532
g60
(g61
g62
NtRp2533
(dp2534
g65
(dp2535
g73
I4
ssg74
g2529
sg67
(lp2536
g60
(g69
g62
NtRp2537
(dp2538
g65
(dp2539
g73
I3
ssg74
Nsg67
(lp2540
g60
(g76
g62
NtRp2541
(dp2542
g65
(dp2543
sg74
g2537
sg67
(lp2544
g60
(g81
g62
NtRp2545
(dp2546
g65
(dp2547
g85
g86
ssg74
g2541
sg67
(lp2548
S'HTTP_ACCEPT'
p2549
asbag60
(g81
g62
NtRp2550
(dp2551
g65
(dp2552
g92
g93
ssg74
g2541
sg67
(lp2553
S':'
asbag60
(g81
g62
NtRp2554
(dp2555
g65
(dp2556
sg74
g2541
sg67
(lp2557
g60
(g61
g62
NtRp2558
(dp2559
g65
(dp2560
g73
I3
ssg74
g2554
sg67
(lp2561
g1561
asbasbasbag60
(g76
g62
NtRp2562
(dp2563
g65
(dp2564
sg74
g2537
sg67
(lp2565
g60
(g81
g62
NtRp2566
(dp2567
g65
(dp2568
g85
g86
ssg74
g2562
sg67
(lp2569
S'HTTP_ACCEPT_CHARSET'
p2570
asbag60
(g81
g62
NtRp2571
(dp2572
g65
(dp2573
g92
g93
ssg74
g2562
sg67
(lp2574
S':'
asbag60
(g81
g62
NtRp2575
(dp2576
g65
(dp2577
sg74
g2562
sg67
(lp2578
g60
(g61
g62
NtRp2579
(dp2580
g65
(dp2581
g73
I3
ssg74
g2575
sg67
(lp2582
g1583
asbasbasbag60
(g76
g62
NtRp2583
(dp2584
g65
(dp2585
sg74
g2537
sg67
(lp2586
g60
(g81
g62
NtRp2587
(dp2588
g65
(dp2589
g85
g86
ssg74
g2583
sg67
(lp2590
S'HTTP_ACCEPT_ENCODING'
p2591
asbag60
(g81
g62
NtRp2592
(dp2593
g65
(dp2594
g92
g93
ssg74
g2583
sg67
(lp2595
S':'
asbag60
(g81
g62
NtRp2596
(dp2597
g65
(dp2598
sg74
g2583
sg67
(lp2599
g60
(g61
g62
NtRp2600
(dp2601
g65
(dp2602
g73
I3
ssg74
g2596
sg67
(lp2603
g1605
asbasbasbag60
(g76
g62
NtRp2604
(dp2605
g65
(dp2606
sg74
g2537
sg67
(lp2607
g60
(g81
g62
NtRp2608
(dp2609
g65
(dp2610
g85
g86
ssg74
g2604
sg67
(lp2611
S'HTTP_ACCEPT_LANGUAGE'
p2612
asbag60
(g81
g62
NtRp2613
(dp2614
g65
(dp2615
g92
g93
ssg74
g2604
sg67
(lp2616
S':'
asbag60
(g81
g62
NtRp2617
(dp2618
g65
(dp2619
sg74
g2604
sg67
(lp2620
g60
(g61
g62
NtRp2621
(dp2622
g65
(dp2623
g73
I3
ssg74
g2617
sg67
(lp2624
g1627
asbasbasbag60
(g76
g62
NtRp2625
(dp2626
g65
(dp2627
sg74
g2537
sg67
(lp2628
g60
(g81
g62
NtRp2629
(dp2630
g65
(dp2631
g85
g86
ssg74
g2625
sg67
(lp2632
S'HTTP_CACHE_CONTROL'
p2633
asbag60
(g81
g62
NtRp2634
(dp2635
g65
(dp2636
g92
g93
ssg74
g2625
sg67
(lp2637
S':'
asbag60
(g81
g62
NtRp2638
(dp2639
g65
(dp2640
sg74
g2625
sg67
(lp2641
g60
(g61
g62
NtRp2642
(dp2643
g65
(dp2644
g73
I3
ssg74
g2638
sg67
(lp2645
g1649
asbasbasbag60
(g76
g62
NtRp2646
(dp2647
g65
(dp2648
sg74
g2537
sg67
(lp2649
g60
(g81
g62
NtRp2650
(dp2651
g65
(dp2652
g85
g86
ssg74
g2646
sg67
(lp2653
S'HTTP_CONNECTION'
p2654
asbag60
(g81
g62
NtRp2655
(dp2656
g65
(dp2657
g92
g93
ssg74
g2646
sg67
(lp2658
S':'
asbag60
(g81
g62
NtRp2659
(dp2660
g65
(dp2661
sg74
g2646
sg67
(lp2662
g60
(g61
g62
NtRp2663
(dp2664
g65
(dp2665
g73
I3
ssg74
g2659
sg67
(lp2666
g1671
asbasbasbag60
(g76
g62
NtRp2667
(dp2668
g65
(dp2669
sg74
g2537
sg67
(lp2670
g60
(g81
g62
NtRp2671
(dp2672
g65
(dp2673
g85
g86
ssg74
g2667
sg67
(lp2674
S'HTTP_COOKIE'
p2675
asbag60
(g81
g62
NtRp2676
(dp2677
g65
(dp2678
g92
g93
ssg74
g2667
sg67
(lp2679
S':'
asbag60
(g81
g62
NtRp2680
(dp2681
g65
(dp2682
sg74
g2667
sg67
(lp2683
g60
(g61
g62
NtRp2684
(dp2685
g65
(dp2686
g73
I3
ssg74
g2680
sg67
(lp2687
g1693
asbasbasbag60
(g76
g62
NtRp2688
(dp2689
g65
(dp2690
sg74
g2537
sg67
(lp2691
g60
(g81
g62
NtRp2692
(dp2693
g65
(dp2694
g85
g86
ssg74
g2688
sg67
(lp2695
S'HTTP_HOST'
p2696
asbag60
(g81
g62
NtRp2697
(dp2698
g65
(dp2699
g92
g93
ssg74
g2688
sg67
(lp2700
S':'
asbag60
(g81
g62
NtRp2701
(dp2702
g65
(dp2703
sg74
g2688
sg67
(lp2704
g60
(g61
g62
NtRp2705
(dp2706
g65
(dp2707
g73
I3
ssg74
g2701
sg67
(lp2708
g1715
asbasbasbag60
(g76
g62
NtRp2709
(dp2710
g65
(dp2711
sg74
g2537
sg67
(lp2712
g60
(g81
g62
NtRp2713
(dp2714
g65
(dp2715
g85
g86
ssg74
g2709
sg67
(lp2716
S'HTTP_USER_AGENT'
p2717
asbag60
(g81
g62
NtRp2718
(dp2719
g65
(dp2720
g92
g93
ssg74
g2709
sg67
(lp2721
S':'
asbag60
(g81
g62
NtRp2722
(dp2723
g65
(dp2724
sg74
g2709
sg67
(lp2725
g60
(g61
g62
NtRp2726
(dp2727
g65
(dp2728
g73
I3
ssg74
g2722
sg67
(lp2729
g1737
asbasbasbag60
(g76
g62
NtRp2730
(dp2731
g65
(dp2732
sg74
g2537
sg67
(lp2733
g60
(g81
g62
NtRp2734
(dp2735
g65
(dp2736
g85
g86
ssg74
g2730
sg67
(lp2737
S'PATH_INFO'
p2738
asbag60
(g81
g62
NtRp2739
(dp2740
g65
(dp2741
g92
g93
ssg74
g2730
sg67
(lp2742
S':'
asbag60
(g81
g62
NtRp2743
(dp2744
g65
(dp2745
sg74
g2730
sg67
(lp2746
g60
(g61
g62
NtRp2747
(dp2748
g65
(dp2749
g73
I3
ssg74
g2743
sg67
(lp2750
g1759
asbasbasbag60
(g76
g62
NtRp2751
(dp2752
g65
(dp2753
sg74
g2537
sg67
(lp2754
g60
(g81
g62
NtRp2755
(dp2756
g65
(dp2757
g85
g86
ssg74
g2751
sg67
(lp2758
S'QUERY_STRING'
p2759
asbag60
(g81
g62
NtRp2760
(dp2761
g65
(dp2762
g92
g93
ssg74
g2751
sg67
(lp2763
S':'
asbag60
(g81
g62
NtRp2764
(dp2765
g65
(dp2766
sg74
g2751
sg67
(lp2767
g60
(g61
g62
NtRp2768
(dp2769
g65
(dp2770
g73
I3
ssg74
g2764
sg67
(lp2771
S''
asbasbasbag60
(g76
g62
NtRp2772
(dp2773
g65
(dp2774
sg74
g2537
sg67
(lp2775
g60
(g81
g62
NtRp2776
(dp2777
g65
(dp2778
g85
g86
ssg74
g2772
sg67
(lp2779
S'REMOTE_ADDR'
p2780
asbag60
(g81
g62
NtRp2781
(dp2782
g65
(dp2783
g92
g93
ssg74
g2772
sg67
(lp2784
S':'
asbag60
(g81
g62
NtRp2785
(dp2786
g65
(dp2787
sg74
g2772
sg67
(lp2788
g60
(g61
g62
NtRp2789
(dp2790
g65
(dp2791
g73
I3
ssg74
g2785
sg67
(lp2792
g193
asbasbasbag60
(g76
g62
NtRp2793
(dp2794
g65
(dp2795
sg74
g2537
sg67
(lp2796
g60
(g81
g62
NtRp2797
(dp2798
g65
(dp2799
g85
g86
ssg74
g2793
sg67
(lp2800
S'REMOTE_PORT'
p2801
asbag60
(g81
g62
NtRp2802
(dp2803
g65
(dp2804
g92
g93
ssg74
g2793
sg67
(lp2805
S':'
asbag60
(g81
g62
NtRp2806
(dp2807
g65
(dp2808
sg74
g2793
sg67
(lp2809
g60
(g61
g62
NtRp2810
(dp2811
g65
(dp2812
g73
I3
ssg74
g2806
sg67
(lp2813
g1823
asbasbasbag60
(g76
g62
NtRp2814
(dp2815
g65
(dp2816
sg74
g2537
sg67
(lp2817
g60
(g81
g62
NtRp2818
(dp2819
g65
(dp2820
g85
g86
ssg74
g2814
sg67
(lp2821
S'REQUEST_METHOD'
p2822
asbag60
(g81
g62
NtRp2823
(dp2824
g65
(dp2825
g92
g93
ssg74
g2814
sg67
(lp2826
S':'
asbag60
(g81
g62
NtRp2827
(dp2828
g65
(dp2829
sg74
g2814
sg67
(lp2830
g60
(g61
g62
NtRp2831
(dp2832
g65
(dp2833
g73
I3
ssg74
g2827
sg67
(lp2834
g1845
asbasbasbag60
(g76
g62
NtRp2835
(dp2836
g65
(dp2837
sg74
g2537
sg67
(lp2838
g60
(g81
g62
NtRp2839
(dp2840
g65
(dp2841
g85
g86
ssg74
g2835
sg67
(lp2842
S'SCRIPT_NAME'
p2843
asbag60
(g81
g62
NtRp2844
(dp2845
g65
(dp2846
g92
g93
ssg74
g2835
sg67
(lp2847
S':'
asbag60
(g81
g62
NtRp2848
(dp2849
g65
(dp2850
sg74
g2835
sg67
(lp2851
g60
(g61
g62
NtRp2852
(dp2853
g65
(dp2854
g73
I3
ssg74
g2848
sg67
(lp2855
S''
asbasbasbag60
(g76
g62
NtRp2856
(dp2857
g65
(dp2858
sg74
g2537
sg67
(lp2859
g60
(g81
g62
NtRp2860
(dp2861
g65
(dp2862
g85
g86
ssg74
g2856
sg67
(lp2863
S'SERVER_NAME'
p2864
asbag60
(g81
g62
NtRp2865
(dp2866
g65
(dp2867
g92
g93
ssg74
g2856
sg67
(lp2868
S':'
asbag60
(g81
g62
NtRp2869
(dp2870
g65
(dp2871
sg74
g2856
sg67
(lp2872
g60
(g61
g62
NtRp2873
(dp2874
g65
(dp2875
g73
I3
ssg74
g2869
sg67
(lp2876
g1888
asbasbasbag60
(g76
g62
NtRp2877
(dp2878
g65
(dp2879
sg74
g2537
sg67
(lp2880
g60
(g81
g62
NtRp2881
(dp2882
g65
(dp2883
g85
g86
ssg74
g2877
sg67
(lp2884
S'SERVER_PORT'
p2885
asbag60
(g81
g62
NtRp2886
(dp2887
g65
(dp2888
g92
g93
ssg74
g2877
sg67
(lp2889
S':'
asbag60
(g81
g62
NtRp2890
(dp2891
g65
(dp2892
sg74
g2877
sg67
(lp2893
g60
(g61
g62
NtRp2894
(dp2895
g65
(dp2896
g73
I3
ssg74
g2890
sg67
(lp2897
g1910
asbasbasbag60
(g76
g62
NtRp2898
(dp2899
g65
(dp2900
sg74
g2537
sg67
(lp2901
g60
(g81
g62
NtRp2902
(dp2903
g65
(dp2904
g85
g86
ssg74
g2898
sg67
(lp2905
S'SERVER_PROTOCOL'
p2906
asbag60
(g81
g62
NtRp2907
(dp2908
g65
(dp2909
g92
g93
ssg74
g2898
sg67
(lp2910
S':'
asbag60
(g81
g62
NtRp2911
(dp2912
g65
(dp2913
sg74
g2898
sg67
(lp2914
g60
(g61
g62
NtRp2915
(dp2916
g65
(dp2917
g73
I3
ssg74
g2911
sg67
(lp2918
g1932
asbasbasbag60
(g76
g62
NtRp2919
(dp2920
g65
(dp2921
sg74
g2537
sg67
(lp2922
g60
(g81
g62
NtRp2923
(dp2924
g65
(dp2925
g85
g86
ssg74
g2919
sg67
(lp2926
S'SERVER_SOFTWARE'
p2927
asbag60
(g81
g62
NtRp2928
(dp2929
g65
(dp2930
g92
g93
ssg74
g2919
sg67
(lp2931
S':'
asbag60
(g81
g62
NtRp2932
(dp2933
g65
(dp2934
sg74
g2919
sg67
(lp2935
g60
(g61
g62
NtRp2936
(dp2937
g65
(dp2938
g73
I3
ssg74
g2932
sg67
(lp2939
g1954
asbasbasbag60
(g76
g62
NtRp2940
(dp2941
g65
(dp2942
sg74
g2537
sg67
(lp2943
g60
(g81
g62
NtRp2944
(dp2945
g65
(dp2946
g85
g86
ssg74
g2940
sg67
(lp2947
S'wsgi.errors'
p2948
asbag60
(g81
g62
NtRp2949
(dp2950
g65
(dp2951
g92
g93
ssg74
g2940
sg67
(lp2952
S':'
asbag60
(g81
g62
NtRp2953
(dp2954
g65
(dp2955
sg74
g2940
sg67
(lp2956
g60
(g61
g62
NtRp2957
(dp2958
g65
(dp2959
g73
I3
ssg74
g2953
sg67
(lp2960
S"<open file '<stderr>', mode 'w' at 0x100283270>"
p2961
asbasbasbag60
(g76
g62
NtRp2962
(dp2963
g65
(dp2964
sg74
g2537
sg67
(lp2965
g60
(g81
g62
NtRp2966
(dp2967
g65
(dp2968
g85
g86
ssg74
g2962
sg67
(lp2969
S'wsgi.file_wrapper'
p2970
asbag60
(g81
g62
NtRp2971
(dp2972
g65
(dp2973
g92
g93
ssg74
g2962
sg67
(lp2974
S':'
asbag60
(g81
g62
NtRp2975
(dp2976
g65
(dp2977
sg74
g2962
sg67
(lp2978
g60
(g61
g62
NtRp2979
(dp2980
g65
(dp2981
g73
I3
ssg74
g2975
sg67
(lp2982
S'<class gluon.rocket.FileWrapper at 0x101976ef0>'
p2983
asbasbasbag60
(g76
g62
NtRp2984
(dp2985
g65
(dp2986
sg74
g2537
sg67
(lp2987
g60
(g81
g62
NtRp2988
(dp2989
g65
(dp2990
g85
g86
ssg74
g2984
sg67
(lp2991
S'wsgi.input'
p2992
asbag60
(g81
g62
NtRp2993
(dp2994
g65
(dp2995
g92
g93
ssg74
g2984
sg67
(lp2996
S':'
asbag60
(g81
g62
NtRp2997
(dp2998
g65
(dp2999
sg74
g2984
sg67
(lp3000
g60
(g61
g62
NtRp3001
(dp3002
g65
(dp3003
g73
I3
ssg74
g2997
sg67
(lp3004
S'<cStringIO.StringO object at 0x102712730>'
p3005
asbasbasbag60
(g76
g62
NtRp3006
(dp3007
g65
(dp3008
sg74
g2537
sg67
(lp3009
g60
(g81
g62
NtRp3010
(dp3011
g65
(dp3012
g85
g86
ssg74
g3006
sg67
(lp3013
S'wsgi.multiprocess'
p3014
asbag60
(g81
g62
NtRp3015
(dp3016
g65
(dp3017
g92
g93
ssg74
g3006
sg67
(lp3018
S':'
asbag60
(g81
g62
NtRp3019
(dp3020
g65
(dp3021
sg74
g3006
sg67
(lp3022
g60
(g61
g62
NtRp3023
(dp3024
g65
(dp3025
g73
I3
ssg74
g3019
sg67
(lp3026
g103
asbasbasbag60
(g76
g62
NtRp3027
(dp3028
g65
(dp3029
sg74
g2537
sg67
(lp3030
g60
(g81
g62
NtRp3031
(dp3032
g65
(dp3033
g85
g86
ssg74
g3027
sg67
(lp3034
S'wsgi.multithread'
p3035
asbag60
(g81
g62
NtRp3036
(dp3037
g65
(dp3038
g92
g93
ssg74
g3027
sg67
(lp3039
S':'
asbag60
(g81
g62
NtRp3040
(dp3041
g65
(dp3042
sg74
g3027
sg67
(lp3043
g60
(g61
g62
NtRp3044
(dp3045
g65
(dp3046
g73
I3
ssg74
g3040
sg67
(lp3047
g2128
asbasbasbag60
(g76
g62
NtRp3048
(dp3049
g65
(dp3050
sg74
g2537
sg67
(lp3051
g60
(g81
g62
NtRp3052
(dp3053
g65
(dp3054
g85
g86
ssg74
g3048
sg67
(lp3055
S'wsgi.run_once'
p3056
asbag60
(g81
g62
NtRp3057
(dp3058
g65
(dp3059
g92
g93
ssg74
g3048
sg67
(lp3060
S':'
asbag60
(g81
g62
NtRp3061
(dp3062
g65
(dp3063
sg74
g3048
sg67
(lp3064
g60
(g61
g62
NtRp3065
(dp3066
g65
(dp3067
g73
I3
ssg74
g3061
sg67
(lp3068
g103
asbasbasbag60
(g76
g62
NtRp3069
(dp3070
g65
(dp3071
sg74
g2537
sg67
(lp3072
g60
(g81
g62
NtRp3073
(dp3074
g65
(dp3075
g85
g86
ssg74
g3069
sg67
(lp3076
S'wsgi.url_scheme'
p3077
asbag60
(g81
g62
NtRp3078
(dp3079
g65
(dp3080
g92
g93
ssg74
g3069
sg67
(lp3081
S':'
asbag60
(g81
g62
NtRp3082
(dp3083
g65
(dp3084
sg74
g3069
sg67
(lp3085
g60
(g61
g62
NtRp3086
(dp3087
g65
(dp3088
g73
I3
ssg74
g3082
sg67
(lp3089
g2171
asbasbasbag60
(g76
g62
NtRp3090
(dp3091
g65
(dp3092
sg74
g2537
sg67
(lp3093
g60
(g81
g62
NtRp3094
(dp3095
g65
(dp3096
g85
g86
ssg74
g3090
sg67
(lp3097
S'wsgi.version'
p3098
asbag60
(g81
g62
NtRp3099
(dp3100
g65
(dp3101
g92
g93
ssg74
g3090
sg67
(lp3102
S':'
asbag60
(g81
g62
NtRp3103
(dp3104
g65
(dp3105
sg74
g3090
sg67
(lp3106
g60
(g61
g62
NtRp3107
(dp3108
g65
(dp3109
g73
I3
ssg74
g3103
sg67
(lp3110
S'1'
asbasbasbasbasbasbasbasbasbasbasbasbasbsS'frames'
p3111
(lp3112
(dp3113
S'file'
p3114
S'/Users/schultzc/workspace/wherespuppet/web2py/gluon/restricted.py'
p3115
sS'dump'
p3116
(dp3117
S'environment'
p3118
S"{'A': <class 'gluon.html.A'>, 'B': <class 'gluon.html.B'>, 'BEAUTIFY': <class 'gluon.html.BEAUTIFY'>, 'BODY': <class 'gluon.html.BODY'>, 'BR': <class 'gluon.html.BR'>, 'BUTTON': <class 'gluon.html.BUTTON'>, 'CENTER': <class 'gluon.html.CENTER'>, 'CLEANUP': <class 'gluon.validators.CLEANUP'>, 'CODE': <class 'gluon.html.CODE'>, 'CRYPT': <class 'gluon.validators.CRYPT'>, ...}"
p3119
sS'ccode'
p3120
S'<code object <module> at 0x101ff1930, file "/Use...applications/wp/controllers/default.py", line 11>'
p3121
ssS'lnum'
p3122
I192
sS'lines'
p3123
(dp3124
I192
S'        exec ccode in environment'
p3125
sI193
S'    except HTTP:'
p3126
sI194
S'        raise'
p3127
sI195
S'    except Exception:'
p3128
sI196
S'        # XXX Show exception in Wing IDE if running in debugger'
p3129
sI187
S'    try:'
p3130
sI188
S'        if type(code) == types.CodeType:'
p3131
sI189
S'            ccode = code'
p3132
sI190
S'        else:'
p3133
sI191
S'            ccode = compile2(code,layer)'
p3134
ssS'call'
p3135
S'(code="# -*- coding: utf-8 -*-\\n# this file is released ...())\\n\'\'\'\\n\\nresponse._vars=response._caller(submit)\\n", environment={\'A\': <class \'gluon.html.A\'>, \'B\': <class \'gluon.html.B\'>, \'BEAUTIFY\': <class \'gluon.html.BEAUTIFY\'>, \'BODY\': <class \'gluon.html.BODY\'>, \'BR\': <class \'gluon.html.BR\'>, \'BUTTON\': <class \'gluon.html.BUTTON\'>, \'CENTER\': <class \'gluon.html.CENTER\'>, \'CLEANUP\': <class \'gluon.validators.CLEANUP\'>, \'CODE\': <class \'gluon.html.CODE\'>, \'CRYPT\': <class \'gluon.validators.CRYPT\'>, ...}, layer=\'/Users/schultzc/workspace/wherespuppet/web2py/applications/wp/controllers/default.py\')'
p3136
sS'func'
p3137
S'restricted'
p3138
sa(dp3139
g3114
S'/Users/schultzc/workspace/wherespuppet/web2py/applications/wp/controllers/default.py'
p3140
sg3116
(dp3141
sg3122
I99
sg3123
(dp3142
I96
S'    return dict(form=crud())'
p3143
sI97
S"'''"
p3144
sI88
S'    http://..../[app]/default/data/delete/[table]/[id['
p3145
sI89
S'    http://..../[app]/default/data/select/[table]'
p3146
sI90
S'    http://..../[app]/default/data/search/[table]'
p3147
sI91
S'    but URLs bust be signed, i.e. linked with'
p3148
sI92
S"      A('table',_href=URL('data/tables',user_signature=True))"
p3149
sI93
S'    or with the signed load operator'
p3150
sI94
S"      LOAD('default','data.load',args='tables',ajax=True,user_signature=True)"
p3151
sI95
S'    """'
p3152
ssg3135
S'()'
p3153
sg3137
S'<module>'
p3154
sa(dp3155
g3114
S'/Users/schultzc/workspace/wherespuppet/web2py/gluon/globals.py'
p3156
sg3116
(dp3157
S'self'
p3158
S'undefined'
p3159
sS'f'
S'<function submit>'
p3160
ssg3122
I137
sg3123
(dp3161
I132
S"        self.flash = ''           # used by the default view layout"
p3162
sI133
S'        self.meta = Storage()     # used by web2py_ajax.html'
p3163
sI134
S'        self.menu = []            # used by the default view layout'
p3164
sI135
S'        self.files = []           # used by web2py_ajax.html'
p3165
sI136
S'        self._vars = None'
p3166
sI137
S'        self._caller = lambda f: f()'
p3167
sI138
S'        self._view_environment = None'
p3168
sI139
S'        self._custom_commit = None'
p3169
sI140
S'        self._custom_rollback = None'
p3170
sI141
S''
ssg3135
S'(f=<function submit>)'
p3171
sg3137
S'<lambda>'
p3172
sa(dp3173
g3114
S'/Users/schultzc/workspace/wherespuppet/web2py/applications/wp/controllers/default.py'
p3174
sg3116
(dp3175
S'global response'
p3176
S"<Storage {'status': 200, 'body': <cStringIO.Stri...wp', 'files': [], 'view': 'default/submit.html'}>"
p3177
sS'response.cookies'
p3178
S"<SimpleCookie: session_id_wp='127.0.0.1-09828a0e-340c-4ab3-852d-d6e39d579d31'>"
p3179
ssg3122
I19
sg3123
(dp3180
I14
S'def index():'
p3181
sI15
S'    images = db().select(db.image.ALL, orderby=db.image.title)'
p3182
sI16
S'    return dict(images=images)'
p3183
sI17
S''
sI18
S'def submit():'
p3184
sI19
S"    response.cookies['expires'] = 360"
p3185
sI20
S'    form = SQLFORM(db.image, submit_button=\'Submit Puppet\', _id = "submission",formstyle="divs")'
p3186
sI21
S"    if request.cookies.has_key('posLat') and request.cookies.has_key('posLon'):"
p3187
sI22
S"        latitude = request.cookies['posLat'].value"
p3188
sI23
S"        longitude = request.cookies['posLon'].value"
p3189
ssg3135
S'()'
p3190
sg3137
S'submit'
p3191
sa(dp3192
g3114
S'/opt/local/Library/Frameworks/Python.framework/Versions/2.7/lib/python2.7/Cookie.py'
p3193
sg3116
(dp3194
S'cval'
p3195
S"'360'"
p3196
sS'self'
p3197
S"<SimpleCookie: session_id_wp='127.0.0.1-09828a0e-340c-4ab3-852d-d6e39d579d31'>"
p3198
sS'rval'
p3199
S"'360'"
p3200
sS'self.__set'
p3201
g3159
sS'key'
p3202
S"'expires'"
p3203
ssg3122
I592
sg3123
(dp3204
I587
S'    # end __set'
p3205
sI588
S''
sI589
S'    def __setitem__(self, key, value):'
p3206
sI590
S'        """Dictionary style assignment."""'
p3207
sI591
S'        rval, cval = self.value_encode(value)'
p3208
sI592
S'        self.__set(key, rval, cval)'
p3209
sI593
S'    # end __setitem__'
p3210
sI594
S''
sI595
S'    def output(self, attrs=None, header="Set-Cookie:", sep="\\015\\012"):'
p3211
sI596
S'        """Return a string suitable for HTTP."""'
p3212
ssg3135
S"(self=<SimpleCookie: session_id_wp='127.0.0.1-09828a0e-340c-4ab3-852d-d6e39d579d31'>, key='expires', value=360)"
p3213
sg3137
S'__setitem__'
p3214
sa(dp3215
g3114
S'/opt/local/Library/Frameworks/Python.framework/Versions/2.7/lib/python2.7/Cookie.py'
p3216
sg3116
(dp3217
S'real_value'
p3218
S"'360'"
p3219
sS'coded_value'
p3220
S"'360'"
p3221
sS'M'
S'<Morsel: None=None>'
p3222
sS'key'
p3223
S"'expires'"
p3224
sS'M.set'
p3225
S'<bound method Morsel.set of <Morsel: None=None>>'
p3226
ssg3122
I585
sg3123
(dp3227
I580
S'    # end __init__'
p3228
sI581
S''
sI582
S'    def __set(self, key, real_value, coded_value):'
p3229
sI583
S'        """Private method for setting a cookie\'s value"""'
p3230
sI584
S'        M = self.get(key, Morsel())'
p3231
sI585
S'        M.set(key, real_value, coded_value)'
p3232
sI586
S'        dict.__setitem__(self, key, M)'
p3233
sI587
S'    # end __set'
p3234
sI588
S''
sI589
S'    def __setitem__(self, key, value):'
p3235
ssg3135
S"(self=<SimpleCookie: session_id_wp='127.0.0.1-09828a0e-340c-4ab3-852d-d6e39d579d31'>, key='expires', real_value='360', coded_value='360')"
p3236
sg3137
S'__set'
p3237
sa(dp3238
g3114
S'/opt/local/Library/Frameworks/Python.framework/Versions/2.7/lib/python2.7/Cookie.py'
p3239
sg3116
(dp3240
S'key'
p3241
S"'expires'"
p3242
sS'global CookieError'
p3243
S"<class 'Cookie.CookieError'>"
p3244
ssg3122
I458
sg3123
(dp3245
I453
S'            LegalChars=_LegalChars,'
p3246
sI454
S'            idmap=_idmap, translate=string.translate):'
p3247
sI455
S"        # First we verify that the key isn't a reserved word"
p3248
sI456
S'        # Second we make sure it only contains legal characters'
p3249
sI457
S'        if key.lower() in self._reserved:'
p3250
sI458
S'            raise CookieError("Attempt to set a reserved key: %s" % key)'
p3251
sI459
S'        if "" != translate(key, idmap, LegalChars):'
p3252
sI460
S'            raise CookieError("Illegal key value: %s" % key)'
p3253
sI461
S''
sI462
S"        # It's a good key, so save it."
p3254
ssg3135
S'(self=<Morsel: None=None>, key=\'expires\', val=\'360\', coded_val=\'360\', LegalChars="abcdefghijklmnopqrstuvwxyzABCDEFGHIJKLMNOPQRSTUVWXYZ0123456789!#$%&\'*+-.^_`|~", idmap=\'\\x00\\x01\\x02\\x03\\x04\\x05\\x06\\x07\\x08\\t\\n\\x0b\\x0c\\r\\x0e\\x0f\\x10\\x11\\x12\\x13\\x14\\x15\\x16\\x17\\x18\\x19\\x1a\\x1b\\x1c\\x1d\\x1e\\x1f !"#$%&\\\'()*+,-./...\\xcf\\xd0\\xd1\\xd2\\xd3\\xd4\\xd5\\xd6\\xd7\\xd8\\xd9\\xda\\xdb\\xdc\\xdd\\xde\\xdf\\xe0\\xe1\\xe2\\xe3\\xe4\\xe5\\xe6\\xe7\\xe8\\xe9\\xea\\xeb\\xec\\xed\\xee\\xef\\xf0\\xf1\\xf2\\xf3\\xf4\\xf5\\xf6\\xf7\\xf8\\xf9\\xfa\\xfb\\xfc\\xfd\\xfe\\xff\', translate=<function translate>)'
p3255
sg3137
S'set'
p3256
sasS'pyver'
p3257
S'Python 2.7.2: /opt/local/Library/Frameworks/Python.framework/Versions/2.7/Resources/Python.app/Contents/MacOS/Python'
p3258
sS'session'
p3259
g60
(g61
g62
NtRp3260
(dp3261
g65
(dp3262
sg67
(lp3263
g60
(g69
g62
NtRp3264
(dp3265
g65
(dp3266
g73
I5
ssg74
Nsg67
(lp3267
sbasbsS'etype'
p3268
S"<class 'Cookie.CookieError'>"
p3269
sS'date'
p3270
S'Mon Jul 25 13:50:32 2011'
p3271
sS'response'
p3272
g60
(g61
g62
NtRp3273
(dp3274
g65
(dp3275
sg67
(lp3276
g60
(g69
g62
NtRp3277
(dp3278
g65
(dp3279
g73
I5
ssg74
Nsg67
(lp3280
g60
(g76
g62
NtRp3281
(dp3282
g65
(dp3283
sg74
g3277
sg67
(lp3284
g60
(g81
g62
NtRp3285
(dp3286
g65
(dp3287
g85
g86
ssg74
g3281
sg67
(lp3288
g158
asbag60
(g81
g62
NtRp3289
(dp3290
g65
(dp3291
g92
g93
ssg74
g3281
sg67
(lp3292
S':'
asbag60
(g81
g62
NtRp3293
(dp3294
g65
(dp3295
sg74
g3281
sg67
(lp3296
g60
(g61
g62
NtRp3297
(dp3298
g65
(dp3299
g73
I5
ssg74
g3293
sg67
(lp3300
S'<cStringIO.StringO object at 0x104c9c880>'
p3301
asbasbasbag60
(g76
g62
NtRp3302
(dp3303
g65
(dp3304
sg74
g3277
sg67
(lp3305
g60
(g81
g62
NtRp3306
(dp3307
g65
(dp3308
g85
g86
ssg74
g3302
sg67
(lp3309
g224
asbag60
(g81
g62
NtRp3310
(dp3311
g65
(dp3312
g92
g93
ssg74
g3302
sg67
(lp3313
S':'
asbag60
(g81
g62
NtRp3314
(dp3315
g65
(dp3316
sg74
g3302
sg67
(lp3317
g60
(g61
g62
NtRp3318
(dp3319
g65
(dp3320
g73
I5
ssg74
g3314
sg67
(lp3321
g60
(g69
g62
NtRp3322
(dp3323
g65
(dp3324
g73
I4
ssg74
Nsg67
(lp3325
g60
(g76
g62
NtRp3326
(dp3327
g65
(dp3328
sg74
g3322
sg67
(lp3329
g60
(g81
g62
NtRp3330
(dp3331
g65
(dp3332
g85
g86
ssg74
g3326
sg67
(lp3333
S'session_id_wp'
p3334
asbag60
(g81
g62
NtRp3335
(dp3336
g65
(dp3337
g92
g93
ssg74
g3326
sg67
(lp3338
S':'
asbag60
(g81
g62
NtRp3339
(dp3340
g65
(dp3341
sg74
g3326
sg67
(lp3342
g60
(g61
g62
NtRp3343
(dp3344
g65
(dp3345
g73
I4
ssg74
g3339
sg67
(lp3346
g60
(g69
g62
NtRp3347
(dp3348
g65
(dp3349
g73
I3
ssg74
Nsg67
(lp3350
g60
(g76
g62
NtRp3351
(dp3352
g65
(dp3353
sg74
g3347
sg67
(lp3354
g60
(g81
g62
NtRp3355
(dp3356
g65
(dp3357
g85
g86
ssg74
g3351
sg67
(lp3358
g274
asbag60
(g81
g62
NtRp3359
(dp3360
g65
(dp3361
g92
g93
ssg74
g3351
sg67
(lp3362
S':'
asbag60
(g81
g62
NtRp3363
(dp3364
g65
(dp3365
sg74
g3351
sg67
(lp3366
g60
(g61
g62
NtRp3367
(dp3368
g65
(dp3369
g73
I3
ssg74
g3363
sg67
(lp3370
S''
asbasbasbag60
(g76
g62
NtRp3371
(dp3372
g65
(dp3373
sg74
g3347
sg67
(lp3374
g60
(g81
g62
NtRp3375
(dp3376
g65
(dp3377
g85
g86
ssg74
g3371
sg67
(lp3378
g295
asbag60
(g81
g62
NtRp3379
(dp3380
g65
(dp3381
g92
g93
ssg74
g3371
sg67
(lp3382
S':'
asbag60
(g81
g62
NtRp3383
(dp3384
g65
(dp3385
sg74
g3371
sg67
(lp3386
g60
(g61
g62
NtRp3387
(dp3388
g65
(dp3389
g73
I3
ssg74
g3383
sg67
(lp3390
S''
asbasbasbag60
(g76
g62
NtRp3391
(dp3392
g65
(dp3393
sg74
g3347
sg67
(lp3394
g60
(g81
g62
NtRp3395
(dp3396
g65
(dp3397
g85
g86
ssg74
g3391
sg67
(lp3398
g316
asbag60
(g81
g62
NtRp3399
(dp3400
g65
(dp3401
g92
g93
ssg74
g3391
sg67
(lp3402
S':'
asbag60
(g81
g62
NtRp3403
(dp3404
g65
(dp3405
sg74
g3391
sg67
(lp3406
g60
(g61
g62
NtRp3407
(dp3408
g65
(dp3409
g73
I3
ssg74
g3403
sg67
(lp3410
S''
asbasbasbag60
(g76
g62
NtRp3411
(dp3412
g65
(dp3413
sg74
g3347
sg67
(lp3414
g60
(g81
g62
NtRp3415
(dp3416
g65
(dp3417
g85
g86
ssg74
g3411
sg67
(lp3418
g337
asbag60
(g81
g62
NtRp3419
(dp3420
g65
(dp3421
g92
g93
ssg74
g3411
sg67
(lp3422
S':'
asbag60
(g81
g62
NtRp3423
(dp3424
g65
(dp3425
sg74
g3411
sg67
(lp3426
g60
(g61
g62
NtRp3427
(dp3428
g65
(dp3429
g73
I3
ssg74
g3423
sg67
(lp3430
S''
asbasbasbag60
(g76
g62
NtRp3431
(dp3432
g65
(dp3433
sg74
g3347
sg67
(lp3434
g60
(g81
g62
NtRp3435
(dp3436
g65
(dp3437
g85
g86
ssg74
g3431
sg67
(lp3438
g358
asbag60
(g81
g62
NtRp3439
(dp3440
g65
(dp3441
g92
g93
ssg74
g3431
sg67
(lp3442
S':'
asbag60
(g81
g62
NtRp3443
(dp3444
g65
(dp3445
sg74
g3431
sg67
(lp3446
g60
(g61
g62
NtRp3447
(dp3448
g65
(dp3449
g73
I3
ssg74
g3443
sg67
(lp3450
S''
asbasbasbag60
(g76
g62
NtRp3451
(dp3452
g65
(dp3453
sg74
g3347
sg67
(lp3454
g60
(g81
g62
NtRp3455
(dp3456
g65
(dp3457
g85
g86
ssg74
g3451
sg67
(lp3458
g379
asbag60
(g81
g62
NtRp3459
(dp3460
g65
(dp3461
g92
g93
ssg74
g3451
sg67
(lp3462
S':'
asbag60
(g81
g62
NtRp3463
(dp3464
g65
(dp3465
sg74
g3451
sg67
(lp3466
g60
(g61
g62
NtRp3467
(dp3468
g65
(dp3469
g73
I3
ssg74
g3463
sg67
(lp3470
S'/'
asbasbasbag60
(g76
g62
NtRp3471
(dp3472
g65
(dp3473
sg74
g3347
sg67
(lp3474
g60
(g81
g62
NtRp3475
(dp3476
g65
(dp3477
g85
g86
ssg74
g3471
sg67
(lp3478
g400
asbag60
(g81
g62
NtRp3479
(dp3480
g65
(dp3481
g92
g93
ssg74
g3471
sg67
(lp3482
S':'
asbag60
(g81
g62
NtRp3483
(dp3484
g65
(dp3485
sg74
g3471
sg67
(lp3486
g60
(g61
g62
NtRp3487
(dp3488
g65
(dp3489
g73
I3
ssg74
g3483
sg67
(lp3490
S''
asbasbasbag60
(g76
g62
NtRp3491
(dp3492
g65
(dp3493
sg74
g3347
sg67
(lp3494
g60
(g81
g62
NtRp3495
(dp3496
g65
(dp3497
g85
g86
ssg74
g3491
sg67
(lp3498
g421
asbag60
(g81
g62
NtRp3499
(dp3500
g65
(dp3501
g92
g93
ssg74
g3491
sg67
(lp3502
S':'
asbag60
(g81
g62
NtRp3503
(dp3504
g65
(dp3505
sg74
g3491
sg67
(lp3506
g60
(g61
g62
NtRp3507
(dp3508
g65
(dp3509
g73
I3
ssg74
g3503
sg67
(lp3510
S''
asbasbasbasbasbasbasbasbasbasbasbag60
(g76
g62
NtRp3511
(dp3512
g65
(dp3513
sg74
g3277
sg67
(lp3514
g60
(g81
g62
NtRp3515
(dp3516
g65
(dp3517
g85
g86
ssg74
g3511
sg67
(lp3518
S'files'
p3519
asbag60
(g81
g62
NtRp3520
(dp3521
g65
(dp3522
g92
g93
ssg74
g3511
sg67
(lp3523
S':'
asbag60
(g81
g62
NtRp3524
(dp3525
g65
(dp3526
sg74
g3511
sg67
(lp3527
g60
(g61
g62
NtRp3528
(dp3529
g65
(dp3530
g73
I5
ssg74
g3524
sg67
(lp3531
g60
(g69
g62
NtRp3532
(dp3533
g65
(dp3534
g73
I4
ssg74
Nsg67
(lp3535
sbasbasbasbag60
(g76
g62
NtRp3536
(dp3537
g65
(dp3538
sg74
g3277
sg67
(lp3539
g60
(g81
g62
NtRp3540
(dp3541
g65
(dp3542
g85
g86
ssg74
g3536
sg67
(lp3543
S'flash'
p3544
asbag60
(g81
g62
NtRp3545
(dp3546
g65
(dp3547
g92
g93
ssg74
g3536
sg67
(lp3548
S':'
asbag60
(g81
g62
NtRp3549
(dp3550
g65
(dp3551
sg74
g3536
sg67
(lp3552
g60
(g61
g62
NtRp3553
(dp3554
g65
(dp3555
g73
I5
ssg74
g3549
sg67
(lp3556
S''
asbasbasbag60
(g76
g62
NtRp3557
(dp3558
g65
(dp3559
sg74
g3277
sg67
(lp3560
g60
(g81
g62
NtRp3561
(dp3562
g65
(dp3563
g85
g86
ssg74
g3557
sg67
(lp3564
S'headers'
p3565
asbag60
(g81
g62
NtRp3566
(dp3567
g65
(dp3568
g92
g93
ssg74
g3557
sg67
(lp3569
S':'
asbag60
(g81
g62
NtRp3570
(dp3571
g65
(dp3572
sg74
g3557
sg67
(lp3573
g60
(g61
g62
NtRp3574
(dp3575
g65
(dp3576
g73
I5
ssg74
g3570
sg67
(lp3577
g60
(g69
g62
NtRp3578
(dp3579
g65
(dp3580
g73
I4
ssg74
Nsg67
(lp3581
g60
(g76
g62
NtRp3582
(dp3583
g65
(dp3584
sg74
g3578
sg67
(lp3585
g60
(g81
g62
NtRp3586
(dp3587
g65
(dp3588
g85
g86
ssg74
g3582
sg67
(lp3589
S'Cache-Control'
p3590
asbag60
(g81
g62
NtRp3591
(dp3592
g65
(dp3593
g92
g93
ssg74
g3582
sg67
(lp3594
S':'
asbag60
(g81
g62
NtRp3595
(dp3596
g65
(dp3597
sg74
g3582
sg67
(lp3598
g60
(g61
g62
NtRp3599
(dp3600
g65
(dp3601
g73
I4
ssg74
g3595
sg67
(lp3602
S'no-store, no-cache, must-revalidate, post-check=0, pre-check=0'
p3603
asbasbasbag60
(g76
g62
NtRp3604
(dp3605
g65
(dp3606
sg74
g3578
sg67
(lp3607
g60
(g81
g62
NtRp3608
(dp3609
g65
(dp3610
g85
g86
ssg74
g3604
sg67
(lp3611
S'Content-Type'
p3612
asbag60
(g81
g62
NtRp3613
(dp3614
g65
(dp3615
g92
g93
ssg74
g3604
sg67
(lp3616
S':'
asbag60
(g81
g62
NtRp3617
(dp3618
g65
(dp3619
sg74
g3604
sg67
(lp3620
g60
(g61
g62
NtRp3621
(dp3622
g65
(dp3623
g73
I4
ssg74
g3617
sg67
(lp3624
S'text/html; charset=utf-8'
p3625
asbasbasbag60
(g76
g62
NtRp3626
(dp3627
g65
(dp3628
sg74
g3578
sg67
(lp3629
g60
(g81
g62
NtRp3630
(dp3631
g65
(dp3632
g85
g86
ssg74
g3626
sg67
(lp3633
S'Expires'
p3634
asbag60
(g81
g62
NtRp3635
(dp3636
g65
(dp3637
g92
g93
ssg74
g3626
sg67
(lp3638
S':'
asbag60
(g81
g62
NtRp3639
(dp3640
g65
(dp3641
sg74
g3626
sg67
(lp3642
g60
(g61
g62
NtRp3643
(dp3644
g65
(dp3645
g73
I4
ssg74
g3639
sg67
(lp3646
S'Mon, 25 Jul 2011 20:50:32 GMT'
p3647
asbasbasbag60
(g76
g62
NtRp3648
(dp3649
g65
(dp3650
sg74
g3578
sg67
(lp3651
g60
(g81
g62
NtRp3652
(dp3653
g65
(dp3654
g85
g86
ssg74
g3648
sg67
(lp3655
S'Pragma'
p3656
asbag60
(g81
g62
NtRp3657
(dp3658
g65
(dp3659
g92
g93
ssg74
g3648
sg67
(lp3660
S':'
asbag60
(g81
g62
NtRp3661
(dp3662
g65
(dp3663
sg74
g3648
sg67
(lp3664
g60
(g61
g62
NtRp3665
(dp3666
g65
(dp3667
g73
I4
ssg74
g3661
sg67
(lp3668
S'no-cache'
p3669
asbasbasbag60
(g76
g62
NtRp3670
(dp3671
g65
(dp3672
sg74
g3578
sg67
(lp3673
g60
(g81
g62
NtRp3674
(dp3675
g65
(dp3676
g85
g86
ssg74
g3670
sg67
(lp3677
S'X-Powered-By'
p3678
asbag60
(g81
g62
NtRp3679
(dp3680
g65
(dp3681
g92
g93
ssg74
g3670
sg67
(lp3682
S':'
asbag60
(g81
g62
NtRp3683
(dp3684
g65
(dp3685
sg74
g3670
sg67
(lp3686
g60
(g61
g62
NtRp3687
(dp3688
g65
(dp3689
g73
I4
ssg74
g3683
sg67
(lp3690
S'web2py'
p3691
asbasbasbasbasbasbasbag60
(g76
g62
NtRp3692
(dp3693
g65
(dp3694
sg74
g3277
sg67
(lp3695
g60
(g81
g62
NtRp3696
(dp3697
g65
(dp3698
g85
g86
ssg74
g3692
sg67
(lp3699
S'menu'
p3700
asbag60
(g81
g62
NtRp3701
(dp3702
g65
(dp3703
g92
g93
ssg74
g3692
sg67
(lp3704
S':'
asbag60
(g81
g62
NtRp3705
(dp3706
g65
(dp3707
sg74
g3692
sg67
(lp3708
g60
(g61
g62
NtRp3709
(dp3710
g65
(dp3711
g73
I5
ssg74
g3705
sg67
(lp3712
g60
(g69
g62
NtRp3713
(dp3714
g65
(dp3715
g73
I4
ssg74
Nsg67
(lp3716
g60
(g76
g62
NtRp3717
(dp3718
g65
(dp3719
sg74
g3713
sg67
(lp3720
g60
(g81
g62
NtRp3721
(dp3722
g65
(dp3723
sg74
g3717
sg67
(lp3724
g60
(g61
g62
NtRp3725
(dp3726
g65
(dp3727
g73
I4
ssg74
g3721
sg67
(lp3728
g60
(g69
g62
NtRp3729
(dp3730
g65
(dp3731
g73
I3
ssg74
Nsg67
(lp3732
g60
(g76
g62
NtRp3733
(dp3734
g65
(dp3735
sg74
g3729
sg67
(lp3736
g60
(g81
g62
NtRp3737
(dp3738
g65
(dp3739
sg74
g3733
sg67
(lp3740
g60
(g61
g62
NtRp3741
(dp3742
g65
(dp3743
g73
I3
ssg74
g3737
sg67
(lp3744
cgluon.languages
lazyT_unpickle
p3745
(S't\x04\x00\x00\x00Home'
tRp3746
asbasbasbag60
(g76
g62
NtRp3747
(dp3748
g65
(dp3749
sg74
g3729
sg67
(lp3750
g60
(g81
g62
NtRp3751
(dp3752
g65
(dp3753
sg74
g3747
sg67
(lp3754
g60
(g61
g62
NtRp3755
(dp3756
g65
(dp3757
g73
I3
ssg74
g3751
sg67
(lp3758
g103
asbasbasbag60
(g76
g62
NtRp3759
(dp3760
g65
(dp3761
sg74
g3729
sg67
(lp3762
g60
(g81
g62
NtRp3763
(dp3764
g65
(dp3765
sg74
g3759
sg67
(lp3766
g60
(g61
g62
NtRp3767
(dp3768
g65
(dp3769
g73
I3
ssg74
g3763
sg67
(lp3770
S'/wp/default/index'
p3771
asbasbasbag60
(g76
g62
NtRp3772
(dp3773
g65
(dp3774
sg74
g3729
sg67
(lp3775
g60
(g81
g62
NtRp3776
(dp3777
g65
(dp3778
sg74
g3772
sg67
(lp3779
g60
(g61
g62
NtRp3780
(dp3781
g65
(dp3782
g73
I3
ssg74
g3776
sg67
(lp3783
g60
(g69
g62
NtRp3784
(dp3785
g65
(dp3786
g73
I2
ssg74
Nsg67
(lp3787
sbasbasbasbasbasbasbasbag60
(g76
g62
NtRp3788
(dp3789
g65
(dp3790
sg74
g3713
sg67
(lp3791
g60
(g81
g62
NtRp3792
(dp3793
g65
(dp3794
sg74
g3788
sg67
(lp3795
g60
(g61
g62
NtRp3796
(dp3797
g65
(dp3798
g73
I4
ssg74
g3792
sg67
(lp3799
g60
(g69
g62
NtRp3800
(dp3801
g65
(dp3802
g73
I3
ssg74
Nsg67
(lp3803
g60
(g76
g62
NtRp3804
(dp3805
g65
(dp3806
sg74
g3800
sg67
(lp3807
g60
(g81
g62
NtRp3808
(dp3809
g65
(dp3810
sg74
g3804
sg67
(lp3811
g60
(g61
g62
NtRp3812
(dp3813
g65
(dp3814
g73
I3
ssg74
g3808
sg67
(lp3815
g3745
(S's\x08\x00\x00\x00This App'
tRp3816
asbasbasbag60
(g76
g62
NtRp3817
(dp3818
g65
(dp3819
sg74
g3800
sg67
(lp3820
g60
(g81
g62
NtRp3821
(dp3822
g65
(dp3823
sg74
g3817
sg67
(lp3824
g60
(g61
g62
NtRp3825
(dp3826
g65
(dp3827
g73
I3
ssg74
g3821
sg67
(lp3828
g103
asbasbasbag60
(g76
g62
NtRp3829
(dp3830
g65
(dp3831
sg74
g3800
sg67
(lp3832
g60
(g81
g62
NtRp3833
(dp3834
g65
(dp3835
sg74
g3829
sg67
(lp3836
g60
(g61
g62
NtRp3837
(dp3838
g65
(dp3839
g73
I3
ssg74
g3833
sg67
(lp3840
S'/admin/default/design/wp'
p3841
asbasbasbag60
(g76
g62
NtRp3842
(dp3843
g65
(dp3844
sg74
g3800
sg67
(lp3845
g60
(g81
g62
NtRp3846
(dp3847
g65
(dp3848
sg74
g3842
sg67
(lp3849
g60
(g61
g62
NtRp3850
(dp3851
g65
(dp3852
g73
I3
ssg74
g3846
sg67
(lp3853
g60
(g69
g62
NtRp3854
(dp3855
g65
(dp3856
g73
I2
ssg74
Nsg67
(lp3857
g60
(g76
g62
NtRp3858
(dp3859
g65
(dp3860
sg74
g3854
sg67
(lp3861
g60
(g81
g62
NtRp3862
(dp3863
g65
(dp3864
sg74
g3858
sg67
(lp3865
g60
(g61
g62
NtRp3866
(dp3867
g65
(dp3868
g73
I2
ssg74
g3862
sg67
(lp3869
g60
(g69
g62
NtRp3870
(dp3871
g65
(dp3872
g73
I1
ssg74
Nsg67
(lp3873
g60
(g76
g62
NtRp3874
(dp3875
g65
(dp3876
sg74
g3870
sg67
(lp3877
g60
(g81
g62
NtRp3878
(dp3879
g65
(dp3880
sg74
g3874
sg67
(lp3881
g60
(g61
g62
NtRp3882
(dp3883
g65
(dp3884
g73
I1
ssg74
g3878
sg67
(lp3885
g3745
(S't\n\x00\x00\x00Controller'
tRp3886
asbasbasbag60
(g76
g62
NtRp3887
(dp3888
g65
(dp3889
sg74
g3870
sg67
(lp3890
g60
(g81
g62
NtRp3891
(dp3892
g65
(dp3893
sg74
g3887
sg67
(lp3894
g60
(g61
g62
NtRp3895
(dp3896
g65
(dp3897
g73
I1
ssg74
g3891
sg67
(lp3898
I00
asbasbasbag60
(g76
g62
NtRp3899
(dp3900
g65
(dp3901
sg74
g3870
sg67
(lp3902
g60
(g81
g62
NtRp3903
(dp3904
g65
(dp3905
sg74
g3899
sg67
(lp3906
g60
(g61
g62
NtRp3907
(dp3908
g65
(dp3909
g73
I1
ssg74
g3903
sg67
(lp3910
S'/admin/default/edit/wp/controllers/default.py'
p3911
asbasbasbasbasbasbasbag60
(g76
g62
NtRp3912
(dp3913
g65
(dp3914
sg74
g3854
sg67
(lp3915
g60
(g81
g62
NtRp3916
(dp3917
g65
(dp3918
sg74
g3912
sg67
(lp3919
g60
(g61
g62
NtRp3920
(dp3921
g65
(dp3922
g73
I2
ssg74
g3916
sg67
(lp3923
g60
(g69
g62
NtRp3924
(dp3925
g65
(dp3926
g73
I1
ssg74
Nsg67
(lp3927
g60
(g76
g62
NtRp3928
(dp3929
g65
(dp3930
sg74
g3924
sg67
(lp3931
g60
(g81
g62
NtRp3932
(dp3933
g65
(dp3934
sg74
g3928
sg67
(lp3935
g60
(g61
g62
NtRp3936
(dp3937
g65
(dp3938
g73
I1
ssg74
g3932
sg67
(lp3939
g3745
(S't\x04\x00\x00\x00View'
tRp3940
asbasbasbag60
(g76
g62
NtRp3941
(dp3942
g65
(dp3943
sg74
g3924
sg67
(lp3944
g60
(g81
g62
NtRp3945
(dp3946
g65
(dp3947
sg74
g3941
sg67
(lp3948
g60
(g61
g62
NtRp3949
(dp3950
g65
(dp3951
g73
I1
ssg74
g3945
sg67
(lp3952
I00
asbasbasbag60
(g76
g62
NtRp3953
(dp3954
g65
(dp3955
sg74
g3924
sg67
(lp3956
g60
(g81
g62
NtRp3957
(dp3958
g65
(dp3959
sg74
g3953
sg67
(lp3960
g60
(g61
g62
NtRp3961
(dp3962
g65
(dp3963
g73
I1
ssg74
g3957
sg67
(lp3964
S'/admin/default/edit/wp/views/default/submit.html'
p3965
asbasbasbasbasbasbasbag60
(g76
g62
NtRp3966
(dp3967
g65
(dp3968
sg74
g3854
sg67
(lp3969
g60
(g81
g62
NtRp3970
(dp3971
g65
(dp3972
sg74
g3966
sg67
(lp3973
g60
(g61
g62
NtRp3974
(dp3975
g65
(dp3976
g73
I2
ssg74
g3970
sg67
(lp3977
g60
(g69
g62
NtRp3978
(dp3979
g65
(dp3980
g73
I1
ssg74
Nsg67
(lp3981
g60
(g76
g62
NtRp3982
(dp3983
g65
(dp3984
sg74
g3978
sg67
(lp3985
g60
(g81
g62
NtRp3986
(dp3987
g65
(dp3988
sg74
g3982
sg67
(lp3989
g60
(g61
g62
NtRp3990
(dp3991
g65
(dp3992
g73
I1
ssg74
g3986
sg67
(lp3993
g3745
(S't\x06\x00\x00\x00Layout'
tRp3994
asbasbasbag60
(g76
g62
NtRp3995
(dp3996
g65
(dp3997
sg74
g3978
sg67
(lp3998
g60
(g81
g62
NtRp3999
(dp4000
g65
(dp4001
sg74
g3995
sg67
(lp4002
g60
(g61
g62
NtRp4003
(dp4004
g65
(dp4005
g73
I1
ssg74
g3999
sg67
(lp4006
I00
asbasbasbag60
(g76
g62
NtRp4007
(dp4008
g65
(dp4009
sg74
g3978
sg67
(lp4010
g60
(g81
g62
NtRp4011
(dp4012
g65
(dp4013
sg74
g4007
sg67
(lp4014
g60
(g61
g62
NtRp4015
(dp4016
g65
(dp4017
g73
I1
ssg74
g4011
sg67
(lp4018
S'/admin/default/edit/wp/views/layout.html'
p4019
asbasbasbasbasbasbasbag60
(g76
g62
NtRp4020
(dp4021
g65
(dp4022
sg74
g3854
sg67
(lp4023
g60
(g81
g62
NtRp4024
(dp4025
g65
(dp4026
sg74
g4020
sg67
(lp4027
g60
(g61
g62
NtRp4028
(dp4029
g65
(dp4030
g73
I2
ssg74
g4024
sg67
(lp4031
g60
(g69
g62
NtRp4032
(dp4033
g65
(dp4034
g73
I1
ssg74
Nsg67
(lp4035
g60
(g76
g62
NtRp4036
(dp4037
g65
(dp4038
sg74
g4032
sg67
(lp4039
g60
(g81
g62
NtRp4040
(dp4041
g65
(dp4042
sg74
g4036
sg67
(lp4043
g60
(g61
g62
NtRp4044
(dp4045
g65
(dp4046
g73
I1
ssg74
g4040
sg67
(lp4047
g3745
(S't\n\x00\x00\x00Stylesheet'
tRp4048
asbasbasbag60
(g76
g62
NtRp4049
(dp4050
g65
(dp4051
sg74
g4032
sg67
(lp4052
g60
(g81
g62
NtRp4053
(dp4054
g65
(dp4055
sg74
g4049
sg67
(lp4056
g60
(g61
g62
NtRp4057
(dp4058
g65
(dp4059
g73
I1
ssg74
g4053
sg67
(lp4060
I00
asbasbasbag60
(g76
g62
NtRp4061
(dp4062
g65
(dp4063
sg74
g4032
sg67
(lp4064
g60
(g81
g62
NtRp4065
(dp4066
g65
(dp4067
sg74
g4061
sg67
(lp4068
g60
(g61
g62
NtRp4069
(dp4070
g65
(dp4071
g73
I1
ssg74
g4065
sg67
(lp4072
S'/admin/default/edit/wp/static/base.css'
p4073
asbasbasbasbasbasbasbag60
(g76
g62
NtRp4074
(dp4075
g65
(dp4076
sg74
g3854
sg67
(lp4077
g60
(g81
g62
NtRp4078
(dp4079
g65
(dp4080
sg74
g4074
sg67
(lp4081
g60
(g61
g62
NtRp4082
(dp4083
g65
(dp4084
g73
I2
ssg74
g4078
sg67
(lp4085
g60
(g69
g62
NtRp4086
(dp4087
g65
(dp4088
g73
I1
ssg74
Nsg67
(lp4089
g60
(g76
g62
NtRp4090
(dp4091
g65
(dp4092
sg74
g4086
sg67
(lp4093
g60
(g81
g62
NtRp4094
(dp4095
g65
(dp4096
sg74
g4090
sg67
(lp4097
g60
(g61
g62
NtRp4098
(dp4099
g65
(dp4100
g73
I1
ssg74
g4094
sg67
(lp4101
g3745
(S's\x08\x00\x00\x00DB Model'
tRp4102
asbasbasbag60
(g76
g62
NtRp4103
(dp4104
g65
(dp4105
sg74
g4086
sg67
(lp4106
g60
(g81
g62
NtRp4107
(dp4108
g65
(dp4109
sg74
g4103
sg67
(lp4110
g60
(g61
g62
NtRp4111
(dp4112
g65
(dp4113
g73
I1
ssg74
g4107
sg67
(lp4114
I00
asbasbasbag60
(g76
g62
NtRp4115
(dp4116
g65
(dp4117
sg74
g4086
sg67
(lp4118
g60
(g81
g62
NtRp4119
(dp4120
g65
(dp4121
sg74
g4115
sg67
(lp4122
g60
(g61
g62
NtRp4123
(dp4124
g65
(dp4125
g73
I1
ssg74
g4119
sg67
(lp4126
S'/admin/default/edit/wp/models/db.py'
p4127
asbasbasbasbasbasbasbag60
(g76
g62
NtRp4128
(dp4129
g65
(dp4130
sg74
g3854
sg67
(lp4131
g60
(g81
g62
NtRp4132
(dp4133
g65
(dp4134
sg74
g4128
sg67
(lp4135
g60
(g61
g62
NtRp4136
(dp4137
g65
(dp4138
g73
I2
ssg74
g4132
sg67
(lp4139
g60
(g69
g62
NtRp4140
(dp4141
g65
(dp4142
g73
I1
ssg74
Nsg67
(lp4143
g60
(g76
g62
NtRp4144
(dp4145
g65
(dp4146
sg74
g4140
sg67
(lp4147
g60
(g81
g62
NtRp4148
(dp4149
g65
(dp4150
sg74
g4144
sg67
(lp4151
g60
(g61
g62
NtRp4152
(dp4153
g65
(dp4154
g73
I1
ssg74
g4148
sg67
(lp4155
g3745
(S's\n\x00\x00\x00Menu Model'
tRp4156
asbasbasbag60
(g76
g62
NtRp4157
(dp4158
g65
(dp4159
sg74
g4140
sg67
(lp4160
g60
(g81
g62
NtRp4161
(dp4162
g65
(dp4163
sg74
g4157
sg67
(lp4164
g60
(g61
g62
NtRp4165
(dp4166
g65
(dp4167
g73
I1
ssg74
g4161
sg67
(lp4168
I00
asbasbasbag60
(g76
g62
NtRp4169
(dp4170
g65
(dp4171
sg74
g4140
sg67
(lp4172
g60
(g81
g62
NtRp4173
(dp4174
g65
(dp4175
sg74
g4169
sg67
(lp4176
g60
(g61
g62
NtRp4177
(dp4178
g65
(dp4179
g73
I1
ssg74
g4173
sg67
(lp4180
S'/admin/default/edit/wp/models/menu.py'
p4181
asbasbasbasbasbasbasbag60
(g76
g62
NtRp4182
(dp4183
g65
(dp4184
sg74
g3854
sg67
(lp4185
g60
(g81
g62
NtRp4186
(dp4187
g65
(dp4188
sg74
g4182
sg67
(lp4189
g60
(g61
g62
NtRp4190
(dp4191
g65
(dp4192
g73
I2
ssg74
g4186
sg67
(lp4193
g60
(g69
g62
NtRp4194
(dp4195
g65
(dp4196
g73
I1
ssg74
Nsg67
(lp4197
g60
(g76
g62
NtRp4198
(dp4199
g65
(dp4200
sg74
g4194
sg67
(lp4201
g60
(g81
g62
NtRp4202
(dp4203
g65
(dp4204
sg74
g4198
sg67
(lp4205
g60
(g61
g62
NtRp4206
(dp4207
g65
(dp4208
g73
I1
ssg74
g4202
sg67
(lp4209
g3745
(S't\x08\x00\x00\x00Database'
tRp4210
asbasbasbag60
(g76
g62
NtRp4211
(dp4212
g65
(dp4213
sg74
g4194
sg67
(lp4214
g60
(g81
g62
NtRp4215
(dp4216
g65
(dp4217
sg74
g4211
sg67
(lp4218
g60
(g61
g62
NtRp4219
(dp4220
g65
(dp4221
g73
I1
ssg74
g4215
sg67
(lp4222
I00
asbasbasbag60
(g76
g62
NtRp4223
(dp4224
g65
(dp4225
sg74
g4194
sg67
(lp4226
g60
(g81
g62
NtRp4227
(dp4228
g65
(dp4229
sg74
g4223
sg67
(lp4230
g60
(g61
g62
NtRp4231
(dp4232
g65
(dp4233
g73
I1
ssg74
g4227
sg67
(lp4234
S'/wp/appadmin/index'
p4235
asbasbasbasbasbasbasbag60
(g76
g62
NtRp4236
(dp4237
g65
(dp4238
sg74
g3854
sg67
(lp4239
g60
(g81
g62
NtRp4240
(dp4241
g65
(dp4242
sg74
g4236
sg67
(lp4243
g60
(g61
g62
NtRp4244
(dp4245
g65
(dp4246
g73
I2
ssg74
g4240
sg67
(lp4247
g60
(g69
g62
NtRp4248
(dp4249
g65
(dp4250
g73
I1
ssg74
Nsg67
(lp4251
g60
(g76
g62
NtRp4252
(dp4253
g65
(dp4254
sg74
g4248
sg67
(lp4255
g60
(g81
g62
NtRp4256
(dp4257
g65
(dp4258
sg74
g4252
sg67
(lp4259
g60
(g61
g62
NtRp4260
(dp4261
g65
(dp4262
g73
I1
ssg74
g4256
sg67
(lp4263
g3745
(S't\x06\x00\x00\x00Errors'
tRp4264
asbasbasbag60
(g76
g62
NtRp4265
(dp4266
g65
(dp4267
sg74
g4248
sg67
(lp4268
g60
(g81
g62
NtRp4269
(dp4270
g65
(dp4271
sg74
g4265
sg67
(lp4272
g60
(g61
g62
NtRp4273
(dp4274
g65
(dp4275
g73
I1
ssg74
g4269
sg67
(lp4276
I00
asbasbasbag60
(g76
g62
NtRp4277
(dp4278
g65
(dp4279
sg74
g4248
sg67
(lp4280
g60
(g81
g62
NtRp4281
(dp4282
g65
(dp4283
sg74
g4277
sg67
(lp4284
g60
(g61
g62
NtRp4285
(dp4286
g65
(dp4287
g73
I1
ssg74
g4281
sg67
(lp4288
S'/admin/default/errors/wp'
p4289
asbasbasbasbasbasbasbag60
(g76
g62
NtRp4290
(dp4291
g65
(dp4292
sg74
g3854
sg67
(lp4293
g60
(g81
g62
NtRp4294
(dp4295
g65
(dp4296
sg74
g4290
sg67
(lp4297
g60
(g61
g62
NtRp4298
(dp4299
g65
(dp4300
g73
I2
ssg74
g4294
sg67
(lp4301
g60
(g69
g62
NtRp4302
(dp4303
g65
(dp4304
g73
I1
ssg74
Nsg67
(lp4305
g60
(g76
g62
NtRp4306
(dp4307
g65
(dp4308
sg74
g4302
sg67
(lp4309
g60
(g81
g62
NtRp4310
(dp4311
g65
(dp4312
sg74
g4306
sg67
(lp4313
g60
(g61
g62
NtRp4314
(dp4315
g65
(dp4316
g73
I1
ssg74
g4310
sg67
(lp4317
g3745
(S't\x05\x00\x00\x00About'
tRp4318
asbasbasbag60
(g76
g62
NtRp4319
(dp4320
g65
(dp4321
sg74
g4302
sg67
(lp4322
g60
(g81
g62
NtRp4323
(dp4324
g65
(dp4325
sg74
g4319
sg67
(lp4326
g60
(g61
g62
NtRp4327
(dp4328
g65
(dp4329
g73
I1
ssg74
g4323
sg67
(lp4330
I00
asbasbasbag60
(g76
g62
NtRp4331
(dp4332
g65
(dp4333
sg74
g4302
sg67
(lp4334
g60
(g81
g62
NtRp4335
(dp4336
g65
(dp4337
sg74
g4331
sg67
(lp4338
g60
(g61
g62
NtRp4339
(dp4340
g65
(dp4341
g73
I1
ssg74
g4335
sg67
(lp4342
S'/admin/default/about/wp'
p4343
asbasbasbasbasbasbasbasbasbasbasbasbasbasbasbag60
(g76
g62
NtRp4344
(dp4345
g65
(dp4346
sg74
g3713
sg67
(lp4347
g60
(g81
g62
NtRp4348
(dp4349
g65
(dp4350
sg74
g4344
sg67
(lp4351
g60
(g61
g62
NtRp4352
(dp4353
g65
(dp4354
g73
I4
ssg74
g4348
sg67
(lp4355
g60
(g69
g62
NtRp4356
(dp4357
g65
(dp4358
g73
I3
ssg74
Nsg67
(lp4359
g60
(g76
g62
NtRp4360
(dp4361
g65
(dp4362
sg74
g4356
sg67
(lp4363
g60
(g81
g62
NtRp4364
(dp4365
g65
(dp4366
sg74
g4360
sg67
(lp4367
g60
(g61
g62
NtRp4368
(dp4369
g65
(dp4370
g73
I3
ssg74
g4364
sg67
(lp4371
g3745
(S't\t\x00\x00\x00Resources'
tRp4372
asbasbasbag60
(g76
g62
NtRp4373
(dp4374
g65
(dp4375
sg74
g4356
sg67
(lp4376
g60
(g81
g62
NtRp4377
(dp4378
g65
(dp4379
sg74
g4373
sg67
(lp4380
g60
(g61
g62
NtRp4381
(dp4382
g65
(dp4383
g73
I3
ssg74
g4377
sg67
(lp4384
g103
asbasbasbag60
(g76
g62
NtRp4385
(dp4386
g65
(dp4387
sg74
g4356
sg67
(lp4388
g60
(g81
g62
NtRp4389
(dp4390
g65
(dp4391
sg74
g4385
sg67
(lp4392
g60
(g61
g62
NtRp4393
(dp4394
g65
(dp4395
g73
I3
ssg74
g4389
sg67
(lp4396
S'None'
p4397
asbasbasbag60
(g76
g62
NtRp4398
(dp4399
g65
(dp4400
sg74
g4356
sg67
(lp4401
g60
(g81
g62
NtRp4402
(dp4403
g65
(dp4404
sg74
g4398
sg67
(lp4405
g60
(g61
g62
NtRp4406
(dp4407
g65
(dp4408
g73
I3
ssg74
g4402
sg67
(lp4409
g60
(g69
g62
NtRp4410
(dp4411
g65
(dp4412
g73
I2
ssg74
Nsg67
(lp4413
g60
(g76
g62
NtRp4414
(dp4415
g65
(dp4416
sg74
g4410
sg67
(lp4417
g60
(g81
g62
NtRp4418
(dp4419
g65
(dp4420
sg74
g4414
sg67
(lp4421
g60
(g61
g62
NtRp4422
(dp4423
g65
(dp4424
g73
I2
ssg74
g4418
sg67
(lp4425
g60
(g69
g62
NtRp4426
(dp4427
g65
(dp4428
g73
I1
ssg74
Nsg67
(lp4429
g60
(g76
g62
NtRp4430
(dp4431
g65
(dp4432
sg74
g4426
sg67
(lp4433
g60
(g81
g62
NtRp4434
(dp4435
g65
(dp4436
sg74
g4430
sg67
(lp4437
g60
(g61
g62
NtRp4438
(dp4439
g65
(dp4440
g73
I1
ssg74
g4434
sg67
(lp4441
g3745
(S't\r\x00\x00\x00Documentation'
tRp4442
asbasbasbag60
(g76
g62
NtRp4443
(dp4444
g65
(dp4445
sg74
g4426
sg67
(lp4446
g60
(g81
g62
NtRp4447
(dp4448
g65
(dp4449
sg74
g4443
sg67
(lp4450
g60
(g61
g62
NtRp4451
(dp4452
g65
(dp4453
g73
I1
ssg74
g4447
sg67
(lp4454
I00
asbasbasbag60
(g76
g62
NtRp4455
(dp4456
g65
(dp4457
sg74
g4426
sg67
(lp4458
g60
(g81
g62
NtRp4459
(dp4460
g65
(dp4461
sg74
g4455
sg67
(lp4462
g60
(g61
g62
NtRp4463
(dp4464
g65
(dp4465
g73
I1
ssg74
g4459
sg67
(lp4466
S'http://www.web2py.com/book'
p4467
asbasbasbag60
(g76
g62
NtRp4468
(dp4469
g65
(dp4470
sg74
g4426
sg67
(lp4471
g60
(g81
g62
NtRp4472
(dp4473
g65
(dp4474
sg74
g4468
sg67
(lp4475
g60
(g61
g62
NtRp4476
(dp4477
g65
(dp4478
g73
I1
ssg74
g4472
sg67
(lp4479
(lp4480
(g3745
(S't\x07\x00\x00\x00Preface'
tRp4481
I00
S'http://www.web2py.com/book/default/chapter/00'
tp4482
a(g3745
(S't\x0c\x00\x00\x00Introduction'
tRp4483
I00
S'http://www.web2py.com/book/default/chapter/01'
tp4484
a(g3745
(S't\x06\x00\x00\x00Python'
tRp4485
I00
S'http://www.web2py.com/book/default/chapter/02'
tp4486
a(g3745
(S't\x08\x00\x00\x00Overview'
tRp4487
I00
S'http://www.web2py.com/book/default/chapter/03'
tp4488
a(g3745
(S's\x08\x00\x00\x00The Core'
tRp4489
I00
S'http://www.web2py.com/book/default/chapter/04'
tp4490
a(g3745
(S's\t\x00\x00\x00The Views'
tRp4491
I00
S'http://www.web2py.com/book/default/chapter/05'
tp4492
a(g3745
(S't\x08\x00\x00\x00Database'
tRp4493
I00
S'http://www.web2py.com/book/default/chapter/06'
tp4494
a(g3745
(S's\x14\x00\x00\x00Forms and Validators'
tRp4495
I00
S'http://www.web2py.com/book/default/chapter/07'
tp4496
a(g3745
(S's\x0e\x00\x00\x00Access Control'
tRp4497
I00
S'http://www.web2py.com/book/default/chapter/08'
tp4498
a(g3745
(S't\x08\x00\x00\x00Services'
tRp4499
I00
S'http://www.web2py.com/book/default/chapter/09'
tp4500
a(g3745
(S's\x0c\x00\x00\x00Ajax Recipes'
tRp4501
I00
S'http://www.web2py.com/book/default/chapter/10'
tp4502
a(g3745
(S's\x12\x00\x00\x00Deployment Recipes'
tRp4503
I00
S'http://www.web2py.com/book/default/chapter/11'
tp4504
a(g3745
(S's\r\x00\x00\x00Other Recipes'
tRp4505
I00
S'http://www.web2py.com/book/default/chapter/12'
tp4506
a(g3745
(S's\r\x00\x00\x00Buy this book'
tRp4507
I00
S'http://stores.lulu.com/web2py'
tp4508
aasbasbasbasbasbasbasbag60
(g76
g62
NtRp4509
(dp4510
g65
(dp4511
sg74
g4410
sg67
(lp4512
g60
(g81
g62
NtRp4513
(dp4514
g65
(dp4515
sg74
g4509
sg67
(lp4516
g60
(g61
g62
NtRp4517
(dp4518
g65
(dp4519
g73
I2
ssg74
g4513
sg67
(lp4520
g60
(g69
g62
NtRp4521
(dp4522
g65
(dp4523
g73
I1
ssg74
Nsg67
(lp4524
g60
(g76
g62
NtRp4525
(dp4526
g65
(dp4527
sg74
g4521
sg67
(lp4528
g60
(g81
g62
NtRp4529
(dp4530
g65
(dp4531
sg74
g4525
sg67
(lp4532
g60
(g61
g62
NtRp4533
(dp4534
g65
(dp4535
g73
I1
ssg74
g4529
sg67
(lp4536
g3745
(S't\t\x00\x00\x00Community'
tRp4537
asbasbasbag60
(g76
g62
NtRp4538
(dp4539
g65
(dp4540
sg74
g4521
sg67
(lp4541
g60
(g81
g62
NtRp4542
(dp4543
g65
(dp4544
sg74
g4538
sg67
(lp4545
g60
(g61
g62
NtRp4546
(dp4547
g65
(dp4548
g73
I1
ssg74
g4542
sg67
(lp4549
I00
asbasbasbag60
(g76
g62
NtRp4550
(dp4551
g65
(dp4552
sg74
g4521
sg67
(lp4553
g60
(g81
g62
NtRp4554
(dp4555
g65
(dp4556
sg74
g4550
sg67
(lp4557
g60
(g61
g62
NtRp4558
(dp4559
g65
(dp4560
g73
I1
ssg74
g4554
sg67
(lp4561
Nasbasbasbag60
(g76
g62
NtRp4562
(dp4563
g65
(dp4564
sg74
g4521
sg67
(lp4565
g60
(g81
g62
NtRp4566
(dp4567
g65
(dp4568
sg74
g4562
sg67
(lp4569
g60
(g61
g62
NtRp4570
(dp4571
g65
(dp4572
g73
I1
ssg74
g4566
sg67
(lp4573
(lp4574
(g3745
(S't\x06\x00\x00\x00Groups'
tRp4575
I00
S'http://www.web2py.com/examples/default/usergroups'
tp4576
a(g3745
(S't\x07\x00\x00\x00Twitter'
tRp4577
I00
S'http://twitter.com/web2py'
tp4578
a(g3745
(S's\t\x00\x00\x00Live chat'
tRp4579
I00
S'http://mibbit.com/?channel=%23web2py&server=irc.mibbit.net'
tp4580
a(g3745
(S's\n\x00\x00\x00User Voice'
tRp4581
I00
S'http://web2py.uservoice.com/'
tp4582
aasbasbasbasbasbasbasbag60
(g76
g62
NtRp4583
(dp4584
g65
(dp4585
sg74
g4410
sg67
(lp4586
g60
(g81
g62
NtRp4587
(dp4588
g65
(dp4589
sg74
g4583
sg67
(lp4590
g60
(g61
g62
NtRp4591
(dp4592
g65
(dp4593
g73
I2
ssg74
g4587
sg67
(lp4594
g60
(g69
g62
NtRp4595
(dp4596
g65
(dp4597
g73
I1
ssg74
Nsg67
(lp4598
g60
(g76
g62
NtRp4599
(dp4600
g65
(dp4601
sg74
g4595
sg67
(lp4602
g60
(g81
g62
NtRp4603
(dp4604
g65
(dp4605
sg74
g4599
sg67
(lp4606
g60
(g61
g62
NtRp4607
(dp4608
g65
(dp4609
g73
I1
ssg74
g4603
sg67
(lp4610
g3745
(S't\x06\x00\x00\x00Web2py'
tRp4611
asbasbasbag60
(g76
g62
NtRp4612
(dp4613
g65
(dp4614
sg74
g4595
sg67
(lp4615
g60
(g81
g62
NtRp4616
(dp4617
g65
(dp4618
sg74
g4612
sg67
(lp4619
g60
(g61
g62
NtRp4620
(dp4621
g65
(dp4622
g73
I1
ssg74
g4616
sg67
(lp4623
I00
asbasbasbag60
(g76
g62
NtRp4624
(dp4625
g65
(dp4626
sg74
g4595
sg67
(lp4627
g60
(g81
g62
NtRp4628
(dp4629
g65
(dp4630
sg74
g4624
sg67
(lp4631
g60
(g61
g62
NtRp4632
(dp4633
g65
(dp4634
g73
I1
ssg74
g4628
sg67
(lp4635
S'http://www.web2py.com'
p4636
asbasbasbag60
(g76
g62
NtRp4637
(dp4638
g65
(dp4639
sg74
g4595
sg67
(lp4640
g60
(g81
g62
NtRp4641
(dp4642
g65
(dp4643
sg74
g4637
sg67
(lp4644
g60
(g61
g62
NtRp4645
(dp4646
g65
(dp4647
g73
I1
ssg74
g4641
sg67
(lp4648
(lp4649
(g3745
(S't\x08\x00\x00\x00Download'
tRp4650
I00
S'http://www.web2py.com/examples/default/download'
tp4651
a(g3745
(S't\x07\x00\x00\x00Support'
tRp4652
I00
S'http://www.web2py.com/examples/default/support'
tp4653
a(g3745
(S's\x0e\x00\x00\x00Quick Examples'
tRp4654
I00
S'http://web2py.com/examples/default/examples'
tp4655
a(g3745
(S't\x03\x00\x00\x00FAQ'
tRp4656
I00
S'http://web2py.com/AlterEgo'
tp4657
a(g3745
(S's\x11\x00\x00\x00Free Applications'
tRp4658
I00
S'http://web2py.com/appliances'
tp4659
a(g3745
(S't\x07\x00\x00\x00Plugins'
tRp4660
I00
S'http://web2py.com/plugins'
tp4661
a(g3745
(S't\x07\x00\x00\x00Recipes'
tRp4662
I00
S'http://web2pyslices.com/'
tp4663
a(g3745
(S't\x04\x00\x00\x00Demo'
tRp4664
I00
S'http://web2py.com/demo_admin'
tp4665
a(g3745
(S't\x08\x00\x00\x00Semantic'
tRp4666
I00
S'http://web2py.com/semantic'
tp4667
a(g3745
(S't\x07\x00\x00\x00Layouts'
tRp4668
I00
S'http://web2py.com/layouts'
tp4669
a(g3745
(S't\x06\x00\x00\x00Videos'
tRp4670
I00
S'http://www.web2py.com/examples/default/videos/'
tp4671
aasbasbasbasbasbasbasbasbasbasbasbasbasbasbasbasbasbasbasbag60
(g76
g62
NtRp4672
(dp4673
g65
(dp4674
sg74
g3277
sg67
(lp4675
g60
(g81
g62
NtRp4676
(dp4677
g65
(dp4678
g85
g86
ssg74
g4672
sg67
(lp4679
S'meta'
p4680
asbag60
(g81
g62
NtRp4681
(dp4682
g65
(dp4683
g92
g93
ssg74
g4672
sg67
(lp4684
S':'
asbag60
(g81
g62
NtRp4685
(dp4686
g65
(dp4687
sg74
g4672
sg67
(lp4688
g60
(g61
g62
NtRp4689
(dp4690
g65
(dp4691
g73
I5
ssg74
g4685
sg67
(lp4692
g60
(g69
g62
NtRp4693
(dp4694
g65
(dp4695
g73
I4
ssg74
Nsg67
(lp4696
g60
(g76
g62
NtRp4697
(dp4698
g65
(dp4699
sg74
g4693
sg67
(lp4700
g60
(g81
g62
NtRp4701
(dp4702
g65
(dp4703
g85
g86
ssg74
g4697
sg67
(lp4704
S'author'
p4705
asbag60
(g81
g62
NtRp4706
(dp4707
g65
(dp4708
g92
g93
ssg74
g4697
sg67
(lp4709
S':'
asbag60
(g81
g62
NtRp4710
(dp4711
g65
(dp4712
sg74
g4697
sg67
(lp4713
g60
(g61
g62
NtRp4714
(dp4715
g65
(dp4716
g73
I4
ssg74
g4710
sg67
(lp4717
S'you'
p4718
asbasbasbag60
(g76
g62
NtRp4719
(dp4720
g65
(dp4721
sg74
g4693
sg67
(lp4722
g60
(g81
g62
NtRp4723
(dp4724
g65
(dp4725
g85
g86
ssg74
g4719
sg67
(lp4726
S'copyright'
p4727
asbag60
(g81
g62
NtRp4728
(dp4729
g65
(dp4730
g92
g93
ssg74
g4719
sg67
(lp4731
S':'
asbag60
(g81
g62
NtRp4732
(dp4733
g65
(dp4734
sg74
g4719
sg67
(lp4735
g60
(g61
g62
NtRp4736
(dp4737
g65
(dp4738
g73
I4
ssg74
g4732
sg67
(lp4739
S'Copyright 2007-2010'
p4740
asbasbasbag60
(g76
g62
NtRp4741
(dp4742
g65
(dp4743
sg74
g4693
sg67
(lp4744
g60
(g81
g62
NtRp4745
(dp4746
g65
(dp4747
g85
g86
ssg74
g4741
sg67
(lp4748
S'description'
p4749
asbag60
(g81
g62
NtRp4750
(dp4751
g65
(dp4752
g92
g93
ssg74
g4741
sg67
(lp4753
S':'
asbag60
(g81
g62
NtRp4754
(dp4755
g65
(dp4756
sg74
g4741
sg67
(lp4757
g60
(g61
g62
NtRp4758
(dp4759
g65
(dp4760
g73
I4
ssg74
g4754
sg67
(lp4761
S'Free and open source full-stack enterprise framework for agile development of fast, scalable, secure and portable database-driven web-based applications. Written and programmable in Python'
p4762
asbasbasbag60
(g76
g62
NtRp4763
(dp4764
g65
(dp4765
sg74
g4693
sg67
(lp4766
g60
(g81
g62
NtRp4767
(dp4768
g65
(dp4769
g85
g86
ssg74
g4763
sg67
(lp4770
S'generator'
p4771
asbag60
(g81
g62
NtRp4772
(dp4773
g65
(dp4774
g92
g93
ssg74
g4763
sg67
(lp4775
S':'
asbag60
(g81
g62
NtRp4776
(dp4777
g65
(dp4778
sg74
g4763
sg67
(lp4779
g60
(g61
g62
NtRp4780
(dp4781
g65
(dp4782
g73
I4
ssg74
g4776
sg67
(lp4783
S'Web2py Enterprise Framework'
p4784
asbasbasbag60
(g76
g62
NtRp4785
(dp4786
g65
(dp4787
sg74
g4693
sg67
(lp4788
g60
(g81
g62
NtRp4789
(dp4790
g65
(dp4791
g85
g86
ssg74
g4785
sg67
(lp4792
S'keywords'
p4793
asbag60
(g81
g62
NtRp4794
(dp4795
g65
(dp4796
g92
g93
ssg74
g4785
sg67
(lp4797
S':'
asbag60
(g81
g62
NtRp4798
(dp4799
g65
(dp4800
sg74
g4785
sg67
(lp4801
g60
(g61
g62
NtRp4802
(dp4803
g65
(dp4804
g73
I4
ssg74
g4798
sg67
(lp4805
S'web2py, python, framework'
p4806
asbasbasbasbasbasbasbag60
(g76
g62
NtRp4807
(dp4808
g65
(dp4809
sg74
g3277
sg67
(lp4810
g60
(g81
g62
NtRp4811
(dp4812
g65
(dp4813
g85
g86
ssg74
g4807
sg67
(lp4814
S'postprocessing'
p4815
asbag60
(g81
g62
NtRp4816
(dp4817
g65
(dp4818
g92
g93
ssg74
g4807
sg67
(lp4819
S':'
asbag60
(g81
g62
NtRp4820
(dp4821
g65
(dp4822
sg74
g4807
sg67
(lp4823
g60
(g61
g62
NtRp4824
(dp4825
g65
(dp4826
g73
I5
ssg74
g4820
sg67
(lp4827
g60
(g69
g62
NtRp4828
(dp4829
g65
(dp4830
g73
I4
ssg74
Nsg67
(lp4831
sbasbasbasbag60
(g76
g62
NtRp4832
(dp4833
g65
(dp4834
sg74
g3277
sg67
(lp4835
g60
(g81
g62
NtRp4836
(dp4837
g65
(dp4838
g85
g86
ssg74
g4832
sg67
(lp4839
S'session_file'
p4840
asbag60
(g81
g62
NtRp4841
(dp4842
g65
(dp4843
g92
g93
ssg74
g4832
sg67
(lp4844
S':'
asbag60
(g81
g62
NtRp4845
(dp4846
g65
(dp4847
sg74
g4832
sg67
(lp4848
g60
(g61
g62
NtRp4849
(dp4850
g65
(dp4851
g73
I5
ssg74
g4845
sg67
(lp4852
S"<open file '/Users/schultzc/workspace/wherespuppet/web2py/applications/wp/sessions/127.0.0.1-09828a0e-340c-4ab3-852d-d6e39d579d31', mode 'rb+' at 0x101fdc030>"
p4853
asbasbasbag60
(g76
g62
NtRp4854
(dp4855
g65
(dp4856
sg74
g3277
sg67
(lp4857
g60
(g81
g62
NtRp4858
(dp4859
g65
(dp4860
g85
g86
ssg74
g4854
sg67
(lp4861
S'session_filename'
p4862
asbag60
(g81
g62
NtRp4863
(dp4864
g65
(dp4865
g92
g93
ssg74
g4854
sg67
(lp4866
S':'
asbag60
(g81
g62
NtRp4867
(dp4868
g65
(dp4869
sg74
g4854
sg67
(lp4870
g60
(g61
g62
NtRp4871
(dp4872
g65
(dp4873
g73
I5
ssg74
g4867
sg67
(lp4874
S'/Users/schultzc/workspace/wherespuppet/web2py/applications/wp/sessions/127.0.0.1-09828a0e-340c-4ab3-852d-d6e39d579d31'
p4875
asbasbasbag60
(g76
g62
NtRp4876
(dp4877
g65
(dp4878
sg74
g3277
sg67
(lp4879
g60
(g81
g62
NtRp4880
(dp4881
g65
(dp4882
g85
g86
ssg74
g4876
sg67
(lp4883
S'session_id'
p4884
asbag60
(g81
g62
NtRp4885
(dp4886
g65
(dp4887
g92
g93
ssg74
g4876
sg67
(lp4888
S':'
asbag60
(g81
g62
NtRp4889
(dp4890
g65
(dp4891
sg74
g4876
sg67
(lp4892
g60
(g61
g62
NtRp4893
(dp4894
g65
(dp4895
g73
I5
ssg74
g4889
sg67
(lp4896
S'127.0.0.1-09828a0e-340c-4ab3-852d-d6e39d579d31'
p4897
asbasbasbag60
(g76
g62
NtRp4898
(dp4899
g65
(dp4900
sg74
g3277
sg67
(lp4901
g60
(g81
g62
NtRp4902
(dp4903
g65
(dp4904
g85
g86
ssg74
g4898
sg67
(lp4905
S'session_id_name'
p4906
asbag60
(g81
g62
NtRp4907
(dp4908
g65
(dp4909
g92
g93
ssg74
g4898
sg67
(lp4910
S':'
asbag60
(g81
g62
NtRp4911
(dp4912
g65
(dp4913
sg74
g4898
sg67
(lp4914
g60
(g61
g62
NtRp4915
(dp4916
g65
(dp4917
g73
I5
ssg74
g4911
sg67
(lp4918
g3334
asbasbasbag60
(g76
g62
NtRp4919
(dp4920
g65
(dp4921
sg74
g3277
sg67
(lp4922
g60
(g81
g62
NtRp4923
(dp4924
g65
(dp4925
g85
g86
ssg74
g4919
sg67
(lp4926
S'session_locked'
p4927
asbag60
(g81
g62
NtRp4928
(dp4929
g65
(dp4930
g92
g93
ssg74
g4919
sg67
(lp4931
S':'
asbag60
(g81
g62
NtRp4932
(dp4933
g65
(dp4934
sg74
g4919
sg67
(lp4935
g60
(g61
g62
NtRp4936
(dp4937
g65
(dp4938
g73
I5
ssg74
g4932
sg67
(lp4939
g2128
asbasbasbag60
(g76
g62
NtRp4940
(dp4941
g65
(dp4942
sg74
g3277
sg67
(lp4943
g60
(g81
g62
NtRp4944
(dp4945
g65
(dp4946
g85
g86
ssg74
g4940
sg67
(lp4947
S'session_new'
p4948
asbag60
(g81
g62
NtRp4949
(dp4950
g65
(dp4951
g92
g93
ssg74
g4940
sg67
(lp4952
S':'
asbag60
(g81
g62
NtRp4953
(dp4954
g65
(dp4955
sg74
g4940
sg67
(lp4956
g60
(g61
g62
NtRp4957
(dp4958
g65
(dp4959
g73
I5
ssg74
g4953
sg67
(lp4960
g103
asbasbasbag60
(g76
g62
NtRp4961
(dp4962
g65
(dp4963
sg74
g3277
sg67
(lp4964
g60
(g81
g62
NtRp4965
(dp4966
g65
(dp4967
g85
g86
ssg74
g4961
sg67
(lp4968
S'status'
p4969
asbag60
(g81
g62
NtRp4970
(dp4971
g65
(dp4972
g92
g93
ssg74
g4961
sg67
(lp4973
S':'
asbag60
(g81
g62
NtRp4974
(dp4975
g65
(dp4976
sg74
g4961
sg67
(lp4977
g60
(g61
g62
NtRp4978
(dp4979
g65
(dp4980
g73
I5
ssg74
g4974
sg67
(lp4981
S'200'
p4982
asbasbasbag60
(g76
g62
NtRp4983
(dp4984
g65
(dp4985
sg74
g3277
sg67
(lp4986
g60
(g81
g62
NtRp4987
(dp4988
g65
(dp4989
g85
g86
ssg74
g4983
sg67
(lp4990
S'subtitle'
p4991
asbag60
(g81
g62
NtRp4992
(dp4993
g65
(dp4994
g92
g93
ssg74
g4983
sg67
(lp4995
S':'
asbag60
(g81
g62
NtRp4996
(dp4997
g65
(dp4998
sg74
g4983
sg67
(lp4999
g60
(g61
g62
NtRp5000
(dp5001
g65
(dp5002
g73
I5
ssg74
g4996
sg67
(lp5003
g3745
(S's\r\x00\x00\x00customize me!'
tRp5004
asbasbasbag60
(g76
g62
NtRp5005
(dp5006
g65
(dp5007
sg74
g3277
sg67
(lp5008
g60
(g81
g62
NtRp5009
(dp5010
g65
(dp5011
g85
g86
ssg74
g5005
sg67
(lp5012
S'title'
p5013
asbag60
(g81
g62
NtRp5014
(dp5015
g65
(dp5016
g92
g93
ssg74
g5005
sg67
(lp5017
S':'
asbag60
(g81
g62
NtRp5018
(dp5019
g65
(dp5020
sg74
g5005
sg67
(lp5021
g60
(g61
g62
NtRp5022
(dp5023
g65
(dp5024
g73
I5
ssg74
g5018
sg67
(lp5025
g125
asbasbasbag60
(g76
g62
NtRp5026
(dp5027
g65
(dp5028
sg74
g3277
sg67
(lp5029
g60
(g81
g62
NtRp5030
(dp5031
g65
(dp5032
g85
g86
ssg74
g5026
sg67
(lp5033
g2452
asbag60
(g81
g62
NtRp5034
(dp5035
g65
(dp5036
g92
g93
ssg74
g5026
sg67
(lp5037
S':'
asbag60
(g81
g62
NtRp5038
(dp5039
g65
(dp5040
sg74
g5026
sg67
(lp5041
g60
(g61
g62
NtRp5042
(dp5043
g65
(dp5044
g73
I5
ssg74
g5038
sg67
(lp5045
g2465
asbasbasbag60
(g76
g62
NtRp5046
(dp5047
g65
(dp5048
sg74
g3277
sg67
(lp5049
g60
(g81
g62
NtRp5050
(dp5051
g65
(dp5052
g85
g86
ssg74
g5046
sg67
(lp5053
S'view'
p5054
asbag60
(g81
g62
NtRp5055
(dp5056
g65
(dp5057
g92
g93
ssg74
g5046
sg67
(lp5058
S':'
asbag60
(g81
g62
NtRp5059
(dp5060
g65
(dp5061
sg74
g5046
sg67
(lp5062
g60
(g61
g62
NtRp5063
(dp5064
g65
(dp5065
g73
I5
ssg74
g5059
sg67
(lp5066
S'default/submit.html'
p5067
asbasbasbasbasbsS'locals'
p5068
(dp5069
S'LegalChars'
p5070
S'"abcdefghijklmnopqrstuvwxyzABCDEFGHIJKLMNOPQRSTUVWXYZ0123456789!#$%&\'*+-.^_`|~"'
p5071
sS'coded_val'
p5072
S"'360'"
p5073
sS'idmap'
p5074
S'\'\\x00\\x01\\x02\\x03\\x04\\x05\\x06\\x07\\x08\\t\\n\\x0b\\x0c\\r\\x0e\\x0f\\x10\\x11\\x12\\x13\\x14\\x15\\x16\\x17\\x18\\x19\\x1a\\x1b\\x1c\\x1d\\x1e\\x1f !"#$%&\\\'()*+,-./...\\xcf\\xd0\\xd1\\xd2\\xd3\\xd4\\xd5\\xd6\\xd7\\xd8\\xd9\\xda\\xdb\\xdc\\xdd\\xde\\xdf\\xe0\\xe1\\xe2\\xe3\\xe4\\xe5\\xe6\\xe7\\xe8\\xe9\\xea\\xeb\\xec\\xed\\xee\\xef\\xf0\\xf1\\xf2\\xf3\\xf4\\xf5\\xf6\\xf7\\xf8\\xf9\\xfa\\xfb\\xfc\\xfd\\xfe\\xff\''
p5075
sS'val'
p5076
S"'360'"
p5077
sS'self'
p5078
S'<Morsel: None=None>'
p5079
sS'key'
p5080
S"'expires'"
p5081
sS'translate'
p5082
S'<function translate>'
p5083
sssS'traceback'
p5084
S'Traceback (most recent call last):\n  File "/Users/schultzc/workspace/wherespuppet/web2py/gluon/restricted.py", line 192, in restricted\n    exec ccode in environment\n  File "/Users/schultzc/workspace/wherespuppet/web2py/applications/wp/controllers/default.py", line 99, in <module>\n  File "/Users/schultzc/workspace/wherespuppet/web2py/gluon/globals.py", line 137, in <lambda>\n    self._caller = lambda f: f()\n  File "/Users/schultzc/workspace/wherespuppet/web2py/applications/wp/controllers/default.py", line 19, in submit\n    response.cookies[\'expires\'] = 360\n  File "/opt/local/Library/Frameworks/Python.framework/Versions/2.7/lib/python2.7/Cookie.py", line 592, in __setitem__\n    self.__set(key, rval, cval)\n  File "/opt/local/Library/Frameworks/Python.framework/Versions/2.7/lib/python2.7/Cookie.py", line 585, in __set\n    M.set(key, real_value, coded_value)\n  File "/opt/local/Library/Frameworks/Python.framework/Versions/2.7/lib/python2.7/Cookie.py", line 458, in set\n    raise CookieError("Attempt to set a reserved key: %s" % key)\nCookieError: Attempt to set a reserved key: expires\n'
p5085
s.