(dp1
S'output'
p2
S''
sS'layer'
p3
S'/Users/schultzc/Downloads/web2py/applications/wp/controllers/default.py'
p4
sS'code'
p5
S'# -*- coding: utf-8 -*-\n# this file is released under public domain and you can use without limitations\n\n#########################################################################\n## This is a samples controller\n## - index is the default action of any application\n## - user is required for authentication and authorization\n## - download is for downloading files uploaded in the db (does streaming)\n## - call exposes all registered services (none by default)\n#########################################################################\n\ndef index():\n    images = db().select(db.image.ALL, orderby=db.image.title)\n    return dict(images=images)\n    \ndef submit():\n   form = SQLFORM(db.image, formstyle="divs")\n   if form.accepts(request.vars, session):\n       p=db.image.insert(pub_date=datetime.datetime.now())\n       response.flash = \'form accepted\'\n   elif form.errors:\n       response.flash = \'form has errors\'\n   else:\n       response.flash = \'please fill out the form\'\n   return dict(form=form)\n   \ndef show():\n    image = db(db.image.id==request.args(0)).select().first()\n    form = SQLFORM(db.comment)\n    form.vars.image_id = image.id\n    if form.accepts(request.vars, session):\n        response.flash = \'your comment is posted\'\n    comments = db(db.comment.image_id==image.id).select()\n    return dict(image=image, comments=comments, form=form)\n\ndef user():\n    """\n    exposes:\n    http://..../[app]/default/user/login\n    http://..../[app]/default/user/logout\n    http://..../[app]/default/user/register\n    http://..../[app]/default/user/profile\n    http://..../[app]/default/user/retrieve_password\n    http://..../[app]/default/user/change_password\n    use @auth.requires_login()\n        @auth.requires_membership(\'group name\')\n        @auth.requires_permission(\'read\',\'table name\',record_id)\n    to decorate functions that need access control\n    """\n    return dict(form=auth())\n\n\ndef download():\n    """\n    allows downloading of uploaded files\n    http://..../[app]/default/download/[filename]\n    """\n    return response.download(request,db)\n\n\ndef call():\n    """\n    exposes services. for example:\n    http://..../[app]/default/call/jsonrpc\n    decorate with @services.jsonrpc the functions to expose\n    supports xml, json, xmlrpc, jsonrpc, amfrpc, rss, csv\n    """\n    return service()\n\n\'\'\'\n@auth.requires_signature()\ndef data():\n    """\n    http://..../[app]/default/data/tables\n    http://..../[app]/default/data/create/[table]\n    http://..../[app]/default/data/read/[table]/[id]\n    http://..../[app]/default/data/update/[table]/[id]\n    http://..../[app]/default/data/delete/[table]/[id[\n    http://..../[app]/default/data/select/[table]\n    http://..../[app]/default/data/search/[table]\n    but URLs bust be signed, i.e. linked with\n      A(\'table\',_href=URL(\'data/tables\',user_signature=True))\n    or with the signed load operator\n      LOAD(\'default\',\'data.load\',args=\'tables\',ajax=True,user_signature=True)\n    """\n    return dict(form=crud())\n\'\'\'\n\nresponse._vars=response._caller(submit)\n'
p6
sS'snapshot'
p7
(dp8
S'exception'
p9
(dp10
S'__hash__'
p11
S"<method-wrapper '__hash__' of exceptions.NameError object>"
p12
sS'__setattr__'
p13
S"<method-wrapper '__setattr__' of exceptions.NameError object>"
p14
sS'__reduce_ex__'
p15
S'<built-in method __reduce_ex__ of exceptions.NameError object>'
p16
sS'__getslice__'
p17
S"<method-wrapper '__getslice__' of exceptions.NameError object>"
p18
sS'__getitem__'
p19
S"<method-wrapper '__getitem__' of exceptions.NameError object>"
p20
sS'__setstate__'
p21
S'<built-in method __setstate__ of exceptions.NameError object>'
p22
sS'args'
p23
S'("global name \'datetime\' is not defined",)'
p24
sS'__reduce__'
p25
S'<built-in method __reduce__ of exceptions.NameError object>'
p26
sS'__str__'
p27
S"<method-wrapper '__str__' of exceptions.NameError object>"
p28
sS'__format__'
p29
S'<built-in method __format__ of exceptions.NameError object>'
p30
sS'__getattribute__'
p31
S"<method-wrapper '__getattribute__' of exceptions.NameError object>"
p32
sS'__class__'
p33
S"<type 'exceptions.NameError'>"
p34
sS'__unicode__'
p35
S'<built-in method __unicode__ of exceptions.NameError object>'
p36
sS'__delattr__'
p37
S"<method-wrapper '__delattr__' of exceptions.NameError object>"
p38
sS'__subclasshook__'
p39
S'<built-in method __subclasshook__ of type object>'
p40
sS'__repr__'
p41
S"<method-wrapper '__repr__' of exceptions.NameError object>"
p42
sS'__dict__'
p43
S'{}'
p44
sS'__sizeof__'
p45
S'<built-in method __sizeof__ of exceptions.NameError object>'
p46
sS'__doc__'
p47
S"'Name not found globally.'"
p48
sS'__init__'
p49
S"<method-wrapper '__init__' of exceptions.NameError object>"
p50
sS'__new__'
p51
S'<built-in method __new__ of type object>'
p52
ssS'evalue'
p53
S"global name 'datetime' is not defined"
p54
sS'request'
p55
ccopy_reg
_reconstructor
p56
(cgluon.html
BEAUTIFY
p57
c__builtin__
object
p58
NtRp59
(dp60
S'attributes'
p61
(dp62
sS'components'
p63
(lp64
g56
(cgluon.html
TABLE
p65
g58
NtRp66
(dp67
g61
(dp68
S'level'
p69
I5
ssS'parent'
p70
Nsg63
(lp71
g56
(cgluon.html
TR
p72
g58
NtRp73
(dp74
g61
(dp75
sg70
g66
sg63
(lp76
g56
(cgluon.html
TD
p77
g58
NtRp78
(dp79
g61
(dp80
S'_style'
p81
S'font-weight:bold;'
p82
ssg70
g73
sg63
(lp83
S'ajax'
p84
asbag56
(g77
g58
NtRp85
(dp86
g61
(dp87
S'_valign'
p88
S'top'
p89
ssg70
g73
sg63
(lp90
S':'
asbag56
(g77
g58
NtRp91
(dp92
g61
(dp93
sg70
g73
sg63
(lp94
g56
(g57
g58
NtRp95
(dp96
g61
(dp97
g69
I5
ssg70
g91
sg63
(lp98
S'False'
p99
asbasbasbag56
(g72
g58
NtRp100
(dp101
g61
(dp102
sg70
g66
sg63
(lp103
g56
(g77
g58
NtRp104
(dp105
g61
(dp106
g81
g82
ssg70
g100
sg63
(lp107
S'application'
p108
asbag56
(g77
g58
NtRp109
(dp110
g61
(dp111
g88
g89
ssg70
g100
sg63
(lp112
S':'
asbag56
(g77
g58
NtRp113
(dp114
g61
(dp115
sg70
g100
sg63
(lp116
g56
(g57
g58
NtRp117
(dp118
g61
(dp119
g69
I5
ssg70
g113
sg63
(lp120
S'wp'
p121
asbasbasbag56
(g72
g58
NtRp122
(dp123
g61
(dp124
sg70
g66
sg63
(lp125
g56
(g77
g58
NtRp126
(dp127
g61
(dp128
g81
g82
ssg70
g122
sg63
(lp129
g23
asbag56
(g77
g58
NtRp130
(dp131
g61
(dp132
g88
g89
ssg70
g122
sg63
(lp133
S':'
asbag56
(g77
g58
NtRp134
(dp135
g61
(dp136
sg70
g122
sg63
(lp137
g56
(g57
g58
NtRp138
(dp139
g61
(dp140
g69
I5
ssg70
g134
sg63
(lp141
g56
(g65
g58
NtRp142
(dp143
g61
(dp144
g69
I4
ssg70
Nsg63
(lp145
sbasbasbasbag56
(g72
g58
NtRp146
(dp147
g61
(dp148
sg70
g66
sg63
(lp149
g56
(g77
g58
NtRp150
(dp151
g61
(dp152
g81
g82
ssg70
g146
sg63
(lp153
S'body'
p154
asbag56
(g77
g58
NtRp155
(dp156
g61
(dp157
g88
g89
ssg70
g146
sg63
(lp158
S':'
asbag56
(g77
g58
NtRp159
(dp160
g61
(dp161
sg70
g146
sg63
(lp162
g56
(g57
g58
NtRp163
(dp164
g61
(dp165
g69
I5
ssg70
g159
sg63
(lp166
S"<open file '<fdopen>', mode 'w+b' at 0x1064c09c0>"
p167
asbasbasbag56
(g72
g58
NtRp168
(dp169
g61
(dp170
sg70
g66
sg63
(lp171
g56
(g77
g58
NtRp172
(dp173
g61
(dp174
g81
g82
ssg70
g168
sg63
(lp175
S'client'
p176
asbag56
(g77
g58
NtRp177
(dp178
g61
(dp179
g88
g89
ssg70
g168
sg63
(lp180
S':'
asbag56
(g77
g58
NtRp181
(dp182
g61
(dp183
sg70
g168
sg63
(lp184
g56
(g57
g58
NtRp185
(dp186
g61
(dp187
g69
I5
ssg70
g181
sg63
(lp188
S'127.0.0.1'
p189
asbasbasbag56
(g72
g58
NtRp190
(dp191
g61
(dp192
sg70
g66
sg63
(lp193
g56
(g77
g58
NtRp194
(dp195
g61
(dp196
g81
g82
ssg70
g190
sg63
(lp197
S'controller'
p198
asbag56
(g77
g58
NtRp199
(dp200
g61
(dp201
g88
g89
ssg70
g190
sg63
(lp202
S':'
asbag56
(g77
g58
NtRp203
(dp204
g61
(dp205
sg70
g190
sg63
(lp206
g56
(g57
g58
NtRp207
(dp208
g61
(dp209
g69
I5
ssg70
g203
sg63
(lp210
S'default'
p211
asbasbasbag56
(g72
g58
NtRp212
(dp213
g61
(dp214
sg70
g66
sg63
(lp215
g56
(g77
g58
NtRp216
(dp217
g61
(dp218
g81
g82
ssg70
g212
sg63
(lp219
S'cookies'
p220
asbag56
(g77
g58
NtRp221
(dp222
g61
(dp223
g88
g89
ssg70
g212
sg63
(lp224
S':'
asbag56
(g77
g58
NtRp225
(dp226
g61
(dp227
sg70
g212
sg63
(lp228
g56
(g57
g58
NtRp229
(dp230
g61
(dp231
g69
I5
ssg70
g225
sg63
(lp232
g56
(g65
g58
NtRp233
(dp234
g61
(dp235
g69
I4
ssg70
Nsg63
(lp236
g56
(g72
g58
NtRp237
(dp238
g61
(dp239
sg70
g233
sg63
(lp240
g56
(g77
g58
NtRp241
(dp242
g61
(dp243
g81
g82
ssg70
g237
sg63
(lp244
S'session_id_admin'
p245
asbag56
(g77
g58
NtRp246
(dp247
g61
(dp248
g88
g89
ssg70
g237
sg63
(lp249
S':'
asbag56
(g77
g58
NtRp250
(dp251
g61
(dp252
sg70
g237
sg63
(lp253
g56
(g57
g58
NtRp254
(dp255
g61
(dp256
g69
I4
ssg70
g250
sg63
(lp257
g56
(g65
g58
NtRp258
(dp259
g61
(dp260
g69
I3
ssg70
Nsg63
(lp261
g56
(g72
g58
NtRp262
(dp263
g61
(dp264
sg70
g258
sg63
(lp265
g56
(g77
g58
NtRp266
(dp267
g61
(dp268
g81
g82
ssg70
g262
sg63
(lp269
S'comment'
p270
asbag56
(g77
g58
NtRp271
(dp272
g61
(dp273
g88
g89
ssg70
g262
sg63
(lp274
S':'
asbag56
(g77
g58
NtRp275
(dp276
g61
(dp277
sg70
g262
sg63
(lp278
g56
(g57
g58
NtRp279
(dp280
g61
(dp281
g69
I3
ssg70
g275
sg63
(lp282
S''
asbasbasbag56
(g72
g58
NtRp283
(dp284
g61
(dp285
sg70
g258
sg63
(lp286
g56
(g77
g58
NtRp287
(dp288
g61
(dp289
g81
g82
ssg70
g283
sg63
(lp290
S'domain'
p291
asbag56
(g77
g58
NtRp292
(dp293
g61
(dp294
g88
g89
ssg70
g283
sg63
(lp295
S':'
asbag56
(g77
g58
NtRp296
(dp297
g61
(dp298
sg70
g283
sg63
(lp299
g56
(g57
g58
NtRp300
(dp301
g61
(dp302
g69
I3
ssg70
g296
sg63
(lp303
S''
asbasbasbag56
(g72
g58
NtRp304
(dp305
g61
(dp306
sg70
g258
sg63
(lp307
g56
(g77
g58
NtRp308
(dp309
g61
(dp310
g81
g82
ssg70
g304
sg63
(lp311
S'expires'
p312
asbag56
(g77
g58
NtRp313
(dp314
g61
(dp315
g88
g89
ssg70
g304
sg63
(lp316
S':'
asbag56
(g77
g58
NtRp317
(dp318
g61
(dp319
sg70
g304
sg63
(lp320
g56
(g57
g58
NtRp321
(dp322
g61
(dp323
g69
I3
ssg70
g317
sg63
(lp324
S''
asbasbasbag56
(g72
g58
NtRp325
(dp326
g61
(dp327
sg70
g258
sg63
(lp328
g56
(g77
g58
NtRp329
(dp330
g61
(dp331
g81
g82
ssg70
g325
sg63
(lp332
S'httponly'
p333
asbag56
(g77
g58
NtRp334
(dp335
g61
(dp336
g88
g89
ssg70
g325
sg63
(lp337
S':'
asbag56
(g77
g58
NtRp338
(dp339
g61
(dp340
sg70
g325
sg63
(lp341
g56
(g57
g58
NtRp342
(dp343
g61
(dp344
g69
I3
ssg70
g338
sg63
(lp345
S''
asbasbasbag56
(g72
g58
NtRp346
(dp347
g61
(dp348
sg70
g258
sg63
(lp349
g56
(g77
g58
NtRp350
(dp351
g61
(dp352
g81
g82
ssg70
g346
sg63
(lp353
S'max-age'
p354
asbag56
(g77
g58
NtRp355
(dp356
g61
(dp357
g88
g89
ssg70
g346
sg63
(lp358
S':'
asbag56
(g77
g58
NtRp359
(dp360
g61
(dp361
sg70
g346
sg63
(lp362
g56
(g57
g58
NtRp363
(dp364
g61
(dp365
g69
I3
ssg70
g359
sg63
(lp366
S''
asbasbasbag56
(g72
g58
NtRp367
(dp368
g61
(dp369
sg70
g258
sg63
(lp370
g56
(g77
g58
NtRp371
(dp372
g61
(dp373
g81
g82
ssg70
g367
sg63
(lp374
S'path'
p375
asbag56
(g77
g58
NtRp376
(dp377
g61
(dp378
g88
g89
ssg70
g367
sg63
(lp379
S':'
asbag56
(g77
g58
NtRp380
(dp381
g61
(dp382
sg70
g367
sg63
(lp383
g56
(g57
g58
NtRp384
(dp385
g61
(dp386
g69
I3
ssg70
g380
sg63
(lp387
S''
asbasbasbag56
(g72
g58
NtRp388
(dp389
g61
(dp390
sg70
g258
sg63
(lp391
g56
(g77
g58
NtRp392
(dp393
g61
(dp394
g81
g82
ssg70
g388
sg63
(lp395
S'secure'
p396
asbag56
(g77
g58
NtRp397
(dp398
g61
(dp399
g88
g89
ssg70
g388
sg63
(lp400
S':'
asbag56
(g77
g58
NtRp401
(dp402
g61
(dp403
sg70
g388
sg63
(lp404
g56
(g57
g58
NtRp405
(dp406
g61
(dp407
g69
I3
ssg70
g401
sg63
(lp408
S''
asbasbasbag56
(g72
g58
NtRp409
(dp410
g61
(dp411
sg70
g258
sg63
(lp412
g56
(g77
g58
NtRp413
(dp414
g61
(dp415
g81
g82
ssg70
g409
sg63
(lp416
S'version'
p417
asbag56
(g77
g58
NtRp418
(dp419
g61
(dp420
g88
g89
ssg70
g409
sg63
(lp421
S':'
asbag56
(g77
g58
NtRp422
(dp423
g61
(dp424
sg70
g409
sg63
(lp425
g56
(g57
g58
NtRp426
(dp427
g61
(dp428
g69
I3
ssg70
g422
sg63
(lp429
S''
asbasbasbasbasbasbasbag56
(g72
g58
NtRp430
(dp431
g61
(dp432
sg70
g233
sg63
(lp433
g56
(g77
g58
NtRp434
(dp435
g61
(dp436
g81
g82
ssg70
g430
sg63
(lp437
S'session_id_imgblog'
p438
asbag56
(g77
g58
NtRp439
(dp440
g61
(dp441
g88
g89
ssg70
g430
sg63
(lp442
S':'
asbag56
(g77
g58
NtRp443
(dp444
g61
(dp445
sg70
g430
sg63
(lp446
g56
(g57
g58
NtRp447
(dp448
g61
(dp449
g69
I4
ssg70
g443
sg63
(lp450
g56
(g65
g58
NtRp451
(dp452
g61
(dp453
g69
I3
ssg70
Nsg63
(lp454
g56
(g72
g58
NtRp455
(dp456
g61
(dp457
sg70
g451
sg63
(lp458
g56
(g77
g58
NtRp459
(dp460
g61
(dp461
g81
g82
ssg70
g455
sg63
(lp462
g270
asbag56
(g77
g58
NtRp463
(dp464
g61
(dp465
g88
g89
ssg70
g455
sg63
(lp466
S':'
asbag56
(g77
g58
NtRp467
(dp468
g61
(dp469
sg70
g455
sg63
(lp470
g56
(g57
g58
NtRp471
(dp472
g61
(dp473
g69
I3
ssg70
g467
sg63
(lp474
S''
asbasbasbag56
(g72
g58
NtRp475
(dp476
g61
(dp477
sg70
g451
sg63
(lp478
g56
(g77
g58
NtRp479
(dp480
g61
(dp481
g81
g82
ssg70
g475
sg63
(lp482
g291
asbag56
(g77
g58
NtRp483
(dp484
g61
(dp485
g88
g89
ssg70
g475
sg63
(lp486
S':'
asbag56
(g77
g58
NtRp487
(dp488
g61
(dp489
sg70
g475
sg63
(lp490
g56
(g57
g58
NtRp491
(dp492
g61
(dp493
g69
I3
ssg70
g487
sg63
(lp494
S''
asbasbasbag56
(g72
g58
NtRp495
(dp496
g61
(dp497
sg70
g451
sg63
(lp498
g56
(g77
g58
NtRp499
(dp500
g61
(dp501
g81
g82
ssg70
g495
sg63
(lp502
g312
asbag56
(g77
g58
NtRp503
(dp504
g61
(dp505
g88
g89
ssg70
g495
sg63
(lp506
S':'
asbag56
(g77
g58
NtRp507
(dp508
g61
(dp509
sg70
g495
sg63
(lp510
g56
(g57
g58
NtRp511
(dp512
g61
(dp513
g69
I3
ssg70
g507
sg63
(lp514
S''
asbasbasbag56
(g72
g58
NtRp515
(dp516
g61
(dp517
sg70
g451
sg63
(lp518
g56
(g77
g58
NtRp519
(dp520
g61
(dp521
g81
g82
ssg70
g515
sg63
(lp522
g333
asbag56
(g77
g58
NtRp523
(dp524
g61
(dp525
g88
g89
ssg70
g515
sg63
(lp526
S':'
asbag56
(g77
g58
NtRp527
(dp528
g61
(dp529
sg70
g515
sg63
(lp530
g56
(g57
g58
NtRp531
(dp532
g61
(dp533
g69
I3
ssg70
g527
sg63
(lp534
S''
asbasbasbag56
(g72
g58
NtRp535
(dp536
g61
(dp537
sg70
g451
sg63
(lp538
g56
(g77
g58
NtRp539
(dp540
g61
(dp541
g81
g82
ssg70
g535
sg63
(lp542
g354
asbag56
(g77
g58
NtRp543
(dp544
g61
(dp545
g88
g89
ssg70
g535
sg63
(lp546
S':'
asbag56
(g77
g58
NtRp547
(dp548
g61
(dp549
sg70
g535
sg63
(lp550
g56
(g57
g58
NtRp551
(dp552
g61
(dp553
g69
I3
ssg70
g547
sg63
(lp554
S''
asbasbasbag56
(g72
g58
NtRp555
(dp556
g61
(dp557
sg70
g451
sg63
(lp558
g56
(g77
g58
NtRp559
(dp560
g61
(dp561
g81
g82
ssg70
g555
sg63
(lp562
g375
asbag56
(g77
g58
NtRp563
(dp564
g61
(dp565
g88
g89
ssg70
g555
sg63
(lp566
S':'
asbag56
(g77
g58
NtRp567
(dp568
g61
(dp569
sg70
g555
sg63
(lp570
g56
(g57
g58
NtRp571
(dp572
g61
(dp573
g69
I3
ssg70
g567
sg63
(lp574
S''
asbasbasbag56
(g72
g58
NtRp575
(dp576
g61
(dp577
sg70
g451
sg63
(lp578
g56
(g77
g58
NtRp579
(dp580
g61
(dp581
g81
g82
ssg70
g575
sg63
(lp582
g396
asbag56
(g77
g58
NtRp583
(dp584
g61
(dp585
g88
g89
ssg70
g575
sg63
(lp586
S':'
asbag56
(g77
g58
NtRp587
(dp588
g61
(dp589
sg70
g575
sg63
(lp590
g56
(g57
g58
NtRp591
(dp592
g61
(dp593
g69
I3
ssg70
g587
sg63
(lp594
S''
asbasbasbag56
(g72
g58
NtRp595
(dp596
g61
(dp597
sg70
g451
sg63
(lp598
g56
(g77
g58
NtRp599
(dp600
g61
(dp601
g81
g82
ssg70
g595
sg63
(lp602
g417
asbag56
(g77
g58
NtRp603
(dp604
g61
(dp605
g88
g89
ssg70
g595
sg63
(lp606
S':'
asbag56
(g77
g58
NtRp607
(dp608
g61
(dp609
sg70
g595
sg63
(lp610
g56
(g57
g58
NtRp611
(dp612
g61
(dp613
g69
I3
ssg70
g607
sg63
(lp614
S''
asbasbasbasbasbasbasbag56
(g72
g58
NtRp615
(dp616
g61
(dp617
sg70
g233
sg63
(lp618
g56
(g77
g58
NtRp619
(dp620
g61
(dp621
g81
g82
ssg70
g615
sg63
(lp622
S'session_id_wp'
p623
asbag56
(g77
g58
NtRp624
(dp625
g61
(dp626
g88
g89
ssg70
g615
sg63
(lp627
S':'
asbag56
(g77
g58
NtRp628
(dp629
g61
(dp630
sg70
g615
sg63
(lp631
g56
(g57
g58
NtRp632
(dp633
g61
(dp634
g69
I4
ssg70
g628
sg63
(lp635
g56
(g65
g58
NtRp636
(dp637
g61
(dp638
g69
I3
ssg70
Nsg63
(lp639
g56
(g72
g58
NtRp640
(dp641
g61
(dp642
sg70
g636
sg63
(lp643
g56
(g77
g58
NtRp644
(dp645
g61
(dp646
g81
g82
ssg70
g640
sg63
(lp647
g270
asbag56
(g77
g58
NtRp648
(dp649
g61
(dp650
g88
g89
ssg70
g640
sg63
(lp651
S':'
asbag56
(g77
g58
NtRp652
(dp653
g61
(dp654
sg70
g640
sg63
(lp655
g56
(g57
g58
NtRp656
(dp657
g61
(dp658
g69
I3
ssg70
g652
sg63
(lp659
S''
asbasbasbag56
(g72
g58
NtRp660
(dp661
g61
(dp662
sg70
g636
sg63
(lp663
g56
(g77
g58
NtRp664
(dp665
g61
(dp666
g81
g82
ssg70
g660
sg63
(lp667
g291
asbag56
(g77
g58
NtRp668
(dp669
g61
(dp670
g88
g89
ssg70
g660
sg63
(lp671
S':'
asbag56
(g77
g58
NtRp672
(dp673
g61
(dp674
sg70
g660
sg63
(lp675
g56
(g57
g58
NtRp676
(dp677
g61
(dp678
g69
I3
ssg70
g672
sg63
(lp679
S''
asbasbasbag56
(g72
g58
NtRp680
(dp681
g61
(dp682
sg70
g636
sg63
(lp683
g56
(g77
g58
NtRp684
(dp685
g61
(dp686
g81
g82
ssg70
g680
sg63
(lp687
g312
asbag56
(g77
g58
NtRp688
(dp689
g61
(dp690
g88
g89
ssg70
g680
sg63
(lp691
S':'
asbag56
(g77
g58
NtRp692
(dp693
g61
(dp694
sg70
g680
sg63
(lp695
g56
(g57
g58
NtRp696
(dp697
g61
(dp698
g69
I3
ssg70
g692
sg63
(lp699
S''
asbasbasbag56
(g72
g58
NtRp700
(dp701
g61
(dp702
sg70
g636
sg63
(lp703
g56
(g77
g58
NtRp704
(dp705
g61
(dp706
g81
g82
ssg70
g700
sg63
(lp707
g333
asbag56
(g77
g58
NtRp708
(dp709
g61
(dp710
g88
g89
ssg70
g700
sg63
(lp711
S':'
asbag56
(g77
g58
NtRp712
(dp713
g61
(dp714
sg70
g700
sg63
(lp715
g56
(g57
g58
NtRp716
(dp717
g61
(dp718
g69
I3
ssg70
g712
sg63
(lp719
S''
asbasbasbag56
(g72
g58
NtRp720
(dp721
g61
(dp722
sg70
g636
sg63
(lp723
g56
(g77
g58
NtRp724
(dp725
g61
(dp726
g81
g82
ssg70
g720
sg63
(lp727
g354
asbag56
(g77
g58
NtRp728
(dp729
g61
(dp730
g88
g89
ssg70
g720
sg63
(lp731
S':'
asbag56
(g77
g58
NtRp732
(dp733
g61
(dp734
sg70
g720
sg63
(lp735
g56
(g57
g58
NtRp736
(dp737
g61
(dp738
g69
I3
ssg70
g732
sg63
(lp739
S''
asbasbasbag56
(g72
g58
NtRp740
(dp741
g61
(dp742
sg70
g636
sg63
(lp743
g56
(g77
g58
NtRp744
(dp745
g61
(dp746
g81
g82
ssg70
g740
sg63
(lp747
g375
asbag56
(g77
g58
NtRp748
(dp749
g61
(dp750
g88
g89
ssg70
g740
sg63
(lp751
S':'
asbag56
(g77
g58
NtRp752
(dp753
g61
(dp754
sg70
g740
sg63
(lp755
g56
(g57
g58
NtRp756
(dp757
g61
(dp758
g69
I3
ssg70
g752
sg63
(lp759
S''
asbasbasbag56
(g72
g58
NtRp760
(dp761
g61
(dp762
sg70
g636
sg63
(lp763
g56
(g77
g58
NtRp764
(dp765
g61
(dp766
g81
g82
ssg70
g760
sg63
(lp767
g396
asbag56
(g77
g58
NtRp768
(dp769
g61
(dp770
g88
g89
ssg70
g760
sg63
(lp771
S':'
asbag56
(g77
g58
NtRp772
(dp773
g61
(dp774
sg70
g760
sg63
(lp775
g56
(g57
g58
NtRp776
(dp777
g61
(dp778
g69
I3
ssg70
g772
sg63
(lp779
S''
asbasbasbag56
(g72
g58
NtRp780
(dp781
g61
(dp782
sg70
g636
sg63
(lp783
g56
(g77
g58
NtRp784
(dp785
g61
(dp786
g81
g82
ssg70
g780
sg63
(lp787
g417
asbag56
(g77
g58
NtRp788
(dp789
g61
(dp790
g88
g89
ssg70
g780
sg63
(lp791
S':'
asbag56
(g77
g58
NtRp792
(dp793
g61
(dp794
sg70
g780
sg63
(lp795
g56
(g57
g58
NtRp796
(dp797
g61
(dp798
g69
I3
ssg70
g792
sg63
(lp799
S''
asbasbasbasbasbasbasbasbasbasbasbag56
(g72
g58
NtRp800
(dp801
g61
(dp802
sg70
g66
sg63
(lp803
g56
(g77
g58
NtRp804
(dp805
g61
(dp806
g81
g82
ssg70
g800
sg63
(lp807
S'env'
p808
asbag56
(g77
g58
NtRp809
(dp810
g61
(dp811
g88
g89
ssg70
g800
sg63
(lp812
S':'
asbag56
(g77
g58
NtRp813
(dp814
g61
(dp815
sg70
g800
sg63
(lp816
g56
(g57
g58
NtRp817
(dp818
g61
(dp819
g69
I5
ssg70
g813
sg63
(lp820
g56
(g65
g58
NtRp821
(dp822
g61
(dp823
g69
I4
ssg70
Nsg63
(lp824
g56
(g72
g58
NtRp825
(dp826
g61
(dp827
sg70
g821
sg63
(lp828
g56
(g77
g58
NtRp829
(dp830
g61
(dp831
g81
g82
ssg70
g825
sg63
(lp832
S'app_folders'
p833
asbag56
(g77
g58
NtRp834
(dp835
g61
(dp836
g88
g89
ssg70
g825
sg63
(lp837
S':'
asbag56
(g77
g58
NtRp838
(dp839
g61
(dp840
sg70
g825
sg63
(lp841
g56
(g57
g58
NtRp842
(dp843
g61
(dp844
g69
I4
ssg70
g838
sg63
(lp845
S"set(['/Users/schultzc/Downloads/web2py/applications/wp/', '/Users/schultzc/Downloads/web2py/applications/admin/', '/Users/schultzc/Downloads/web2py/applications/imgblog/'])"
p846
asbasbasbag56
(g72
g58
NtRp847
(dp848
g61
(dp849
sg70
g821
sg63
(lp850
g56
(g77
g58
NtRp851
(dp852
g61
(dp853
g81
g82
ssg70
g847
sg63
(lp854
S'applications_parent'
p855
asbag56
(g77
g58
NtRp856
(dp857
g61
(dp858
g88
g89
ssg70
g847
sg63
(lp859
S':'
asbag56
(g77
g58
NtRp860
(dp861
g61
(dp862
sg70
g847
sg63
(lp863
g56
(g57
g58
NtRp864
(dp865
g61
(dp866
g69
I4
ssg70
g860
sg63
(lp867
S'/Users/schultzc/Downloads/web2py'
p868
asbasbasbag56
(g72
g58
NtRp869
(dp870
g61
(dp871
sg70
g821
sg63
(lp872
g56
(g77
g58
NtRp873
(dp874
g61
(dp875
g81
g82
ssg70
g869
sg63
(lp876
S'cmd_args'
p877
asbag56
(g77
g58
NtRp878
(dp879
g61
(dp880
g88
g89
ssg70
g869
sg63
(lp881
S':'
asbag56
(g77
g58
NtRp882
(dp883
g61
(dp884
sg70
g869
sg63
(lp885
g56
(g57
g58
NtRp886
(dp887
g61
(dp888
g69
I4
ssg70
g882
sg63
(lp889
g56
(g65
g58
NtRp890
(dp891
g61
(dp892
g69
I3
ssg70
Nsg63
(lp893
sbasbasbasbag56
(g72
g58
NtRp894
(dp895
g61
(dp896
sg70
g821
sg63
(lp897
g56
(g77
g58
NtRp898
(dp899
g61
(dp900
g81
g82
ssg70
g894
sg63
(lp901
S'cmd_options'
p902
asbag56
(g77
g58
NtRp903
(dp904
g61
(dp905
g88
g89
ssg70
g894
sg63
(lp906
S':'
asbag56
(g77
g58
NtRp907
(dp908
g61
(dp909
sg70
g894
sg63
(lp910
g56
(g57
g58
NtRp911
(dp912
g61
(dp913
g69
I4
ssg70
g907
sg63
(lp914
S"<Values at 0x101b35dd0: {'verbose': False, 'ip': '127.0.0.1', 'shutdown_timeout': 5, 'taskbar': False, 'port': 8000, 'maxthreads': None, 'softcron': False, 'server_name': 'Magnus-Specialis.local', 'bpython': False, 'nogui': False, 'nocron': False, 'extcron': False, 'debuglevel': 30, 'test': None, 'folder': '/Users/schultzc/Downloads/web2py', 'config': '', 'import_models': False, 'winservice': '', 'shell': None, 'run': '', 'log_filename': 'httpserver.log', 'args': [''], 'profiler_filename': None, 'ssl_private_key': '', 'password': 'hello', 'request_queue_size': 5, 'ssl_certificate': '', 'cronjob': False, 'plain': False, 'quiet': False, 'interfaces': None, 'minthreads': None, 'timeout': 10, 'numthreads': None, 'nobanner': False, 'pid_filename': 'httpserver.pid'}>"
p915
asbasbasbag56
(g72
g58
NtRp916
(dp917
g61
(dp918
sg70
g821
sg63
(lp919
g56
(g77
g58
NtRp920
(dp921
g61
(dp922
g81
g82
ssg70
g916
sg63
(lp923
S'content_length'
p924
asbag56
(g77
g58
NtRp925
(dp926
g61
(dp927
g88
g89
ssg70
g916
sg63
(lp928
S':'
asbag56
(g77
g58
NtRp929
(dp930
g61
(dp931
sg70
g916
sg63
(lp932
g56
(g57
g58
NtRp933
(dp934
g61
(dp935
g69
I4
ssg70
g929
sg63
(lp936
S'184066'
p937
asbasbasbag56
(g72
g58
NtRp938
(dp939
g61
(dp940
sg70
g821
sg63
(lp941
g56
(g77
g58
NtRp942
(dp943
g61
(dp944
g81
g82
ssg70
g938
sg63
(lp945
S'content_type'
p946
asbag56
(g77
g58
NtRp947
(dp948
g61
(dp949
g88
g89
ssg70
g938
sg63
(lp950
S':'
asbag56
(g77
g58
NtRp951
(dp952
g61
(dp953
sg70
g938
sg63
(lp954
g56
(g57
g58
NtRp955
(dp956
g61
(dp957
g69
I4
ssg70
g951
sg63
(lp958
S'multipart/form-data; boundary=----WebKitFormBoundaryLmm59EOGqAmfdDzf'
p959
asbasbasbag56
(g72
g58
NtRp960
(dp961
g61
(dp962
sg70
g821
sg63
(lp963
g56
(g77
g58
NtRp964
(dp965
g61
(dp966
g81
g82
ssg70
g960
sg63
(lp967
S'db_sessions'
p968
asbag56
(g77
g58
NtRp969
(dp970
g61
(dp971
g88
g89
ssg70
g960
sg63
(lp972
S':'
asbag56
(g77
g58
NtRp973
(dp974
g61
(dp975
sg70
g960
sg63
(lp976
g56
(g57
g58
NtRp977
(dp978
g61
(dp979
g69
I4
ssg70
g973
sg63
(lp980
S'set([])'
p981
asbasbasbag56
(g72
g58
NtRp982
(dp983
g61
(dp984
sg70
g821
sg63
(lp985
g56
(g77
g58
NtRp986
(dp987
g61
(dp988
g81
g82
ssg70
g982
sg63
(lp989
S'debugging'
p990
asbag56
(g77
g58
NtRp991
(dp992
g61
(dp993
g88
g89
ssg70
g982
sg63
(lp994
S':'
asbag56
(g77
g58
NtRp995
(dp996
g61
(dp997
sg70
g982
sg63
(lp998
g56
(g57
g58
NtRp999
(dp1000
g61
(dp1001
g69
I4
ssg70
g995
sg63
(lp1002
g99
asbasbasbag56
(g72
g58
NtRp1003
(dp1004
g61
(dp1005
sg70
g821
sg63
(lp1006
g56
(g77
g58
NtRp1007
(dp1008
g61
(dp1009
g81
g82
ssg70
g1003
sg63
(lp1010
S'gluon_parent'
p1011
asbag56
(g77
g58
NtRp1012
(dp1013
g61
(dp1014
g88
g89
ssg70
g1003
sg63
(lp1015
S':'
asbag56
(g77
g58
NtRp1016
(dp1017
g61
(dp1018
sg70
g1003
sg63
(lp1019
g56
(g57
g58
NtRp1020
(dp1021
g61
(dp1022
g69
I4
ssg70
g1016
sg63
(lp1023
S'/Users/schultzc/Downloads/web2py'
p1024
asbasbasbag56
(g72
g58
NtRp1025
(dp1026
g61
(dp1027
sg70
g821
sg63
(lp1028
g56
(g77
g58
NtRp1029
(dp1030
g61
(dp1031
g81
g82
ssg70
g1025
sg63
(lp1032
S'http_accept'
p1033
asbag56
(g77
g58
NtRp1034
(dp1035
g61
(dp1036
g88
g89
ssg70
g1025
sg63
(lp1037
S':'
asbag56
(g77
g58
NtRp1038
(dp1039
g61
(dp1040
sg70
g1025
sg63
(lp1041
g56
(g57
g58
NtRp1042
(dp1043
g61
(dp1044
g69
I4
ssg70
g1038
sg63
(lp1045
S'text/html,application/xhtml+xml,application/xml;q=0.9,*/*;q=0.8'
p1046
asbasbasbag56
(g72
g58
NtRp1047
(dp1048
g61
(dp1049
sg70
g821
sg63
(lp1050
g56
(g77
g58
NtRp1051
(dp1052
g61
(dp1053
g81
g82
ssg70
g1047
sg63
(lp1054
S'http_accept_charset'
p1055
asbag56
(g77
g58
NtRp1056
(dp1057
g61
(dp1058
g88
g89
ssg70
g1047
sg63
(lp1059
S':'
asbag56
(g77
g58
NtRp1060
(dp1061
g61
(dp1062
sg70
g1047
sg63
(lp1063
g56
(g57
g58
NtRp1064
(dp1065
g61
(dp1066
g69
I4
ssg70
g1060
sg63
(lp1067
S'ISO-8859-1,utf-8;q=0.7,*;q=0.3'
p1068
asbasbasbag56
(g72
g58
NtRp1069
(dp1070
g61
(dp1071
sg70
g821
sg63
(lp1072
g56
(g77
g58
NtRp1073
(dp1074
g61
(dp1075
g81
g82
ssg70
g1069
sg63
(lp1076
S'http_accept_encoding'
p1077
asbag56
(g77
g58
NtRp1078
(dp1079
g61
(dp1080
g88
g89
ssg70
g1069
sg63
(lp1081
S':'
asbag56
(g77
g58
NtRp1082
(dp1083
g61
(dp1084
sg70
g1069
sg63
(lp1085
g56
(g57
g58
NtRp1086
(dp1087
g61
(dp1088
g69
I4
ssg70
g1082
sg63
(lp1089
S'gzip,deflate,sdch'
p1090
asbasbasbag56
(g72
g58
NtRp1091
(dp1092
g61
(dp1093
sg70
g821
sg63
(lp1094
g56
(g77
g58
NtRp1095
(dp1096
g61
(dp1097
g81
g82
ssg70
g1091
sg63
(lp1098
S'http_accept_language'
p1099
asbag56
(g77
g58
NtRp1100
(dp1101
g61
(dp1102
g88
g89
ssg70
g1091
sg63
(lp1103
S':'
asbag56
(g77
g58
NtRp1104
(dp1105
g61
(dp1106
sg70
g1091
sg63
(lp1107
g56
(g57
g58
NtRp1108
(dp1109
g61
(dp1110
g69
I4
ssg70
g1104
sg63
(lp1111
S'en-US,en;q=0.8'
p1112
asbasbasbag56
(g72
g58
NtRp1113
(dp1114
g61
(dp1115
sg70
g821
sg63
(lp1116
g56
(g77
g58
NtRp1117
(dp1118
g61
(dp1119
g81
g82
ssg70
g1113
sg63
(lp1120
S'http_cache_control'
p1121
asbag56
(g77
g58
NtRp1122
(dp1123
g61
(dp1124
g88
g89
ssg70
g1113
sg63
(lp1125
S':'
asbag56
(g77
g58
NtRp1126
(dp1127
g61
(dp1128
sg70
g1113
sg63
(lp1129
g56
(g57
g58
NtRp1130
(dp1131
g61
(dp1132
g69
I4
ssg70
g1126
sg63
(lp1133
S'max-age=0'
p1134
asbasbasbag56
(g72
g58
NtRp1135
(dp1136
g61
(dp1137
sg70
g821
sg63
(lp1138
g56
(g77
g58
NtRp1139
(dp1140
g61
(dp1141
g81
g82
ssg70
g1135
sg63
(lp1142
S'http_connection'
p1143
asbag56
(g77
g58
NtRp1144
(dp1145
g61
(dp1146
g88
g89
ssg70
g1135
sg63
(lp1147
S':'
asbag56
(g77
g58
NtRp1148
(dp1149
g61
(dp1150
sg70
g1135
sg63
(lp1151
g56
(g57
g58
NtRp1152
(dp1153
g61
(dp1154
g69
I4
ssg70
g1148
sg63
(lp1155
S'keep-alive'
p1156
asbasbasbag56
(g72
g58
NtRp1157
(dp1158
g61
(dp1159
sg70
g821
sg63
(lp1160
g56
(g77
g58
NtRp1161
(dp1162
g61
(dp1163
g81
g82
ssg70
g1157
sg63
(lp1164
S'http_content_length'
p1165
asbag56
(g77
g58
NtRp1166
(dp1167
g61
(dp1168
g88
g89
ssg70
g1157
sg63
(lp1169
S':'
asbag56
(g77
g58
NtRp1170
(dp1171
g61
(dp1172
sg70
g1157
sg63
(lp1173
g56
(g57
g58
NtRp1174
(dp1175
g61
(dp1176
g69
I4
ssg70
g1170
sg63
(lp1177
g937
asbasbasbag56
(g72
g58
NtRp1178
(dp1179
g61
(dp1180
sg70
g821
sg63
(lp1181
g56
(g77
g58
NtRp1182
(dp1183
g61
(dp1184
g81
g82
ssg70
g1178
sg63
(lp1185
S'http_content_type'
p1186
asbag56
(g77
g58
NtRp1187
(dp1188
g61
(dp1189
g88
g89
ssg70
g1178
sg63
(lp1190
S':'
asbag56
(g77
g58
NtRp1191
(dp1192
g61
(dp1193
sg70
g1178
sg63
(lp1194
g56
(g57
g58
NtRp1195
(dp1196
g61
(dp1197
g69
I4
ssg70
g1191
sg63
(lp1198
g959
asbasbasbag56
(g72
g58
NtRp1199
(dp1200
g61
(dp1201
sg70
g821
sg63
(lp1202
g56
(g77
g58
NtRp1203
(dp1204
g61
(dp1205
g81
g82
ssg70
g1199
sg63
(lp1206
S'http_cookie'
p1207
asbag56
(g77
g58
NtRp1208
(dp1209
g61
(dp1210
g88
g89
ssg70
g1199
sg63
(lp1211
S':'
asbag56
(g77
g58
NtRp1212
(dp1213
g61
(dp1214
sg70
g1199
sg63
(lp1215
g56
(g57
g58
NtRp1216
(dp1217
g61
(dp1218
g69
I4
ssg70
g1212
sg63
(lp1219
S'session_id_imgblog=127.0.0.1-47eb0438-4550-4b28-adf1-4570dbd3e48c; session_id_wp=127.0.0.1-4ae5dea5-ff1f-4183-9dd8-91bc42c0702b; session_id_admin=127.0.0.1-d84d706a-6faf-4b19-be83-9afa4bfae8d8'
p1220
asbasbasbag56
(g72
g58
NtRp1221
(dp1222
g61
(dp1223
sg70
g821
sg63
(lp1224
g56
(g77
g58
NtRp1225
(dp1226
g61
(dp1227
g81
g82
ssg70
g1221
sg63
(lp1228
S'http_host'
p1229
asbag56
(g77
g58
NtRp1230
(dp1231
g61
(dp1232
g88
g89
ssg70
g1221
sg63
(lp1233
S':'
asbag56
(g77
g58
NtRp1234
(dp1235
g61
(dp1236
sg70
g1221
sg63
(lp1237
g56
(g57
g58
NtRp1238
(dp1239
g61
(dp1240
g69
I4
ssg70
g1234
sg63
(lp1241
S'localhost:8000'
p1242
asbasbasbag56
(g72
g58
NtRp1243
(dp1244
g61
(dp1245
sg70
g821
sg63
(lp1246
g56
(g77
g58
NtRp1247
(dp1248
g61
(dp1249
g81
g82
ssg70
g1243
sg63
(lp1250
S'http_origin'
p1251
asbag56
(g77
g58
NtRp1252
(dp1253
g61
(dp1254
g88
g89
ssg70
g1243
sg63
(lp1255
S':'
asbag56
(g77
g58
NtRp1256
(dp1257
g61
(dp1258
sg70
g1243
sg63
(lp1259
g56
(g57
g58
NtRp1260
(dp1261
g61
(dp1262
g69
I4
ssg70
g1256
sg63
(lp1263
S'http://localhost:8000'
p1264
asbasbasbag56
(g72
g58
NtRp1265
(dp1266
g61
(dp1267
sg70
g821
sg63
(lp1268
g56
(g77
g58
NtRp1269
(dp1270
g61
(dp1271
g81
g82
ssg70
g1265
sg63
(lp1272
S'http_referer'
p1273
asbag56
(g77
g58
NtRp1274
(dp1275
g61
(dp1276
g88
g89
ssg70
g1265
sg63
(lp1277
S':'
asbag56
(g77
g58
NtRp1278
(dp1279
g61
(dp1280
sg70
g1265
sg63
(lp1281
g56
(g57
g58
NtRp1282
(dp1283
g61
(dp1284
g69
I4
ssg70
g1278
sg63
(lp1285
S'http://localhost:8000/wp/default/submit'
p1286
asbasbasbag56
(g72
g58
NtRp1287
(dp1288
g61
(dp1289
sg70
g821
sg63
(lp1290
g56
(g77
g58
NtRp1291
(dp1292
g61
(dp1293
g81
g82
ssg70
g1287
sg63
(lp1294
S'http_user_agent'
p1295
asbag56
(g77
g58
NtRp1296
(dp1297
g61
(dp1298
g88
g89
ssg70
g1287
sg63
(lp1299
S':'
asbag56
(g77
g58
NtRp1300
(dp1301
g61
(dp1302
sg70
g1287
sg63
(lp1303
g56
(g57
g58
NtRp1304
(dp1305
g61
(dp1306
g69
I4
ssg70
g1300
sg63
(lp1307
S'Mozilla/5.0 (Macintosh; Intel Mac OS X 10_6_8) AppleWebKit/534.30 (KHTML, like Gecko) Chrome/12.0.742.122 Safari/534.30'
p1308
asbasbasbag56
(g72
g58
NtRp1309
(dp1310
g61
(dp1311
sg70
g821
sg63
(lp1312
g56
(g77
g58
NtRp1313
(dp1314
g61
(dp1315
g81
g82
ssg70
g1309
sg63
(lp1316
S'path_info'
p1317
asbag56
(g77
g58
NtRp1318
(dp1319
g61
(dp1320
g88
g89
ssg70
g1309
sg63
(lp1321
S':'
asbag56
(g77
g58
NtRp1322
(dp1323
g61
(dp1324
sg70
g1309
sg63
(lp1325
g56
(g57
g58
NtRp1326
(dp1327
g61
(dp1328
g69
I4
ssg70
g1322
sg63
(lp1329
S'/wp/default/submit'
p1330
asbasbasbag56
(g72
g58
NtRp1331
(dp1332
g61
(dp1333
sg70
g821
sg63
(lp1334
g56
(g77
g58
NtRp1335
(dp1336
g61
(dp1337
g81
g82
ssg70
g1331
sg63
(lp1338
S'query_string'
p1339
asbag56
(g77
g58
NtRp1340
(dp1341
g61
(dp1342
g88
g89
ssg70
g1331
sg63
(lp1343
S':'
asbag56
(g77
g58
NtRp1344
(dp1345
g61
(dp1346
sg70
g1331
sg63
(lp1347
g56
(g57
g58
NtRp1348
(dp1349
g61
(dp1350
g69
I4
ssg70
g1344
sg63
(lp1351
S''
asbasbasbag56
(g72
g58
NtRp1352
(dp1353
g61
(dp1354
sg70
g821
sg63
(lp1355
g56
(g77
g58
NtRp1356
(dp1357
g61
(dp1358
g81
g82
ssg70
g1352
sg63
(lp1359
S'remote_addr'
p1360
asbag56
(g77
g58
NtRp1361
(dp1362
g61
(dp1363
g88
g89
ssg70
g1352
sg63
(lp1364
S':'
asbag56
(g77
g58
NtRp1365
(dp1366
g61
(dp1367
sg70
g1352
sg63
(lp1368
g56
(g57
g58
NtRp1369
(dp1370
g61
(dp1371
g69
I4
ssg70
g1365
sg63
(lp1372
g189
asbasbasbag56
(g72
g58
NtRp1373
(dp1374
g61
(dp1375
sg70
g821
sg63
(lp1376
g56
(g77
g58
NtRp1377
(dp1378
g61
(dp1379
g81
g82
ssg70
g1373
sg63
(lp1380
S'remote_port'
p1381
asbag56
(g77
g58
NtRp1382
(dp1383
g61
(dp1384
g88
g89
ssg70
g1373
sg63
(lp1385
S':'
asbag56
(g77
g58
NtRp1386
(dp1387
g61
(dp1388
sg70
g1373
sg63
(lp1389
g56
(g57
g58
NtRp1390
(dp1391
g61
(dp1392
g69
I4
ssg70
g1386
sg63
(lp1393
S'50306'
p1394
asbasbasbag56
(g72
g58
NtRp1395
(dp1396
g61
(dp1397
sg70
g821
sg63
(lp1398
g56
(g77
g58
NtRp1399
(dp1400
g61
(dp1401
g81
g82
ssg70
g1395
sg63
(lp1402
S'request_method'
p1403
asbag56
(g77
g58
NtRp1404
(dp1405
g61
(dp1406
g88
g89
ssg70
g1395
sg63
(lp1407
S':'
asbag56
(g77
g58
NtRp1408
(dp1409
g61
(dp1410
sg70
g1395
sg63
(lp1411
g56
(g57
g58
NtRp1412
(dp1413
g61
(dp1414
g69
I4
ssg70
g1408
sg63
(lp1415
S'POST'
p1416
asbasbasbag56
(g72
g58
NtRp1417
(dp1418
g61
(dp1419
sg70
g821
sg63
(lp1420
g56
(g77
g58
NtRp1421
(dp1422
g61
(dp1423
g81
g82
ssg70
g1417
sg63
(lp1424
S'script_name'
p1425
asbag56
(g77
g58
NtRp1426
(dp1427
g61
(dp1428
g88
g89
ssg70
g1417
sg63
(lp1429
S':'
asbag56
(g77
g58
NtRp1430
(dp1431
g61
(dp1432
sg70
g1417
sg63
(lp1433
g56
(g57
g58
NtRp1434
(dp1435
g61
(dp1436
g69
I4
ssg70
g1430
sg63
(lp1437
S''
asbasbasbag56
(g72
g58
NtRp1438
(dp1439
g61
(dp1440
sg70
g821
sg63
(lp1441
g56
(g77
g58
NtRp1442
(dp1443
g61
(dp1444
g81
g82
ssg70
g1438
sg63
(lp1445
S'server_name'
p1446
asbag56
(g77
g58
NtRp1447
(dp1448
g61
(dp1449
g88
g89
ssg70
g1438
sg63
(lp1450
S':'
asbag56
(g77
g58
NtRp1451
(dp1452
g61
(dp1453
sg70
g1438
sg63
(lp1454
g56
(g57
g58
NtRp1455
(dp1456
g61
(dp1457
g69
I4
ssg70
g1451
sg63
(lp1458
S'Magnus-Specialis.local'
p1459
asbasbasbag56
(g72
g58
NtRp1460
(dp1461
g61
(dp1462
sg70
g821
sg63
(lp1463
g56
(g77
g58
NtRp1464
(dp1465
g61
(dp1466
g81
g82
ssg70
g1460
sg63
(lp1467
S'server_port'
p1468
asbag56
(g77
g58
NtRp1469
(dp1470
g61
(dp1471
g88
g89
ssg70
g1460
sg63
(lp1472
S':'
asbag56
(g77
g58
NtRp1473
(dp1474
g61
(dp1475
sg70
g1460
sg63
(lp1476
g56
(g57
g58
NtRp1477
(dp1478
g61
(dp1479
g69
I4
ssg70
g1473
sg63
(lp1480
S'8000'
p1481
asbasbasbag56
(g72
g58
NtRp1482
(dp1483
g61
(dp1484
sg70
g821
sg63
(lp1485
g56
(g77
g58
NtRp1486
(dp1487
g61
(dp1488
g81
g82
ssg70
g1482
sg63
(lp1489
S'server_protocol'
p1490
asbag56
(g77
g58
NtRp1491
(dp1492
g61
(dp1493
g88
g89
ssg70
g1482
sg63
(lp1494
S':'
asbag56
(g77
g58
NtRp1495
(dp1496
g61
(dp1497
sg70
g1482
sg63
(lp1498
g56
(g57
g58
NtRp1499
(dp1500
g61
(dp1501
g69
I4
ssg70
g1495
sg63
(lp1502
S'HTTP/1.1'
p1503
asbasbasbag56
(g72
g58
NtRp1504
(dp1505
g61
(dp1506
sg70
g821
sg63
(lp1507
g56
(g77
g58
NtRp1508
(dp1509
g61
(dp1510
g81
g82
ssg70
g1504
sg63
(lp1511
S'server_software'
p1512
asbag56
(g77
g58
NtRp1513
(dp1514
g61
(dp1515
g88
g89
ssg70
g1504
sg63
(lp1516
S':'
asbag56
(g77
g58
NtRp1517
(dp1518
g61
(dp1519
sg70
g1504
sg63
(lp1520
g56
(g57
g58
NtRp1521
(dp1522
g61
(dp1523
g69
I4
ssg70
g1517
sg63
(lp1524
S'Rocket 1.2.2'
p1525
asbasbasbag56
(g72
g58
NtRp1526
(dp1527
g61
(dp1528
sg70
g821
sg63
(lp1529
g56
(g77
g58
NtRp1530
(dp1531
g61
(dp1532
g81
g82
ssg70
g1526
sg63
(lp1533
S'web2py_crontype'
p1534
asbag56
(g77
g58
NtRp1535
(dp1536
g61
(dp1537
g88
g89
ssg70
g1526
sg63
(lp1538
S':'
asbag56
(g77
g58
NtRp1539
(dp1540
g61
(dp1541
sg70
g1526
sg63
(lp1542
g56
(g57
g58
NtRp1543
(dp1544
g61
(dp1545
g69
I4
ssg70
g1539
sg63
(lp1546
S'hard'
p1547
asbasbasbag56
(g72
g58
NtRp1548
(dp1549
g61
(dp1550
sg70
g821
sg63
(lp1551
g56
(g77
g58
NtRp1552
(dp1553
g61
(dp1554
g81
g82
ssg70
g1548
sg63
(lp1555
S'web2py_path'
p1556
asbag56
(g77
g58
NtRp1557
(dp1558
g61
(dp1559
g88
g89
ssg70
g1548
sg63
(lp1560
S':'
asbag56
(g77
g58
NtRp1561
(dp1562
g61
(dp1563
sg70
g1548
sg63
(lp1564
g56
(g57
g58
NtRp1565
(dp1566
g61
(dp1567
g69
I4
ssg70
g1561
sg63
(lp1568
g868
asbasbasbag56
(g72
g58
NtRp1569
(dp1570
g61
(dp1571
sg70
g821
sg63
(lp1572
g56
(g77
g58
NtRp1573
(dp1574
g61
(dp1575
g81
g82
ssg70
g1569
sg63
(lp1576
S'web2py_version'
p1577
asbag56
(g77
g58
NtRp1578
(dp1579
g61
(dp1580
g88
g89
ssg70
g1569
sg63
(lp1581
S':'
asbag56
(g77
g58
NtRp1582
(dp1583
g61
(dp1584
sg70
g1569
sg63
(lp1585
g56
(g57
g58
NtRp1586
(dp1587
g61
(dp1588
g69
I4
ssg70
g1582
sg63
(lp1589
S'Version 1.97.1 (2011-06-26 19:25:44)\n'
p1590
asbasbasbag56
(g72
g58
NtRp1591
(dp1592
g61
(dp1593
sg70
g821
sg63
(lp1594
g56
(g77
g58
NtRp1595
(dp1596
g61
(dp1597
g81
g82
ssg70
g1591
sg63
(lp1598
S'wsgi_errors'
p1599
asbag56
(g77
g58
NtRp1600
(dp1601
g61
(dp1602
g88
g89
ssg70
g1591
sg63
(lp1603
S':'
asbag56
(g77
g58
NtRp1604
(dp1605
g61
(dp1606
sg70
g1591
sg63
(lp1607
g56
(g57
g58
NtRp1608
(dp1609
g61
(dp1610
g69
I4
ssg70
g1604
sg63
(lp1611
S"<open file '<stderr>', mode 'w' at 0x100283270>"
p1612
asbasbasbag56
(g72
g58
NtRp1613
(dp1614
g61
(dp1615
sg70
g821
sg63
(lp1616
g56
(g77
g58
NtRp1617
(dp1618
g61
(dp1619
g81
g82
ssg70
g1613
sg63
(lp1620
S'wsgi_file_wrapper'
p1621
asbag56
(g77
g58
NtRp1622
(dp1623
g61
(dp1624
g88
g89
ssg70
g1613
sg63
(lp1625
S':'
asbag56
(g77
g58
NtRp1626
(dp1627
g61
(dp1628
sg70
g1613
sg63
(lp1629
g56
(g57
g58
NtRp1630
(dp1631
g61
(dp1632
g69
I4
ssg70
g1626
sg63
(lp1633
S'<class gluon.rocket.FileWrapper at 0x1019a02c0>'
p1634
asbasbasbag56
(g72
g58
NtRp1635
(dp1636
g61
(dp1637
sg70
g821
sg63
(lp1638
g56
(g77
g58
NtRp1639
(dp1640
g61
(dp1641
g81
g82
ssg70
g1635
sg63
(lp1642
S'wsgi_input'
p1643
asbag56
(g77
g58
NtRp1644
(dp1645
g61
(dp1646
g88
g89
ssg70
g1635
sg63
(lp1647
S':'
asbag56
(g77
g58
NtRp1648
(dp1649
g61
(dp1650
sg70
g1635
sg63
(lp1651
g56
(g57
g58
NtRp1652
(dp1653
g61
(dp1654
g69
I4
ssg70
g1648
sg63
(lp1655
S'<socket._fileobject object at 0x1027b5ad0>'
p1656
asbasbasbag56
(g72
g58
NtRp1657
(dp1658
g61
(dp1659
sg70
g821
sg63
(lp1660
g56
(g77
g58
NtRp1661
(dp1662
g61
(dp1663
g81
g82
ssg70
g1657
sg63
(lp1664
S'wsgi_multiprocess'
p1665
asbag56
(g77
g58
NtRp1666
(dp1667
g61
(dp1668
g88
g89
ssg70
g1657
sg63
(lp1669
S':'
asbag56
(g77
g58
NtRp1670
(dp1671
g61
(dp1672
sg70
g1657
sg63
(lp1673
g56
(g57
g58
NtRp1674
(dp1675
g61
(dp1676
g69
I4
ssg70
g1670
sg63
(lp1677
g99
asbasbasbag56
(g72
g58
NtRp1678
(dp1679
g61
(dp1680
sg70
g821
sg63
(lp1681
g56
(g77
g58
NtRp1682
(dp1683
g61
(dp1684
g81
g82
ssg70
g1678
sg63
(lp1685
S'wsgi_multithread'
p1686
asbag56
(g77
g58
NtRp1687
(dp1688
g61
(dp1689
g88
g89
ssg70
g1678
sg63
(lp1690
S':'
asbag56
(g77
g58
NtRp1691
(dp1692
g61
(dp1693
sg70
g1678
sg63
(lp1694
g56
(g57
g58
NtRp1695
(dp1696
g61
(dp1697
g69
I4
ssg70
g1691
sg63
(lp1698
S'True'
p1699
asbasbasbag56
(g72
g58
NtRp1700
(dp1701
g61
(dp1702
sg70
g821
sg63
(lp1703
g56
(g77
g58
NtRp1704
(dp1705
g61
(dp1706
g81
g82
ssg70
g1700
sg63
(lp1707
S'wsgi_run_once'
p1708
asbag56
(g77
g58
NtRp1709
(dp1710
g61
(dp1711
g88
g89
ssg70
g1700
sg63
(lp1712
S':'
asbag56
(g77
g58
NtRp1713
(dp1714
g61
(dp1715
sg70
g1700
sg63
(lp1716
g56
(g57
g58
NtRp1717
(dp1718
g61
(dp1719
g69
I4
ssg70
g1713
sg63
(lp1720
g99
asbasbasbag56
(g72
g58
NtRp1721
(dp1722
g61
(dp1723
sg70
g821
sg63
(lp1724
g56
(g77
g58
NtRp1725
(dp1726
g61
(dp1727
g81
g82
ssg70
g1721
sg63
(lp1728
S'wsgi_url_scheme'
p1729
asbag56
(g77
g58
NtRp1730
(dp1731
g61
(dp1732
g88
g89
ssg70
g1721
sg63
(lp1733
S':'
asbag56
(g77
g58
NtRp1734
(dp1735
g61
(dp1736
sg70
g1721
sg63
(lp1737
g56
(g57
g58
NtRp1738
(dp1739
g61
(dp1740
g69
I4
ssg70
g1734
sg63
(lp1741
S'http'
p1742
asbasbasbag56
(g72
g58
NtRp1743
(dp1744
g61
(dp1745
sg70
g821
sg63
(lp1746
g56
(g77
g58
NtRp1747
(dp1748
g61
(dp1749
g81
g82
ssg70
g1743
sg63
(lp1750
S'wsgi_version'
p1751
asbag56
(g77
g58
NtRp1752
(dp1753
g61
(dp1754
g88
g89
ssg70
g1743
sg63
(lp1755
S':'
asbag56
(g77
g58
NtRp1756
(dp1757
g61
(dp1758
sg70
g1743
sg63
(lp1759
g56
(g57
g58
NtRp1760
(dp1761
g61
(dp1762
g69
I4
ssg70
g1756
sg63
(lp1763
g56
(g65
g58
NtRp1764
(dp1765
g61
(dp1766
g69
I3
ssg70
Nsg63
(lp1767
g56
(g72
g58
NtRp1768
(dp1769
g61
(dp1770
sg70
g1764
sg63
(lp1771
g56
(g77
g58
NtRp1772
(dp1773
g61
(dp1774
sg70
g1768
sg63
(lp1775
g56
(g57
g58
NtRp1776
(dp1777
g61
(dp1778
g69
I3
ssg70
g1772
sg63
(lp1779
S'1'
asbasbasbag56
(g72
g58
NtRp1780
(dp1781
g61
(dp1782
sg70
g1764
sg63
(lp1783
g56
(g77
g58
NtRp1784
(dp1785
g61
(dp1786
sg70
g1780
sg63
(lp1787
g56
(g57
g58
NtRp1788
(dp1789
g61
(dp1790
g69
I3
ssg70
g1784
sg63
(lp1791
S'0'
asbasbasbasbasbasbasbasbasbasbasbag56
(g72
g58
NtRp1792
(dp1793
g61
(dp1794
sg70
g66
sg63
(lp1795
g56
(g77
g58
NtRp1796
(dp1797
g61
(dp1798
g81
g82
ssg70
g1792
sg63
(lp1799
S'extension'
p1800
asbag56
(g77
g58
NtRp1801
(dp1802
g61
(dp1803
g88
g89
ssg70
g1792
sg63
(lp1804
S':'
asbag56
(g77
g58
NtRp1805
(dp1806
g61
(dp1807
sg70
g1792
sg63
(lp1808
g56
(g57
g58
NtRp1809
(dp1810
g61
(dp1811
g69
I5
ssg70
g1805
sg63
(lp1812
S'html'
p1813
asbasbasbag56
(g72
g58
NtRp1814
(dp1815
g61
(dp1816
sg70
g66
sg63
(lp1817
g56
(g77
g58
NtRp1818
(dp1819
g61
(dp1820
g81
g82
ssg70
g1814
sg63
(lp1821
S'folder'
p1822
asbag56
(g77
g58
NtRp1823
(dp1824
g61
(dp1825
g88
g89
ssg70
g1814
sg63
(lp1826
S':'
asbag56
(g77
g58
NtRp1827
(dp1828
g61
(dp1829
sg70
g1814
sg63
(lp1830
g56
(g57
g58
NtRp1831
(dp1832
g61
(dp1833
g69
I5
ssg70
g1827
sg63
(lp1834
S'/Users/schultzc/Downloads/web2py/applications/wp/'
p1835
asbasbasbag56
(g72
g58
NtRp1836
(dp1837
g61
(dp1838
sg70
g66
sg63
(lp1839
g56
(g77
g58
NtRp1840
(dp1841
g61
(dp1842
g81
g82
ssg70
g1836
sg63
(lp1843
S'function'
p1844
asbag56
(g77
g58
NtRp1845
(dp1846
g61
(dp1847
g88
g89
ssg70
g1836
sg63
(lp1848
S':'
asbag56
(g77
g58
NtRp1849
(dp1850
g61
(dp1851
sg70
g1836
sg63
(lp1852
g56
(g57
g58
NtRp1853
(dp1854
g61
(dp1855
g69
I5
ssg70
g1849
sg63
(lp1856
S'submit'
p1857
asbasbasbag56
(g72
g58
NtRp1858
(dp1859
g61
(dp1860
sg70
g66
sg63
(lp1861
g56
(g77
g58
NtRp1862
(dp1863
g61
(dp1864
g81
g82
ssg70
g1858
sg63
(lp1865
S'get_vars'
p1866
asbag56
(g77
g58
NtRp1867
(dp1868
g61
(dp1869
g88
g89
ssg70
g1858
sg63
(lp1870
S':'
asbag56
(g77
g58
NtRp1871
(dp1872
g61
(dp1873
sg70
g1858
sg63
(lp1874
g56
(g57
g58
NtRp1875
(dp1876
g61
(dp1877
g69
I5
ssg70
g1871
sg63
(lp1878
g56
(g65
g58
NtRp1879
(dp1880
g61
(dp1881
g69
I4
ssg70
Nsg63
(lp1882
sbasbasbasbag56
(g72
g58
NtRp1883
(dp1884
g61
(dp1885
sg70
g66
sg63
(lp1886
g56
(g77
g58
NtRp1887
(dp1888
g61
(dp1889
g81
g82
ssg70
g1883
sg63
(lp1890
S'is_https'
p1891
asbag56
(g77
g58
NtRp1892
(dp1893
g61
(dp1894
g88
g89
ssg70
g1883
sg63
(lp1895
S':'
asbag56
(g77
g58
NtRp1896
(dp1897
g61
(dp1898
sg70
g1883
sg63
(lp1899
g56
(g57
g58
NtRp1900
(dp1901
g61
(dp1902
g69
I5
ssg70
g1896
sg63
(lp1903
g99
asbasbasbag56
(g72
g58
NtRp1904
(dp1905
g61
(dp1906
sg70
g66
sg63
(lp1907
g56
(g77
g58
NtRp1908
(dp1909
g61
(dp1910
g81
g82
ssg70
g1904
sg63
(lp1911
S'is_local'
p1912
asbag56
(g77
g58
NtRp1913
(dp1914
g61
(dp1915
g88
g89
ssg70
g1904
sg63
(lp1916
S':'
asbag56
(g77
g58
NtRp1917
(dp1918
g61
(dp1919
sg70
g1904
sg63
(lp1920
g56
(g57
g58
NtRp1921
(dp1922
g61
(dp1923
g69
I5
ssg70
g1917
sg63
(lp1924
g1699
asbasbasbag56
(g72
g58
NtRp1925
(dp1926
g61
(dp1927
sg70
g66
sg63
(lp1928
g56
(g77
g58
NtRp1929
(dp1930
g61
(dp1931
g81
g82
ssg70
g1925
sg63
(lp1932
S'is_restful'
p1933
asbag56
(g77
g58
NtRp1934
(dp1935
g61
(dp1936
g88
g89
ssg70
g1925
sg63
(lp1937
S':'
asbag56
(g77
g58
NtRp1938
(dp1939
g61
(dp1940
sg70
g1925
sg63
(lp1941
g56
(g57
g58
NtRp1942
(dp1943
g61
(dp1944
g69
I5
ssg70
g1938
sg63
(lp1945
g99
asbasbasbag56
(g72
g58
NtRp1946
(dp1947
g61
(dp1948
sg70
g66
sg63
(lp1949
g56
(g77
g58
NtRp1950
(dp1951
g61
(dp1952
g81
g82
ssg70
g1946
sg63
(lp1953
S'now'
p1954
asbag56
(g77
g58
NtRp1955
(dp1956
g61
(dp1957
g88
g89
ssg70
g1946
sg63
(lp1958
S':'
asbag56
(g77
g58
NtRp1959
(dp1960
g61
(dp1961
sg70
g1946
sg63
(lp1962
g56
(g57
g58
NtRp1963
(dp1964
g61
(dp1965
g69
I5
ssg70
g1959
sg63
(lp1966
S'datetime.datetime(2011, 7, 16, 2, 53, 11, 424161)'
p1967
asbasbasbag56
(g72
g58
NtRp1968
(dp1969
g61
(dp1970
sg70
g66
sg63
(lp1971
g56
(g77
g58
NtRp1972
(dp1973
g61
(dp1974
g81
g82
ssg70
g1968
sg63
(lp1975
S'post_vars'
p1976
asbag56
(g77
g58
NtRp1977
(dp1978
g61
(dp1979
g88
g89
ssg70
g1968
sg63
(lp1980
S':'
asbag56
(g77
g58
NtRp1981
(dp1982
g61
(dp1983
sg70
g1968
sg63
(lp1984
g56
(g57
g58
NtRp1985
(dp1986
g61
(dp1987
g69
I5
ssg70
g1981
sg63
(lp1988
g56
(g65
g58
NtRp1989
(dp1990
g61
(dp1991
g69
I4
ssg70
Nsg63
(lp1992
g56
(g72
g58
NtRp1993
(dp1994
g61
(dp1995
sg70
g1989
sg63
(lp1996
g56
(g77
g58
NtRp1997
(dp1998
g61
(dp1999
g81
g82
ssg70
g1993
sg63
(lp2000
S'file'
p2001
asbag56
(g77
g58
NtRp2002
(dp2003
g61
(dp2004
g88
g89
ssg70
g1993
sg63
(lp2005
S':'
asbag56
(g77
g58
NtRp2006
(dp2007
g61
(dp2008
sg70
g1993
sg63
(lp2009
g56
(g57
g58
NtRp2010
(dp2011
g61
(dp2012
g69
I4
ssg70
g2006
sg63
(lp2013
S'FieldStorage object'
p2014
asbasbasbag56
(g72
g58
NtRp2015
(dp2016
g61
(dp2017
sg70
g1989
sg63
(lp2018
g56
(g77
g58
NtRp2019
(dp2020
g61
(dp2021
g81
g82
ssg70
g2015
sg63
(lp2022
S'handle'
p2023
asbag56
(g77
g58
NtRp2024
(dp2025
g61
(dp2026
g88
g89
ssg70
g2015
sg63
(lp2027
S':'
asbag56
(g77
g58
NtRp2028
(dp2029
g61
(dp2030
sg70
g2015
sg63
(lp2031
g56
(g57
g58
NtRp2032
(dp2033
g61
(dp2034
g69
I4
ssg70
g2028
sg63
(lp2035
S'has'
p2036
asbasbasbag56
(g72
g58
NtRp2037
(dp2038
g61
(dp2039
sg70
g1989
sg63
(lp2040
g56
(g77
g58
NtRp2041
(dp2042
g61
(dp2043
g81
g82
ssg70
g2037
sg63
(lp2044
S'location'
p2045
asbag56
(g77
g58
NtRp2046
(dp2047
g61
(dp2048
g88
g89
ssg70
g2037
sg63
(lp2049
S':'
asbag56
(g77
g58
NtRp2050
(dp2051
g61
(dp2052
sg70
g2037
sg63
(lp2053
g56
(g57
g58
NtRp2054
(dp2055
g61
(dp2056
g69
I4
ssg70
g2050
sg63
(lp2057
S'loc'
p2058
asbasbasbag56
(g72
g58
NtRp2059
(dp2060
g61
(dp2061
sg70
g1989
sg63
(lp2062
g56
(g77
g58
NtRp2063
(dp2064
g61
(dp2065
g81
g82
ssg70
g2059
sg63
(lp2066
S'pub_date'
p2067
asbag56
(g77
g58
NtRp2068
(dp2069
g61
(dp2070
g88
g89
ssg70
g2059
sg63
(lp2071
S':'
asbag56
(g77
g58
NtRp2072
(dp2073
g61
(dp2074
sg70
g2059
sg63
(lp2075
g56
(g57
g58
NtRp2076
(dp2077
g61
(dp2078
g69
I4
ssg70
g2072
sg63
(lp2079
S''
asbasbasbag56
(g72
g58
NtRp2080
(dp2081
g61
(dp2082
sg70
g1989
sg63
(lp2083
g56
(g77
g58
NtRp2084
(dp2085
g61
(dp2086
g81
g82
ssg70
g2080
sg63
(lp2087
S'title'
p2088
asbag56
(g77
g58
NtRp2089
(dp2090
g61
(dp2091
g88
g89
ssg70
g2080
sg63
(lp2092
S':'
asbag56
(g77
g58
NtRp2093
(dp2094
g61
(dp2095
sg70
g2080
sg63
(lp2096
g56
(g57
g58
NtRp2097
(dp2098
g61
(dp2099
g69
I4
ssg70
g2093
sg63
(lp2100
S'fuckit'
p2101
asbasbasbasbasbasbasbag56
(g72
g58
NtRp2102
(dp2103
g61
(dp2104
sg70
g66
sg63
(lp2105
g56
(g77
g58
NtRp2106
(dp2107
g61
(dp2108
g81
g82
ssg70
g2102
sg63
(lp2109
S'url'
p2110
asbag56
(g77
g58
NtRp2111
(dp2112
g61
(dp2113
g88
g89
ssg70
g2102
sg63
(lp2114
S':'
asbag56
(g77
g58
NtRp2115
(dp2116
g61
(dp2117
sg70
g2102
sg63
(lp2118
g56
(g57
g58
NtRp2119
(dp2120
g61
(dp2121
g69
I5
ssg70
g2115
sg63
(lp2122
S'/wp/default/submit'
p2123
asbasbasbag56
(g72
g58
NtRp2124
(dp2125
g61
(dp2126
sg70
g66
sg63
(lp2127
g56
(g77
g58
NtRp2128
(dp2129
g61
(dp2130
g81
g82
ssg70
g2124
sg63
(lp2131
S'uuid'
p2132
asbag56
(g77
g58
NtRp2133
(dp2134
g61
(dp2135
g88
g89
ssg70
g2124
sg63
(lp2136
S':'
asbag56
(g77
g58
NtRp2137
(dp2138
g61
(dp2139
sg70
g2124
sg63
(lp2140
g56
(g57
g58
NtRp2141
(dp2142
g61
(dp2143
g69
I5
ssg70
g2137
sg63
(lp2144
S'wp/127.0.0.1.2011-07-16.02-53-11.639702d0-6c61-433a-88a1-2c01f652700d'
p2145
asbasbasbag56
(g72
g58
NtRp2146
(dp2147
g61
(dp2148
sg70
g66
sg63
(lp2149
g56
(g77
g58
NtRp2150
(dp2151
g61
(dp2152
g81
g82
ssg70
g2146
sg63
(lp2153
S'vars'
p2154
asbag56
(g77
g58
NtRp2155
(dp2156
g61
(dp2157
g88
g89
ssg70
g2146
sg63
(lp2158
S':'
asbag56
(g77
g58
NtRp2159
(dp2160
g61
(dp2161
sg70
g2146
sg63
(lp2162
g56
(g57
g58
NtRp2163
(dp2164
g61
(dp2165
g69
I5
ssg70
g2159
sg63
(lp2166
g56
(g65
g58
NtRp2167
(dp2168
g61
(dp2169
g69
I4
ssg70
Nsg63
(lp2170
g56
(g72
g58
NtRp2171
(dp2172
g61
(dp2173
sg70
g2167
sg63
(lp2174
g56
(g77
g58
NtRp2175
(dp2176
g61
(dp2177
g81
g82
ssg70
g2171
sg63
(lp2178
g2001
asbag56
(g77
g58
NtRp2179
(dp2180
g61
(dp2181
g88
g89
ssg70
g2171
sg63
(lp2182
S':'
asbag56
(g77
g58
NtRp2183
(dp2184
g61
(dp2185
sg70
g2171
sg63
(lp2186
g56
(g57
g58
NtRp2187
(dp2188
g61
(dp2189
g69
I4
ssg70
g2183
sg63
(lp2190
g2014
asbasbasbag56
(g72
g58
NtRp2191
(dp2192
g61
(dp2193
sg70
g2167
sg63
(lp2194
g56
(g77
g58
NtRp2195
(dp2196
g61
(dp2197
g81
g82
ssg70
g2191
sg63
(lp2198
g2023
asbag56
(g77
g58
NtRp2199
(dp2200
g61
(dp2201
g88
g89
ssg70
g2191
sg63
(lp2202
S':'
asbag56
(g77
g58
NtRp2203
(dp2204
g61
(dp2205
sg70
g2191
sg63
(lp2206
g56
(g57
g58
NtRp2207
(dp2208
g61
(dp2209
g69
I4
ssg70
g2203
sg63
(lp2210
g2036
asbasbasbag56
(g72
g58
NtRp2211
(dp2212
g61
(dp2213
sg70
g2167
sg63
(lp2214
g56
(g77
g58
NtRp2215
(dp2216
g61
(dp2217
g81
g82
ssg70
g2211
sg63
(lp2218
g2045
asbag56
(g77
g58
NtRp2219
(dp2220
g61
(dp2221
g88
g89
ssg70
g2211
sg63
(lp2222
S':'
asbag56
(g77
g58
NtRp2223
(dp2224
g61
(dp2225
sg70
g2211
sg63
(lp2226
g56
(g57
g58
NtRp2227
(dp2228
g61
(dp2229
g69
I4
ssg70
g2223
sg63
(lp2230
g2058
asbasbasbag56
(g72
g58
NtRp2231
(dp2232
g61
(dp2233
sg70
g2167
sg63
(lp2234
g56
(g77
g58
NtRp2235
(dp2236
g61
(dp2237
g81
g82
ssg70
g2231
sg63
(lp2238
g2067
asbag56
(g77
g58
NtRp2239
(dp2240
g61
(dp2241
g88
g89
ssg70
g2231
sg63
(lp2242
S':'
asbag56
(g77
g58
NtRp2243
(dp2244
g61
(dp2245
sg70
g2231
sg63
(lp2246
g56
(g57
g58
NtRp2247
(dp2248
g61
(dp2249
g69
I4
ssg70
g2243
sg63
(lp2250
S''
asbasbasbag56
(g72
g58
NtRp2251
(dp2252
g61
(dp2253
sg70
g2167
sg63
(lp2254
g56
(g77
g58
NtRp2255
(dp2256
g61
(dp2257
g81
g82
ssg70
g2251
sg63
(lp2258
g2088
asbag56
(g77
g58
NtRp2259
(dp2260
g61
(dp2261
g88
g89
ssg70
g2251
sg63
(lp2262
S':'
asbag56
(g77
g58
NtRp2263
(dp2264
g61
(dp2265
sg70
g2251
sg63
(lp2266
g56
(g57
g58
NtRp2267
(dp2268
g61
(dp2269
g69
I4
ssg70
g2263
sg63
(lp2270
g2101
asbasbasbasbasbasbasbag56
(g72
g58
NtRp2271
(dp2272
g61
(dp2273
sg70
g66
sg63
(lp2274
g56
(g77
g58
NtRp2275
(dp2276
g61
(dp2277
g81
g82
ssg70
g2271
sg63
(lp2278
S'wsgi'
p2279
asbag56
(g77
g58
NtRp2280
(dp2281
g61
(dp2282
g88
g89
ssg70
g2271
sg63
(lp2283
S':'
asbag56
(g77
g58
NtRp2284
(dp2285
g61
(dp2286
sg70
g2271
sg63
(lp2287
g56
(g57
g58
NtRp2288
(dp2289
g61
(dp2290
g69
I5
ssg70
g2284
sg63
(lp2291
g56
(g65
g58
NtRp2292
(dp2293
g61
(dp2294
g69
I4
ssg70
Nsg63
(lp2295
g56
(g72
g58
NtRp2296
(dp2297
g61
(dp2298
sg70
g2292
sg63
(lp2299
g56
(g77
g58
NtRp2300
(dp2301
g61
(dp2302
g81
g82
ssg70
g2296
sg63
(lp2303
S'environ'
p2304
asbag56
(g77
g58
NtRp2305
(dp2306
g61
(dp2307
g88
g89
ssg70
g2296
sg63
(lp2308
S':'
asbag56
(g77
g58
NtRp2309
(dp2310
g61
(dp2311
sg70
g2296
sg63
(lp2312
g56
(g57
g58
NtRp2313
(dp2314
g61
(dp2315
g69
I4
ssg70
g2309
sg63
(lp2316
g56
(g65
g58
NtRp2317
(dp2318
g61
(dp2319
g69
I3
ssg70
Nsg63
(lp2320
g56
(g72
g58
NtRp2321
(dp2322
g61
(dp2323
sg70
g2317
sg63
(lp2324
g56
(g77
g58
NtRp2325
(dp2326
g61
(dp2327
g81
g82
ssg70
g2321
sg63
(lp2328
S'CONTENT_LENGTH'
p2329
asbag56
(g77
g58
NtRp2330
(dp2331
g61
(dp2332
g88
g89
ssg70
g2321
sg63
(lp2333
S':'
asbag56
(g77
g58
NtRp2334
(dp2335
g61
(dp2336
sg70
g2321
sg63
(lp2337
g56
(g57
g58
NtRp2338
(dp2339
g61
(dp2340
g69
I3
ssg70
g2334
sg63
(lp2341
g937
asbasbasbag56
(g72
g58
NtRp2342
(dp2343
g61
(dp2344
sg70
g2317
sg63
(lp2345
g56
(g77
g58
NtRp2346
(dp2347
g61
(dp2348
g81
g82
ssg70
g2342
sg63
(lp2349
S'CONTENT_TYPE'
p2350
asbag56
(g77
g58
NtRp2351
(dp2352
g61
(dp2353
g88
g89
ssg70
g2342
sg63
(lp2354
S':'
asbag56
(g77
g58
NtRp2355
(dp2356
g61
(dp2357
sg70
g2342
sg63
(lp2358
g56
(g57
g58
NtRp2359
(dp2360
g61
(dp2361
g69
I3
ssg70
g2355
sg63
(lp2362
g959
asbasbasbag56
(g72
g58
NtRp2363
(dp2364
g61
(dp2365
sg70
g2317
sg63
(lp2366
g56
(g77
g58
NtRp2367
(dp2368
g61
(dp2369
g81
g82
ssg70
g2363
sg63
(lp2370
S'HTTP_ACCEPT'
p2371
asbag56
(g77
g58
NtRp2372
(dp2373
g61
(dp2374
g88
g89
ssg70
g2363
sg63
(lp2375
S':'
asbag56
(g77
g58
NtRp2376
(dp2377
g61
(dp2378
sg70
g2363
sg63
(lp2379
g56
(g57
g58
NtRp2380
(dp2381
g61
(dp2382
g69
I3
ssg70
g2376
sg63
(lp2383
g1046
asbasbasbag56
(g72
g58
NtRp2384
(dp2385
g61
(dp2386
sg70
g2317
sg63
(lp2387
g56
(g77
g58
NtRp2388
(dp2389
g61
(dp2390
g81
g82
ssg70
g2384
sg63
(lp2391
S'HTTP_ACCEPT_CHARSET'
p2392
asbag56
(g77
g58
NtRp2393
(dp2394
g61
(dp2395
g88
g89
ssg70
g2384
sg63
(lp2396
S':'
asbag56
(g77
g58
NtRp2397
(dp2398
g61
(dp2399
sg70
g2384
sg63
(lp2400
g56
(g57
g58
NtRp2401
(dp2402
g61
(dp2403
g69
I3
ssg70
g2397
sg63
(lp2404
g1068
asbasbasbag56
(g72
g58
NtRp2405
(dp2406
g61
(dp2407
sg70
g2317
sg63
(lp2408
g56
(g77
g58
NtRp2409
(dp2410
g61
(dp2411
g81
g82
ssg70
g2405
sg63
(lp2412
S'HTTP_ACCEPT_ENCODING'
p2413
asbag56
(g77
g58
NtRp2414
(dp2415
g61
(dp2416
g88
g89
ssg70
g2405
sg63
(lp2417
S':'
asbag56
(g77
g58
NtRp2418
(dp2419
g61
(dp2420
sg70
g2405
sg63
(lp2421
g56
(g57
g58
NtRp2422
(dp2423
g61
(dp2424
g69
I3
ssg70
g2418
sg63
(lp2425
g1090
asbasbasbag56
(g72
g58
NtRp2426
(dp2427
g61
(dp2428
sg70
g2317
sg63
(lp2429
g56
(g77
g58
NtRp2430
(dp2431
g61
(dp2432
g81
g82
ssg70
g2426
sg63
(lp2433
S'HTTP_ACCEPT_LANGUAGE'
p2434
asbag56
(g77
g58
NtRp2435
(dp2436
g61
(dp2437
g88
g89
ssg70
g2426
sg63
(lp2438
S':'
asbag56
(g77
g58
NtRp2439
(dp2440
g61
(dp2441
sg70
g2426
sg63
(lp2442
g56
(g57
g58
NtRp2443
(dp2444
g61
(dp2445
g69
I3
ssg70
g2439
sg63
(lp2446
g1112
asbasbasbag56
(g72
g58
NtRp2447
(dp2448
g61
(dp2449
sg70
g2317
sg63
(lp2450
g56
(g77
g58
NtRp2451
(dp2452
g61
(dp2453
g81
g82
ssg70
g2447
sg63
(lp2454
S'HTTP_CACHE_CONTROL'
p2455
asbag56
(g77
g58
NtRp2456
(dp2457
g61
(dp2458
g88
g89
ssg70
g2447
sg63
(lp2459
S':'
asbag56
(g77
g58
NtRp2460
(dp2461
g61
(dp2462
sg70
g2447
sg63
(lp2463
g56
(g57
g58
NtRp2464
(dp2465
g61
(dp2466
g69
I3
ssg70
g2460
sg63
(lp2467
g1134
asbasbasbag56
(g72
g58
NtRp2468
(dp2469
g61
(dp2470
sg70
g2317
sg63
(lp2471
g56
(g77
g58
NtRp2472
(dp2473
g61
(dp2474
g81
g82
ssg70
g2468
sg63
(lp2475
S'HTTP_CONNECTION'
p2476
asbag56
(g77
g58
NtRp2477
(dp2478
g61
(dp2479
g88
g89
ssg70
g2468
sg63
(lp2480
S':'
asbag56
(g77
g58
NtRp2481
(dp2482
g61
(dp2483
sg70
g2468
sg63
(lp2484
g56
(g57
g58
NtRp2485
(dp2486
g61
(dp2487
g69
I3
ssg70
g2481
sg63
(lp2488
g1156
asbasbasbag56
(g72
g58
NtRp2489
(dp2490
g61
(dp2491
sg70
g2317
sg63
(lp2492
g56
(g77
g58
NtRp2493
(dp2494
g61
(dp2495
g81
g82
ssg70
g2489
sg63
(lp2496
S'HTTP_CONTENT_LENGTH'
p2497
asbag56
(g77
g58
NtRp2498
(dp2499
g61
(dp2500
g88
g89
ssg70
g2489
sg63
(lp2501
S':'
asbag56
(g77
g58
NtRp2502
(dp2503
g61
(dp2504
sg70
g2489
sg63
(lp2505
g56
(g57
g58
NtRp2506
(dp2507
g61
(dp2508
g69
I3
ssg70
g2502
sg63
(lp2509
g937
asbasbasbag56
(g72
g58
NtRp2510
(dp2511
g61
(dp2512
sg70
g2317
sg63
(lp2513
g56
(g77
g58
NtRp2514
(dp2515
g61
(dp2516
g81
g82
ssg70
g2510
sg63
(lp2517
S'HTTP_CONTENT_TYPE'
p2518
asbag56
(g77
g58
NtRp2519
(dp2520
g61
(dp2521
g88
g89
ssg70
g2510
sg63
(lp2522
S':'
asbag56
(g77
g58
NtRp2523
(dp2524
g61
(dp2525
sg70
g2510
sg63
(lp2526
g56
(g57
g58
NtRp2527
(dp2528
g61
(dp2529
g69
I3
ssg70
g2523
sg63
(lp2530
g959
asbasbasbag56
(g72
g58
NtRp2531
(dp2532
g61
(dp2533
sg70
g2317
sg63
(lp2534
g56
(g77
g58
NtRp2535
(dp2536
g61
(dp2537
g81
g82
ssg70
g2531
sg63
(lp2538
S'HTTP_COOKIE'
p2539
asbag56
(g77
g58
NtRp2540
(dp2541
g61
(dp2542
g88
g89
ssg70
g2531
sg63
(lp2543
S':'
asbag56
(g77
g58
NtRp2544
(dp2545
g61
(dp2546
sg70
g2531
sg63
(lp2547
g56
(g57
g58
NtRp2548
(dp2549
g61
(dp2550
g69
I3
ssg70
g2544
sg63
(lp2551
g1220
asbasbasbag56
(g72
g58
NtRp2552
(dp2553
g61
(dp2554
sg70
g2317
sg63
(lp2555
g56
(g77
g58
NtRp2556
(dp2557
g61
(dp2558
g81
g82
ssg70
g2552
sg63
(lp2559
S'HTTP_HOST'
p2560
asbag56
(g77
g58
NtRp2561
(dp2562
g61
(dp2563
g88
g89
ssg70
g2552
sg63
(lp2564
S':'
asbag56
(g77
g58
NtRp2565
(dp2566
g61
(dp2567
sg70
g2552
sg63
(lp2568
g56
(g57
g58
NtRp2569
(dp2570
g61
(dp2571
g69
I3
ssg70
g2565
sg63
(lp2572
g1242
asbasbasbag56
(g72
g58
NtRp2573
(dp2574
g61
(dp2575
sg70
g2317
sg63
(lp2576
g56
(g77
g58
NtRp2577
(dp2578
g61
(dp2579
g81
g82
ssg70
g2573
sg63
(lp2580
S'HTTP_ORIGIN'
p2581
asbag56
(g77
g58
NtRp2582
(dp2583
g61
(dp2584
g88
g89
ssg70
g2573
sg63
(lp2585
S':'
asbag56
(g77
g58
NtRp2586
(dp2587
g61
(dp2588
sg70
g2573
sg63
(lp2589
g56
(g57
g58
NtRp2590
(dp2591
g61
(dp2592
g69
I3
ssg70
g2586
sg63
(lp2593
g1264
asbasbasbag56
(g72
g58
NtRp2594
(dp2595
g61
(dp2596
sg70
g2317
sg63
(lp2597
g56
(g77
g58
NtRp2598
(dp2599
g61
(dp2600
g81
g82
ssg70
g2594
sg63
(lp2601
S'HTTP_REFERER'
p2602
asbag56
(g77
g58
NtRp2603
(dp2604
g61
(dp2605
g88
g89
ssg70
g2594
sg63
(lp2606
S':'
asbag56
(g77
g58
NtRp2607
(dp2608
g61
(dp2609
sg70
g2594
sg63
(lp2610
g56
(g57
g58
NtRp2611
(dp2612
g61
(dp2613
g69
I3
ssg70
g2607
sg63
(lp2614
g1286
asbasbasbag56
(g72
g58
NtRp2615
(dp2616
g61
(dp2617
sg70
g2317
sg63
(lp2618
g56
(g77
g58
NtRp2619
(dp2620
g61
(dp2621
g81
g82
ssg70
g2615
sg63
(lp2622
S'HTTP_USER_AGENT'
p2623
asbag56
(g77
g58
NtRp2624
(dp2625
g61
(dp2626
g88
g89
ssg70
g2615
sg63
(lp2627
S':'
asbag56
(g77
g58
NtRp2628
(dp2629
g61
(dp2630
sg70
g2615
sg63
(lp2631
g56
(g57
g58
NtRp2632
(dp2633
g61
(dp2634
g69
I3
ssg70
g2628
sg63
(lp2635
g1308
asbasbasbag56
(g72
g58
NtRp2636
(dp2637
g61
(dp2638
sg70
g2317
sg63
(lp2639
g56
(g77
g58
NtRp2640
(dp2641
g61
(dp2642
g81
g82
ssg70
g2636
sg63
(lp2643
S'PATH_INFO'
p2644
asbag56
(g77
g58
NtRp2645
(dp2646
g61
(dp2647
g88
g89
ssg70
g2636
sg63
(lp2648
S':'
asbag56
(g77
g58
NtRp2649
(dp2650
g61
(dp2651
sg70
g2636
sg63
(lp2652
g56
(g57
g58
NtRp2653
(dp2654
g61
(dp2655
g69
I3
ssg70
g2649
sg63
(lp2656
g1330
asbasbasbag56
(g72
g58
NtRp2657
(dp2658
g61
(dp2659
sg70
g2317
sg63
(lp2660
g56
(g77
g58
NtRp2661
(dp2662
g61
(dp2663
g81
g82
ssg70
g2657
sg63
(lp2664
S'QUERY_STRING'
p2665
asbag56
(g77
g58
NtRp2666
(dp2667
g61
(dp2668
g88
g89
ssg70
g2657
sg63
(lp2669
S':'
asbag56
(g77
g58
NtRp2670
(dp2671
g61
(dp2672
sg70
g2657
sg63
(lp2673
g56
(g57
g58
NtRp2674
(dp2675
g61
(dp2676
g69
I3
ssg70
g2670
sg63
(lp2677
S''
asbasbasbag56
(g72
g58
NtRp2678
(dp2679
g61
(dp2680
sg70
g2317
sg63
(lp2681
g56
(g77
g58
NtRp2682
(dp2683
g61
(dp2684
g81
g82
ssg70
g2678
sg63
(lp2685
S'REMOTE_ADDR'
p2686
asbag56
(g77
g58
NtRp2687
(dp2688
g61
(dp2689
g88
g89
ssg70
g2678
sg63
(lp2690
S':'
asbag56
(g77
g58
NtRp2691
(dp2692
g61
(dp2693
sg70
g2678
sg63
(lp2694
g56
(g57
g58
NtRp2695
(dp2696
g61
(dp2697
g69
I3
ssg70
g2691
sg63
(lp2698
g189
asbasbasbag56
(g72
g58
NtRp2699
(dp2700
g61
(dp2701
sg70
g2317
sg63
(lp2702
g56
(g77
g58
NtRp2703
(dp2704
g61
(dp2705
g81
g82
ssg70
g2699
sg63
(lp2706
S'REMOTE_PORT'
p2707
asbag56
(g77
g58
NtRp2708
(dp2709
g61
(dp2710
g88
g89
ssg70
g2699
sg63
(lp2711
S':'
asbag56
(g77
g58
NtRp2712
(dp2713
g61
(dp2714
sg70
g2699
sg63
(lp2715
g56
(g57
g58
NtRp2716
(dp2717
g61
(dp2718
g69
I3
ssg70
g2712
sg63
(lp2719
g1394
asbasbasbag56
(g72
g58
NtRp2720
(dp2721
g61
(dp2722
sg70
g2317
sg63
(lp2723
g56
(g77
g58
NtRp2724
(dp2725
g61
(dp2726
g81
g82
ssg70
g2720
sg63
(lp2727
S'REQUEST_METHOD'
p2728
asbag56
(g77
g58
NtRp2729
(dp2730
g61
(dp2731
g88
g89
ssg70
g2720
sg63
(lp2732
S':'
asbag56
(g77
g58
NtRp2733
(dp2734
g61
(dp2735
sg70
g2720
sg63
(lp2736
g56
(g57
g58
NtRp2737
(dp2738
g61
(dp2739
g69
I3
ssg70
g2733
sg63
(lp2740
g1416
asbasbasbag56
(g72
g58
NtRp2741
(dp2742
g61
(dp2743
sg70
g2317
sg63
(lp2744
g56
(g77
g58
NtRp2745
(dp2746
g61
(dp2747
g81
g82
ssg70
g2741
sg63
(lp2748
S'SCRIPT_NAME'
p2749
asbag56
(g77
g58
NtRp2750
(dp2751
g61
(dp2752
g88
g89
ssg70
g2741
sg63
(lp2753
S':'
asbag56
(g77
g58
NtRp2754
(dp2755
g61
(dp2756
sg70
g2741
sg63
(lp2757
g56
(g57
g58
NtRp2758
(dp2759
g61
(dp2760
g69
I3
ssg70
g2754
sg63
(lp2761
S''
asbasbasbag56
(g72
g58
NtRp2762
(dp2763
g61
(dp2764
sg70
g2317
sg63
(lp2765
g56
(g77
g58
NtRp2766
(dp2767
g61
(dp2768
g81
g82
ssg70
g2762
sg63
(lp2769
S'SERVER_NAME'
p2770
asbag56
(g77
g58
NtRp2771
(dp2772
g61
(dp2773
g88
g89
ssg70
g2762
sg63
(lp2774
S':'
asbag56
(g77
g58
NtRp2775
(dp2776
g61
(dp2777
sg70
g2762
sg63
(lp2778
g56
(g57
g58
NtRp2779
(dp2780
g61
(dp2781
g69
I3
ssg70
g2775
sg63
(lp2782
g1459
asbasbasbag56
(g72
g58
NtRp2783
(dp2784
g61
(dp2785
sg70
g2317
sg63
(lp2786
g56
(g77
g58
NtRp2787
(dp2788
g61
(dp2789
g81
g82
ssg70
g2783
sg63
(lp2790
S'SERVER_PORT'
p2791
asbag56
(g77
g58
NtRp2792
(dp2793
g61
(dp2794
g88
g89
ssg70
g2783
sg63
(lp2795
S':'
asbag56
(g77
g58
NtRp2796
(dp2797
g61
(dp2798
sg70
g2783
sg63
(lp2799
g56
(g57
g58
NtRp2800
(dp2801
g61
(dp2802
g69
I3
ssg70
g2796
sg63
(lp2803
g1481
asbasbasbag56
(g72
g58
NtRp2804
(dp2805
g61
(dp2806
sg70
g2317
sg63
(lp2807
g56
(g77
g58
NtRp2808
(dp2809
g61
(dp2810
g81
g82
ssg70
g2804
sg63
(lp2811
S'SERVER_PROTOCOL'
p2812
asbag56
(g77
g58
NtRp2813
(dp2814
g61
(dp2815
g88
g89
ssg70
g2804
sg63
(lp2816
S':'
asbag56
(g77
g58
NtRp2817
(dp2818
g61
(dp2819
sg70
g2804
sg63
(lp2820
g56
(g57
g58
NtRp2821
(dp2822
g61
(dp2823
g69
I3
ssg70
g2817
sg63
(lp2824
g1503
asbasbasbag56
(g72
g58
NtRp2825
(dp2826
g61
(dp2827
sg70
g2317
sg63
(lp2828
g56
(g77
g58
NtRp2829
(dp2830
g61
(dp2831
g81
g82
ssg70
g2825
sg63
(lp2832
S'SERVER_SOFTWARE'
p2833
asbag56
(g77
g58
NtRp2834
(dp2835
g61
(dp2836
g88
g89
ssg70
g2825
sg63
(lp2837
S':'
asbag56
(g77
g58
NtRp2838
(dp2839
g61
(dp2840
sg70
g2825
sg63
(lp2841
g56
(g57
g58
NtRp2842
(dp2843
g61
(dp2844
g69
I3
ssg70
g2838
sg63
(lp2845
g1525
asbasbasbag56
(g72
g58
NtRp2846
(dp2847
g61
(dp2848
sg70
g2317
sg63
(lp2849
g56
(g77
g58
NtRp2850
(dp2851
g61
(dp2852
g81
g82
ssg70
g2846
sg63
(lp2853
S'wsgi.errors'
p2854
asbag56
(g77
g58
NtRp2855
(dp2856
g61
(dp2857
g88
g89
ssg70
g2846
sg63
(lp2858
S':'
asbag56
(g77
g58
NtRp2859
(dp2860
g61
(dp2861
sg70
g2846
sg63
(lp2862
g56
(g57
g58
NtRp2863
(dp2864
g61
(dp2865
g69
I3
ssg70
g2859
sg63
(lp2866
S"<open file '<stderr>', mode 'w' at 0x100283270>"
p2867
asbasbasbag56
(g72
g58
NtRp2868
(dp2869
g61
(dp2870
sg70
g2317
sg63
(lp2871
g56
(g77
g58
NtRp2872
(dp2873
g61
(dp2874
g81
g82
ssg70
g2868
sg63
(lp2875
S'wsgi.file_wrapper'
p2876
asbag56
(g77
g58
NtRp2877
(dp2878
g61
(dp2879
g88
g89
ssg70
g2868
sg63
(lp2880
S':'
asbag56
(g77
g58
NtRp2881
(dp2882
g61
(dp2883
sg70
g2868
sg63
(lp2884
g56
(g57
g58
NtRp2885
(dp2886
g61
(dp2887
g69
I3
ssg70
g2881
sg63
(lp2888
S'<class gluon.rocket.FileWrapper at 0x1019a02c0>'
p2889
asbasbasbag56
(g72
g58
NtRp2890
(dp2891
g61
(dp2892
sg70
g2317
sg63
(lp2893
g56
(g77
g58
NtRp2894
(dp2895
g61
(dp2896
g81
g82
ssg70
g2890
sg63
(lp2897
S'wsgi.input'
p2898
asbag56
(g77
g58
NtRp2899
(dp2900
g61
(dp2901
g88
g89
ssg70
g2890
sg63
(lp2902
S':'
asbag56
(g77
g58
NtRp2903
(dp2904
g61
(dp2905
sg70
g2890
sg63
(lp2906
g56
(g57
g58
NtRp2907
(dp2908
g61
(dp2909
g69
I3
ssg70
g2903
sg63
(lp2910
S"<open file '<fdopen>', mode 'w+b' at 0x1064c09c0>"
p2911
asbasbasbag56
(g72
g58
NtRp2912
(dp2913
g61
(dp2914
sg70
g2317
sg63
(lp2915
g56
(g77
g58
NtRp2916
(dp2917
g61
(dp2918
g81
g82
ssg70
g2912
sg63
(lp2919
S'wsgi.multiprocess'
p2920
asbag56
(g77
g58
NtRp2921
(dp2922
g61
(dp2923
g88
g89
ssg70
g2912
sg63
(lp2924
S':'
asbag56
(g77
g58
NtRp2925
(dp2926
g61
(dp2927
sg70
g2912
sg63
(lp2928
g56
(g57
g58
NtRp2929
(dp2930
g61
(dp2931
g69
I3
ssg70
g2925
sg63
(lp2932
g99
asbasbasbag56
(g72
g58
NtRp2933
(dp2934
g61
(dp2935
sg70
g2317
sg63
(lp2936
g56
(g77
g58
NtRp2937
(dp2938
g61
(dp2939
g81
g82
ssg70
g2933
sg63
(lp2940
S'wsgi.multithread'
p2941
asbag56
(g77
g58
NtRp2942
(dp2943
g61
(dp2944
g88
g89
ssg70
g2933
sg63
(lp2945
S':'
asbag56
(g77
g58
NtRp2946
(dp2947
g61
(dp2948
sg70
g2933
sg63
(lp2949
g56
(g57
g58
NtRp2950
(dp2951
g61
(dp2952
g69
I3
ssg70
g2946
sg63
(lp2953
g1699
asbasbasbag56
(g72
g58
NtRp2954
(dp2955
g61
(dp2956
sg70
g2317
sg63
(lp2957
g56
(g77
g58
NtRp2958
(dp2959
g61
(dp2960
g81
g82
ssg70
g2954
sg63
(lp2961
S'wsgi.run_once'
p2962
asbag56
(g77
g58
NtRp2963
(dp2964
g61
(dp2965
g88
g89
ssg70
g2954
sg63
(lp2966
S':'
asbag56
(g77
g58
NtRp2967
(dp2968
g61
(dp2969
sg70
g2954
sg63
(lp2970
g56
(g57
g58
NtRp2971
(dp2972
g61
(dp2973
g69
I3
ssg70
g2967
sg63
(lp2974
g99
asbasbasbag56
(g72
g58
NtRp2975
(dp2976
g61
(dp2977
sg70
g2317
sg63
(lp2978
g56
(g77
g58
NtRp2979
(dp2980
g61
(dp2981
g81
g82
ssg70
g2975
sg63
(lp2982
S'wsgi.url_scheme'
p2983
asbag56
(g77
g58
NtRp2984
(dp2985
g61
(dp2986
g88
g89
ssg70
g2975
sg63
(lp2987
S':'
asbag56
(g77
g58
NtRp2988
(dp2989
g61
(dp2990
sg70
g2975
sg63
(lp2991
g56
(g57
g58
NtRp2992
(dp2993
g61
(dp2994
g69
I3
ssg70
g2988
sg63
(lp2995
g1742
asbasbasbag56
(g72
g58
NtRp2996
(dp2997
g61
(dp2998
sg70
g2317
sg63
(lp2999
g56
(g77
g58
NtRp3000
(dp3001
g61
(dp3002
g81
g82
ssg70
g2996
sg63
(lp3003
S'wsgi.version'
p3004
asbag56
(g77
g58
NtRp3005
(dp3006
g61
(dp3007
g88
g89
ssg70
g2996
sg63
(lp3008
S':'
asbag56
(g77
g58
NtRp3009
(dp3010
g61
(dp3011
sg70
g2996
sg63
(lp3012
g56
(g57
g58
NtRp3013
(dp3014
g61
(dp3015
g69
I3
ssg70
g3009
sg63
(lp3016
S'1'
asbasbasbasbasbasbasbasbasbasbasbasbasbsS'frames'
p3017
(lp3018
(dp3019
S'file'
p3020
S'/Users/schultzc/Downloads/web2py/gluon/restricted.py'
p3021
sS'dump'
p3022
(dp3023
S'environment'
p3024
S"{'A': <class 'gluon.html.A'>, 'B': <class 'gluon.html.B'>, 'BEAUTIFY': <class 'gluon.html.BEAUTIFY'>, 'BODY': <class 'gluon.html.BODY'>, 'BR': <class 'gluon.html.BR'>, 'BUTTON': <class 'gluon.html.BUTTON'>, 'CENTER': <class 'gluon.html.CENTER'>, 'CLEANUP': <class 'gluon.validators.CLEANUP'>, 'CODE': <class 'gluon.html.CODE'>, 'CRYPT': <class 'gluon.validators.CRYPT'>, ...}"
p3025
sS'ccode'
p3026
S'<code object <module> at 0x1073b7b30, file "/Use...applications/wp/controllers/default.py", line 12>'
p3027
ssS'lnum'
p3028
I192
sS'lines'
p3029
(dp3030
I192
S'        exec ccode in environment'
p3031
sI193
S'    except HTTP:'
p3032
sI194
S'        raise'
p3033
sI195
S'    except Exception:'
p3034
sI196
S'        # XXX Show exception in Wing IDE if running in debugger'
p3035
sI187
S'    try:'
p3036
sI188
S'        if type(code) == types.CodeType:'
p3037
sI189
S'            ccode = code'
p3038
sI190
S'        else:'
p3039
sI191
S'            ccode = compile2(code,layer)'
p3040
ssS'call'
p3041
S'(code="# -*- coding: utf-8 -*-\\n# this file is released ...())\\n\'\'\'\\n\\nresponse._vars=response._caller(submit)\\n", environment={\'A\': <class \'gluon.html.A\'>, \'B\': <class \'gluon.html.B\'>, \'BEAUTIFY\': <class \'gluon.html.BEAUTIFY\'>, \'BODY\': <class \'gluon.html.BODY\'>, \'BR\': <class \'gluon.html.BR\'>, \'BUTTON\': <class \'gluon.html.BUTTON\'>, \'CENTER\': <class \'gluon.html.CENTER\'>, \'CLEANUP\': <class \'gluon.validators.CLEANUP\'>, \'CODE\': <class \'gluon.html.CODE\'>, \'CRYPT\': <class \'gluon.validators.CRYPT\'>, ...}, layer=\'/Users/schultzc/Downloads/web2py/applications/wp/controllers/default.py\')'
p3042
sS'func'
p3043
S'restricted'
p3044
sa(dp3045
g3020
S'/Users/schultzc/Downloads/web2py/applications/wp/controllers/default.py'
p3046
sg3022
(dp3047
sg3028
I89
sg3029
(dp3048
I78
S'    http://..../[app]/default/data/delete/[table]/[id['
p3049
sI79
S'    http://..../[app]/default/data/select/[table]'
p3050
sI80
S'    http://..../[app]/default/data/search/[table]'
p3051
sI81
S'    but URLs bust be signed, i.e. linked with'
p3052
sI82
S"      A('table',_href=URL('data/tables',user_signature=True))"
p3053
sI83
S'    or with the signed load operator'
p3054
sI84
S"      LOAD('default','data.load',args='tables',ajax=True,user_signature=True)"
p3055
sI85
S'    """'
p3056
sI86
S'    return dict(form=crud())'
p3057
sI87
S"'''"
p3058
ssg3041
S'()'
p3059
sg3043
S'<module>'
p3060
sa(dp3061
g3020
S'/Users/schultzc/Downloads/web2py/gluon/globals.py'
p3062
sg3022
(dp3063
S'self'
p3064
S'undefined'
p3065
sS'f'
S'<function submit>'
p3066
ssg3028
I137
sg3029
(dp3067
I132
S"        self.flash = ''           # used by the default view layout"
p3068
sI133
S'        self.meta = Storage()     # used by web2py_ajax.html'
p3069
sI134
S'        self.menu = []            # used by the default view layout'
p3070
sI135
S'        self.files = []           # used by web2py_ajax.html'
p3071
sI136
S'        self._vars = None'
p3072
sI137
S'        self._caller = lambda f: f()'
p3073
sI138
S'        self._view_environment = None'
p3074
sI139
S'        self._custom_commit = None'
p3075
sI140
S'        self._custom_rollback = None'
p3076
sI141
S''
ssg3041
S'(f=<function submit>)'
p3077
sg3043
S'<lambda>'
p3078
sa(dp3079
g3020
S'/Users/schultzc/Downloads/web2py/applications/wp/controllers/default.py'
p3080
sg3022
(dp3081
S'db.image.insert'
p3082
S"<bound method Table.insert of <Table {'ALL': <gl... 'id': <gluon.dal.Field object at 0x10675d110>}>>"
p3083
sS'datetime'
p3084
g3065
sS'p'
g3065
sS'global db'
p3085
S'<DAL {\'_migrate_enabled\': True, \'_lastsql\': "INS...\'_uri_hash\': \'fb87181b96a99be45f5a23f4277867ce\'}>'
p3086
sS'db.image'
p3087
S"<Table {'ALL': <gluon.dal.SQLALL object at 0x106..., 'id': <gluon.dal.Field object at 0x10675d110>}>"
p3088
sS'pub_date'
p3089
g3065
ssg3028
I19
sg3029
(dp3090
I14
S'    return dict(images=images)'
p3091
sI15
S''
sI16
S'def submit():'
p3092
sI17
S'   form = SQLFORM(db.image, formstyle="divs")'
p3093
sI18
S'   if form.accepts(request.vars, session):'
p3094
sI19
S'       p=db.image.insert(pub_date=datetime.datetime.now())'
p3095
sI20
S"       response.flash = 'form accepted'"
p3096
sI21
S'   elif form.errors:'
p3097
sI22
S"       response.flash = 'form has errors'"
p3098
sI23
S'   else:'
p3099
ssg3041
S'()'
p3100
sg3043
S'submit'
p3101
sasS'pyver'
p3102
S'Python 2.7.2: /opt/local/Library/Frameworks/Python.framework/Versions/2.7/Resources/Python.app/Contents/MacOS/Python'
p3103
sS'session'
p3104
g56
(g57
g58
NtRp3105
(dp3106
g61
(dp3107
sg63
(lp3108
g56
(g65
g58
NtRp3109
(dp3110
g61
(dp3111
g69
I5
ssg70
Nsg63
(lp3112
g56
(g72
g58
NtRp3113
(dp3114
g61
(dp3115
sg70
g3109
sg63
(lp3116
g56
(g77
g58
NtRp3117
(dp3118
g61
(dp3119
g81
g82
ssg70
g3113
sg63
(lp3120
S'last_query'
p3121
asbag56
(g77
g58
NtRp3122
(dp3123
g61
(dp3124
g88
g89
ssg70
g3113
sg63
(lp3125
S':'
asbag56
(g77
g58
NtRp3126
(dp3127
g61
(dp3128
sg70
g3113
sg63
(lp3129
g56
(g57
g58
NtRp3130
(dp3131
g61
(dp3132
g69
I5
ssg70
g3126
sg63
(lp3133
S'db.image.id>0'
p3134
asbasbasbasbasbsS'etype'
p3135
S"<type 'exceptions.NameError'>"
p3136
sS'date'
p3137
S'Sat Jul 16 02:53:11 2011'
p3138
sS'response'
p3139
g56
(g57
g58
NtRp3140
(dp3141
g61
(dp3142
sg63
(lp3143
g56
(g65
g58
NtRp3144
(dp3145
g61
(dp3146
g69
I5
ssg70
Nsg63
(lp3147
g56
(g72
g58
NtRp3148
(dp3149
g61
(dp3150
sg70
g3144
sg63
(lp3151
g56
(g77
g58
NtRp3152
(dp3153
g61
(dp3154
g81
g82
ssg70
g3148
sg63
(lp3155
g154
asbag56
(g77
g58
NtRp3156
(dp3157
g61
(dp3158
g88
g89
ssg70
g3148
sg63
(lp3159
S':'
asbag56
(g77
g58
NtRp3160
(dp3161
g61
(dp3162
sg70
g3148
sg63
(lp3163
g56
(g57
g58
NtRp3164
(dp3165
g61
(dp3166
g69
I5
ssg70
g3160
sg63
(lp3167
S'<cStringIO.StringO object at 0x1066d4fb8>'
p3168
asbasbasbag56
(g72
g58
NtRp3169
(dp3170
g61
(dp3171
sg70
g3144
sg63
(lp3172
g56
(g77
g58
NtRp3173
(dp3174
g61
(dp3175
g81
g82
ssg70
g3169
sg63
(lp3176
g220
asbag56
(g77
g58
NtRp3177
(dp3178
g61
(dp3179
g88
g89
ssg70
g3169
sg63
(lp3180
S':'
asbag56
(g77
g58
NtRp3181
(dp3182
g61
(dp3183
sg70
g3169
sg63
(lp3184
g56
(g57
g58
NtRp3185
(dp3186
g61
(dp3187
g69
I5
ssg70
g3181
sg63
(lp3188
g56
(g65
g58
NtRp3189
(dp3190
g61
(dp3191
g69
I4
ssg70
Nsg63
(lp3192
g56
(g72
g58
NtRp3193
(dp3194
g61
(dp3195
sg70
g3189
sg63
(lp3196
g56
(g77
g58
NtRp3197
(dp3198
g61
(dp3199
g81
g82
ssg70
g3193
sg63
(lp3200
S'session_id_wp'
p3201
asbag56
(g77
g58
NtRp3202
(dp3203
g61
(dp3204
g88
g89
ssg70
g3193
sg63
(lp3205
S':'
asbag56
(g77
g58
NtRp3206
(dp3207
g61
(dp3208
sg70
g3193
sg63
(lp3209
g56
(g57
g58
NtRp3210
(dp3211
g61
(dp3212
g69
I4
ssg70
g3206
sg63
(lp3213
g56
(g65
g58
NtRp3214
(dp3215
g61
(dp3216
g69
I3
ssg70
Nsg63
(lp3217
g56
(g72
g58
NtRp3218
(dp3219
g61
(dp3220
sg70
g3214
sg63
(lp3221
g56
(g77
g58
NtRp3222
(dp3223
g61
(dp3224
g81
g82
ssg70
g3218
sg63
(lp3225
g270
asbag56
(g77
g58
NtRp3226
(dp3227
g61
(dp3228
g88
g89
ssg70
g3218
sg63
(lp3229
S':'
asbag56
(g77
g58
NtRp3230
(dp3231
g61
(dp3232
sg70
g3218
sg63
(lp3233
g56
(g57
g58
NtRp3234
(dp3235
g61
(dp3236
g69
I3
ssg70
g3230
sg63
(lp3237
S''
asbasbasbag56
(g72
g58
NtRp3238
(dp3239
g61
(dp3240
sg70
g3214
sg63
(lp3241
g56
(g77
g58
NtRp3242
(dp3243
g61
(dp3244
g81
g82
ssg70
g3238
sg63
(lp3245
g291
asbag56
(g77
g58
NtRp3246
(dp3247
g61
(dp3248
g88
g89
ssg70
g3238
sg63
(lp3249
S':'
asbag56
(g77
g58
NtRp3250
(dp3251
g61
(dp3252
sg70
g3238
sg63
(lp3253
g56
(g57
g58
NtRp3254
(dp3255
g61
(dp3256
g69
I3
ssg70
g3250
sg63
(lp3257
S''
asbasbasbag56
(g72
g58
NtRp3258
(dp3259
g61
(dp3260
sg70
g3214
sg63
(lp3261
g56
(g77
g58
NtRp3262
(dp3263
g61
(dp3264
g81
g82
ssg70
g3258
sg63
(lp3265
g312
asbag56
(g77
g58
NtRp3266
(dp3267
g61
(dp3268
g88
g89
ssg70
g3258
sg63
(lp3269
S':'
asbag56
(g77
g58
NtRp3270
(dp3271
g61
(dp3272
sg70
g3258
sg63
(lp3273
g56
(g57
g58
NtRp3274
(dp3275
g61
(dp3276
g69
I3
ssg70
g3270
sg63
(lp3277
S''
asbasbasbag56
(g72
g58
NtRp3278
(dp3279
g61
(dp3280
sg70
g3214
sg63
(lp3281
g56
(g77
g58
NtRp3282
(dp3283
g61
(dp3284
g81
g82
ssg70
g3278
sg63
(lp3285
g333
asbag56
(g77
g58
NtRp3286
(dp3287
g61
(dp3288
g88
g89
ssg70
g3278
sg63
(lp3289
S':'
asbag56
(g77
g58
NtRp3290
(dp3291
g61
(dp3292
sg70
g3278
sg63
(lp3293
g56
(g57
g58
NtRp3294
(dp3295
g61
(dp3296
g69
I3
ssg70
g3290
sg63
(lp3297
S''
asbasbasbag56
(g72
g58
NtRp3298
(dp3299
g61
(dp3300
sg70
g3214
sg63
(lp3301
g56
(g77
g58
NtRp3302
(dp3303
g61
(dp3304
g81
g82
ssg70
g3298
sg63
(lp3305
g354
asbag56
(g77
g58
NtRp3306
(dp3307
g61
(dp3308
g88
g89
ssg70
g3298
sg63
(lp3309
S':'
asbag56
(g77
g58
NtRp3310
(dp3311
g61
(dp3312
sg70
g3298
sg63
(lp3313
g56
(g57
g58
NtRp3314
(dp3315
g61
(dp3316
g69
I3
ssg70
g3310
sg63
(lp3317
S''
asbasbasbag56
(g72
g58
NtRp3318
(dp3319
g61
(dp3320
sg70
g3214
sg63
(lp3321
g56
(g77
g58
NtRp3322
(dp3323
g61
(dp3324
g81
g82
ssg70
g3318
sg63
(lp3325
g375
asbag56
(g77
g58
NtRp3326
(dp3327
g61
(dp3328
g88
g89
ssg70
g3318
sg63
(lp3329
S':'
asbag56
(g77
g58
NtRp3330
(dp3331
g61
(dp3332
sg70
g3318
sg63
(lp3333
g56
(g57
g58
NtRp3334
(dp3335
g61
(dp3336
g69
I3
ssg70
g3330
sg63
(lp3337
S'/'
asbasbasbag56
(g72
g58
NtRp3338
(dp3339
g61
(dp3340
sg70
g3214
sg63
(lp3341
g56
(g77
g58
NtRp3342
(dp3343
g61
(dp3344
g81
g82
ssg70
g3338
sg63
(lp3345
g396
asbag56
(g77
g58
NtRp3346
(dp3347
g61
(dp3348
g88
g89
ssg70
g3338
sg63
(lp3349
S':'
asbag56
(g77
g58
NtRp3350
(dp3351
g61
(dp3352
sg70
g3338
sg63
(lp3353
g56
(g57
g58
NtRp3354
(dp3355
g61
(dp3356
g69
I3
ssg70
g3350
sg63
(lp3357
S''
asbasbasbag56
(g72
g58
NtRp3358
(dp3359
g61
(dp3360
sg70
g3214
sg63
(lp3361
g56
(g77
g58
NtRp3362
(dp3363
g61
(dp3364
g81
g82
ssg70
g3358
sg63
(lp3365
g417
asbag56
(g77
g58
NtRp3366
(dp3367
g61
(dp3368
g88
g89
ssg70
g3358
sg63
(lp3369
S':'
asbag56
(g77
g58
NtRp3370
(dp3371
g61
(dp3372
sg70
g3358
sg63
(lp3373
g56
(g57
g58
NtRp3374
(dp3375
g61
(dp3376
g69
I3
ssg70
g3370
sg63
(lp3377
S''
asbasbasbasbasbasbasbasbasbasbasbag56
(g72
g58
NtRp3378
(dp3379
g61
(dp3380
sg70
g3144
sg63
(lp3381
g56
(g77
g58
NtRp3382
(dp3383
g61
(dp3384
g81
g82
ssg70
g3378
sg63
(lp3385
S'files'
p3386
asbag56
(g77
g58
NtRp3387
(dp3388
g61
(dp3389
g88
g89
ssg70
g3378
sg63
(lp3390
S':'
asbag56
(g77
g58
NtRp3391
(dp3392
g61
(dp3393
sg70
g3378
sg63
(lp3394
g56
(g57
g58
NtRp3395
(dp3396
g61
(dp3397
g69
I5
ssg70
g3391
sg63
(lp3398
g56
(g65
g58
NtRp3399
(dp3400
g61
(dp3401
g69
I4
ssg70
Nsg63
(lp3402
sbasbasbasbag56
(g72
g58
NtRp3403
(dp3404
g61
(dp3405
sg70
g3144
sg63
(lp3406
g56
(g77
g58
NtRp3407
(dp3408
g61
(dp3409
g81
g82
ssg70
g3403
sg63
(lp3410
S'flash'
p3411
asbag56
(g77
g58
NtRp3412
(dp3413
g61
(dp3414
g88
g89
ssg70
g3403
sg63
(lp3415
S':'
asbag56
(g77
g58
NtRp3416
(dp3417
g61
(dp3418
sg70
g3403
sg63
(lp3419
g56
(g57
g58
NtRp3420
(dp3421
g61
(dp3422
g69
I5
ssg70
g3416
sg63
(lp3423
S''
asbasbasbag56
(g72
g58
NtRp3424
(dp3425
g61
(dp3426
sg70
g3144
sg63
(lp3427
g56
(g77
g58
NtRp3428
(dp3429
g61
(dp3430
g81
g82
ssg70
g3424
sg63
(lp3431
S'headers'
p3432
asbag56
(g77
g58
NtRp3433
(dp3434
g61
(dp3435
g88
g89
ssg70
g3424
sg63
(lp3436
S':'
asbag56
(g77
g58
NtRp3437
(dp3438
g61
(dp3439
sg70
g3424
sg63
(lp3440
g56
(g57
g58
NtRp3441
(dp3442
g61
(dp3443
g69
I5
ssg70
g3437
sg63
(lp3444
g56
(g65
g58
NtRp3445
(dp3446
g61
(dp3447
g69
I4
ssg70
Nsg63
(lp3448
g56
(g72
g58
NtRp3449
(dp3450
g61
(dp3451
sg70
g3445
sg63
(lp3452
g56
(g77
g58
NtRp3453
(dp3454
g61
(dp3455
g81
g82
ssg70
g3449
sg63
(lp3456
S'Cache-Control'
p3457
asbag56
(g77
g58
NtRp3458
(dp3459
g61
(dp3460
g88
g89
ssg70
g3449
sg63
(lp3461
S':'
asbag56
(g77
g58
NtRp3462
(dp3463
g61
(dp3464
sg70
g3449
sg63
(lp3465
g56
(g57
g58
NtRp3466
(dp3467
g61
(dp3468
g69
I4
ssg70
g3462
sg63
(lp3469
S'no-store, no-cache, must-revalidate, post-check=0, pre-check=0'
p3470
asbasbasbag56
(g72
g58
NtRp3471
(dp3472
g61
(dp3473
sg70
g3445
sg63
(lp3474
g56
(g77
g58
NtRp3475
(dp3476
g61
(dp3477
g81
g82
ssg70
g3471
sg63
(lp3478
S'Content-Type'
p3479
asbag56
(g77
g58
NtRp3480
(dp3481
g61
(dp3482
g88
g89
ssg70
g3471
sg63
(lp3483
S':'
asbag56
(g77
g58
NtRp3484
(dp3485
g61
(dp3486
sg70
g3471
sg63
(lp3487
g56
(g57
g58
NtRp3488
(dp3489
g61
(dp3490
g69
I4
ssg70
g3484
sg63
(lp3491
S'text/html; charset=utf-8'
p3492
asbasbasbag56
(g72
g58
NtRp3493
(dp3494
g61
(dp3495
sg70
g3445
sg63
(lp3496
g56
(g77
g58
NtRp3497
(dp3498
g61
(dp3499
g81
g82
ssg70
g3493
sg63
(lp3500
S'Expires'
p3501
asbag56
(g77
g58
NtRp3502
(dp3503
g61
(dp3504
g88
g89
ssg70
g3493
sg63
(lp3505
S':'
asbag56
(g77
g58
NtRp3506
(dp3507
g61
(dp3508
sg70
g3493
sg63
(lp3509
g56
(g57
g58
NtRp3510
(dp3511
g61
(dp3512
g69
I4
ssg70
g3506
sg63
(lp3513
S'Sat, 16 Jul 2011 09:53:11 GMT'
p3514
asbasbasbag56
(g72
g58
NtRp3515
(dp3516
g61
(dp3517
sg70
g3445
sg63
(lp3518
g56
(g77
g58
NtRp3519
(dp3520
g61
(dp3521
g81
g82
ssg70
g3515
sg63
(lp3522
S'Pragma'
p3523
asbag56
(g77
g58
NtRp3524
(dp3525
g61
(dp3526
g88
g89
ssg70
g3515
sg63
(lp3527
S':'
asbag56
(g77
g58
NtRp3528
(dp3529
g61
(dp3530
sg70
g3515
sg63
(lp3531
g56
(g57
g58
NtRp3532
(dp3533
g61
(dp3534
g69
I4
ssg70
g3528
sg63
(lp3535
S'no-cache'
p3536
asbasbasbag56
(g72
g58
NtRp3537
(dp3538
g61
(dp3539
sg70
g3445
sg63
(lp3540
g56
(g77
g58
NtRp3541
(dp3542
g61
(dp3543
g81
g82
ssg70
g3537
sg63
(lp3544
S'X-Powered-By'
p3545
asbag56
(g77
g58
NtRp3546
(dp3547
g61
(dp3548
g88
g89
ssg70
g3537
sg63
(lp3549
S':'
asbag56
(g77
g58
NtRp3550
(dp3551
g61
(dp3552
sg70
g3537
sg63
(lp3553
g56
(g57
g58
NtRp3554
(dp3555
g61
(dp3556
g69
I4
ssg70
g3550
sg63
(lp3557
S'web2py'
p3558
asbasbasbasbasbasbasbag56
(g72
g58
NtRp3559
(dp3560
g61
(dp3561
sg70
g3144
sg63
(lp3562
g56
(g77
g58
NtRp3563
(dp3564
g61
(dp3565
g81
g82
ssg70
g3559
sg63
(lp3566
S'menu'
p3567
asbag56
(g77
g58
NtRp3568
(dp3569
g61
(dp3570
g88
g89
ssg70
g3559
sg63
(lp3571
S':'
asbag56
(g77
g58
NtRp3572
(dp3573
g61
(dp3574
sg70
g3559
sg63
(lp3575
g56
(g57
g58
NtRp3576
(dp3577
g61
(dp3578
g69
I5
ssg70
g3572
sg63
(lp3579
g56
(g65
g58
NtRp3580
(dp3581
g61
(dp3582
g69
I4
ssg70
Nsg63
(lp3583
g56
(g72
g58
NtRp3584
(dp3585
g61
(dp3586
sg70
g3580
sg63
(lp3587
g56
(g77
g58
NtRp3588
(dp3589
g61
(dp3590
sg70
g3584
sg63
(lp3591
g56
(g57
g58
NtRp3592
(dp3593
g61
(dp3594
g69
I4
ssg70
g3588
sg63
(lp3595
g56
(g65
g58
NtRp3596
(dp3597
g61
(dp3598
g69
I3
ssg70
Nsg63
(lp3599
g56
(g72
g58
NtRp3600
(dp3601
g61
(dp3602
sg70
g3596
sg63
(lp3603
g56
(g77
g58
NtRp3604
(dp3605
g61
(dp3606
sg70
g3600
sg63
(lp3607
g56
(g57
g58
NtRp3608
(dp3609
g61
(dp3610
g69
I3
ssg70
g3604
sg63
(lp3611
cgluon.languages
lazyT_unpickle
p3612
(S't\x04\x00\x00\x00Home'
tRp3613
asbasbasbag56
(g72
g58
NtRp3614
(dp3615
g61
(dp3616
sg70
g3596
sg63
(lp3617
g56
(g77
g58
NtRp3618
(dp3619
g61
(dp3620
sg70
g3614
sg63
(lp3621
g56
(g57
g58
NtRp3622
(dp3623
g61
(dp3624
g69
I3
ssg70
g3618
sg63
(lp3625
g99
asbasbasbag56
(g72
g58
NtRp3626
(dp3627
g61
(dp3628
sg70
g3596
sg63
(lp3629
g56
(g77
g58
NtRp3630
(dp3631
g61
(dp3632
sg70
g3626
sg63
(lp3633
g56
(g57
g58
NtRp3634
(dp3635
g61
(dp3636
g69
I3
ssg70
g3630
sg63
(lp3637
S'/wp/default/index'
p3638
asbasbasbag56
(g72
g58
NtRp3639
(dp3640
g61
(dp3641
sg70
g3596
sg63
(lp3642
g56
(g77
g58
NtRp3643
(dp3644
g61
(dp3645
sg70
g3639
sg63
(lp3646
g56
(g57
g58
NtRp3647
(dp3648
g61
(dp3649
g69
I3
ssg70
g3643
sg63
(lp3650
g56
(g65
g58
NtRp3651
(dp3652
g61
(dp3653
g69
I2
ssg70
Nsg63
(lp3654
sbasbasbasbasbasbasbasbag56
(g72
g58
NtRp3655
(dp3656
g61
(dp3657
sg70
g3580
sg63
(lp3658
g56
(g77
g58
NtRp3659
(dp3660
g61
(dp3661
sg70
g3655
sg63
(lp3662
g56
(g57
g58
NtRp3663
(dp3664
g61
(dp3665
g69
I4
ssg70
g3659
sg63
(lp3666
g56
(g65
g58
NtRp3667
(dp3668
g61
(dp3669
g69
I3
ssg70
Nsg63
(lp3670
g56
(g72
g58
NtRp3671
(dp3672
g61
(dp3673
sg70
g3667
sg63
(lp3674
g56
(g77
g58
NtRp3675
(dp3676
g61
(dp3677
sg70
g3671
sg63
(lp3678
g56
(g57
g58
NtRp3679
(dp3680
g61
(dp3681
g69
I3
ssg70
g3675
sg63
(lp3682
g3612
(S's\x08\x00\x00\x00This App'
tRp3683
asbasbasbag56
(g72
g58
NtRp3684
(dp3685
g61
(dp3686
sg70
g3667
sg63
(lp3687
g56
(g77
g58
NtRp3688
(dp3689
g61
(dp3690
sg70
g3684
sg63
(lp3691
g56
(g57
g58
NtRp3692
(dp3693
g61
(dp3694
g69
I3
ssg70
g3688
sg63
(lp3695
g99
asbasbasbag56
(g72
g58
NtRp3696
(dp3697
g61
(dp3698
sg70
g3667
sg63
(lp3699
g56
(g77
g58
NtRp3700
(dp3701
g61
(dp3702
sg70
g3696
sg63
(lp3703
g56
(g57
g58
NtRp3704
(dp3705
g61
(dp3706
g69
I3
ssg70
g3700
sg63
(lp3707
S'/admin/default/design/wp'
p3708
asbasbasbag56
(g72
g58
NtRp3709
(dp3710
g61
(dp3711
sg70
g3667
sg63
(lp3712
g56
(g77
g58
NtRp3713
(dp3714
g61
(dp3715
sg70
g3709
sg63
(lp3716
g56
(g57
g58
NtRp3717
(dp3718
g61
(dp3719
g69
I3
ssg70
g3713
sg63
(lp3720
g56
(g65
g58
NtRp3721
(dp3722
g61
(dp3723
g69
I2
ssg70
Nsg63
(lp3724
g56
(g72
g58
NtRp3725
(dp3726
g61
(dp3727
sg70
g3721
sg63
(lp3728
g56
(g77
g58
NtRp3729
(dp3730
g61
(dp3731
sg70
g3725
sg63
(lp3732
g56
(g57
g58
NtRp3733
(dp3734
g61
(dp3735
g69
I2
ssg70
g3729
sg63
(lp3736
g56
(g65
g58
NtRp3737
(dp3738
g61
(dp3739
g69
I1
ssg70
Nsg63
(lp3740
g56
(g72
g58
NtRp3741
(dp3742
g61
(dp3743
sg70
g3737
sg63
(lp3744
g56
(g77
g58
NtRp3745
(dp3746
g61
(dp3747
sg70
g3741
sg63
(lp3748
g56
(g57
g58
NtRp3749
(dp3750
g61
(dp3751
g69
I1
ssg70
g3745
sg63
(lp3752
g3612
(S't\n\x00\x00\x00Controller'
tRp3753
asbasbasbag56
(g72
g58
NtRp3754
(dp3755
g61
(dp3756
sg70
g3737
sg63
(lp3757
g56
(g77
g58
NtRp3758
(dp3759
g61
(dp3760
sg70
g3754
sg63
(lp3761
g56
(g57
g58
NtRp3762
(dp3763
g61
(dp3764
g69
I1
ssg70
g3758
sg63
(lp3765
I00
asbasbasbag56
(g72
g58
NtRp3766
(dp3767
g61
(dp3768
sg70
g3737
sg63
(lp3769
g56
(g77
g58
NtRp3770
(dp3771
g61
(dp3772
sg70
g3766
sg63
(lp3773
g56
(g57
g58
NtRp3774
(dp3775
g61
(dp3776
g69
I1
ssg70
g3770
sg63
(lp3777
S'/admin/default/edit/wp/controllers/default.py'
p3778
asbasbasbasbasbasbasbag56
(g72
g58
NtRp3779
(dp3780
g61
(dp3781
sg70
g3721
sg63
(lp3782
g56
(g77
g58
NtRp3783
(dp3784
g61
(dp3785
sg70
g3779
sg63
(lp3786
g56
(g57
g58
NtRp3787
(dp3788
g61
(dp3789
g69
I2
ssg70
g3783
sg63
(lp3790
g56
(g65
g58
NtRp3791
(dp3792
g61
(dp3793
g69
I1
ssg70
Nsg63
(lp3794
g56
(g72
g58
NtRp3795
(dp3796
g61
(dp3797
sg70
g3791
sg63
(lp3798
g56
(g77
g58
NtRp3799
(dp3800
g61
(dp3801
sg70
g3795
sg63
(lp3802
g56
(g57
g58
NtRp3803
(dp3804
g61
(dp3805
g69
I1
ssg70
g3799
sg63
(lp3806
g3612
(S't\x04\x00\x00\x00View'
tRp3807
asbasbasbag56
(g72
g58
NtRp3808
(dp3809
g61
(dp3810
sg70
g3791
sg63
(lp3811
g56
(g77
g58
NtRp3812
(dp3813
g61
(dp3814
sg70
g3808
sg63
(lp3815
g56
(g57
g58
NtRp3816
(dp3817
g61
(dp3818
g69
I1
ssg70
g3812
sg63
(lp3819
I00
asbasbasbag56
(g72
g58
NtRp3820
(dp3821
g61
(dp3822
sg70
g3791
sg63
(lp3823
g56
(g77
g58
NtRp3824
(dp3825
g61
(dp3826
sg70
g3820
sg63
(lp3827
g56
(g57
g58
NtRp3828
(dp3829
g61
(dp3830
g69
I1
ssg70
g3824
sg63
(lp3831
S'/admin/default/edit/wp/views/default/submit.html'
p3832
asbasbasbasbasbasbasbag56
(g72
g58
NtRp3833
(dp3834
g61
(dp3835
sg70
g3721
sg63
(lp3836
g56
(g77
g58
NtRp3837
(dp3838
g61
(dp3839
sg70
g3833
sg63
(lp3840
g56
(g57
g58
NtRp3841
(dp3842
g61
(dp3843
g69
I2
ssg70
g3837
sg63
(lp3844
g56
(g65
g58
NtRp3845
(dp3846
g61
(dp3847
g69
I1
ssg70
Nsg63
(lp3848
g56
(g72
g58
NtRp3849
(dp3850
g61
(dp3851
sg70
g3845
sg63
(lp3852
g56
(g77
g58
NtRp3853
(dp3854
g61
(dp3855
sg70
g3849
sg63
(lp3856
g56
(g57
g58
NtRp3857
(dp3858
g61
(dp3859
g69
I1
ssg70
g3853
sg63
(lp3860
g3612
(S't\x06\x00\x00\x00Layout'
tRp3861
asbasbasbag56
(g72
g58
NtRp3862
(dp3863
g61
(dp3864
sg70
g3845
sg63
(lp3865
g56
(g77
g58
NtRp3866
(dp3867
g61
(dp3868
sg70
g3862
sg63
(lp3869
g56
(g57
g58
NtRp3870
(dp3871
g61
(dp3872
g69
I1
ssg70
g3866
sg63
(lp3873
I00
asbasbasbag56
(g72
g58
NtRp3874
(dp3875
g61
(dp3876
sg70
g3845
sg63
(lp3877
g56
(g77
g58
NtRp3878
(dp3879
g61
(dp3880
sg70
g3874
sg63
(lp3881
g56
(g57
g58
NtRp3882
(dp3883
g61
(dp3884
g69
I1
ssg70
g3878
sg63
(lp3885
S'/admin/default/edit/wp/views/layout.html'
p3886
asbasbasbasbasbasbasbag56
(g72
g58
NtRp3887
(dp3888
g61
(dp3889
sg70
g3721
sg63
(lp3890
g56
(g77
g58
NtRp3891
(dp3892
g61
(dp3893
sg70
g3887
sg63
(lp3894
g56
(g57
g58
NtRp3895
(dp3896
g61
(dp3897
g69
I2
ssg70
g3891
sg63
(lp3898
g56
(g65
g58
NtRp3899
(dp3900
g61
(dp3901
g69
I1
ssg70
Nsg63
(lp3902
g56
(g72
g58
NtRp3903
(dp3904
g61
(dp3905
sg70
g3899
sg63
(lp3906
g56
(g77
g58
NtRp3907
(dp3908
g61
(dp3909
sg70
g3903
sg63
(lp3910
g56
(g57
g58
NtRp3911
(dp3912
g61
(dp3913
g69
I1
ssg70
g3907
sg63
(lp3914
g3612
(S't\n\x00\x00\x00Stylesheet'
tRp3915
asbasbasbag56
(g72
g58
NtRp3916
(dp3917
g61
(dp3918
sg70
g3899
sg63
(lp3919
g56
(g77
g58
NtRp3920
(dp3921
g61
(dp3922
sg70
g3916
sg63
(lp3923
g56
(g57
g58
NtRp3924
(dp3925
g61
(dp3926
g69
I1
ssg70
g3920
sg63
(lp3927
I00
asbasbasbag56
(g72
g58
NtRp3928
(dp3929
g61
(dp3930
sg70
g3899
sg63
(lp3931
g56
(g77
g58
NtRp3932
(dp3933
g61
(dp3934
sg70
g3928
sg63
(lp3935
g56
(g57
g58
NtRp3936
(dp3937
g61
(dp3938
g69
I1
ssg70
g3932
sg63
(lp3939
S'/admin/default/edit/wp/static/base.css'
p3940
asbasbasbasbasbasbasbag56
(g72
g58
NtRp3941
(dp3942
g61
(dp3943
sg70
g3721
sg63
(lp3944
g56
(g77
g58
NtRp3945
(dp3946
g61
(dp3947
sg70
g3941
sg63
(lp3948
g56
(g57
g58
NtRp3949
(dp3950
g61
(dp3951
g69
I2
ssg70
g3945
sg63
(lp3952
g56
(g65
g58
NtRp3953
(dp3954
g61
(dp3955
g69
I1
ssg70
Nsg63
(lp3956
g56
(g72
g58
NtRp3957
(dp3958
g61
(dp3959
sg70
g3953
sg63
(lp3960
g56
(g77
g58
NtRp3961
(dp3962
g61
(dp3963
sg70
g3957
sg63
(lp3964
g56
(g57
g58
NtRp3965
(dp3966
g61
(dp3967
g69
I1
ssg70
g3961
sg63
(lp3968
g3612
(S's\x08\x00\x00\x00DB Model'
tRp3969
asbasbasbag56
(g72
g58
NtRp3970
(dp3971
g61
(dp3972
sg70
g3953
sg63
(lp3973
g56
(g77
g58
NtRp3974
(dp3975
g61
(dp3976
sg70
g3970
sg63
(lp3977
g56
(g57
g58
NtRp3978
(dp3979
g61
(dp3980
g69
I1
ssg70
g3974
sg63
(lp3981
I00
asbasbasbag56
(g72
g58
NtRp3982
(dp3983
g61
(dp3984
sg70
g3953
sg63
(lp3985
g56
(g77
g58
NtRp3986
(dp3987
g61
(dp3988
sg70
g3982
sg63
(lp3989
g56
(g57
g58
NtRp3990
(dp3991
g61
(dp3992
g69
I1
ssg70
g3986
sg63
(lp3993
S'/admin/default/edit/wp/models/db.py'
p3994
asbasbasbasbasbasbasbag56
(g72
g58
NtRp3995
(dp3996
g61
(dp3997
sg70
g3721
sg63
(lp3998
g56
(g77
g58
NtRp3999
(dp4000
g61
(dp4001
sg70
g3995
sg63
(lp4002
g56
(g57
g58
NtRp4003
(dp4004
g61
(dp4005
g69
I2
ssg70
g3999
sg63
(lp4006
g56
(g65
g58
NtRp4007
(dp4008
g61
(dp4009
g69
I1
ssg70
Nsg63
(lp4010
g56
(g72
g58
NtRp4011
(dp4012
g61
(dp4013
sg70
g4007
sg63
(lp4014
g56
(g77
g58
NtRp4015
(dp4016
g61
(dp4017
sg70
g4011
sg63
(lp4018
g56
(g57
g58
NtRp4019
(dp4020
g61
(dp4021
g69
I1
ssg70
g4015
sg63
(lp4022
g3612
(S's\n\x00\x00\x00Menu Model'
tRp4023
asbasbasbag56
(g72
g58
NtRp4024
(dp4025
g61
(dp4026
sg70
g4007
sg63
(lp4027
g56
(g77
g58
NtRp4028
(dp4029
g61
(dp4030
sg70
g4024
sg63
(lp4031
g56
(g57
g58
NtRp4032
(dp4033
g61
(dp4034
g69
I1
ssg70
g4028
sg63
(lp4035
I00
asbasbasbag56
(g72
g58
NtRp4036
(dp4037
g61
(dp4038
sg70
g4007
sg63
(lp4039
g56
(g77
g58
NtRp4040
(dp4041
g61
(dp4042
sg70
g4036
sg63
(lp4043
g56
(g57
g58
NtRp4044
(dp4045
g61
(dp4046
g69
I1
ssg70
g4040
sg63
(lp4047
S'/admin/default/edit/wp/models/menu.py'
p4048
asbasbasbasbasbasbasbag56
(g72
g58
NtRp4049
(dp4050
g61
(dp4051
sg70
g3721
sg63
(lp4052
g56
(g77
g58
NtRp4053
(dp4054
g61
(dp4055
sg70
g4049
sg63
(lp4056
g56
(g57
g58
NtRp4057
(dp4058
g61
(dp4059
g69
I2
ssg70
g4053
sg63
(lp4060
g56
(g65
g58
NtRp4061
(dp4062
g61
(dp4063
g69
I1
ssg70
Nsg63
(lp4064
g56
(g72
g58
NtRp4065
(dp4066
g61
(dp4067
sg70
g4061
sg63
(lp4068
g56
(g77
g58
NtRp4069
(dp4070
g61
(dp4071
sg70
g4065
sg63
(lp4072
g56
(g57
g58
NtRp4073
(dp4074
g61
(dp4075
g69
I1
ssg70
g4069
sg63
(lp4076
g3612
(S't\x08\x00\x00\x00Database'
tRp4077
asbasbasbag56
(g72
g58
NtRp4078
(dp4079
g61
(dp4080
sg70
g4061
sg63
(lp4081
g56
(g77
g58
NtRp4082
(dp4083
g61
(dp4084
sg70
g4078
sg63
(lp4085
g56
(g57
g58
NtRp4086
(dp4087
g61
(dp4088
g69
I1
ssg70
g4082
sg63
(lp4089
I00
asbasbasbag56
(g72
g58
NtRp4090
(dp4091
g61
(dp4092
sg70
g4061
sg63
(lp4093
g56
(g77
g58
NtRp4094
(dp4095
g61
(dp4096
sg70
g4090
sg63
(lp4097
g56
(g57
g58
NtRp4098
(dp4099
g61
(dp4100
g69
I1
ssg70
g4094
sg63
(lp4101
S'/wp/appadmin/index'
p4102
asbasbasbasbasbasbasbag56
(g72
g58
NtRp4103
(dp4104
g61
(dp4105
sg70
g3721
sg63
(lp4106
g56
(g77
g58
NtRp4107
(dp4108
g61
(dp4109
sg70
g4103
sg63
(lp4110
g56
(g57
g58
NtRp4111
(dp4112
g61
(dp4113
g69
I2
ssg70
g4107
sg63
(lp4114
g56
(g65
g58
NtRp4115
(dp4116
g61
(dp4117
g69
I1
ssg70
Nsg63
(lp4118
g56
(g72
g58
NtRp4119
(dp4120
g61
(dp4121
sg70
g4115
sg63
(lp4122
g56
(g77
g58
NtRp4123
(dp4124
g61
(dp4125
sg70
g4119
sg63
(lp4126
g56
(g57
g58
NtRp4127
(dp4128
g61
(dp4129
g69
I1
ssg70
g4123
sg63
(lp4130
g3612
(S't\x06\x00\x00\x00Errors'
tRp4131
asbasbasbag56
(g72
g58
NtRp4132
(dp4133
g61
(dp4134
sg70
g4115
sg63
(lp4135
g56
(g77
g58
NtRp4136
(dp4137
g61
(dp4138
sg70
g4132
sg63
(lp4139
g56
(g57
g58
NtRp4140
(dp4141
g61
(dp4142
g69
I1
ssg70
g4136
sg63
(lp4143
I00
asbasbasbag56
(g72
g58
NtRp4144
(dp4145
g61
(dp4146
sg70
g4115
sg63
(lp4147
g56
(g77
g58
NtRp4148
(dp4149
g61
(dp4150
sg70
g4144
sg63
(lp4151
g56
(g57
g58
NtRp4152
(dp4153
g61
(dp4154
g69
I1
ssg70
g4148
sg63
(lp4155
S'/admin/default/errors/wp'
p4156
asbasbasbasbasbasbasbag56
(g72
g58
NtRp4157
(dp4158
g61
(dp4159
sg70
g3721
sg63
(lp4160
g56
(g77
g58
NtRp4161
(dp4162
g61
(dp4163
sg70
g4157
sg63
(lp4164
g56
(g57
g58
NtRp4165
(dp4166
g61
(dp4167
g69
I2
ssg70
g4161
sg63
(lp4168
g56
(g65
g58
NtRp4169
(dp4170
g61
(dp4171
g69
I1
ssg70
Nsg63
(lp4172
g56
(g72
g58
NtRp4173
(dp4174
g61
(dp4175
sg70
g4169
sg63
(lp4176
g56
(g77
g58
NtRp4177
(dp4178
g61
(dp4179
sg70
g4173
sg63
(lp4180
g56
(g57
g58
NtRp4181
(dp4182
g61
(dp4183
g69
I1
ssg70
g4177
sg63
(lp4184
g3612
(S't\x05\x00\x00\x00About'
tRp4185
asbasbasbag56
(g72
g58
NtRp4186
(dp4187
g61
(dp4188
sg70
g4169
sg63
(lp4189
g56
(g77
g58
NtRp4190
(dp4191
g61
(dp4192
sg70
g4186
sg63
(lp4193
g56
(g57
g58
NtRp4194
(dp4195
g61
(dp4196
g69
I1
ssg70
g4190
sg63
(lp4197
I00
asbasbasbag56
(g72
g58
NtRp4198
(dp4199
g61
(dp4200
sg70
g4169
sg63
(lp4201
g56
(g77
g58
NtRp4202
(dp4203
g61
(dp4204
sg70
g4198
sg63
(lp4205
g56
(g57
g58
NtRp4206
(dp4207
g61
(dp4208
g69
I1
ssg70
g4202
sg63
(lp4209
S'/admin/default/about/wp'
p4210
asbasbasbasbasbasbasbasbasbasbasbasbasbasbasbag56
(g72
g58
NtRp4211
(dp4212
g61
(dp4213
sg70
g3580
sg63
(lp4214
g56
(g77
g58
NtRp4215
(dp4216
g61
(dp4217
sg70
g4211
sg63
(lp4218
g56
(g57
g58
NtRp4219
(dp4220
g61
(dp4221
g69
I4
ssg70
g4215
sg63
(lp4222
g56
(g65
g58
NtRp4223
(dp4224
g61
(dp4225
g69
I3
ssg70
Nsg63
(lp4226
g56
(g72
g58
NtRp4227
(dp4228
g61
(dp4229
sg70
g4223
sg63
(lp4230
g56
(g77
g58
NtRp4231
(dp4232
g61
(dp4233
sg70
g4227
sg63
(lp4234
g56
(g57
g58
NtRp4235
(dp4236
g61
(dp4237
g69
I3
ssg70
g4231
sg63
(lp4238
g3612
(S't\t\x00\x00\x00Resources'
tRp4239
asbasbasbag56
(g72
g58
NtRp4240
(dp4241
g61
(dp4242
sg70
g4223
sg63
(lp4243
g56
(g77
g58
NtRp4244
(dp4245
g61
(dp4246
sg70
g4240
sg63
(lp4247
g56
(g57
g58
NtRp4248
(dp4249
g61
(dp4250
g69
I3
ssg70
g4244
sg63
(lp4251
g99
asbasbasbag56
(g72
g58
NtRp4252
(dp4253
g61
(dp4254
sg70
g4223
sg63
(lp4255
g56
(g77
g58
NtRp4256
(dp4257
g61
(dp4258
sg70
g4252
sg63
(lp4259
g56
(g57
g58
NtRp4260
(dp4261
g61
(dp4262
g69
I3
ssg70
g4256
sg63
(lp4263
S'None'
p4264
asbasbasbag56
(g72
g58
NtRp4265
(dp4266
g61
(dp4267
sg70
g4223
sg63
(lp4268
g56
(g77
g58
NtRp4269
(dp4270
g61
(dp4271
sg70
g4265
sg63
(lp4272
g56
(g57
g58
NtRp4273
(dp4274
g61
(dp4275
g69
I3
ssg70
g4269
sg63
(lp4276
g56
(g65
g58
NtRp4277
(dp4278
g61
(dp4279
g69
I2
ssg70
Nsg63
(lp4280
g56
(g72
g58
NtRp4281
(dp4282
g61
(dp4283
sg70
g4277
sg63
(lp4284
g56
(g77
g58
NtRp4285
(dp4286
g61
(dp4287
sg70
g4281
sg63
(lp4288
g56
(g57
g58
NtRp4289
(dp4290
g61
(dp4291
g69
I2
ssg70
g4285
sg63
(lp4292
g56
(g65
g58
NtRp4293
(dp4294
g61
(dp4295
g69
I1
ssg70
Nsg63
(lp4296
g56
(g72
g58
NtRp4297
(dp4298
g61
(dp4299
sg70
g4293
sg63
(lp4300
g56
(g77
g58
NtRp4301
(dp4302
g61
(dp4303
sg70
g4297
sg63
(lp4304
g56
(g57
g58
NtRp4305
(dp4306
g61
(dp4307
g69
I1
ssg70
g4301
sg63
(lp4308
g3612
(S't\r\x00\x00\x00Documentation'
tRp4309
asbasbasbag56
(g72
g58
NtRp4310
(dp4311
g61
(dp4312
sg70
g4293
sg63
(lp4313
g56
(g77
g58
NtRp4314
(dp4315
g61
(dp4316
sg70
g4310
sg63
(lp4317
g56
(g57
g58
NtRp4318
(dp4319
g61
(dp4320
g69
I1
ssg70
g4314
sg63
(lp4321
I00
asbasbasbag56
(g72
g58
NtRp4322
(dp4323
g61
(dp4324
sg70
g4293
sg63
(lp4325
g56
(g77
g58
NtRp4326
(dp4327
g61
(dp4328
sg70
g4322
sg63
(lp4329
g56
(g57
g58
NtRp4330
(dp4331
g61
(dp4332
g69
I1
ssg70
g4326
sg63
(lp4333
S'http://www.web2py.com/book'
p4334
asbasbasbag56
(g72
g58
NtRp4335
(dp4336
g61
(dp4337
sg70
g4293
sg63
(lp4338
g56
(g77
g58
NtRp4339
(dp4340
g61
(dp4341
sg70
g4335
sg63
(lp4342
g56
(g57
g58
NtRp4343
(dp4344
g61
(dp4345
g69
I1
ssg70
g4339
sg63
(lp4346
(lp4347
(g3612
(S't\x07\x00\x00\x00Preface'
tRp4348
I00
S'http://www.web2py.com/book/default/chapter/00'
tp4349
a(g3612
(S't\x0c\x00\x00\x00Introduction'
tRp4350
I00
S'http://www.web2py.com/book/default/chapter/01'
tp4351
a(g3612
(S't\x06\x00\x00\x00Python'
tRp4352
I00
S'http://www.web2py.com/book/default/chapter/02'
tp4353
a(g3612
(S't\x08\x00\x00\x00Overview'
tRp4354
I00
S'http://www.web2py.com/book/default/chapter/03'
tp4355
a(g3612
(S's\x08\x00\x00\x00The Core'
tRp4356
I00
S'http://www.web2py.com/book/default/chapter/04'
tp4357
a(g3612
(S's\t\x00\x00\x00The Views'
tRp4358
I00
S'http://www.web2py.com/book/default/chapter/05'
tp4359
a(g3612
(S't\x08\x00\x00\x00Database'
tRp4360
I00
S'http://www.web2py.com/book/default/chapter/06'
tp4361
a(g3612
(S's\x14\x00\x00\x00Forms and Validators'
tRp4362
I00
S'http://www.web2py.com/book/default/chapter/07'
tp4363
a(g3612
(S's\x0e\x00\x00\x00Access Control'
tRp4364
I00
S'http://www.web2py.com/book/default/chapter/08'
tp4365
a(g3612
(S't\x08\x00\x00\x00Services'
tRp4366
I00
S'http://www.web2py.com/book/default/chapter/09'
tp4367
a(g3612
(S's\x0c\x00\x00\x00Ajax Recipes'
tRp4368
I00
S'http://www.web2py.com/book/default/chapter/10'
tp4369
a(g3612
(S's\x12\x00\x00\x00Deployment Recipes'
tRp4370
I00
S'http://www.web2py.com/book/default/chapter/11'
tp4371
a(g3612
(S's\r\x00\x00\x00Other Recipes'
tRp4372
I00
S'http://www.web2py.com/book/default/chapter/12'
tp4373
a(g3612
(S's\r\x00\x00\x00Buy this book'
tRp4374
I00
S'http://stores.lulu.com/web2py'
tp4375
aasbasbasbasbasbasbasbag56
(g72
g58
NtRp4376
(dp4377
g61
(dp4378
sg70
g4277
sg63
(lp4379
g56
(g77
g58
NtRp4380
(dp4381
g61
(dp4382
sg70
g4376
sg63
(lp4383
g56
(g57
g58
NtRp4384
(dp4385
g61
(dp4386
g69
I2
ssg70
g4380
sg63
(lp4387
g56
(g65
g58
NtRp4388
(dp4389
g61
(dp4390
g69
I1
ssg70
Nsg63
(lp4391
g56
(g72
g58
NtRp4392
(dp4393
g61
(dp4394
sg70
g4388
sg63
(lp4395
g56
(g77
g58
NtRp4396
(dp4397
g61
(dp4398
sg70
g4392
sg63
(lp4399
g56
(g57
g58
NtRp4400
(dp4401
g61
(dp4402
g69
I1
ssg70
g4396
sg63
(lp4403
g3612
(S't\t\x00\x00\x00Community'
tRp4404
asbasbasbag56
(g72
g58
NtRp4405
(dp4406
g61
(dp4407
sg70
g4388
sg63
(lp4408
g56
(g77
g58
NtRp4409
(dp4410
g61
(dp4411
sg70
g4405
sg63
(lp4412
g56
(g57
g58
NtRp4413
(dp4414
g61
(dp4415
g69
I1
ssg70
g4409
sg63
(lp4416
I00
asbasbasbag56
(g72
g58
NtRp4417
(dp4418
g61
(dp4419
sg70
g4388
sg63
(lp4420
g56
(g77
g58
NtRp4421
(dp4422
g61
(dp4423
sg70
g4417
sg63
(lp4424
g56
(g57
g58
NtRp4425
(dp4426
g61
(dp4427
g69
I1
ssg70
g4421
sg63
(lp4428
Nasbasbasbag56
(g72
g58
NtRp4429
(dp4430
g61
(dp4431
sg70
g4388
sg63
(lp4432
g56
(g77
g58
NtRp4433
(dp4434
g61
(dp4435
sg70
g4429
sg63
(lp4436
g56
(g57
g58
NtRp4437
(dp4438
g61
(dp4439
g69
I1
ssg70
g4433
sg63
(lp4440
(lp4441
(g3612
(S't\x06\x00\x00\x00Groups'
tRp4442
I00
S'http://www.web2py.com/examples/default/usergroups'
tp4443
a(g3612
(S't\x07\x00\x00\x00Twitter'
tRp4444
I00
S'http://twitter.com/web2py'
tp4445
a(g3612
(S's\t\x00\x00\x00Live chat'
tRp4446
I00
S'http://mibbit.com/?channel=%23web2py&server=irc.mibbit.net'
tp4447
a(g3612
(S's\n\x00\x00\x00User Voice'
tRp4448
I00
S'http://web2py.uservoice.com/'
tp4449
aasbasbasbasbasbasbasbag56
(g72
g58
NtRp4450
(dp4451
g61
(dp4452
sg70
g4277
sg63
(lp4453
g56
(g77
g58
NtRp4454
(dp4455
g61
(dp4456
sg70
g4450
sg63
(lp4457
g56
(g57
g58
NtRp4458
(dp4459
g61
(dp4460
g69
I2
ssg70
g4454
sg63
(lp4461
g56
(g65
g58
NtRp4462
(dp4463
g61
(dp4464
g69
I1
ssg70
Nsg63
(lp4465
g56
(g72
g58
NtRp4466
(dp4467
g61
(dp4468
sg70
g4462
sg63
(lp4469
g56
(g77
g58
NtRp4470
(dp4471
g61
(dp4472
sg70
g4466
sg63
(lp4473
g56
(g57
g58
NtRp4474
(dp4475
g61
(dp4476
g69
I1
ssg70
g4470
sg63
(lp4477
g3612
(S't\x06\x00\x00\x00Web2py'
tRp4478
asbasbasbag56
(g72
g58
NtRp4479
(dp4480
g61
(dp4481
sg70
g4462
sg63
(lp4482
g56
(g77
g58
NtRp4483
(dp4484
g61
(dp4485
sg70
g4479
sg63
(lp4486
g56
(g57
g58
NtRp4487
(dp4488
g61
(dp4489
g69
I1
ssg70
g4483
sg63
(lp4490
I00
asbasbasbag56
(g72
g58
NtRp4491
(dp4492
g61
(dp4493
sg70
g4462
sg63
(lp4494
g56
(g77
g58
NtRp4495
(dp4496
g61
(dp4497
sg70
g4491
sg63
(lp4498
g56
(g57
g58
NtRp4499
(dp4500
g61
(dp4501
g69
I1
ssg70
g4495
sg63
(lp4502
S'http://www.web2py.com'
p4503
asbasbasbag56
(g72
g58
NtRp4504
(dp4505
g61
(dp4506
sg70
g4462
sg63
(lp4507
g56
(g77
g58
NtRp4508
(dp4509
g61
(dp4510
sg70
g4504
sg63
(lp4511
g56
(g57
g58
NtRp4512
(dp4513
g61
(dp4514
g69
I1
ssg70
g4508
sg63
(lp4515
(lp4516
(g3612
(S't\x08\x00\x00\x00Download'
tRp4517
I00
S'http://www.web2py.com/examples/default/download'
tp4518
a(g3612
(S't\x07\x00\x00\x00Support'
tRp4519
I00
S'http://www.web2py.com/examples/default/support'
tp4520
a(g3612
(S's\x0e\x00\x00\x00Quick Examples'
tRp4521
I00
S'http://web2py.com/examples/default/examples'
tp4522
a(g3612
(S't\x03\x00\x00\x00FAQ'
tRp4523
I00
S'http://web2py.com/AlterEgo'
tp4524
a(g3612
(S's\x11\x00\x00\x00Free Applications'
tRp4525
I00
S'http://web2py.com/appliances'
tp4526
a(g3612
(S't\x07\x00\x00\x00Plugins'
tRp4527
I00
S'http://web2py.com/plugins'
tp4528
a(g3612
(S't\x07\x00\x00\x00Recipes'
tRp4529
I00
S'http://web2pyslices.com/'
tp4530
a(g3612
(S't\x04\x00\x00\x00Demo'
tRp4531
I00
S'http://web2py.com/demo_admin'
tp4532
a(g3612
(S't\x08\x00\x00\x00Semantic'
tRp4533
I00
S'http://web2py.com/semantic'
tp4534
a(g3612
(S't\x07\x00\x00\x00Layouts'
tRp4535
I00
S'http://web2py.com/layouts'
tp4536
a(g3612
(S't\x06\x00\x00\x00Videos'
tRp4537
I00
S'http://www.web2py.com/examples/default/videos/'
tp4538
aasbasbasbasbasbasbasbasbasbasbasbasbasbasbasbasbasbasbasbag56
(g72
g58
NtRp4539
(dp4540
g61
(dp4541
sg70
g3144
sg63
(lp4542
g56
(g77
g58
NtRp4543
(dp4544
g61
(dp4545
g81
g82
ssg70
g4539
sg63
(lp4546
S'meta'
p4547
asbag56
(g77
g58
NtRp4548
(dp4549
g61
(dp4550
g88
g89
ssg70
g4539
sg63
(lp4551
S':'
asbag56
(g77
g58
NtRp4552
(dp4553
g61
(dp4554
sg70
g4539
sg63
(lp4555
g56
(g57
g58
NtRp4556
(dp4557
g61
(dp4558
g69
I5
ssg70
g4552
sg63
(lp4559
g56
(g65
g58
NtRp4560
(dp4561
g61
(dp4562
g69
I4
ssg70
Nsg63
(lp4563
g56
(g72
g58
NtRp4564
(dp4565
g61
(dp4566
sg70
g4560
sg63
(lp4567
g56
(g77
g58
NtRp4568
(dp4569
g61
(dp4570
g81
g82
ssg70
g4564
sg63
(lp4571
S'author'
p4572
asbag56
(g77
g58
NtRp4573
(dp4574
g61
(dp4575
g88
g89
ssg70
g4564
sg63
(lp4576
S':'
asbag56
(g77
g58
NtRp4577
(dp4578
g61
(dp4579
sg70
g4564
sg63
(lp4580
g56
(g57
g58
NtRp4581
(dp4582
g61
(dp4583
g69
I4
ssg70
g4577
sg63
(lp4584
S'you'
p4585
asbasbasbag56
(g72
g58
NtRp4586
(dp4587
g61
(dp4588
sg70
g4560
sg63
(lp4589
g56
(g77
g58
NtRp4590
(dp4591
g61
(dp4592
g81
g82
ssg70
g4586
sg63
(lp4593
S'copyright'
p4594
asbag56
(g77
g58
NtRp4595
(dp4596
g61
(dp4597
g88
g89
ssg70
g4586
sg63
(lp4598
S':'
asbag56
(g77
g58
NtRp4599
(dp4600
g61
(dp4601
sg70
g4586
sg63
(lp4602
g56
(g57
g58
NtRp4603
(dp4604
g61
(dp4605
g69
I4
ssg70
g4599
sg63
(lp4606
S'Copyright 2007-2010'
p4607
asbasbasbag56
(g72
g58
NtRp4608
(dp4609
g61
(dp4610
sg70
g4560
sg63
(lp4611
g56
(g77
g58
NtRp4612
(dp4613
g61
(dp4614
g81
g82
ssg70
g4608
sg63
(lp4615
S'description'
p4616
asbag56
(g77
g58
NtRp4617
(dp4618
g61
(dp4619
g88
g89
ssg70
g4608
sg63
(lp4620
S':'
asbag56
(g77
g58
NtRp4621
(dp4622
g61
(dp4623
sg70
g4608
sg63
(lp4624
g56
(g57
g58
NtRp4625
(dp4626
g61
(dp4627
g69
I4
ssg70
g4621
sg63
(lp4628
S'Free and open source full-stack enterprise framework for agile development of fast, scalable, secure and portable database-driven web-based applications. Written and programmable in Python'
p4629
asbasbasbag56
(g72
g58
NtRp4630
(dp4631
g61
(dp4632
sg70
g4560
sg63
(lp4633
g56
(g77
g58
NtRp4634
(dp4635
g61
(dp4636
g81
g82
ssg70
g4630
sg63
(lp4637
S'generator'
p4638
asbag56
(g77
g58
NtRp4639
(dp4640
g61
(dp4641
g88
g89
ssg70
g4630
sg63
(lp4642
S':'
asbag56
(g77
g58
NtRp4643
(dp4644
g61
(dp4645
sg70
g4630
sg63
(lp4646
g56
(g57
g58
NtRp4647
(dp4648
g61
(dp4649
g69
I4
ssg70
g4643
sg63
(lp4650
S'Web2py Enterprise Framework'
p4651
asbasbasbag56
(g72
g58
NtRp4652
(dp4653
g61
(dp4654
sg70
g4560
sg63
(lp4655
g56
(g77
g58
NtRp4656
(dp4657
g61
(dp4658
g81
g82
ssg70
g4652
sg63
(lp4659
S'keywords'
p4660
asbag56
(g77
g58
NtRp4661
(dp4662
g61
(dp4663
g88
g89
ssg70
g4652
sg63
(lp4664
S':'
asbag56
(g77
g58
NtRp4665
(dp4666
g61
(dp4667
sg70
g4652
sg63
(lp4668
g56
(g57
g58
NtRp4669
(dp4670
g61
(dp4671
g69
I4
ssg70
g4665
sg63
(lp4672
S'web2py, python, framework'
p4673
asbasbasbasbasbasbasbag56
(g72
g58
NtRp4674
(dp4675
g61
(dp4676
sg70
g3144
sg63
(lp4677
g56
(g77
g58
NtRp4678
(dp4679
g61
(dp4680
g81
g82
ssg70
g4674
sg63
(lp4681
S'postprocessing'
p4682
asbag56
(g77
g58
NtRp4683
(dp4684
g61
(dp4685
g88
g89
ssg70
g4674
sg63
(lp4686
S':'
asbag56
(g77
g58
NtRp4687
(dp4688
g61
(dp4689
sg70
g4674
sg63
(lp4690
g56
(g57
g58
NtRp4691
(dp4692
g61
(dp4693
g69
I5
ssg70
g4687
sg63
(lp4694
g56
(g65
g58
NtRp4695
(dp4696
g61
(dp4697
g69
I4
ssg70
Nsg63
(lp4698
sbasbasbasbag56
(g72
g58
NtRp4699
(dp4700
g61
(dp4701
sg70
g3144
sg63
(lp4702
g56
(g77
g58
NtRp4703
(dp4704
g61
(dp4705
g81
g82
ssg70
g4699
sg63
(lp4706
S'session_file'
p4707
asbag56
(g77
g58
NtRp4708
(dp4709
g61
(dp4710
g88
g89
ssg70
g4699
sg63
(lp4711
S':'
asbag56
(g77
g58
NtRp4712
(dp4713
g61
(dp4714
sg70
g4699
sg63
(lp4715
g56
(g57
g58
NtRp4716
(dp4717
g61
(dp4718
g69
I5
ssg70
g4712
sg63
(lp4719
S"<open file '/Users/schultzc/Downloads/web2py/applications/wp/sessions/127.0.0.1-4ae5dea5-ff1f-4183-9dd8-91bc42c0702b', mode 'rb+' at 0x1064c0150>"
p4720
asbasbasbag56
(g72
g58
NtRp4721
(dp4722
g61
(dp4723
sg70
g3144
sg63
(lp4724
g56
(g77
g58
NtRp4725
(dp4726
g61
(dp4727
g81
g82
ssg70
g4721
sg63
(lp4728
S'session_filename'
p4729
asbag56
(g77
g58
NtRp4730
(dp4731
g61
(dp4732
g88
g89
ssg70
g4721
sg63
(lp4733
S':'
asbag56
(g77
g58
NtRp4734
(dp4735
g61
(dp4736
sg70
g4721
sg63
(lp4737
g56
(g57
g58
NtRp4738
(dp4739
g61
(dp4740
g69
I5
ssg70
g4734
sg63
(lp4741
S'/Users/schultzc/Downloads/web2py/applications/wp/sessions/127.0.0.1-4ae5dea5-ff1f-4183-9dd8-91bc42c0702b'
p4742
asbasbasbag56
(g72
g58
NtRp4743
(dp4744
g61
(dp4745
sg70
g3144
sg63
(lp4746
g56
(g77
g58
NtRp4747
(dp4748
g61
(dp4749
g81
g82
ssg70
g4743
sg63
(lp4750
S'session_id'
p4751
asbag56
(g77
g58
NtRp4752
(dp4753
g61
(dp4754
g88
g89
ssg70
g4743
sg63
(lp4755
S':'
asbag56
(g77
g58
NtRp4756
(dp4757
g61
(dp4758
sg70
g4743
sg63
(lp4759
g56
(g57
g58
NtRp4760
(dp4761
g61
(dp4762
g69
I5
ssg70
g4756
sg63
(lp4763
S'127.0.0.1-4ae5dea5-ff1f-4183-9dd8-91bc42c0702b'
p4764
asbasbasbag56
(g72
g58
NtRp4765
(dp4766
g61
(dp4767
sg70
g3144
sg63
(lp4768
g56
(g77
g58
NtRp4769
(dp4770
g61
(dp4771
g81
g82
ssg70
g4765
sg63
(lp4772
S'session_id_name'
p4773
asbag56
(g77
g58
NtRp4774
(dp4775
g61
(dp4776
g88
g89
ssg70
g4765
sg63
(lp4777
S':'
asbag56
(g77
g58
NtRp4778
(dp4779
g61
(dp4780
sg70
g4765
sg63
(lp4781
g56
(g57
g58
NtRp4782
(dp4783
g61
(dp4784
g69
I5
ssg70
g4778
sg63
(lp4785
g3201
asbasbasbag56
(g72
g58
NtRp4786
(dp4787
g61
(dp4788
sg70
g3144
sg63
(lp4789
g56
(g77
g58
NtRp4790
(dp4791
g61
(dp4792
g81
g82
ssg70
g4786
sg63
(lp4793
S'session_locked'
p4794
asbag56
(g77
g58
NtRp4795
(dp4796
g61
(dp4797
g88
g89
ssg70
g4786
sg63
(lp4798
S':'
asbag56
(g77
g58
NtRp4799
(dp4800
g61
(dp4801
sg70
g4786
sg63
(lp4802
g56
(g57
g58
NtRp4803
(dp4804
g61
(dp4805
g69
I5
ssg70
g4799
sg63
(lp4806
g1699
asbasbasbag56
(g72
g58
NtRp4807
(dp4808
g61
(dp4809
sg70
g3144
sg63
(lp4810
g56
(g77
g58
NtRp4811
(dp4812
g61
(dp4813
g81
g82
ssg70
g4807
sg63
(lp4814
S'session_new'
p4815
asbag56
(g77
g58
NtRp4816
(dp4817
g61
(dp4818
g88
g89
ssg70
g4807
sg63
(lp4819
S':'
asbag56
(g77
g58
NtRp4820
(dp4821
g61
(dp4822
sg70
g4807
sg63
(lp4823
g56
(g57
g58
NtRp4824
(dp4825
g61
(dp4826
g69
I5
ssg70
g4820
sg63
(lp4827
g99
asbasbasbag56
(g72
g58
NtRp4828
(dp4829
g61
(dp4830
sg70
g3144
sg63
(lp4831
g56
(g77
g58
NtRp4832
(dp4833
g61
(dp4834
g81
g82
ssg70
g4828
sg63
(lp4835
S'status'
p4836
asbag56
(g77
g58
NtRp4837
(dp4838
g61
(dp4839
g88
g89
ssg70
g4828
sg63
(lp4840
S':'
asbag56
(g77
g58
NtRp4841
(dp4842
g61
(dp4843
sg70
g4828
sg63
(lp4844
g56
(g57
g58
NtRp4845
(dp4846
g61
(dp4847
g69
I5
ssg70
g4841
sg63
(lp4848
S'200'
p4849
asbasbasbag56
(g72
g58
NtRp4850
(dp4851
g61
(dp4852
sg70
g3144
sg63
(lp4853
g56
(g77
g58
NtRp4854
(dp4855
g61
(dp4856
g81
g82
ssg70
g4850
sg63
(lp4857
S'subtitle'
p4858
asbag56
(g77
g58
NtRp4859
(dp4860
g61
(dp4861
g88
g89
ssg70
g4850
sg63
(lp4862
S':'
asbag56
(g77
g58
NtRp4863
(dp4864
g61
(dp4865
sg70
g4850
sg63
(lp4866
g56
(g57
g58
NtRp4867
(dp4868
g61
(dp4869
g69
I5
ssg70
g4863
sg63
(lp4870
g3612
(S's\r\x00\x00\x00customize me!'
tRp4871
asbasbasbag56
(g72
g58
NtRp4872
(dp4873
g61
(dp4874
sg70
g3144
sg63
(lp4875
g56
(g77
g58
NtRp4876
(dp4877
g61
(dp4878
g81
g82
ssg70
g4872
sg63
(lp4879
S'title'
p4880
asbag56
(g77
g58
NtRp4881
(dp4882
g61
(dp4883
g88
g89
ssg70
g4872
sg63
(lp4884
S':'
asbag56
(g77
g58
NtRp4885
(dp4886
g61
(dp4887
sg70
g4872
sg63
(lp4888
g56
(g57
g58
NtRp4889
(dp4890
g61
(dp4891
g69
I5
ssg70
g4885
sg63
(lp4892
g121
asbasbasbag56
(g72
g58
NtRp4893
(dp4894
g61
(dp4895
sg70
g3144
sg63
(lp4896
g56
(g77
g58
NtRp4897
(dp4898
g61
(dp4899
g81
g82
ssg70
g4893
sg63
(lp4900
g2132
asbag56
(g77
g58
NtRp4901
(dp4902
g61
(dp4903
g88
g89
ssg70
g4893
sg63
(lp4904
S':'
asbag56
(g77
g58
NtRp4905
(dp4906
g61
(dp4907
sg70
g4893
sg63
(lp4908
g56
(g57
g58
NtRp4909
(dp4910
g61
(dp4911
g69
I5
ssg70
g4905
sg63
(lp4912
g2145
asbasbasbag56
(g72
g58
NtRp4913
(dp4914
g61
(dp4915
sg70
g3144
sg63
(lp4916
g56
(g77
g58
NtRp4917
(dp4918
g61
(dp4919
g81
g82
ssg70
g4913
sg63
(lp4920
S'view'
p4921
asbag56
(g77
g58
NtRp4922
(dp4923
g61
(dp4924
g88
g89
ssg70
g4913
sg63
(lp4925
S':'
asbag56
(g77
g58
NtRp4926
(dp4927
g61
(dp4928
sg70
g4913
sg63
(lp4929
g56
(g57
g58
NtRp4930
(dp4931
g61
(dp4932
g69
I5
ssg70
g4926
sg63
(lp4933
S'default/submit.html'
p4934
asbasbasbasbasbsS'locals'
p4935
(dp4936
S'form'
p4937
S'<gluon.sqlhtml.SQLFORM object>'
p4938
sssS'traceback'
p4939
S'Traceback (most recent call last):\n  File "/Users/schultzc/Downloads/web2py/gluon/restricted.py", line 192, in restricted\n    exec ccode in environment\n  File "/Users/schultzc/Downloads/web2py/applications/wp/controllers/default.py", line 89, in <module>\n  File "/Users/schultzc/Downloads/web2py/gluon/globals.py", line 137, in <lambda>\n    self._caller = lambda f: f()\n  File "/Users/schultzc/Downloads/web2py/applications/wp/controllers/default.py", line 19, in submit\n    p=db.image.insert(pub_date=datetime.datetime.now())\nNameError: global name \'datetime\' is not defined\n'
p4940
s.