(dp1
S'output'
p2
S''
sS'layer'
p3
S'/Users/schultzc/workspace/wherespuppet/web2py/applications/wp/controllers/default.py'
p4
sS'code'
p5
S'# -*- coding: utf-8 -*-\n# this file is released under public domain and you can use without limitations\n\n#########################################################################\n## This is a samples controller\n## - index is the default action of any application\n## - user is required for authentication and authorization\n## - download is for downloading files uploaded in the db (does streaming)\n## - call exposes all registered services (none by default)\n#########################################################################\nimport datetime\n\n\ndef index():\n    images = db().select(db.image.ALL, orderby=db.image.title)\n    return dict(images=images)\n    \ndef submit():\n    latitude = request.cookies.posLat\n    form = SQLFORM(db.image, submit_button=\'Submit Puppet\', _id = "submission",formstyle="divs")\n    \n    if form.accepts(request.vars, session):\n        response.flash = \'form accepted\'\n    elif form.errors:\n        response.flash = \'form has errors\'\n    else:\n        response.flash = \'please fill out the form\'\n    return dict(form=form,latitude=latitude)\n   \ndef show():\n    image = db(db.image.id==request.args(0)).select().first()\n    form = SQLFORM(db.comment)\n    form.vars.image_id = image.id\n    if form.accepts(request.vars, session):\n        response.flash = \'your comment is posted\'\n    comments = db(db.comment.image_id==image.id).select()\n    return dict(image=image, comments=comments, form=form)\n\ndef user():\n    """\n    exposes:\n    http://..../[app]/default/user/login\n    http://..../[app]/default/user/logout\n    http://..../[app]/default/user/register\n    http://..../[app]/default/user/profile\n    http://..../[app]/default/user/retrieve_password\n    http://..../[app]/default/user/change_password\n    use @auth.requires_login()\n        @auth.requires_membership(\'group name\')\n        @auth.requires_permission(\'read\',\'table name\',record_id)\n    to decorate functions that need access control\n    """\n    return dict(form=auth())\n\n\ndef download():\n    """\n    allows downloading of uploaded files\n    http://..../[app]/default/download/[filename]\n    """\n    return response.download(request,db)\n\n\ndef call():\n    """\n    exposes services. for example:\n    http://..../[app]/default/call/jsonrpc\n    decorate with @services.jsonrpc the functions to expose\n    supports xml, json, xmlrpc, jsonrpc, amfrpc, rss, csv\n    """\n    return service()\n\n\'\'\'\n@auth.requires_signature()\ndef data():\n    """\n    http://..../[app]/default/data/tables\n    http://..../[app]/default/data/create/[table]\n    http://..../[app]/default/data/read/[table]/[id]\n    http://..../[app]/default/data/update/[table]/[id]\n    http://..../[app]/default/data/delete/[table]/[id[\n    http://..../[app]/default/data/select/[table]\n    http://..../[app]/default/data/search/[table]\n    but URLs bust be signed, i.e. linked with\n      A(\'table\',_href=URL(\'data/tables\',user_signature=True))\n    or with the signed load operator\n      LOAD(\'default\',\'data.load\',args=\'tables\',ajax=True,user_signature=True)\n    """\n    return dict(form=crud())\n\'\'\'\n\nresponse._vars=response._caller(submit)\n'
p6
sS'snapshot'
p7
(dp8
S'exception'
p9
(dp10
S'__hash__'
p11
S"<method-wrapper '__hash__' of exceptions.AttributeError object>"
p12
sS'__setattr__'
p13
S"<method-wrapper '__setattr__' of exceptions.AttributeError object>"
p14
sS'__reduce_ex__'
p15
S'<built-in method __reduce_ex__ of exceptions.AttributeError object>'
p16
sS'__getslice__'
p17
S"<method-wrapper '__getslice__' of exceptions.AttributeError object>"
p18
sS'__getitem__'
p19
S"<method-wrapper '__getitem__' of exceptions.AttributeError object>"
p20
sS'__setstate__'
p21
S'<built-in method __setstate__ of exceptions.AttributeError object>'
p22
sS'args'
p23
S'("\'SimpleCookie\' object has no attribute \'posLat\'",)'
p24
sS'__reduce__'
p25
S'<built-in method __reduce__ of exceptions.AttributeError object>'
p26
sS'__str__'
p27
S"<method-wrapper '__str__' of exceptions.AttributeError object>"
p28
sS'__format__'
p29
S'<built-in method __format__ of exceptions.AttributeError object>'
p30
sS'__getattribute__'
p31
S"<method-wrapper '__getattribute__' of exceptions.AttributeError object>"
p32
sS'__class__'
p33
S"<type 'exceptions.AttributeError'>"
p34
sS'__unicode__'
p35
S'<built-in method __unicode__ of exceptions.AttributeError object>'
p36
sS'__delattr__'
p37
S"<method-wrapper '__delattr__' of exceptions.AttributeError object>"
p38
sS'__subclasshook__'
p39
S'<built-in method __subclasshook__ of type object>'
p40
sS'__repr__'
p41
S"<method-wrapper '__repr__' of exceptions.AttributeError object>"
p42
sS'__dict__'
p43
S'{}'
p44
sS'__sizeof__'
p45
S'<built-in method __sizeof__ of exceptions.AttributeError object>'
p46
sS'__doc__'
p47
S"'Attribute not found.'"
p48
sS'__init__'
p49
S"<method-wrapper '__init__' of exceptions.AttributeError object>"
p50
sS'__new__'
p51
S'<built-in method __new__ of type object>'
p52
ssS'evalue'
p53
S"'SimpleCookie' object has no attribute 'posLat'"
p54
sS'request'
p55
ccopy_reg
_reconstructor
p56
(cgluon.html
BEAUTIFY
p57
c__builtin__
object
p58
NtRp59
(dp60
S'attributes'
p61
(dp62
sS'components'
p63
(lp64
g56
(cgluon.html
TABLE
p65
g58
NtRp66
(dp67
g61
(dp68
S'level'
p69
I5
ssS'parent'
p70
Nsg63
(lp71
g56
(cgluon.html
TR
p72
g58
NtRp73
(dp74
g61
(dp75
sg70
g66
sg63
(lp76
g56
(cgluon.html
TD
p77
g58
NtRp78
(dp79
g61
(dp80
S'_style'
p81
S'font-weight:bold;'
p82
ssg70
g73
sg63
(lp83
S'ajax'
p84
asbag56
(g77
g58
NtRp85
(dp86
g61
(dp87
S'_valign'
p88
S'top'
p89
ssg70
g73
sg63
(lp90
S':'
asbag56
(g77
g58
NtRp91
(dp92
g61
(dp93
sg70
g73
sg63
(lp94
g56
(g57
g58
NtRp95
(dp96
g61
(dp97
g69
I5
ssg70
g91
sg63
(lp98
S'False'
p99
asbasbasbag56
(g72
g58
NtRp100
(dp101
g61
(dp102
sg70
g66
sg63
(lp103
g56
(g77
g58
NtRp104
(dp105
g61
(dp106
g81
g82
ssg70
g100
sg63
(lp107
S'application'
p108
asbag56
(g77
g58
NtRp109
(dp110
g61
(dp111
g88
g89
ssg70
g100
sg63
(lp112
S':'
asbag56
(g77
g58
NtRp113
(dp114
g61
(dp115
sg70
g100
sg63
(lp116
g56
(g57
g58
NtRp117
(dp118
g61
(dp119
g69
I5
ssg70
g113
sg63
(lp120
S'wp'
p121
asbasbasbag56
(g72
g58
NtRp122
(dp123
g61
(dp124
sg70
g66
sg63
(lp125
g56
(g77
g58
NtRp126
(dp127
g61
(dp128
g81
g82
ssg70
g122
sg63
(lp129
g23
asbag56
(g77
g58
NtRp130
(dp131
g61
(dp132
g88
g89
ssg70
g122
sg63
(lp133
S':'
asbag56
(g77
g58
NtRp134
(dp135
g61
(dp136
sg70
g122
sg63
(lp137
g56
(g57
g58
NtRp138
(dp139
g61
(dp140
g69
I5
ssg70
g134
sg63
(lp141
g56
(g65
g58
NtRp142
(dp143
g61
(dp144
g69
I4
ssg70
Nsg63
(lp145
sbasbasbasbag56
(g72
g58
NtRp146
(dp147
g61
(dp148
sg70
g66
sg63
(lp149
g56
(g77
g58
NtRp150
(dp151
g61
(dp152
g81
g82
ssg70
g146
sg63
(lp153
S'body'
p154
asbag56
(g77
g58
NtRp155
(dp156
g61
(dp157
g88
g89
ssg70
g146
sg63
(lp158
S':'
asbag56
(g77
g58
NtRp159
(dp160
g61
(dp161
sg70
g146
sg63
(lp162
g56
(g57
g58
NtRp163
(dp164
g61
(dp165
g69
I5
ssg70
g159
sg63
(lp166
S'<cStringIO.StringO object at 0x1075fe458>'
p167
asbasbasbag56
(g72
g58
NtRp168
(dp169
g61
(dp170
sg70
g66
sg63
(lp171
g56
(g77
g58
NtRp172
(dp173
g61
(dp174
g81
g82
ssg70
g168
sg63
(lp175
S'client'
p176
asbag56
(g77
g58
NtRp177
(dp178
g61
(dp179
g88
g89
ssg70
g168
sg63
(lp180
S':'
asbag56
(g77
g58
NtRp181
(dp182
g61
(dp183
sg70
g168
sg63
(lp184
g56
(g57
g58
NtRp185
(dp186
g61
(dp187
g69
I5
ssg70
g181
sg63
(lp188
S'127.0.0.1'
p189
asbasbasbag56
(g72
g58
NtRp190
(dp191
g61
(dp192
sg70
g66
sg63
(lp193
g56
(g77
g58
NtRp194
(dp195
g61
(dp196
g81
g82
ssg70
g190
sg63
(lp197
S'controller'
p198
asbag56
(g77
g58
NtRp199
(dp200
g61
(dp201
g88
g89
ssg70
g190
sg63
(lp202
S':'
asbag56
(g77
g58
NtRp203
(dp204
g61
(dp205
sg70
g190
sg63
(lp206
g56
(g57
g58
NtRp207
(dp208
g61
(dp209
g69
I5
ssg70
g203
sg63
(lp210
S'default'
p211
asbasbasbag56
(g72
g58
NtRp212
(dp213
g61
(dp214
sg70
g66
sg63
(lp215
g56
(g77
g58
NtRp216
(dp217
g61
(dp218
g81
g82
ssg70
g212
sg63
(lp219
S'cookies'
p220
asbag56
(g77
g58
NtRp221
(dp222
g61
(dp223
g88
g89
ssg70
g212
sg63
(lp224
S':'
asbag56
(g77
g58
NtRp225
(dp226
g61
(dp227
sg70
g212
sg63
(lp228
g56
(g57
g58
NtRp229
(dp230
g61
(dp231
g69
I5
ssg70
g225
sg63
(lp232
g56
(g65
g58
NtRp233
(dp234
g61
(dp235
g69
I4
ssg70
Nsg63
(lp236
g56
(g72
g58
NtRp237
(dp238
g61
(dp239
sg70
g233
sg63
(lp240
g56
(g77
g58
NtRp241
(dp242
g61
(dp243
g81
g82
ssg70
g237
sg63
(lp244
S'posAccuracy'
p245
asbag56
(g77
g58
NtRp246
(dp247
g61
(dp248
g88
g89
ssg70
g237
sg63
(lp249
S':'
asbag56
(g77
g58
NtRp250
(dp251
g61
(dp252
sg70
g237
sg63
(lp253
g56
(g57
g58
NtRp254
(dp255
g61
(dp256
g69
I4
ssg70
g250
sg63
(lp257
g56
(g65
g58
NtRp258
(dp259
g61
(dp260
g69
I3
ssg70
Nsg63
(lp261
g56
(g72
g58
NtRp262
(dp263
g61
(dp264
sg70
g258
sg63
(lp265
g56
(g77
g58
NtRp266
(dp267
g61
(dp268
g81
g82
ssg70
g262
sg63
(lp269
S'comment'
p270
asbag56
(g77
g58
NtRp271
(dp272
g61
(dp273
g88
g89
ssg70
g262
sg63
(lp274
S':'
asbag56
(g77
g58
NtRp275
(dp276
g61
(dp277
sg70
g262
sg63
(lp278
g56
(g57
g58
NtRp279
(dp280
g61
(dp281
g69
I3
ssg70
g275
sg63
(lp282
S''
asbasbasbag56
(g72
g58
NtRp283
(dp284
g61
(dp285
sg70
g258
sg63
(lp286
g56
(g77
g58
NtRp287
(dp288
g61
(dp289
g81
g82
ssg70
g283
sg63
(lp290
S'domain'
p291
asbag56
(g77
g58
NtRp292
(dp293
g61
(dp294
g88
g89
ssg70
g283
sg63
(lp295
S':'
asbag56
(g77
g58
NtRp296
(dp297
g61
(dp298
sg70
g283
sg63
(lp299
g56
(g57
g58
NtRp300
(dp301
g61
(dp302
g69
I3
ssg70
g296
sg63
(lp303
S''
asbasbasbag56
(g72
g58
NtRp304
(dp305
g61
(dp306
sg70
g258
sg63
(lp307
g56
(g77
g58
NtRp308
(dp309
g61
(dp310
g81
g82
ssg70
g304
sg63
(lp311
S'expires'
p312
asbag56
(g77
g58
NtRp313
(dp314
g61
(dp315
g88
g89
ssg70
g304
sg63
(lp316
S':'
asbag56
(g77
g58
NtRp317
(dp318
g61
(dp319
sg70
g304
sg63
(lp320
g56
(g57
g58
NtRp321
(dp322
g61
(dp323
g69
I3
ssg70
g317
sg63
(lp324
S''
asbasbasbag56
(g72
g58
NtRp325
(dp326
g61
(dp327
sg70
g258
sg63
(lp328
g56
(g77
g58
NtRp329
(dp330
g61
(dp331
g81
g82
ssg70
g325
sg63
(lp332
S'httponly'
p333
asbag56
(g77
g58
NtRp334
(dp335
g61
(dp336
g88
g89
ssg70
g325
sg63
(lp337
S':'
asbag56
(g77
g58
NtRp338
(dp339
g61
(dp340
sg70
g325
sg63
(lp341
g56
(g57
g58
NtRp342
(dp343
g61
(dp344
g69
I3
ssg70
g338
sg63
(lp345
S''
asbasbasbag56
(g72
g58
NtRp346
(dp347
g61
(dp348
sg70
g258
sg63
(lp349
g56
(g77
g58
NtRp350
(dp351
g61
(dp352
g81
g82
ssg70
g346
sg63
(lp353
S'max-age'
p354
asbag56
(g77
g58
NtRp355
(dp356
g61
(dp357
g88
g89
ssg70
g346
sg63
(lp358
S':'
asbag56
(g77
g58
NtRp359
(dp360
g61
(dp361
sg70
g346
sg63
(lp362
g56
(g57
g58
NtRp363
(dp364
g61
(dp365
g69
I3
ssg70
g359
sg63
(lp366
S''
asbasbasbag56
(g72
g58
NtRp367
(dp368
g61
(dp369
sg70
g258
sg63
(lp370
g56
(g77
g58
NtRp371
(dp372
g61
(dp373
g81
g82
ssg70
g367
sg63
(lp374
S'path'
p375
asbag56
(g77
g58
NtRp376
(dp377
g61
(dp378
g88
g89
ssg70
g367
sg63
(lp379
S':'
asbag56
(g77
g58
NtRp380
(dp381
g61
(dp382
sg70
g367
sg63
(lp383
g56
(g57
g58
NtRp384
(dp385
g61
(dp386
g69
I3
ssg70
g380
sg63
(lp387
S''
asbasbasbag56
(g72
g58
NtRp388
(dp389
g61
(dp390
sg70
g258
sg63
(lp391
g56
(g77
g58
NtRp392
(dp393
g61
(dp394
g81
g82
ssg70
g388
sg63
(lp395
S'secure'
p396
asbag56
(g77
g58
NtRp397
(dp398
g61
(dp399
g88
g89
ssg70
g388
sg63
(lp400
S':'
asbag56
(g77
g58
NtRp401
(dp402
g61
(dp403
sg70
g388
sg63
(lp404
g56
(g57
g58
NtRp405
(dp406
g61
(dp407
g69
I3
ssg70
g401
sg63
(lp408
S''
asbasbasbag56
(g72
g58
NtRp409
(dp410
g61
(dp411
sg70
g258
sg63
(lp412
g56
(g77
g58
NtRp413
(dp414
g61
(dp415
g81
g82
ssg70
g409
sg63
(lp416
S'version'
p417
asbag56
(g77
g58
NtRp418
(dp419
g61
(dp420
g88
g89
ssg70
g409
sg63
(lp421
S':'
asbag56
(g77
g58
NtRp422
(dp423
g61
(dp424
sg70
g409
sg63
(lp425
g56
(g57
g58
NtRp426
(dp427
g61
(dp428
g69
I3
ssg70
g422
sg63
(lp429
S''
asbasbasbasbasbasbasbag56
(g72
g58
NtRp430
(dp431
g61
(dp432
sg70
g233
sg63
(lp433
g56
(g77
g58
NtRp434
(dp435
g61
(dp436
g81
g82
ssg70
g430
sg63
(lp437
S'posLat'
p438
asbag56
(g77
g58
NtRp439
(dp440
g61
(dp441
g88
g89
ssg70
g430
sg63
(lp442
S':'
asbag56
(g77
g58
NtRp443
(dp444
g61
(dp445
sg70
g430
sg63
(lp446
g56
(g57
g58
NtRp447
(dp448
g61
(dp449
g69
I4
ssg70
g443
sg63
(lp450
g56
(g65
g58
NtRp451
(dp452
g61
(dp453
g69
I3
ssg70
Nsg63
(lp454
g56
(g72
g58
NtRp455
(dp456
g61
(dp457
sg70
g451
sg63
(lp458
g56
(g77
g58
NtRp459
(dp460
g61
(dp461
g81
g82
ssg70
g455
sg63
(lp462
g270
asbag56
(g77
g58
NtRp463
(dp464
g61
(dp465
g88
g89
ssg70
g455
sg63
(lp466
S':'
asbag56
(g77
g58
NtRp467
(dp468
g61
(dp469
sg70
g455
sg63
(lp470
g56
(g57
g58
NtRp471
(dp472
g61
(dp473
g69
I3
ssg70
g467
sg63
(lp474
S''
asbasbasbag56
(g72
g58
NtRp475
(dp476
g61
(dp477
sg70
g451
sg63
(lp478
g56
(g77
g58
NtRp479
(dp480
g61
(dp481
g81
g82
ssg70
g475
sg63
(lp482
g291
asbag56
(g77
g58
NtRp483
(dp484
g61
(dp485
g88
g89
ssg70
g475
sg63
(lp486
S':'
asbag56
(g77
g58
NtRp487
(dp488
g61
(dp489
sg70
g475
sg63
(lp490
g56
(g57
g58
NtRp491
(dp492
g61
(dp493
g69
I3
ssg70
g487
sg63
(lp494
S''
asbasbasbag56
(g72
g58
NtRp495
(dp496
g61
(dp497
sg70
g451
sg63
(lp498
g56
(g77
g58
NtRp499
(dp500
g61
(dp501
g81
g82
ssg70
g495
sg63
(lp502
g312
asbag56
(g77
g58
NtRp503
(dp504
g61
(dp505
g88
g89
ssg70
g495
sg63
(lp506
S':'
asbag56
(g77
g58
NtRp507
(dp508
g61
(dp509
sg70
g495
sg63
(lp510
g56
(g57
g58
NtRp511
(dp512
g61
(dp513
g69
I3
ssg70
g507
sg63
(lp514
S''
asbasbasbag56
(g72
g58
NtRp515
(dp516
g61
(dp517
sg70
g451
sg63
(lp518
g56
(g77
g58
NtRp519
(dp520
g61
(dp521
g81
g82
ssg70
g515
sg63
(lp522
g333
asbag56
(g77
g58
NtRp523
(dp524
g61
(dp525
g88
g89
ssg70
g515
sg63
(lp526
S':'
asbag56
(g77
g58
NtRp527
(dp528
g61
(dp529
sg70
g515
sg63
(lp530
g56
(g57
g58
NtRp531
(dp532
g61
(dp533
g69
I3
ssg70
g527
sg63
(lp534
S''
asbasbasbag56
(g72
g58
NtRp535
(dp536
g61
(dp537
sg70
g451
sg63
(lp538
g56
(g77
g58
NtRp539
(dp540
g61
(dp541
g81
g82
ssg70
g535
sg63
(lp542
g354
asbag56
(g77
g58
NtRp543
(dp544
g61
(dp545
g88
g89
ssg70
g535
sg63
(lp546
S':'
asbag56
(g77
g58
NtRp547
(dp548
g61
(dp549
sg70
g535
sg63
(lp550
g56
(g57
g58
NtRp551
(dp552
g61
(dp553
g69
I3
ssg70
g547
sg63
(lp554
S''
asbasbasbag56
(g72
g58
NtRp555
(dp556
g61
(dp557
sg70
g451
sg63
(lp558
g56
(g77
g58
NtRp559
(dp560
g61
(dp561
g81
g82
ssg70
g555
sg63
(lp562
g375
asbag56
(g77
g58
NtRp563
(dp564
g61
(dp565
g88
g89
ssg70
g555
sg63
(lp566
S':'
asbag56
(g77
g58
NtRp567
(dp568
g61
(dp569
sg70
g555
sg63
(lp570
g56
(g57
g58
NtRp571
(dp572
g61
(dp573
g69
I3
ssg70
g567
sg63
(lp574
S''
asbasbasbag56
(g72
g58
NtRp575
(dp576
g61
(dp577
sg70
g451
sg63
(lp578
g56
(g77
g58
NtRp579
(dp580
g61
(dp581
g81
g82
ssg70
g575
sg63
(lp582
g396
asbag56
(g77
g58
NtRp583
(dp584
g61
(dp585
g88
g89
ssg70
g575
sg63
(lp586
S':'
asbag56
(g77
g58
NtRp587
(dp588
g61
(dp589
sg70
g575
sg63
(lp590
g56
(g57
g58
NtRp591
(dp592
g61
(dp593
g69
I3
ssg70
g587
sg63
(lp594
S''
asbasbasbag56
(g72
g58
NtRp595
(dp596
g61
(dp597
sg70
g451
sg63
(lp598
g56
(g77
g58
NtRp599
(dp600
g61
(dp601
g81
g82
ssg70
g595
sg63
(lp602
g417
asbag56
(g77
g58
NtRp603
(dp604
g61
(dp605
g88
g89
ssg70
g595
sg63
(lp606
S':'
asbag56
(g77
g58
NtRp607
(dp608
g61
(dp609
sg70
g595
sg63
(lp610
g56
(g57
g58
NtRp611
(dp612
g61
(dp613
g69
I3
ssg70
g607
sg63
(lp614
S''
asbasbasbasbasbasbasbag56
(g72
g58
NtRp615
(dp616
g61
(dp617
sg70
g233
sg63
(lp618
g56
(g77
g58
NtRp619
(dp620
g61
(dp621
g81
g82
ssg70
g615
sg63
(lp622
S'posLon'
p623
asbag56
(g77
g58
NtRp624
(dp625
g61
(dp626
g88
g89
ssg70
g615
sg63
(lp627
S':'
asbag56
(g77
g58
NtRp628
(dp629
g61
(dp630
sg70
g615
sg63
(lp631
g56
(g57
g58
NtRp632
(dp633
g61
(dp634
g69
I4
ssg70
g628
sg63
(lp635
g56
(g65
g58
NtRp636
(dp637
g61
(dp638
g69
I3
ssg70
Nsg63
(lp639
g56
(g72
g58
NtRp640
(dp641
g61
(dp642
sg70
g636
sg63
(lp643
g56
(g77
g58
NtRp644
(dp645
g61
(dp646
g81
g82
ssg70
g640
sg63
(lp647
g270
asbag56
(g77
g58
NtRp648
(dp649
g61
(dp650
g88
g89
ssg70
g640
sg63
(lp651
S':'
asbag56
(g77
g58
NtRp652
(dp653
g61
(dp654
sg70
g640
sg63
(lp655
g56
(g57
g58
NtRp656
(dp657
g61
(dp658
g69
I3
ssg70
g652
sg63
(lp659
S''
asbasbasbag56
(g72
g58
NtRp660
(dp661
g61
(dp662
sg70
g636
sg63
(lp663
g56
(g77
g58
NtRp664
(dp665
g61
(dp666
g81
g82
ssg70
g660
sg63
(lp667
g291
asbag56
(g77
g58
NtRp668
(dp669
g61
(dp670
g88
g89
ssg70
g660
sg63
(lp671
S':'
asbag56
(g77
g58
NtRp672
(dp673
g61
(dp674
sg70
g660
sg63
(lp675
g56
(g57
g58
NtRp676
(dp677
g61
(dp678
g69
I3
ssg70
g672
sg63
(lp679
S''
asbasbasbag56
(g72
g58
NtRp680
(dp681
g61
(dp682
sg70
g636
sg63
(lp683
g56
(g77
g58
NtRp684
(dp685
g61
(dp686
g81
g82
ssg70
g680
sg63
(lp687
g312
asbag56
(g77
g58
NtRp688
(dp689
g61
(dp690
g88
g89
ssg70
g680
sg63
(lp691
S':'
asbag56
(g77
g58
NtRp692
(dp693
g61
(dp694
sg70
g680
sg63
(lp695
g56
(g57
g58
NtRp696
(dp697
g61
(dp698
g69
I3
ssg70
g692
sg63
(lp699
S''
asbasbasbag56
(g72
g58
NtRp700
(dp701
g61
(dp702
sg70
g636
sg63
(lp703
g56
(g77
g58
NtRp704
(dp705
g61
(dp706
g81
g82
ssg70
g700
sg63
(lp707
g333
asbag56
(g77
g58
NtRp708
(dp709
g61
(dp710
g88
g89
ssg70
g700
sg63
(lp711
S':'
asbag56
(g77
g58
NtRp712
(dp713
g61
(dp714
sg70
g700
sg63
(lp715
g56
(g57
g58
NtRp716
(dp717
g61
(dp718
g69
I3
ssg70
g712
sg63
(lp719
S''
asbasbasbag56
(g72
g58
NtRp720
(dp721
g61
(dp722
sg70
g636
sg63
(lp723
g56
(g77
g58
NtRp724
(dp725
g61
(dp726
g81
g82
ssg70
g720
sg63
(lp727
g354
asbag56
(g77
g58
NtRp728
(dp729
g61
(dp730
g88
g89
ssg70
g720
sg63
(lp731
S':'
asbag56
(g77
g58
NtRp732
(dp733
g61
(dp734
sg70
g720
sg63
(lp735
g56
(g57
g58
NtRp736
(dp737
g61
(dp738
g69
I3
ssg70
g732
sg63
(lp739
S''
asbasbasbag56
(g72
g58
NtRp740
(dp741
g61
(dp742
sg70
g636
sg63
(lp743
g56
(g77
g58
NtRp744
(dp745
g61
(dp746
g81
g82
ssg70
g740
sg63
(lp747
g375
asbag56
(g77
g58
NtRp748
(dp749
g61
(dp750
g88
g89
ssg70
g740
sg63
(lp751
S':'
asbag56
(g77
g58
NtRp752
(dp753
g61
(dp754
sg70
g740
sg63
(lp755
g56
(g57
g58
NtRp756
(dp757
g61
(dp758
g69
I3
ssg70
g752
sg63
(lp759
S''
asbasbasbag56
(g72
g58
NtRp760
(dp761
g61
(dp762
sg70
g636
sg63
(lp763
g56
(g77
g58
NtRp764
(dp765
g61
(dp766
g81
g82
ssg70
g760
sg63
(lp767
g396
asbag56
(g77
g58
NtRp768
(dp769
g61
(dp770
g88
g89
ssg70
g760
sg63
(lp771
S':'
asbag56
(g77
g58
NtRp772
(dp773
g61
(dp774
sg70
g760
sg63
(lp775
g56
(g57
g58
NtRp776
(dp777
g61
(dp778
g69
I3
ssg70
g772
sg63
(lp779
S''
asbasbasbag56
(g72
g58
NtRp780
(dp781
g61
(dp782
sg70
g636
sg63
(lp783
g56
(g77
g58
NtRp784
(dp785
g61
(dp786
g81
g82
ssg70
g780
sg63
(lp787
g417
asbag56
(g77
g58
NtRp788
(dp789
g61
(dp790
g88
g89
ssg70
g780
sg63
(lp791
S':'
asbag56
(g77
g58
NtRp792
(dp793
g61
(dp794
sg70
g780
sg63
(lp795
g56
(g57
g58
NtRp796
(dp797
g61
(dp798
g69
I3
ssg70
g792
sg63
(lp799
S''
asbasbasbasbasbasbasbag56
(g72
g58
NtRp800
(dp801
g61
(dp802
sg70
g233
sg63
(lp803
g56
(g77
g58
NtRp804
(dp805
g61
(dp806
g81
g82
ssg70
g800
sg63
(lp807
S'session_id_admin'
p808
asbag56
(g77
g58
NtRp809
(dp810
g61
(dp811
g88
g89
ssg70
g800
sg63
(lp812
S':'
asbag56
(g77
g58
NtRp813
(dp814
g61
(dp815
sg70
g800
sg63
(lp816
g56
(g57
g58
NtRp817
(dp818
g61
(dp819
g69
I4
ssg70
g813
sg63
(lp820
g56
(g65
g58
NtRp821
(dp822
g61
(dp823
g69
I3
ssg70
Nsg63
(lp824
g56
(g72
g58
NtRp825
(dp826
g61
(dp827
sg70
g821
sg63
(lp828
g56
(g77
g58
NtRp829
(dp830
g61
(dp831
g81
g82
ssg70
g825
sg63
(lp832
g270
asbag56
(g77
g58
NtRp833
(dp834
g61
(dp835
g88
g89
ssg70
g825
sg63
(lp836
S':'
asbag56
(g77
g58
NtRp837
(dp838
g61
(dp839
sg70
g825
sg63
(lp840
g56
(g57
g58
NtRp841
(dp842
g61
(dp843
g69
I3
ssg70
g837
sg63
(lp844
S''
asbasbasbag56
(g72
g58
NtRp845
(dp846
g61
(dp847
sg70
g821
sg63
(lp848
g56
(g77
g58
NtRp849
(dp850
g61
(dp851
g81
g82
ssg70
g845
sg63
(lp852
g291
asbag56
(g77
g58
NtRp853
(dp854
g61
(dp855
g88
g89
ssg70
g845
sg63
(lp856
S':'
asbag56
(g77
g58
NtRp857
(dp858
g61
(dp859
sg70
g845
sg63
(lp860
g56
(g57
g58
NtRp861
(dp862
g61
(dp863
g69
I3
ssg70
g857
sg63
(lp864
S''
asbasbasbag56
(g72
g58
NtRp865
(dp866
g61
(dp867
sg70
g821
sg63
(lp868
g56
(g77
g58
NtRp869
(dp870
g61
(dp871
g81
g82
ssg70
g865
sg63
(lp872
g312
asbag56
(g77
g58
NtRp873
(dp874
g61
(dp875
g88
g89
ssg70
g865
sg63
(lp876
S':'
asbag56
(g77
g58
NtRp877
(dp878
g61
(dp879
sg70
g865
sg63
(lp880
g56
(g57
g58
NtRp881
(dp882
g61
(dp883
g69
I3
ssg70
g877
sg63
(lp884
S''
asbasbasbag56
(g72
g58
NtRp885
(dp886
g61
(dp887
sg70
g821
sg63
(lp888
g56
(g77
g58
NtRp889
(dp890
g61
(dp891
g81
g82
ssg70
g885
sg63
(lp892
g333
asbag56
(g77
g58
NtRp893
(dp894
g61
(dp895
g88
g89
ssg70
g885
sg63
(lp896
S':'
asbag56
(g77
g58
NtRp897
(dp898
g61
(dp899
sg70
g885
sg63
(lp900
g56
(g57
g58
NtRp901
(dp902
g61
(dp903
g69
I3
ssg70
g897
sg63
(lp904
S''
asbasbasbag56
(g72
g58
NtRp905
(dp906
g61
(dp907
sg70
g821
sg63
(lp908
g56
(g77
g58
NtRp909
(dp910
g61
(dp911
g81
g82
ssg70
g905
sg63
(lp912
g354
asbag56
(g77
g58
NtRp913
(dp914
g61
(dp915
g88
g89
ssg70
g905
sg63
(lp916
S':'
asbag56
(g77
g58
NtRp917
(dp918
g61
(dp919
sg70
g905
sg63
(lp920
g56
(g57
g58
NtRp921
(dp922
g61
(dp923
g69
I3
ssg70
g917
sg63
(lp924
S''
asbasbasbag56
(g72
g58
NtRp925
(dp926
g61
(dp927
sg70
g821
sg63
(lp928
g56
(g77
g58
NtRp929
(dp930
g61
(dp931
g81
g82
ssg70
g925
sg63
(lp932
g375
asbag56
(g77
g58
NtRp933
(dp934
g61
(dp935
g88
g89
ssg70
g925
sg63
(lp936
S':'
asbag56
(g77
g58
NtRp937
(dp938
g61
(dp939
sg70
g925
sg63
(lp940
g56
(g57
g58
NtRp941
(dp942
g61
(dp943
g69
I3
ssg70
g937
sg63
(lp944
S''
asbasbasbag56
(g72
g58
NtRp945
(dp946
g61
(dp947
sg70
g821
sg63
(lp948
g56
(g77
g58
NtRp949
(dp950
g61
(dp951
g81
g82
ssg70
g945
sg63
(lp952
g396
asbag56
(g77
g58
NtRp953
(dp954
g61
(dp955
g88
g89
ssg70
g945
sg63
(lp956
S':'
asbag56
(g77
g58
NtRp957
(dp958
g61
(dp959
sg70
g945
sg63
(lp960
g56
(g57
g58
NtRp961
(dp962
g61
(dp963
g69
I3
ssg70
g957
sg63
(lp964
S''
asbasbasbag56
(g72
g58
NtRp965
(dp966
g61
(dp967
sg70
g821
sg63
(lp968
g56
(g77
g58
NtRp969
(dp970
g61
(dp971
g81
g82
ssg70
g965
sg63
(lp972
g417
asbag56
(g77
g58
NtRp973
(dp974
g61
(dp975
g88
g89
ssg70
g965
sg63
(lp976
S':'
asbag56
(g77
g58
NtRp977
(dp978
g61
(dp979
sg70
g965
sg63
(lp980
g56
(g57
g58
NtRp981
(dp982
g61
(dp983
g69
I3
ssg70
g977
sg63
(lp984
S''
asbasbasbasbasbasbasbag56
(g72
g58
NtRp985
(dp986
g61
(dp987
sg70
g233
sg63
(lp988
g56
(g77
g58
NtRp989
(dp990
g61
(dp991
g81
g82
ssg70
g985
sg63
(lp992
S'session_id_wp'
p993
asbag56
(g77
g58
NtRp994
(dp995
g61
(dp996
g88
g89
ssg70
g985
sg63
(lp997
S':'
asbag56
(g77
g58
NtRp998
(dp999
g61
(dp1000
sg70
g985
sg63
(lp1001
g56
(g57
g58
NtRp1002
(dp1003
g61
(dp1004
g69
I4
ssg70
g998
sg63
(lp1005
g56
(g65
g58
NtRp1006
(dp1007
g61
(dp1008
g69
I3
ssg70
Nsg63
(lp1009
g56
(g72
g58
NtRp1010
(dp1011
g61
(dp1012
sg70
g1006
sg63
(lp1013
g56
(g77
g58
NtRp1014
(dp1015
g61
(dp1016
g81
g82
ssg70
g1010
sg63
(lp1017
g270
asbag56
(g77
g58
NtRp1018
(dp1019
g61
(dp1020
g88
g89
ssg70
g1010
sg63
(lp1021
S':'
asbag56
(g77
g58
NtRp1022
(dp1023
g61
(dp1024
sg70
g1010
sg63
(lp1025
g56
(g57
g58
NtRp1026
(dp1027
g61
(dp1028
g69
I3
ssg70
g1022
sg63
(lp1029
S''
asbasbasbag56
(g72
g58
NtRp1030
(dp1031
g61
(dp1032
sg70
g1006
sg63
(lp1033
g56
(g77
g58
NtRp1034
(dp1035
g61
(dp1036
g81
g82
ssg70
g1030
sg63
(lp1037
g291
asbag56
(g77
g58
NtRp1038
(dp1039
g61
(dp1040
g88
g89
ssg70
g1030
sg63
(lp1041
S':'
asbag56
(g77
g58
NtRp1042
(dp1043
g61
(dp1044
sg70
g1030
sg63
(lp1045
g56
(g57
g58
NtRp1046
(dp1047
g61
(dp1048
g69
I3
ssg70
g1042
sg63
(lp1049
S''
asbasbasbag56
(g72
g58
NtRp1050
(dp1051
g61
(dp1052
sg70
g1006
sg63
(lp1053
g56
(g77
g58
NtRp1054
(dp1055
g61
(dp1056
g81
g82
ssg70
g1050
sg63
(lp1057
g312
asbag56
(g77
g58
NtRp1058
(dp1059
g61
(dp1060
g88
g89
ssg70
g1050
sg63
(lp1061
S':'
asbag56
(g77
g58
NtRp1062
(dp1063
g61
(dp1064
sg70
g1050
sg63
(lp1065
g56
(g57
g58
NtRp1066
(dp1067
g61
(dp1068
g69
I3
ssg70
g1062
sg63
(lp1069
S''
asbasbasbag56
(g72
g58
NtRp1070
(dp1071
g61
(dp1072
sg70
g1006
sg63
(lp1073
g56
(g77
g58
NtRp1074
(dp1075
g61
(dp1076
g81
g82
ssg70
g1070
sg63
(lp1077
g333
asbag56
(g77
g58
NtRp1078
(dp1079
g61
(dp1080
g88
g89
ssg70
g1070
sg63
(lp1081
S':'
asbag56
(g77
g58
NtRp1082
(dp1083
g61
(dp1084
sg70
g1070
sg63
(lp1085
g56
(g57
g58
NtRp1086
(dp1087
g61
(dp1088
g69
I3
ssg70
g1082
sg63
(lp1089
S''
asbasbasbag56
(g72
g58
NtRp1090
(dp1091
g61
(dp1092
sg70
g1006
sg63
(lp1093
g56
(g77
g58
NtRp1094
(dp1095
g61
(dp1096
g81
g82
ssg70
g1090
sg63
(lp1097
g354
asbag56
(g77
g58
NtRp1098
(dp1099
g61
(dp1100
g88
g89
ssg70
g1090
sg63
(lp1101
S':'
asbag56
(g77
g58
NtRp1102
(dp1103
g61
(dp1104
sg70
g1090
sg63
(lp1105
g56
(g57
g58
NtRp1106
(dp1107
g61
(dp1108
g69
I3
ssg70
g1102
sg63
(lp1109
S''
asbasbasbag56
(g72
g58
NtRp1110
(dp1111
g61
(dp1112
sg70
g1006
sg63
(lp1113
g56
(g77
g58
NtRp1114
(dp1115
g61
(dp1116
g81
g82
ssg70
g1110
sg63
(lp1117
g375
asbag56
(g77
g58
NtRp1118
(dp1119
g61
(dp1120
g88
g89
ssg70
g1110
sg63
(lp1121
S':'
asbag56
(g77
g58
NtRp1122
(dp1123
g61
(dp1124
sg70
g1110
sg63
(lp1125
g56
(g57
g58
NtRp1126
(dp1127
g61
(dp1128
g69
I3
ssg70
g1122
sg63
(lp1129
S''
asbasbasbag56
(g72
g58
NtRp1130
(dp1131
g61
(dp1132
sg70
g1006
sg63
(lp1133
g56
(g77
g58
NtRp1134
(dp1135
g61
(dp1136
g81
g82
ssg70
g1130
sg63
(lp1137
g396
asbag56
(g77
g58
NtRp1138
(dp1139
g61
(dp1140
g88
g89
ssg70
g1130
sg63
(lp1141
S':'
asbag56
(g77
g58
NtRp1142
(dp1143
g61
(dp1144
sg70
g1130
sg63
(lp1145
g56
(g57
g58
NtRp1146
(dp1147
g61
(dp1148
g69
I3
ssg70
g1142
sg63
(lp1149
S''
asbasbasbag56
(g72
g58
NtRp1150
(dp1151
g61
(dp1152
sg70
g1006
sg63
(lp1153
g56
(g77
g58
NtRp1154
(dp1155
g61
(dp1156
g81
g82
ssg70
g1150
sg63
(lp1157
g417
asbag56
(g77
g58
NtRp1158
(dp1159
g61
(dp1160
g88
g89
ssg70
g1150
sg63
(lp1161
S':'
asbag56
(g77
g58
NtRp1162
(dp1163
g61
(dp1164
sg70
g1150
sg63
(lp1165
g56
(g57
g58
NtRp1166
(dp1167
g61
(dp1168
g69
I3
ssg70
g1162
sg63
(lp1169
S''
asbasbasbasbasbasbasbasbasbasbasbag56
(g72
g58
NtRp1170
(dp1171
g61
(dp1172
sg70
g66
sg63
(lp1173
g56
(g77
g58
NtRp1174
(dp1175
g61
(dp1176
g81
g82
ssg70
g1170
sg63
(lp1177
S'env'
p1178
asbag56
(g77
g58
NtRp1179
(dp1180
g61
(dp1181
g88
g89
ssg70
g1170
sg63
(lp1182
S':'
asbag56
(g77
g58
NtRp1183
(dp1184
g61
(dp1185
sg70
g1170
sg63
(lp1186
g56
(g57
g58
NtRp1187
(dp1188
g61
(dp1189
g69
I5
ssg70
g1183
sg63
(lp1190
g56
(g65
g58
NtRp1191
(dp1192
g61
(dp1193
g69
I4
ssg70
Nsg63
(lp1194
g56
(g72
g58
NtRp1195
(dp1196
g61
(dp1197
sg70
g1191
sg63
(lp1198
g56
(g77
g58
NtRp1199
(dp1200
g61
(dp1201
g81
g82
ssg70
g1195
sg63
(lp1202
S'app_folders'
p1203
asbag56
(g77
g58
NtRp1204
(dp1205
g61
(dp1206
g88
g89
ssg70
g1195
sg63
(lp1207
S':'
asbag56
(g77
g58
NtRp1208
(dp1209
g61
(dp1210
sg70
g1195
sg63
(lp1211
g56
(g57
g58
NtRp1212
(dp1213
g61
(dp1214
g69
I4
ssg70
g1208
sg63
(lp1215
S"set(['/Users/schultzc/workspace/wherespuppet/web2py/applications/wp/', '/Users/schultzc/workspace/wherespuppet/web2py/applications/welcome/', '/Users/schultzc/workspace/wherespuppet/web2py/applications/admin/'])"
p1216
asbasbasbag56
(g72
g58
NtRp1217
(dp1218
g61
(dp1219
sg70
g1191
sg63
(lp1220
g56
(g77
g58
NtRp1221
(dp1222
g61
(dp1223
g81
g82
ssg70
g1217
sg63
(lp1224
S'applications_parent'
p1225
asbag56
(g77
g58
NtRp1226
(dp1227
g61
(dp1228
g88
g89
ssg70
g1217
sg63
(lp1229
S':'
asbag56
(g77
g58
NtRp1230
(dp1231
g61
(dp1232
sg70
g1217
sg63
(lp1233
g56
(g57
g58
NtRp1234
(dp1235
g61
(dp1236
g69
I4
ssg70
g1230
sg63
(lp1237
S'/Users/schultzc/workspace/wherespuppet/web2py'
p1238
asbasbasbag56
(g72
g58
NtRp1239
(dp1240
g61
(dp1241
sg70
g1191
sg63
(lp1242
g56
(g77
g58
NtRp1243
(dp1244
g61
(dp1245
g81
g82
ssg70
g1239
sg63
(lp1246
S'cmd_args'
p1247
asbag56
(g77
g58
NtRp1248
(dp1249
g61
(dp1250
g88
g89
ssg70
g1239
sg63
(lp1251
S':'
asbag56
(g77
g58
NtRp1252
(dp1253
g61
(dp1254
sg70
g1239
sg63
(lp1255
g56
(g57
g58
NtRp1256
(dp1257
g61
(dp1258
g69
I4
ssg70
g1252
sg63
(lp1259
g56
(g65
g58
NtRp1260
(dp1261
g61
(dp1262
g69
I3
ssg70
Nsg63
(lp1263
sbasbasbasbag56
(g72
g58
NtRp1264
(dp1265
g61
(dp1266
sg70
g1191
sg63
(lp1267
g56
(g77
g58
NtRp1268
(dp1269
g61
(dp1270
g81
g82
ssg70
g1264
sg63
(lp1271
S'cmd_options'
p1272
asbag56
(g77
g58
NtRp1273
(dp1274
g61
(dp1275
g88
g89
ssg70
g1264
sg63
(lp1276
S':'
asbag56
(g77
g58
NtRp1277
(dp1278
g61
(dp1279
sg70
g1264
sg63
(lp1280
g56
(g57
g58
NtRp1281
(dp1282
g61
(dp1283
g69
I4
ssg70
g1277
sg63
(lp1284
S"<Values at 0x101b19ab8: {'verbose': False, 'ip': '127.0.0.1', 'shutdown_timeout': 5, 'taskbar': False, 'port': 8000, 'maxthreads': None, 'softcron': False, 'server_name': 'Magnus-Specialis.local', 'bpython': False, 'nogui': False, 'nocron': False, 'extcron': False, 'debuglevel': 30, 'test': None, 'folder': '/Users/schultzc/workspace/wherespuppet/web2py', 'config': '', 'import_models': False, 'winservice': '', 'shell': None, 'run': '', 'log_filename': 'httpserver.log', 'args': [''], 'profiler_filename': None, 'ssl_private_key': '', 'password': 'hello', 'request_queue_size': 5, 'ssl_certificate': '', 'cronjob': False, 'plain': False, 'quiet': False, 'interfaces': None, 'minthreads': None, 'timeout': 10, 'numthreads': None, 'nobanner': False, 'pid_filename': 'httpserver.pid'}>"
p1285
asbasbasbag56
(g72
g58
NtRp1286
(dp1287
g61
(dp1288
sg70
g1191
sg63
(lp1289
g56
(g77
g58
NtRp1290
(dp1291
g61
(dp1292
g81
g82
ssg70
g1286
sg63
(lp1293
S'db_sessions'
p1294
asbag56
(g77
g58
NtRp1295
(dp1296
g61
(dp1297
g88
g89
ssg70
g1286
sg63
(lp1298
S':'
asbag56
(g77
g58
NtRp1299
(dp1300
g61
(dp1301
sg70
g1286
sg63
(lp1302
g56
(g57
g58
NtRp1303
(dp1304
g61
(dp1305
g69
I4
ssg70
g1299
sg63
(lp1306
S'set([])'
p1307
asbasbasbag56
(g72
g58
NtRp1308
(dp1309
g61
(dp1310
sg70
g1191
sg63
(lp1311
g56
(g77
g58
NtRp1312
(dp1313
g61
(dp1314
g81
g82
ssg70
g1308
sg63
(lp1315
S'debugging'
p1316
asbag56
(g77
g58
NtRp1317
(dp1318
g61
(dp1319
g88
g89
ssg70
g1308
sg63
(lp1320
S':'
asbag56
(g77
g58
NtRp1321
(dp1322
g61
(dp1323
sg70
g1308
sg63
(lp1324
g56
(g57
g58
NtRp1325
(dp1326
g61
(dp1327
g69
I4
ssg70
g1321
sg63
(lp1328
g99
asbasbasbag56
(g72
g58
NtRp1329
(dp1330
g61
(dp1331
sg70
g1191
sg63
(lp1332
g56
(g77
g58
NtRp1333
(dp1334
g61
(dp1335
g81
g82
ssg70
g1329
sg63
(lp1336
S'gluon_parent'
p1337
asbag56
(g77
g58
NtRp1338
(dp1339
g61
(dp1340
g88
g89
ssg70
g1329
sg63
(lp1341
S':'
asbag56
(g77
g58
NtRp1342
(dp1343
g61
(dp1344
sg70
g1329
sg63
(lp1345
g56
(g57
g58
NtRp1346
(dp1347
g61
(dp1348
g69
I4
ssg70
g1342
sg63
(lp1349
S'/Users/schultzc/workspace/wherespuppet/web2py'
p1350
asbasbasbag56
(g72
g58
NtRp1351
(dp1352
g61
(dp1353
sg70
g1191
sg63
(lp1354
g56
(g77
g58
NtRp1355
(dp1356
g61
(dp1357
g81
g82
ssg70
g1351
sg63
(lp1358
S'http_accept'
p1359
asbag56
(g77
g58
NtRp1360
(dp1361
g61
(dp1362
g88
g89
ssg70
g1351
sg63
(lp1363
S':'
asbag56
(g77
g58
NtRp1364
(dp1365
g61
(dp1366
sg70
g1351
sg63
(lp1367
g56
(g57
g58
NtRp1368
(dp1369
g61
(dp1370
g69
I4
ssg70
g1364
sg63
(lp1371
S'text/html,application/xhtml+xml,application/xml;q=0.9,*/*;q=0.8'
p1372
asbasbasbag56
(g72
g58
NtRp1373
(dp1374
g61
(dp1375
sg70
g1191
sg63
(lp1376
g56
(g77
g58
NtRp1377
(dp1378
g61
(dp1379
g81
g82
ssg70
g1373
sg63
(lp1380
S'http_accept_charset'
p1381
asbag56
(g77
g58
NtRp1382
(dp1383
g61
(dp1384
g88
g89
ssg70
g1373
sg63
(lp1385
S':'
asbag56
(g77
g58
NtRp1386
(dp1387
g61
(dp1388
sg70
g1373
sg63
(lp1389
g56
(g57
g58
NtRp1390
(dp1391
g61
(dp1392
g69
I4
ssg70
g1386
sg63
(lp1393
S'ISO-8859-1,utf-8;q=0.7,*;q=0.3'
p1394
asbasbasbag56
(g72
g58
NtRp1395
(dp1396
g61
(dp1397
sg70
g1191
sg63
(lp1398
g56
(g77
g58
NtRp1399
(dp1400
g61
(dp1401
g81
g82
ssg70
g1395
sg63
(lp1402
S'http_accept_encoding'
p1403
asbag56
(g77
g58
NtRp1404
(dp1405
g61
(dp1406
g88
g89
ssg70
g1395
sg63
(lp1407
S':'
asbag56
(g77
g58
NtRp1408
(dp1409
g61
(dp1410
sg70
g1395
sg63
(lp1411
g56
(g57
g58
NtRp1412
(dp1413
g61
(dp1414
g69
I4
ssg70
g1408
sg63
(lp1415
S'gzip,deflate,sdch'
p1416
asbasbasbag56
(g72
g58
NtRp1417
(dp1418
g61
(dp1419
sg70
g1191
sg63
(lp1420
g56
(g77
g58
NtRp1421
(dp1422
g61
(dp1423
g81
g82
ssg70
g1417
sg63
(lp1424
S'http_accept_language'
p1425
asbag56
(g77
g58
NtRp1426
(dp1427
g61
(dp1428
g88
g89
ssg70
g1417
sg63
(lp1429
S':'
asbag56
(g77
g58
NtRp1430
(dp1431
g61
(dp1432
sg70
g1417
sg63
(lp1433
g56
(g57
g58
NtRp1434
(dp1435
g61
(dp1436
g69
I4
ssg70
g1430
sg63
(lp1437
S'en-US,en;q=0.8'
p1438
asbasbasbag56
(g72
g58
NtRp1439
(dp1440
g61
(dp1441
sg70
g1191
sg63
(lp1442
g56
(g77
g58
NtRp1443
(dp1444
g61
(dp1445
g81
g82
ssg70
g1439
sg63
(lp1446
S'http_cache_control'
p1447
asbag56
(g77
g58
NtRp1448
(dp1449
g61
(dp1450
g88
g89
ssg70
g1439
sg63
(lp1451
S':'
asbag56
(g77
g58
NtRp1452
(dp1453
g61
(dp1454
sg70
g1439
sg63
(lp1455
g56
(g57
g58
NtRp1456
(dp1457
g61
(dp1458
g69
I4
ssg70
g1452
sg63
(lp1459
S'max-age=0'
p1460
asbasbasbag56
(g72
g58
NtRp1461
(dp1462
g61
(dp1463
sg70
g1191
sg63
(lp1464
g56
(g77
g58
NtRp1465
(dp1466
g61
(dp1467
g81
g82
ssg70
g1461
sg63
(lp1468
S'http_connection'
p1469
asbag56
(g77
g58
NtRp1470
(dp1471
g61
(dp1472
g88
g89
ssg70
g1461
sg63
(lp1473
S':'
asbag56
(g77
g58
NtRp1474
(dp1475
g61
(dp1476
sg70
g1461
sg63
(lp1477
g56
(g57
g58
NtRp1478
(dp1479
g61
(dp1480
g69
I4
ssg70
g1474
sg63
(lp1481
S'keep-alive'
p1482
asbasbasbag56
(g72
g58
NtRp1483
(dp1484
g61
(dp1485
sg70
g1191
sg63
(lp1486
g56
(g77
g58
NtRp1487
(dp1488
g61
(dp1489
g81
g82
ssg70
g1483
sg63
(lp1490
S'http_cookie'
p1491
asbag56
(g77
g58
NtRp1492
(dp1493
g61
(dp1494
g88
g89
ssg70
g1483
sg63
(lp1495
S':'
asbag56
(g77
g58
NtRp1496
(dp1497
g61
(dp1498
sg70
g1483
sg63
(lp1499
g56
(g57
g58
NtRp1500
(dp1501
g61
(dp1502
g69
I4
ssg70
g1496
sg63
(lp1503
S'posLat=33.414768; posLon=-111.909309; posAccuracy=24000; session_id_wp=127.0.0.1-292b6699-2c9a-4c11-9dfc-e30d08cf9f9a; session_id_admin=127.0.0.1-0b04e422-abc5-489b-8ca5-8d12fbed04fb'
p1504
asbasbasbag56
(g72
g58
NtRp1505
(dp1506
g61
(dp1507
sg70
g1191
sg63
(lp1508
g56
(g77
g58
NtRp1509
(dp1510
g61
(dp1511
g81
g82
ssg70
g1505
sg63
(lp1512
S'http_host'
p1513
asbag56
(g77
g58
NtRp1514
(dp1515
g61
(dp1516
g88
g89
ssg70
g1505
sg63
(lp1517
S':'
asbag56
(g77
g58
NtRp1518
(dp1519
g61
(dp1520
sg70
g1505
sg63
(lp1521
g56
(g57
g58
NtRp1522
(dp1523
g61
(dp1524
g69
I4
ssg70
g1518
sg63
(lp1525
S'localhost:8000'
p1526
asbasbasbag56
(g72
g58
NtRp1527
(dp1528
g61
(dp1529
sg70
g1191
sg63
(lp1530
g56
(g77
g58
NtRp1531
(dp1532
g61
(dp1533
g81
g82
ssg70
g1527
sg63
(lp1534
S'http_user_agent'
p1535
asbag56
(g77
g58
NtRp1536
(dp1537
g61
(dp1538
g88
g89
ssg70
g1527
sg63
(lp1539
S':'
asbag56
(g77
g58
NtRp1540
(dp1541
g61
(dp1542
sg70
g1527
sg63
(lp1543
g56
(g57
g58
NtRp1544
(dp1545
g61
(dp1546
g69
I4
ssg70
g1540
sg63
(lp1547
S'Mozilla/5.0 (Macintosh; Intel Mac OS X 10_6_8) AppleWebKit/534.30 (KHTML, like Gecko) Chrome/12.0.742.122 Safari/534.30'
p1548
asbasbasbag56
(g72
g58
NtRp1549
(dp1550
g61
(dp1551
sg70
g1191
sg63
(lp1552
g56
(g77
g58
NtRp1553
(dp1554
g61
(dp1555
g81
g82
ssg70
g1549
sg63
(lp1556
S'path_info'
p1557
asbag56
(g77
g58
NtRp1558
(dp1559
g61
(dp1560
g88
g89
ssg70
g1549
sg63
(lp1561
S':'
asbag56
(g77
g58
NtRp1562
(dp1563
g61
(dp1564
sg70
g1549
sg63
(lp1565
g56
(g57
g58
NtRp1566
(dp1567
g61
(dp1568
g69
I4
ssg70
g1562
sg63
(lp1569
S'/wp/default/submit'
p1570
asbasbasbag56
(g72
g58
NtRp1571
(dp1572
g61
(dp1573
sg70
g1191
sg63
(lp1574
g56
(g77
g58
NtRp1575
(dp1576
g61
(dp1577
g81
g82
ssg70
g1571
sg63
(lp1578
S'query_string'
p1579
asbag56
(g77
g58
NtRp1580
(dp1581
g61
(dp1582
g88
g89
ssg70
g1571
sg63
(lp1583
S':'
asbag56
(g77
g58
NtRp1584
(dp1585
g61
(dp1586
sg70
g1571
sg63
(lp1587
g56
(g57
g58
NtRp1588
(dp1589
g61
(dp1590
g69
I4
ssg70
g1584
sg63
(lp1591
S''
asbasbasbag56
(g72
g58
NtRp1592
(dp1593
g61
(dp1594
sg70
g1191
sg63
(lp1595
g56
(g77
g58
NtRp1596
(dp1597
g61
(dp1598
g81
g82
ssg70
g1592
sg63
(lp1599
S'remote_addr'
p1600
asbag56
(g77
g58
NtRp1601
(dp1602
g61
(dp1603
g88
g89
ssg70
g1592
sg63
(lp1604
S':'
asbag56
(g77
g58
NtRp1605
(dp1606
g61
(dp1607
sg70
g1592
sg63
(lp1608
g56
(g57
g58
NtRp1609
(dp1610
g61
(dp1611
g69
I4
ssg70
g1605
sg63
(lp1612
g189
asbasbasbag56
(g72
g58
NtRp1613
(dp1614
g61
(dp1615
sg70
g1191
sg63
(lp1616
g56
(g77
g58
NtRp1617
(dp1618
g61
(dp1619
g81
g82
ssg70
g1613
sg63
(lp1620
S'remote_port'
p1621
asbag56
(g77
g58
NtRp1622
(dp1623
g61
(dp1624
g88
g89
ssg70
g1613
sg63
(lp1625
S':'
asbag56
(g77
g58
NtRp1626
(dp1627
g61
(dp1628
sg70
g1613
sg63
(lp1629
g56
(g57
g58
NtRp1630
(dp1631
g61
(dp1632
g69
I4
ssg70
g1626
sg63
(lp1633
S'58607'
p1634
asbasbasbag56
(g72
g58
NtRp1635
(dp1636
g61
(dp1637
sg70
g1191
sg63
(lp1638
g56
(g77
g58
NtRp1639
(dp1640
g61
(dp1641
g81
g82
ssg70
g1635
sg63
(lp1642
S'request_method'
p1643
asbag56
(g77
g58
NtRp1644
(dp1645
g61
(dp1646
g88
g89
ssg70
g1635
sg63
(lp1647
S':'
asbag56
(g77
g58
NtRp1648
(dp1649
g61
(dp1650
sg70
g1635
sg63
(lp1651
g56
(g57
g58
NtRp1652
(dp1653
g61
(dp1654
g69
I4
ssg70
g1648
sg63
(lp1655
S'GET'
p1656
asbasbasbag56
(g72
g58
NtRp1657
(dp1658
g61
(dp1659
sg70
g1191
sg63
(lp1660
g56
(g77
g58
NtRp1661
(dp1662
g61
(dp1663
g81
g82
ssg70
g1657
sg63
(lp1664
S'script_name'
p1665
asbag56
(g77
g58
NtRp1666
(dp1667
g61
(dp1668
g88
g89
ssg70
g1657
sg63
(lp1669
S':'
asbag56
(g77
g58
NtRp1670
(dp1671
g61
(dp1672
sg70
g1657
sg63
(lp1673
g56
(g57
g58
NtRp1674
(dp1675
g61
(dp1676
g69
I4
ssg70
g1670
sg63
(lp1677
S''
asbasbasbag56
(g72
g58
NtRp1678
(dp1679
g61
(dp1680
sg70
g1191
sg63
(lp1681
g56
(g77
g58
NtRp1682
(dp1683
g61
(dp1684
g81
g82
ssg70
g1678
sg63
(lp1685
S'server_name'
p1686
asbag56
(g77
g58
NtRp1687
(dp1688
g61
(dp1689
g88
g89
ssg70
g1678
sg63
(lp1690
S':'
asbag56
(g77
g58
NtRp1691
(dp1692
g61
(dp1693
sg70
g1678
sg63
(lp1694
g56
(g57
g58
NtRp1695
(dp1696
g61
(dp1697
g69
I4
ssg70
g1691
sg63
(lp1698
S'Magnus-Specialis.local'
p1699
asbasbasbag56
(g72
g58
NtRp1700
(dp1701
g61
(dp1702
sg70
g1191
sg63
(lp1703
g56
(g77
g58
NtRp1704
(dp1705
g61
(dp1706
g81
g82
ssg70
g1700
sg63
(lp1707
S'server_port'
p1708
asbag56
(g77
g58
NtRp1709
(dp1710
g61
(dp1711
g88
g89
ssg70
g1700
sg63
(lp1712
S':'
asbag56
(g77
g58
NtRp1713
(dp1714
g61
(dp1715
sg70
g1700
sg63
(lp1716
g56
(g57
g58
NtRp1717
(dp1718
g61
(dp1719
g69
I4
ssg70
g1713
sg63
(lp1720
S'8000'
p1721
asbasbasbag56
(g72
g58
NtRp1722
(dp1723
g61
(dp1724
sg70
g1191
sg63
(lp1725
g56
(g77
g58
NtRp1726
(dp1727
g61
(dp1728
g81
g82
ssg70
g1722
sg63
(lp1729
S'server_protocol'
p1730
asbag56
(g77
g58
NtRp1731
(dp1732
g61
(dp1733
g88
g89
ssg70
g1722
sg63
(lp1734
S':'
asbag56
(g77
g58
NtRp1735
(dp1736
g61
(dp1737
sg70
g1722
sg63
(lp1738
g56
(g57
g58
NtRp1739
(dp1740
g61
(dp1741
g69
I4
ssg70
g1735
sg63
(lp1742
S'HTTP/1.1'
p1743
asbasbasbag56
(g72
g58
NtRp1744
(dp1745
g61
(dp1746
sg70
g1191
sg63
(lp1747
g56
(g77
g58
NtRp1748
(dp1749
g61
(dp1750
g81
g82
ssg70
g1744
sg63
(lp1751
S'server_software'
p1752
asbag56
(g77
g58
NtRp1753
(dp1754
g61
(dp1755
g88
g89
ssg70
g1744
sg63
(lp1756
S':'
asbag56
(g77
g58
NtRp1757
(dp1758
g61
(dp1759
sg70
g1744
sg63
(lp1760
g56
(g57
g58
NtRp1761
(dp1762
g61
(dp1763
g69
I4
ssg70
g1757
sg63
(lp1764
S'Rocket 1.2.2'
p1765
asbasbasbag56
(g72
g58
NtRp1766
(dp1767
g61
(dp1768
sg70
g1191
sg63
(lp1769
g56
(g77
g58
NtRp1770
(dp1771
g61
(dp1772
g81
g82
ssg70
g1766
sg63
(lp1773
S'web2py_crontype'
p1774
asbag56
(g77
g58
NtRp1775
(dp1776
g61
(dp1777
g88
g89
ssg70
g1766
sg63
(lp1778
S':'
asbag56
(g77
g58
NtRp1779
(dp1780
g61
(dp1781
sg70
g1766
sg63
(lp1782
g56
(g57
g58
NtRp1783
(dp1784
g61
(dp1785
g69
I4
ssg70
g1779
sg63
(lp1786
S'hard'
p1787
asbasbasbag56
(g72
g58
NtRp1788
(dp1789
g61
(dp1790
sg70
g1191
sg63
(lp1791
g56
(g77
g58
NtRp1792
(dp1793
g61
(dp1794
g81
g82
ssg70
g1788
sg63
(lp1795
S'web2py_path'
p1796
asbag56
(g77
g58
NtRp1797
(dp1798
g61
(dp1799
g88
g89
ssg70
g1788
sg63
(lp1800
S':'
asbag56
(g77
g58
NtRp1801
(dp1802
g61
(dp1803
sg70
g1788
sg63
(lp1804
g56
(g57
g58
NtRp1805
(dp1806
g61
(dp1807
g69
I4
ssg70
g1801
sg63
(lp1808
g1238
asbasbasbag56
(g72
g58
NtRp1809
(dp1810
g61
(dp1811
sg70
g1191
sg63
(lp1812
g56
(g77
g58
NtRp1813
(dp1814
g61
(dp1815
g81
g82
ssg70
g1809
sg63
(lp1816
S'web2py_version'
p1817
asbag56
(g77
g58
NtRp1818
(dp1819
g61
(dp1820
g88
g89
ssg70
g1809
sg63
(lp1821
S':'
asbag56
(g77
g58
NtRp1822
(dp1823
g61
(dp1824
sg70
g1809
sg63
(lp1825
g56
(g57
g58
NtRp1826
(dp1827
g61
(dp1828
g69
I4
ssg70
g1822
sg63
(lp1829
S'Version 1.97.1 (2011-06-26 19:25:44)\n'
p1830
asbasbasbag56
(g72
g58
NtRp1831
(dp1832
g61
(dp1833
sg70
g1191
sg63
(lp1834
g56
(g77
g58
NtRp1835
(dp1836
g61
(dp1837
g81
g82
ssg70
g1831
sg63
(lp1838
S'wsgi_errors'
p1839
asbag56
(g77
g58
NtRp1840
(dp1841
g61
(dp1842
g88
g89
ssg70
g1831
sg63
(lp1843
S':'
asbag56
(g77
g58
NtRp1844
(dp1845
g61
(dp1846
sg70
g1831
sg63
(lp1847
g56
(g57
g58
NtRp1848
(dp1849
g61
(dp1850
g69
I4
ssg70
g1844
sg63
(lp1851
S"<open file '<stderr>', mode 'w' at 0x100283270>"
p1852
asbasbasbag56
(g72
g58
NtRp1853
(dp1854
g61
(dp1855
sg70
g1191
sg63
(lp1856
g56
(g77
g58
NtRp1857
(dp1858
g61
(dp1859
g81
g82
ssg70
g1853
sg63
(lp1860
S'wsgi_file_wrapper'
p1861
asbag56
(g77
g58
NtRp1862
(dp1863
g61
(dp1864
g88
g89
ssg70
g1853
sg63
(lp1865
S':'
asbag56
(g77
g58
NtRp1866
(dp1867
g61
(dp1868
sg70
g1853
sg63
(lp1869
g56
(g57
g58
NtRp1870
(dp1871
g61
(dp1872
g69
I4
ssg70
g1866
sg63
(lp1873
S'<class gluon.rocket.FileWrapper at 0x101976ef0>'
p1874
asbasbasbag56
(g72
g58
NtRp1875
(dp1876
g61
(dp1877
sg70
g1191
sg63
(lp1878
g56
(g77
g58
NtRp1879
(dp1880
g61
(dp1881
g81
g82
ssg70
g1875
sg63
(lp1882
S'wsgi_input'
p1883
asbag56
(g77
g58
NtRp1884
(dp1885
g61
(dp1886
g88
g89
ssg70
g1875
sg63
(lp1887
S':'
asbag56
(g77
g58
NtRp1888
(dp1889
g61
(dp1890
sg70
g1875
sg63
(lp1891
g56
(g57
g58
NtRp1892
(dp1893
g61
(dp1894
g69
I4
ssg70
g1888
sg63
(lp1895
S'<socket._fileobject object at 0x1075fb550>'
p1896
asbasbasbag56
(g72
g58
NtRp1897
(dp1898
g61
(dp1899
sg70
g1191
sg63
(lp1900
g56
(g77
g58
NtRp1901
(dp1902
g61
(dp1903
g81
g82
ssg70
g1897
sg63
(lp1904
S'wsgi_multiprocess'
p1905
asbag56
(g77
g58
NtRp1906
(dp1907
g61
(dp1908
g88
g89
ssg70
g1897
sg63
(lp1909
S':'
asbag56
(g77
g58
NtRp1910
(dp1911
g61
(dp1912
sg70
g1897
sg63
(lp1913
g56
(g57
g58
NtRp1914
(dp1915
g61
(dp1916
g69
I4
ssg70
g1910
sg63
(lp1917
g99
asbasbasbag56
(g72
g58
NtRp1918
(dp1919
g61
(dp1920
sg70
g1191
sg63
(lp1921
g56
(g77
g58
NtRp1922
(dp1923
g61
(dp1924
g81
g82
ssg70
g1918
sg63
(lp1925
S'wsgi_multithread'
p1926
asbag56
(g77
g58
NtRp1927
(dp1928
g61
(dp1929
g88
g89
ssg70
g1918
sg63
(lp1930
S':'
asbag56
(g77
g58
NtRp1931
(dp1932
g61
(dp1933
sg70
g1918
sg63
(lp1934
g56
(g57
g58
NtRp1935
(dp1936
g61
(dp1937
g69
I4
ssg70
g1931
sg63
(lp1938
S'True'
p1939
asbasbasbag56
(g72
g58
NtRp1940
(dp1941
g61
(dp1942
sg70
g1191
sg63
(lp1943
g56
(g77
g58
NtRp1944
(dp1945
g61
(dp1946
g81
g82
ssg70
g1940
sg63
(lp1947
S'wsgi_run_once'
p1948
asbag56
(g77
g58
NtRp1949
(dp1950
g61
(dp1951
g88
g89
ssg70
g1940
sg63
(lp1952
S':'
asbag56
(g77
g58
NtRp1953
(dp1954
g61
(dp1955
sg70
g1940
sg63
(lp1956
g56
(g57
g58
NtRp1957
(dp1958
g61
(dp1959
g69
I4
ssg70
g1953
sg63
(lp1960
g99
asbasbasbag56
(g72
g58
NtRp1961
(dp1962
g61
(dp1963
sg70
g1191
sg63
(lp1964
g56
(g77
g58
NtRp1965
(dp1966
g61
(dp1967
g81
g82
ssg70
g1961
sg63
(lp1968
S'wsgi_url_scheme'
p1969
asbag56
(g77
g58
NtRp1970
(dp1971
g61
(dp1972
g88
g89
ssg70
g1961
sg63
(lp1973
S':'
asbag56
(g77
g58
NtRp1974
(dp1975
g61
(dp1976
sg70
g1961
sg63
(lp1977
g56
(g57
g58
NtRp1978
(dp1979
g61
(dp1980
g69
I4
ssg70
g1974
sg63
(lp1981
S'http'
p1982
asbasbasbag56
(g72
g58
NtRp1983
(dp1984
g61
(dp1985
sg70
g1191
sg63
(lp1986
g56
(g77
g58
NtRp1987
(dp1988
g61
(dp1989
g81
g82
ssg70
g1983
sg63
(lp1990
S'wsgi_version'
p1991
asbag56
(g77
g58
NtRp1992
(dp1993
g61
(dp1994
g88
g89
ssg70
g1983
sg63
(lp1995
S':'
asbag56
(g77
g58
NtRp1996
(dp1997
g61
(dp1998
sg70
g1983
sg63
(lp1999
g56
(g57
g58
NtRp2000
(dp2001
g61
(dp2002
g69
I4
ssg70
g1996
sg63
(lp2003
g56
(g65
g58
NtRp2004
(dp2005
g61
(dp2006
g69
I3
ssg70
Nsg63
(lp2007
g56
(g72
g58
NtRp2008
(dp2009
g61
(dp2010
sg70
g2004
sg63
(lp2011
g56
(g77
g58
NtRp2012
(dp2013
g61
(dp2014
sg70
g2008
sg63
(lp2015
g56
(g57
g58
NtRp2016
(dp2017
g61
(dp2018
g69
I3
ssg70
g2012
sg63
(lp2019
S'1'
asbasbasbag56
(g72
g58
NtRp2020
(dp2021
g61
(dp2022
sg70
g2004
sg63
(lp2023
g56
(g77
g58
NtRp2024
(dp2025
g61
(dp2026
sg70
g2020
sg63
(lp2027
g56
(g57
g58
NtRp2028
(dp2029
g61
(dp2030
g69
I3
ssg70
g2024
sg63
(lp2031
S'0'
asbasbasbasbasbasbasbasbasbasbasbag56
(g72
g58
NtRp2032
(dp2033
g61
(dp2034
sg70
g66
sg63
(lp2035
g56
(g77
g58
NtRp2036
(dp2037
g61
(dp2038
g81
g82
ssg70
g2032
sg63
(lp2039
S'extension'
p2040
asbag56
(g77
g58
NtRp2041
(dp2042
g61
(dp2043
g88
g89
ssg70
g2032
sg63
(lp2044
S':'
asbag56
(g77
g58
NtRp2045
(dp2046
g61
(dp2047
sg70
g2032
sg63
(lp2048
g56
(g57
g58
NtRp2049
(dp2050
g61
(dp2051
g69
I5
ssg70
g2045
sg63
(lp2052
S'html'
p2053
asbasbasbag56
(g72
g58
NtRp2054
(dp2055
g61
(dp2056
sg70
g66
sg63
(lp2057
g56
(g77
g58
NtRp2058
(dp2059
g61
(dp2060
g81
g82
ssg70
g2054
sg63
(lp2061
S'folder'
p2062
asbag56
(g77
g58
NtRp2063
(dp2064
g61
(dp2065
g88
g89
ssg70
g2054
sg63
(lp2066
S':'
asbag56
(g77
g58
NtRp2067
(dp2068
g61
(dp2069
sg70
g2054
sg63
(lp2070
g56
(g57
g58
NtRp2071
(dp2072
g61
(dp2073
g69
I5
ssg70
g2067
sg63
(lp2074
S'/Users/schultzc/workspace/wherespuppet/web2py/applications/wp/'
p2075
asbasbasbag56
(g72
g58
NtRp2076
(dp2077
g61
(dp2078
sg70
g66
sg63
(lp2079
g56
(g77
g58
NtRp2080
(dp2081
g61
(dp2082
g81
g82
ssg70
g2076
sg63
(lp2083
S'function'
p2084
asbag56
(g77
g58
NtRp2085
(dp2086
g61
(dp2087
g88
g89
ssg70
g2076
sg63
(lp2088
S':'
asbag56
(g77
g58
NtRp2089
(dp2090
g61
(dp2091
sg70
g2076
sg63
(lp2092
g56
(g57
g58
NtRp2093
(dp2094
g61
(dp2095
g69
I5
ssg70
g2089
sg63
(lp2096
S'submit'
p2097
asbasbasbag56
(g72
g58
NtRp2098
(dp2099
g61
(dp2100
sg70
g66
sg63
(lp2101
g56
(g77
g58
NtRp2102
(dp2103
g61
(dp2104
g81
g82
ssg70
g2098
sg63
(lp2105
S'get_vars'
p2106
asbag56
(g77
g58
NtRp2107
(dp2108
g61
(dp2109
g88
g89
ssg70
g2098
sg63
(lp2110
S':'
asbag56
(g77
g58
NtRp2111
(dp2112
g61
(dp2113
sg70
g2098
sg63
(lp2114
g56
(g57
g58
NtRp2115
(dp2116
g61
(dp2117
g69
I5
ssg70
g2111
sg63
(lp2118
g56
(g65
g58
NtRp2119
(dp2120
g61
(dp2121
g69
I4
ssg70
Nsg63
(lp2122
sbasbasbasbag56
(g72
g58
NtRp2123
(dp2124
g61
(dp2125
sg70
g66
sg63
(lp2126
g56
(g77
g58
NtRp2127
(dp2128
g61
(dp2129
g81
g82
ssg70
g2123
sg63
(lp2130
S'is_https'
p2131
asbag56
(g77
g58
NtRp2132
(dp2133
g61
(dp2134
g88
g89
ssg70
g2123
sg63
(lp2135
S':'
asbag56
(g77
g58
NtRp2136
(dp2137
g61
(dp2138
sg70
g2123
sg63
(lp2139
g56
(g57
g58
NtRp2140
(dp2141
g61
(dp2142
g69
I5
ssg70
g2136
sg63
(lp2143
g99
asbasbasbag56
(g72
g58
NtRp2144
(dp2145
g61
(dp2146
sg70
g66
sg63
(lp2147
g56
(g77
g58
NtRp2148
(dp2149
g61
(dp2150
g81
g82
ssg70
g2144
sg63
(lp2151
S'is_local'
p2152
asbag56
(g77
g58
NtRp2153
(dp2154
g61
(dp2155
g88
g89
ssg70
g2144
sg63
(lp2156
S':'
asbag56
(g77
g58
NtRp2157
(dp2158
g61
(dp2159
sg70
g2144
sg63
(lp2160
g56
(g57
g58
NtRp2161
(dp2162
g61
(dp2163
g69
I5
ssg70
g2157
sg63
(lp2164
g1939
asbasbasbag56
(g72
g58
NtRp2165
(dp2166
g61
(dp2167
sg70
g66
sg63
(lp2168
g56
(g77
g58
NtRp2169
(dp2170
g61
(dp2171
g81
g82
ssg70
g2165
sg63
(lp2172
S'is_restful'
p2173
asbag56
(g77
g58
NtRp2174
(dp2175
g61
(dp2176
g88
g89
ssg70
g2165
sg63
(lp2177
S':'
asbag56
(g77
g58
NtRp2178
(dp2179
g61
(dp2180
sg70
g2165
sg63
(lp2181
g56
(g57
g58
NtRp2182
(dp2183
g61
(dp2184
g69
I5
ssg70
g2178
sg63
(lp2185
g99
asbasbasbag56
(g72
g58
NtRp2186
(dp2187
g61
(dp2188
sg70
g66
sg63
(lp2189
g56
(g77
g58
NtRp2190
(dp2191
g61
(dp2192
g81
g82
ssg70
g2186
sg63
(lp2193
S'now'
p2194
asbag56
(g77
g58
NtRp2195
(dp2196
g61
(dp2197
g88
g89
ssg70
g2186
sg63
(lp2198
S':'
asbag56
(g77
g58
NtRp2199
(dp2200
g61
(dp2201
sg70
g2186
sg63
(lp2202
g56
(g57
g58
NtRp2203
(dp2204
g61
(dp2205
g69
I5
ssg70
g2199
sg63
(lp2206
S'datetime.datetime(2011, 7, 21, 4, 2, 14, 626972)'
p2207
asbasbasbag56
(g72
g58
NtRp2208
(dp2209
g61
(dp2210
sg70
g66
sg63
(lp2211
g56
(g77
g58
NtRp2212
(dp2213
g61
(dp2214
g81
g82
ssg70
g2208
sg63
(lp2215
S'post_vars'
p2216
asbag56
(g77
g58
NtRp2217
(dp2218
g61
(dp2219
g88
g89
ssg70
g2208
sg63
(lp2220
S':'
asbag56
(g77
g58
NtRp2221
(dp2222
g61
(dp2223
sg70
g2208
sg63
(lp2224
g56
(g57
g58
NtRp2225
(dp2226
g61
(dp2227
g69
I5
ssg70
g2221
sg63
(lp2228
g56
(g65
g58
NtRp2229
(dp2230
g61
(dp2231
g69
I4
ssg70
Nsg63
(lp2232
sbasbasbasbag56
(g72
g58
NtRp2233
(dp2234
g61
(dp2235
sg70
g66
sg63
(lp2236
g56
(g77
g58
NtRp2237
(dp2238
g61
(dp2239
g81
g82
ssg70
g2233
sg63
(lp2240
S'url'
p2241
asbag56
(g77
g58
NtRp2242
(dp2243
g61
(dp2244
g88
g89
ssg70
g2233
sg63
(lp2245
S':'
asbag56
(g77
g58
NtRp2246
(dp2247
g61
(dp2248
sg70
g2233
sg63
(lp2249
g56
(g57
g58
NtRp2250
(dp2251
g61
(dp2252
g69
I5
ssg70
g2246
sg63
(lp2253
S'/wp/default/submit'
p2254
asbasbasbag56
(g72
g58
NtRp2255
(dp2256
g61
(dp2257
sg70
g66
sg63
(lp2258
g56
(g77
g58
NtRp2259
(dp2260
g61
(dp2261
g81
g82
ssg70
g2255
sg63
(lp2262
S'uuid'
p2263
asbag56
(g77
g58
NtRp2264
(dp2265
g61
(dp2266
g88
g89
ssg70
g2255
sg63
(lp2267
S':'
asbag56
(g77
g58
NtRp2268
(dp2269
g61
(dp2270
sg70
g2255
sg63
(lp2271
g56
(g57
g58
NtRp2272
(dp2273
g61
(dp2274
g69
I5
ssg70
g2268
sg63
(lp2275
S'wp/127.0.0.1.2011-07-21.04-02-14.be00bbf6-92cb-4375-8ea6-74894c3b53ea'
p2276
asbasbasbag56
(g72
g58
NtRp2277
(dp2278
g61
(dp2279
sg70
g66
sg63
(lp2280
g56
(g77
g58
NtRp2281
(dp2282
g61
(dp2283
g81
g82
ssg70
g2277
sg63
(lp2284
S'vars'
p2285
asbag56
(g77
g58
NtRp2286
(dp2287
g61
(dp2288
g88
g89
ssg70
g2277
sg63
(lp2289
S':'
asbag56
(g77
g58
NtRp2290
(dp2291
g61
(dp2292
sg70
g2277
sg63
(lp2293
g56
(g57
g58
NtRp2294
(dp2295
g61
(dp2296
g69
I5
ssg70
g2290
sg63
(lp2297
g56
(g65
g58
NtRp2298
(dp2299
g61
(dp2300
g69
I4
ssg70
Nsg63
(lp2301
sbasbasbasbag56
(g72
g58
NtRp2302
(dp2303
g61
(dp2304
sg70
g66
sg63
(lp2305
g56
(g77
g58
NtRp2306
(dp2307
g61
(dp2308
g81
g82
ssg70
g2302
sg63
(lp2309
S'wsgi'
p2310
asbag56
(g77
g58
NtRp2311
(dp2312
g61
(dp2313
g88
g89
ssg70
g2302
sg63
(lp2314
S':'
asbag56
(g77
g58
NtRp2315
(dp2316
g61
(dp2317
sg70
g2302
sg63
(lp2318
g56
(g57
g58
NtRp2319
(dp2320
g61
(dp2321
g69
I5
ssg70
g2315
sg63
(lp2322
g56
(g65
g58
NtRp2323
(dp2324
g61
(dp2325
g69
I4
ssg70
Nsg63
(lp2326
g56
(g72
g58
NtRp2327
(dp2328
g61
(dp2329
sg70
g2323
sg63
(lp2330
g56
(g77
g58
NtRp2331
(dp2332
g61
(dp2333
g81
g82
ssg70
g2327
sg63
(lp2334
S'environ'
p2335
asbag56
(g77
g58
NtRp2336
(dp2337
g61
(dp2338
g88
g89
ssg70
g2327
sg63
(lp2339
S':'
asbag56
(g77
g58
NtRp2340
(dp2341
g61
(dp2342
sg70
g2327
sg63
(lp2343
g56
(g57
g58
NtRp2344
(dp2345
g61
(dp2346
g69
I4
ssg70
g2340
sg63
(lp2347
g56
(g65
g58
NtRp2348
(dp2349
g61
(dp2350
g69
I3
ssg70
Nsg63
(lp2351
g56
(g72
g58
NtRp2352
(dp2353
g61
(dp2354
sg70
g2348
sg63
(lp2355
g56
(g77
g58
NtRp2356
(dp2357
g61
(dp2358
g81
g82
ssg70
g2352
sg63
(lp2359
S'HTTP_ACCEPT'
p2360
asbag56
(g77
g58
NtRp2361
(dp2362
g61
(dp2363
g88
g89
ssg70
g2352
sg63
(lp2364
S':'
asbag56
(g77
g58
NtRp2365
(dp2366
g61
(dp2367
sg70
g2352
sg63
(lp2368
g56
(g57
g58
NtRp2369
(dp2370
g61
(dp2371
g69
I3
ssg70
g2365
sg63
(lp2372
g1372
asbasbasbag56
(g72
g58
NtRp2373
(dp2374
g61
(dp2375
sg70
g2348
sg63
(lp2376
g56
(g77
g58
NtRp2377
(dp2378
g61
(dp2379
g81
g82
ssg70
g2373
sg63
(lp2380
S'HTTP_ACCEPT_CHARSET'
p2381
asbag56
(g77
g58
NtRp2382
(dp2383
g61
(dp2384
g88
g89
ssg70
g2373
sg63
(lp2385
S':'
asbag56
(g77
g58
NtRp2386
(dp2387
g61
(dp2388
sg70
g2373
sg63
(lp2389
g56
(g57
g58
NtRp2390
(dp2391
g61
(dp2392
g69
I3
ssg70
g2386
sg63
(lp2393
g1394
asbasbasbag56
(g72
g58
NtRp2394
(dp2395
g61
(dp2396
sg70
g2348
sg63
(lp2397
g56
(g77
g58
NtRp2398
(dp2399
g61
(dp2400
g81
g82
ssg70
g2394
sg63
(lp2401
S'HTTP_ACCEPT_ENCODING'
p2402
asbag56
(g77
g58
NtRp2403
(dp2404
g61
(dp2405
g88
g89
ssg70
g2394
sg63
(lp2406
S':'
asbag56
(g77
g58
NtRp2407
(dp2408
g61
(dp2409
sg70
g2394
sg63
(lp2410
g56
(g57
g58
NtRp2411
(dp2412
g61
(dp2413
g69
I3
ssg70
g2407
sg63
(lp2414
g1416
asbasbasbag56
(g72
g58
NtRp2415
(dp2416
g61
(dp2417
sg70
g2348
sg63
(lp2418
g56
(g77
g58
NtRp2419
(dp2420
g61
(dp2421
g81
g82
ssg70
g2415
sg63
(lp2422
S'HTTP_ACCEPT_LANGUAGE'
p2423
asbag56
(g77
g58
NtRp2424
(dp2425
g61
(dp2426
g88
g89
ssg70
g2415
sg63
(lp2427
S':'
asbag56
(g77
g58
NtRp2428
(dp2429
g61
(dp2430
sg70
g2415
sg63
(lp2431
g56
(g57
g58
NtRp2432
(dp2433
g61
(dp2434
g69
I3
ssg70
g2428
sg63
(lp2435
g1438
asbasbasbag56
(g72
g58
NtRp2436
(dp2437
g61
(dp2438
sg70
g2348
sg63
(lp2439
g56
(g77
g58
NtRp2440
(dp2441
g61
(dp2442
g81
g82
ssg70
g2436
sg63
(lp2443
S'HTTP_CACHE_CONTROL'
p2444
asbag56
(g77
g58
NtRp2445
(dp2446
g61
(dp2447
g88
g89
ssg70
g2436
sg63
(lp2448
S':'
asbag56
(g77
g58
NtRp2449
(dp2450
g61
(dp2451
sg70
g2436
sg63
(lp2452
g56
(g57
g58
NtRp2453
(dp2454
g61
(dp2455
g69
I3
ssg70
g2449
sg63
(lp2456
g1460
asbasbasbag56
(g72
g58
NtRp2457
(dp2458
g61
(dp2459
sg70
g2348
sg63
(lp2460
g56
(g77
g58
NtRp2461
(dp2462
g61
(dp2463
g81
g82
ssg70
g2457
sg63
(lp2464
S'HTTP_CONNECTION'
p2465
asbag56
(g77
g58
NtRp2466
(dp2467
g61
(dp2468
g88
g89
ssg70
g2457
sg63
(lp2469
S':'
asbag56
(g77
g58
NtRp2470
(dp2471
g61
(dp2472
sg70
g2457
sg63
(lp2473
g56
(g57
g58
NtRp2474
(dp2475
g61
(dp2476
g69
I3
ssg70
g2470
sg63
(lp2477
g1482
asbasbasbag56
(g72
g58
NtRp2478
(dp2479
g61
(dp2480
sg70
g2348
sg63
(lp2481
g56
(g77
g58
NtRp2482
(dp2483
g61
(dp2484
g81
g82
ssg70
g2478
sg63
(lp2485
S'HTTP_COOKIE'
p2486
asbag56
(g77
g58
NtRp2487
(dp2488
g61
(dp2489
g88
g89
ssg70
g2478
sg63
(lp2490
S':'
asbag56
(g77
g58
NtRp2491
(dp2492
g61
(dp2493
sg70
g2478
sg63
(lp2494
g56
(g57
g58
NtRp2495
(dp2496
g61
(dp2497
g69
I3
ssg70
g2491
sg63
(lp2498
g1504
asbasbasbag56
(g72
g58
NtRp2499
(dp2500
g61
(dp2501
sg70
g2348
sg63
(lp2502
g56
(g77
g58
NtRp2503
(dp2504
g61
(dp2505
g81
g82
ssg70
g2499
sg63
(lp2506
S'HTTP_HOST'
p2507
asbag56
(g77
g58
NtRp2508
(dp2509
g61
(dp2510
g88
g89
ssg70
g2499
sg63
(lp2511
S':'
asbag56
(g77
g58
NtRp2512
(dp2513
g61
(dp2514
sg70
g2499
sg63
(lp2515
g56
(g57
g58
NtRp2516
(dp2517
g61
(dp2518
g69
I3
ssg70
g2512
sg63
(lp2519
g1526
asbasbasbag56
(g72
g58
NtRp2520
(dp2521
g61
(dp2522
sg70
g2348
sg63
(lp2523
g56
(g77
g58
NtRp2524
(dp2525
g61
(dp2526
g81
g82
ssg70
g2520
sg63
(lp2527
S'HTTP_USER_AGENT'
p2528
asbag56
(g77
g58
NtRp2529
(dp2530
g61
(dp2531
g88
g89
ssg70
g2520
sg63
(lp2532
S':'
asbag56
(g77
g58
NtRp2533
(dp2534
g61
(dp2535
sg70
g2520
sg63
(lp2536
g56
(g57
g58
NtRp2537
(dp2538
g61
(dp2539
g69
I3
ssg70
g2533
sg63
(lp2540
g1548
asbasbasbag56
(g72
g58
NtRp2541
(dp2542
g61
(dp2543
sg70
g2348
sg63
(lp2544
g56
(g77
g58
NtRp2545
(dp2546
g61
(dp2547
g81
g82
ssg70
g2541
sg63
(lp2548
S'PATH_INFO'
p2549
asbag56
(g77
g58
NtRp2550
(dp2551
g61
(dp2552
g88
g89
ssg70
g2541
sg63
(lp2553
S':'
asbag56
(g77
g58
NtRp2554
(dp2555
g61
(dp2556
sg70
g2541
sg63
(lp2557
g56
(g57
g58
NtRp2558
(dp2559
g61
(dp2560
g69
I3
ssg70
g2554
sg63
(lp2561
g1570
asbasbasbag56
(g72
g58
NtRp2562
(dp2563
g61
(dp2564
sg70
g2348
sg63
(lp2565
g56
(g77
g58
NtRp2566
(dp2567
g61
(dp2568
g81
g82
ssg70
g2562
sg63
(lp2569
S'QUERY_STRING'
p2570
asbag56
(g77
g58
NtRp2571
(dp2572
g61
(dp2573
g88
g89
ssg70
g2562
sg63
(lp2574
S':'
asbag56
(g77
g58
NtRp2575
(dp2576
g61
(dp2577
sg70
g2562
sg63
(lp2578
g56
(g57
g58
NtRp2579
(dp2580
g61
(dp2581
g69
I3
ssg70
g2575
sg63
(lp2582
S''
asbasbasbag56
(g72
g58
NtRp2583
(dp2584
g61
(dp2585
sg70
g2348
sg63
(lp2586
g56
(g77
g58
NtRp2587
(dp2588
g61
(dp2589
g81
g82
ssg70
g2583
sg63
(lp2590
S'REMOTE_ADDR'
p2591
asbag56
(g77
g58
NtRp2592
(dp2593
g61
(dp2594
g88
g89
ssg70
g2583
sg63
(lp2595
S':'
asbag56
(g77
g58
NtRp2596
(dp2597
g61
(dp2598
sg70
g2583
sg63
(lp2599
g56
(g57
g58
NtRp2600
(dp2601
g61
(dp2602
g69
I3
ssg70
g2596
sg63
(lp2603
g189
asbasbasbag56
(g72
g58
NtRp2604
(dp2605
g61
(dp2606
sg70
g2348
sg63
(lp2607
g56
(g77
g58
NtRp2608
(dp2609
g61
(dp2610
g81
g82
ssg70
g2604
sg63
(lp2611
S'REMOTE_PORT'
p2612
asbag56
(g77
g58
NtRp2613
(dp2614
g61
(dp2615
g88
g89
ssg70
g2604
sg63
(lp2616
S':'
asbag56
(g77
g58
NtRp2617
(dp2618
g61
(dp2619
sg70
g2604
sg63
(lp2620
g56
(g57
g58
NtRp2621
(dp2622
g61
(dp2623
g69
I3
ssg70
g2617
sg63
(lp2624
g1634
asbasbasbag56
(g72
g58
NtRp2625
(dp2626
g61
(dp2627
sg70
g2348
sg63
(lp2628
g56
(g77
g58
NtRp2629
(dp2630
g61
(dp2631
g81
g82
ssg70
g2625
sg63
(lp2632
S'REQUEST_METHOD'
p2633
asbag56
(g77
g58
NtRp2634
(dp2635
g61
(dp2636
g88
g89
ssg70
g2625
sg63
(lp2637
S':'
asbag56
(g77
g58
NtRp2638
(dp2639
g61
(dp2640
sg70
g2625
sg63
(lp2641
g56
(g57
g58
NtRp2642
(dp2643
g61
(dp2644
g69
I3
ssg70
g2638
sg63
(lp2645
g1656
asbasbasbag56
(g72
g58
NtRp2646
(dp2647
g61
(dp2648
sg70
g2348
sg63
(lp2649
g56
(g77
g58
NtRp2650
(dp2651
g61
(dp2652
g81
g82
ssg70
g2646
sg63
(lp2653
S'SCRIPT_NAME'
p2654
asbag56
(g77
g58
NtRp2655
(dp2656
g61
(dp2657
g88
g89
ssg70
g2646
sg63
(lp2658
S':'
asbag56
(g77
g58
NtRp2659
(dp2660
g61
(dp2661
sg70
g2646
sg63
(lp2662
g56
(g57
g58
NtRp2663
(dp2664
g61
(dp2665
g69
I3
ssg70
g2659
sg63
(lp2666
S''
asbasbasbag56
(g72
g58
NtRp2667
(dp2668
g61
(dp2669
sg70
g2348
sg63
(lp2670
g56
(g77
g58
NtRp2671
(dp2672
g61
(dp2673
g81
g82
ssg70
g2667
sg63
(lp2674
S'SERVER_NAME'
p2675
asbag56
(g77
g58
NtRp2676
(dp2677
g61
(dp2678
g88
g89
ssg70
g2667
sg63
(lp2679
S':'
asbag56
(g77
g58
NtRp2680
(dp2681
g61
(dp2682
sg70
g2667
sg63
(lp2683
g56
(g57
g58
NtRp2684
(dp2685
g61
(dp2686
g69
I3
ssg70
g2680
sg63
(lp2687
g1699
asbasbasbag56
(g72
g58
NtRp2688
(dp2689
g61
(dp2690
sg70
g2348
sg63
(lp2691
g56
(g77
g58
NtRp2692
(dp2693
g61
(dp2694
g81
g82
ssg70
g2688
sg63
(lp2695
S'SERVER_PORT'
p2696
asbag56
(g77
g58
NtRp2697
(dp2698
g61
(dp2699
g88
g89
ssg70
g2688
sg63
(lp2700
S':'
asbag56
(g77
g58
NtRp2701
(dp2702
g61
(dp2703
sg70
g2688
sg63
(lp2704
g56
(g57
g58
NtRp2705
(dp2706
g61
(dp2707
g69
I3
ssg70
g2701
sg63
(lp2708
g1721
asbasbasbag56
(g72
g58
NtRp2709
(dp2710
g61
(dp2711
sg70
g2348
sg63
(lp2712
g56
(g77
g58
NtRp2713
(dp2714
g61
(dp2715
g81
g82
ssg70
g2709
sg63
(lp2716
S'SERVER_PROTOCOL'
p2717
asbag56
(g77
g58
NtRp2718
(dp2719
g61
(dp2720
g88
g89
ssg70
g2709
sg63
(lp2721
S':'
asbag56
(g77
g58
NtRp2722
(dp2723
g61
(dp2724
sg70
g2709
sg63
(lp2725
g56
(g57
g58
NtRp2726
(dp2727
g61
(dp2728
g69
I3
ssg70
g2722
sg63
(lp2729
g1743
asbasbasbag56
(g72
g58
NtRp2730
(dp2731
g61
(dp2732
sg70
g2348
sg63
(lp2733
g56
(g77
g58
NtRp2734
(dp2735
g61
(dp2736
g81
g82
ssg70
g2730
sg63
(lp2737
S'SERVER_SOFTWARE'
p2738
asbag56
(g77
g58
NtRp2739
(dp2740
g61
(dp2741
g88
g89
ssg70
g2730
sg63
(lp2742
S':'
asbag56
(g77
g58
NtRp2743
(dp2744
g61
(dp2745
sg70
g2730
sg63
(lp2746
g56
(g57
g58
NtRp2747
(dp2748
g61
(dp2749
g69
I3
ssg70
g2743
sg63
(lp2750
g1765
asbasbasbag56
(g72
g58
NtRp2751
(dp2752
g61
(dp2753
sg70
g2348
sg63
(lp2754
g56
(g77
g58
NtRp2755
(dp2756
g61
(dp2757
g81
g82
ssg70
g2751
sg63
(lp2758
S'wsgi.errors'
p2759
asbag56
(g77
g58
NtRp2760
(dp2761
g61
(dp2762
g88
g89
ssg70
g2751
sg63
(lp2763
S':'
asbag56
(g77
g58
NtRp2764
(dp2765
g61
(dp2766
sg70
g2751
sg63
(lp2767
g56
(g57
g58
NtRp2768
(dp2769
g61
(dp2770
g69
I3
ssg70
g2764
sg63
(lp2771
S"<open file '<stderr>', mode 'w' at 0x100283270>"
p2772
asbasbasbag56
(g72
g58
NtRp2773
(dp2774
g61
(dp2775
sg70
g2348
sg63
(lp2776
g56
(g77
g58
NtRp2777
(dp2778
g61
(dp2779
g81
g82
ssg70
g2773
sg63
(lp2780
S'wsgi.file_wrapper'
p2781
asbag56
(g77
g58
NtRp2782
(dp2783
g61
(dp2784
g88
g89
ssg70
g2773
sg63
(lp2785
S':'
asbag56
(g77
g58
NtRp2786
(dp2787
g61
(dp2788
sg70
g2773
sg63
(lp2789
g56
(g57
g58
NtRp2790
(dp2791
g61
(dp2792
g69
I3
ssg70
g2786
sg63
(lp2793
S'<class gluon.rocket.FileWrapper at 0x101976ef0>'
p2794
asbasbasbag56
(g72
g58
NtRp2795
(dp2796
g61
(dp2797
sg70
g2348
sg63
(lp2798
g56
(g77
g58
NtRp2799
(dp2800
g61
(dp2801
g81
g82
ssg70
g2795
sg63
(lp2802
S'wsgi.input'
p2803
asbag56
(g77
g58
NtRp2804
(dp2805
g61
(dp2806
g88
g89
ssg70
g2795
sg63
(lp2807
S':'
asbag56
(g77
g58
NtRp2808
(dp2809
g61
(dp2810
sg70
g2795
sg63
(lp2811
g56
(g57
g58
NtRp2812
(dp2813
g61
(dp2814
g69
I3
ssg70
g2808
sg63
(lp2815
S'<cStringIO.StringO object at 0x1075fe458>'
p2816
asbasbasbag56
(g72
g58
NtRp2817
(dp2818
g61
(dp2819
sg70
g2348
sg63
(lp2820
g56
(g77
g58
NtRp2821
(dp2822
g61
(dp2823
g81
g82
ssg70
g2817
sg63
(lp2824
S'wsgi.multiprocess'
p2825
asbag56
(g77
g58
NtRp2826
(dp2827
g61
(dp2828
g88
g89
ssg70
g2817
sg63
(lp2829
S':'
asbag56
(g77
g58
NtRp2830
(dp2831
g61
(dp2832
sg70
g2817
sg63
(lp2833
g56
(g57
g58
NtRp2834
(dp2835
g61
(dp2836
g69
I3
ssg70
g2830
sg63
(lp2837
g99
asbasbasbag56
(g72
g58
NtRp2838
(dp2839
g61
(dp2840
sg70
g2348
sg63
(lp2841
g56
(g77
g58
NtRp2842
(dp2843
g61
(dp2844
g81
g82
ssg70
g2838
sg63
(lp2845
S'wsgi.multithread'
p2846
asbag56
(g77
g58
NtRp2847
(dp2848
g61
(dp2849
g88
g89
ssg70
g2838
sg63
(lp2850
S':'
asbag56
(g77
g58
NtRp2851
(dp2852
g61
(dp2853
sg70
g2838
sg63
(lp2854
g56
(g57
g58
NtRp2855
(dp2856
g61
(dp2857
g69
I3
ssg70
g2851
sg63
(lp2858
g1939
asbasbasbag56
(g72
g58
NtRp2859
(dp2860
g61
(dp2861
sg70
g2348
sg63
(lp2862
g56
(g77
g58
NtRp2863
(dp2864
g61
(dp2865
g81
g82
ssg70
g2859
sg63
(lp2866
S'wsgi.run_once'
p2867
asbag56
(g77
g58
NtRp2868
(dp2869
g61
(dp2870
g88
g89
ssg70
g2859
sg63
(lp2871
S':'
asbag56
(g77
g58
NtRp2872
(dp2873
g61
(dp2874
sg70
g2859
sg63
(lp2875
g56
(g57
g58
NtRp2876
(dp2877
g61
(dp2878
g69
I3
ssg70
g2872
sg63
(lp2879
g99
asbasbasbag56
(g72
g58
NtRp2880
(dp2881
g61
(dp2882
sg70
g2348
sg63
(lp2883
g56
(g77
g58
NtRp2884
(dp2885
g61
(dp2886
g81
g82
ssg70
g2880
sg63
(lp2887
S'wsgi.url_scheme'
p2888
asbag56
(g77
g58
NtRp2889
(dp2890
g61
(dp2891
g88
g89
ssg70
g2880
sg63
(lp2892
S':'
asbag56
(g77
g58
NtRp2893
(dp2894
g61
(dp2895
sg70
g2880
sg63
(lp2896
g56
(g57
g58
NtRp2897
(dp2898
g61
(dp2899
g69
I3
ssg70
g2893
sg63
(lp2900
g1982
asbasbasbag56
(g72
g58
NtRp2901
(dp2902
g61
(dp2903
sg70
g2348
sg63
(lp2904
g56
(g77
g58
NtRp2905
(dp2906
g61
(dp2907
g81
g82
ssg70
g2901
sg63
(lp2908
S'wsgi.version'
p2909
asbag56
(g77
g58
NtRp2910
(dp2911
g61
(dp2912
g88
g89
ssg70
g2901
sg63
(lp2913
S':'
asbag56
(g77
g58
NtRp2914
(dp2915
g61
(dp2916
sg70
g2901
sg63
(lp2917
g56
(g57
g58
NtRp2918
(dp2919
g61
(dp2920
g69
I3
ssg70
g2914
sg63
(lp2921
S'1'
asbasbasbasbasbasbasbasbasbasbasbasbasbsS'frames'
p2922
(lp2923
(dp2924
S'file'
p2925
S'/Users/schultzc/workspace/wherespuppet/web2py/gluon/restricted.py'
p2926
sS'dump'
p2927
(dp2928
S'environment'
p2929
S"{'A': <class 'gluon.html.A'>, 'B': <class 'gluon.html.B'>, 'BEAUTIFY': <class 'gluon.html.BEAUTIFY'>, 'BODY': <class 'gluon.html.BODY'>, 'BR': <class 'gluon.html.BR'>, 'BUTTON': <class 'gluon.html.BUTTON'>, 'CENTER': <class 'gluon.html.CENTER'>, 'CLEANUP': <class 'gluon.validators.CLEANUP'>, 'CODE': <class 'gluon.html.CODE'>, 'CRYPT': <class 'gluon.validators.CRYPT'>, ...}"
p2930
sS'ccode'
p2931
S'<code object <module> at 0x1075fbd30, file "/Use...applications/wp/controllers/default.py", line 11>'
p2932
ssS'lnum'
p2933
I192
sS'lines'
p2934
(dp2935
I192
S'        exec ccode in environment'
p2936
sI193
S'    except HTTP:'
p2937
sI194
S'        raise'
p2938
sI195
S'    except Exception:'
p2939
sI196
S'        # XXX Show exception in Wing IDE if running in debugger'
p2940
sI187
S'    try:'
p2941
sI188
S'        if type(code) == types.CodeType:'
p2942
sI189
S'            ccode = code'
p2943
sI190
S'        else:'
p2944
sI191
S'            ccode = compile2(code,layer)'
p2945
ssS'call'
p2946
S'(code="# -*- coding: utf-8 -*-\\n# this file is released ...())\\n\'\'\'\\n\\nresponse._vars=response._caller(submit)\\n", environment={\'A\': <class \'gluon.html.A\'>, \'B\': <class \'gluon.html.B\'>, \'BEAUTIFY\': <class \'gluon.html.BEAUTIFY\'>, \'BODY\': <class \'gluon.html.BODY\'>, \'BR\': <class \'gluon.html.BR\'>, \'BUTTON\': <class \'gluon.html.BUTTON\'>, \'CENTER\': <class \'gluon.html.CENTER\'>, \'CLEANUP\': <class \'gluon.validators.CLEANUP\'>, \'CODE\': <class \'gluon.html.CODE\'>, \'CRYPT\': <class \'gluon.validators.CRYPT\'>, ...}, layer=\'/Users/schultzc/workspace/wherespuppet/web2py/applications/wp/controllers/default.py\')'
p2947
sS'func'
p2948
S'restricted'
p2949
sa(dp2950
g2925
S'/Users/schultzc/workspace/wherespuppet/web2py/applications/wp/controllers/default.py'
p2951
sg2927
(dp2952
sg2933
I92
sg2934
(dp2953
I81
S'    http://..../[app]/default/data/delete/[table]/[id['
p2954
sI82
S'    http://..../[app]/default/data/select/[table]'
p2955
sI83
S'    http://..../[app]/default/data/search/[table]'
p2956
sI84
S'    but URLs bust be signed, i.e. linked with'
p2957
sI85
S"      A('table',_href=URL('data/tables',user_signature=True))"
p2958
sI86
S'    or with the signed load operator'
p2959
sI87
S"      LOAD('default','data.load',args='tables',ajax=True,user_signature=True)"
p2960
sI88
S'    """'
p2961
sI89
S'    return dict(form=crud())'
p2962
sI90
S"'''"
p2963
ssg2946
S'()'
p2964
sg2948
S'<module>'
p2965
sa(dp2966
g2925
S'/Users/schultzc/workspace/wherespuppet/web2py/gluon/globals.py'
p2967
sg2927
(dp2968
S'self'
p2969
S'undefined'
p2970
sS'f'
S'<function submit>'
p2971
ssg2933
I137
sg2934
(dp2972
I132
S"        self.flash = ''           # used by the default view layout"
p2973
sI133
S'        self.meta = Storage()     # used by web2py_ajax.html'
p2974
sI134
S'        self.menu = []            # used by the default view layout'
p2975
sI135
S'        self.files = []           # used by web2py_ajax.html'
p2976
sI136
S'        self._vars = None'
p2977
sI137
S'        self._caller = lambda f: f()'
p2978
sI138
S'        self._view_environment = None'
p2979
sI139
S'        self._custom_commit = None'
p2980
sI140
S'        self._custom_rollback = None'
p2981
sI141
S''
ssg2946
S'(f=<function submit>)'
p2982
sg2948
S'<lambda>'
p2983
sa(dp2984
g2925
S'/Users/schultzc/workspace/wherespuppet/web2py/applications/wp/controllers/default.py'
p2985
sg2927
(dp2986
S'latitude'
p2987
g2970
sS'global request'
p2988
S"<Storage {'is_local': True, 'function': 'submit'....04-02-14.be00bbf6-92cb-4375-8ea6-74894c3b53ea'}>"
p2989
sS'request.cookies'
p2990
S"<SimpleCookie: posAccuracy='24000' posLat='33.41...'127.0.0.1-292b6699-2c9a-4c11-9dfc-e30d08cf9f9a'>"
p2991
sS'request.cookies.posLat'
p2992
g2970
ssg2933
I19
sg2934
(dp2993
I14
S'def index():'
p2994
sI15
S'    images = db().select(db.image.ALL, orderby=db.image.title)'
p2995
sI16
S'    return dict(images=images)'
p2996
sI17
S''
sI18
S'def submit():'
p2997
sI19
S'    latitude = request.cookies.posLat'
p2998
sI20
S'    form = SQLFORM(db.image, submit_button=\'Submit Puppet\', _id = "submission",formstyle="divs")'
p2999
sI21
S''
sI22
S'    if form.accepts(request.vars, session):'
p3000
sI23
S"        response.flash = 'form accepted'"
p3001
ssg2946
S'()'
p3002
sg2948
S'submit'
p3003
sasS'pyver'
p3004
S'Python 2.7.2: /opt/local/Library/Frameworks/Python.framework/Versions/2.7/Resources/Python.app/Contents/MacOS/Python'
p3005
sS'session'
p3006
g56
(g57
g58
NtRp3007
(dp3008
g61
(dp3009
sg63
(lp3010
g56
(g65
g58
NtRp3011
(dp3012
g61
(dp3013
g69
I5
ssg70
Nsg63
(lp3014
sbasbsS'etype'
p3015
S"<type 'exceptions.AttributeError'>"
p3016
sS'date'
p3017
S'Thu Jul 21 04:02:14 2011'
p3018
sS'response'
p3019
g56
(g57
g58
NtRp3020
(dp3021
g61
(dp3022
sg63
(lp3023
g56
(g65
g58
NtRp3024
(dp3025
g61
(dp3026
g69
I5
ssg70
Nsg63
(lp3027
g56
(g72
g58
NtRp3028
(dp3029
g61
(dp3030
sg70
g3024
sg63
(lp3031
g56
(g77
g58
NtRp3032
(dp3033
g61
(dp3034
g81
g82
ssg70
g3028
sg63
(lp3035
g154
asbag56
(g77
g58
NtRp3036
(dp3037
g61
(dp3038
g88
g89
ssg70
g3028
sg63
(lp3039
S':'
asbag56
(g77
g58
NtRp3040
(dp3041
g61
(dp3042
sg70
g3028
sg63
(lp3043
g56
(g57
g58
NtRp3044
(dp3045
g61
(dp3046
g69
I5
ssg70
g3040
sg63
(lp3047
S'<cStringIO.StringO object at 0x105ccee68>'
p3048
asbasbasbag56
(g72
g58
NtRp3049
(dp3050
g61
(dp3051
sg70
g3024
sg63
(lp3052
g56
(g77
g58
NtRp3053
(dp3054
g61
(dp3055
g81
g82
ssg70
g3049
sg63
(lp3056
g220
asbag56
(g77
g58
NtRp3057
(dp3058
g61
(dp3059
g88
g89
ssg70
g3049
sg63
(lp3060
S':'
asbag56
(g77
g58
NtRp3061
(dp3062
g61
(dp3063
sg70
g3049
sg63
(lp3064
g56
(g57
g58
NtRp3065
(dp3066
g61
(dp3067
g69
I5
ssg70
g3061
sg63
(lp3068
g56
(g65
g58
NtRp3069
(dp3070
g61
(dp3071
g69
I4
ssg70
Nsg63
(lp3072
g56
(g72
g58
NtRp3073
(dp3074
g61
(dp3075
sg70
g3069
sg63
(lp3076
g56
(g77
g58
NtRp3077
(dp3078
g61
(dp3079
g81
g82
ssg70
g3073
sg63
(lp3080
S'session_id_wp'
p3081
asbag56
(g77
g58
NtRp3082
(dp3083
g61
(dp3084
g88
g89
ssg70
g3073
sg63
(lp3085
S':'
asbag56
(g77
g58
NtRp3086
(dp3087
g61
(dp3088
sg70
g3073
sg63
(lp3089
g56
(g57
g58
NtRp3090
(dp3091
g61
(dp3092
g69
I4
ssg70
g3086
sg63
(lp3093
g56
(g65
g58
NtRp3094
(dp3095
g61
(dp3096
g69
I3
ssg70
Nsg63
(lp3097
g56
(g72
g58
NtRp3098
(dp3099
g61
(dp3100
sg70
g3094
sg63
(lp3101
g56
(g77
g58
NtRp3102
(dp3103
g61
(dp3104
g81
g82
ssg70
g3098
sg63
(lp3105
g270
asbag56
(g77
g58
NtRp3106
(dp3107
g61
(dp3108
g88
g89
ssg70
g3098
sg63
(lp3109
S':'
asbag56
(g77
g58
NtRp3110
(dp3111
g61
(dp3112
sg70
g3098
sg63
(lp3113
g56
(g57
g58
NtRp3114
(dp3115
g61
(dp3116
g69
I3
ssg70
g3110
sg63
(lp3117
S''
asbasbasbag56
(g72
g58
NtRp3118
(dp3119
g61
(dp3120
sg70
g3094
sg63
(lp3121
g56
(g77
g58
NtRp3122
(dp3123
g61
(dp3124
g81
g82
ssg70
g3118
sg63
(lp3125
g291
asbag56
(g77
g58
NtRp3126
(dp3127
g61
(dp3128
g88
g89
ssg70
g3118
sg63
(lp3129
S':'
asbag56
(g77
g58
NtRp3130
(dp3131
g61
(dp3132
sg70
g3118
sg63
(lp3133
g56
(g57
g58
NtRp3134
(dp3135
g61
(dp3136
g69
I3
ssg70
g3130
sg63
(lp3137
S''
asbasbasbag56
(g72
g58
NtRp3138
(dp3139
g61
(dp3140
sg70
g3094
sg63
(lp3141
g56
(g77
g58
NtRp3142
(dp3143
g61
(dp3144
g81
g82
ssg70
g3138
sg63
(lp3145
g312
asbag56
(g77
g58
NtRp3146
(dp3147
g61
(dp3148
g88
g89
ssg70
g3138
sg63
(lp3149
S':'
asbag56
(g77
g58
NtRp3150
(dp3151
g61
(dp3152
sg70
g3138
sg63
(lp3153
g56
(g57
g58
NtRp3154
(dp3155
g61
(dp3156
g69
I3
ssg70
g3150
sg63
(lp3157
S''
asbasbasbag56
(g72
g58
NtRp3158
(dp3159
g61
(dp3160
sg70
g3094
sg63
(lp3161
g56
(g77
g58
NtRp3162
(dp3163
g61
(dp3164
g81
g82
ssg70
g3158
sg63
(lp3165
g333
asbag56
(g77
g58
NtRp3166
(dp3167
g61
(dp3168
g88
g89
ssg70
g3158
sg63
(lp3169
S':'
asbag56
(g77
g58
NtRp3170
(dp3171
g61
(dp3172
sg70
g3158
sg63
(lp3173
g56
(g57
g58
NtRp3174
(dp3175
g61
(dp3176
g69
I3
ssg70
g3170
sg63
(lp3177
S''
asbasbasbag56
(g72
g58
NtRp3178
(dp3179
g61
(dp3180
sg70
g3094
sg63
(lp3181
g56
(g77
g58
NtRp3182
(dp3183
g61
(dp3184
g81
g82
ssg70
g3178
sg63
(lp3185
g354
asbag56
(g77
g58
NtRp3186
(dp3187
g61
(dp3188
g88
g89
ssg70
g3178
sg63
(lp3189
S':'
asbag56
(g77
g58
NtRp3190
(dp3191
g61
(dp3192
sg70
g3178
sg63
(lp3193
g56
(g57
g58
NtRp3194
(dp3195
g61
(dp3196
g69
I3
ssg70
g3190
sg63
(lp3197
S''
asbasbasbag56
(g72
g58
NtRp3198
(dp3199
g61
(dp3200
sg70
g3094
sg63
(lp3201
g56
(g77
g58
NtRp3202
(dp3203
g61
(dp3204
g81
g82
ssg70
g3198
sg63
(lp3205
g375
asbag56
(g77
g58
NtRp3206
(dp3207
g61
(dp3208
g88
g89
ssg70
g3198
sg63
(lp3209
S':'
asbag56
(g77
g58
NtRp3210
(dp3211
g61
(dp3212
sg70
g3198
sg63
(lp3213
g56
(g57
g58
NtRp3214
(dp3215
g61
(dp3216
g69
I3
ssg70
g3210
sg63
(lp3217
S'/'
asbasbasbag56
(g72
g58
NtRp3218
(dp3219
g61
(dp3220
sg70
g3094
sg63
(lp3221
g56
(g77
g58
NtRp3222
(dp3223
g61
(dp3224
g81
g82
ssg70
g3218
sg63
(lp3225
g396
asbag56
(g77
g58
NtRp3226
(dp3227
g61
(dp3228
g88
g89
ssg70
g3218
sg63
(lp3229
S':'
asbag56
(g77
g58
NtRp3230
(dp3231
g61
(dp3232
sg70
g3218
sg63
(lp3233
g56
(g57
g58
NtRp3234
(dp3235
g61
(dp3236
g69
I3
ssg70
g3230
sg63
(lp3237
S''
asbasbasbag56
(g72
g58
NtRp3238
(dp3239
g61
(dp3240
sg70
g3094
sg63
(lp3241
g56
(g77
g58
NtRp3242
(dp3243
g61
(dp3244
g81
g82
ssg70
g3238
sg63
(lp3245
g417
asbag56
(g77
g58
NtRp3246
(dp3247
g61
(dp3248
g88
g89
ssg70
g3238
sg63
(lp3249
S':'
asbag56
(g77
g58
NtRp3250
(dp3251
g61
(dp3252
sg70
g3238
sg63
(lp3253
g56
(g57
g58
NtRp3254
(dp3255
g61
(dp3256
g69
I3
ssg70
g3250
sg63
(lp3257
S''
asbasbasbasbasbasbasbasbasbasbasbag56
(g72
g58
NtRp3258
(dp3259
g61
(dp3260
sg70
g3024
sg63
(lp3261
g56
(g77
g58
NtRp3262
(dp3263
g61
(dp3264
g81
g82
ssg70
g3258
sg63
(lp3265
S'files'
p3266
asbag56
(g77
g58
NtRp3267
(dp3268
g61
(dp3269
g88
g89
ssg70
g3258
sg63
(lp3270
S':'
asbag56
(g77
g58
NtRp3271
(dp3272
g61
(dp3273
sg70
g3258
sg63
(lp3274
g56
(g57
g58
NtRp3275
(dp3276
g61
(dp3277
g69
I5
ssg70
g3271
sg63
(lp3278
g56
(g65
g58
NtRp3279
(dp3280
g61
(dp3281
g69
I4
ssg70
Nsg63
(lp3282
sbasbasbasbag56
(g72
g58
NtRp3283
(dp3284
g61
(dp3285
sg70
g3024
sg63
(lp3286
g56
(g77
g58
NtRp3287
(dp3288
g61
(dp3289
g81
g82
ssg70
g3283
sg63
(lp3290
S'flash'
p3291
asbag56
(g77
g58
NtRp3292
(dp3293
g61
(dp3294
g88
g89
ssg70
g3283
sg63
(lp3295
S':'
asbag56
(g77
g58
NtRp3296
(dp3297
g61
(dp3298
sg70
g3283
sg63
(lp3299
g56
(g57
g58
NtRp3300
(dp3301
g61
(dp3302
g69
I5
ssg70
g3296
sg63
(lp3303
S''
asbasbasbag56
(g72
g58
NtRp3304
(dp3305
g61
(dp3306
sg70
g3024
sg63
(lp3307
g56
(g77
g58
NtRp3308
(dp3309
g61
(dp3310
g81
g82
ssg70
g3304
sg63
(lp3311
S'headers'
p3312
asbag56
(g77
g58
NtRp3313
(dp3314
g61
(dp3315
g88
g89
ssg70
g3304
sg63
(lp3316
S':'
asbag56
(g77
g58
NtRp3317
(dp3318
g61
(dp3319
sg70
g3304
sg63
(lp3320
g56
(g57
g58
NtRp3321
(dp3322
g61
(dp3323
g69
I5
ssg70
g3317
sg63
(lp3324
g56
(g65
g58
NtRp3325
(dp3326
g61
(dp3327
g69
I4
ssg70
Nsg63
(lp3328
g56
(g72
g58
NtRp3329
(dp3330
g61
(dp3331
sg70
g3325
sg63
(lp3332
g56
(g77
g58
NtRp3333
(dp3334
g61
(dp3335
g81
g82
ssg70
g3329
sg63
(lp3336
S'Cache-Control'
p3337
asbag56
(g77
g58
NtRp3338
(dp3339
g61
(dp3340
g88
g89
ssg70
g3329
sg63
(lp3341
S':'
asbag56
(g77
g58
NtRp3342
(dp3343
g61
(dp3344
sg70
g3329
sg63
(lp3345
g56
(g57
g58
NtRp3346
(dp3347
g61
(dp3348
g69
I4
ssg70
g3342
sg63
(lp3349
S'no-store, no-cache, must-revalidate, post-check=0, pre-check=0'
p3350
asbasbasbag56
(g72
g58
NtRp3351
(dp3352
g61
(dp3353
sg70
g3325
sg63
(lp3354
g56
(g77
g58
NtRp3355
(dp3356
g61
(dp3357
g81
g82
ssg70
g3351
sg63
(lp3358
S'Content-Type'
p3359
asbag56
(g77
g58
NtRp3360
(dp3361
g61
(dp3362
g88
g89
ssg70
g3351
sg63
(lp3363
S':'
asbag56
(g77
g58
NtRp3364
(dp3365
g61
(dp3366
sg70
g3351
sg63
(lp3367
g56
(g57
g58
NtRp3368
(dp3369
g61
(dp3370
g69
I4
ssg70
g3364
sg63
(lp3371
S'text/html; charset=utf-8'
p3372
asbasbasbag56
(g72
g58
NtRp3373
(dp3374
g61
(dp3375
sg70
g3325
sg63
(lp3376
g56
(g77
g58
NtRp3377
(dp3378
g61
(dp3379
g81
g82
ssg70
g3373
sg63
(lp3380
S'Expires'
p3381
asbag56
(g77
g58
NtRp3382
(dp3383
g61
(dp3384
g88
g89
ssg70
g3373
sg63
(lp3385
S':'
asbag56
(g77
g58
NtRp3386
(dp3387
g61
(dp3388
sg70
g3373
sg63
(lp3389
g56
(g57
g58
NtRp3390
(dp3391
g61
(dp3392
g69
I4
ssg70
g3386
sg63
(lp3393
S'Thu, 21 Jul 2011 11:02:14 GMT'
p3394
asbasbasbag56
(g72
g58
NtRp3395
(dp3396
g61
(dp3397
sg70
g3325
sg63
(lp3398
g56
(g77
g58
NtRp3399
(dp3400
g61
(dp3401
g81
g82
ssg70
g3395
sg63
(lp3402
S'Pragma'
p3403
asbag56
(g77
g58
NtRp3404
(dp3405
g61
(dp3406
g88
g89
ssg70
g3395
sg63
(lp3407
S':'
asbag56
(g77
g58
NtRp3408
(dp3409
g61
(dp3410
sg70
g3395
sg63
(lp3411
g56
(g57
g58
NtRp3412
(dp3413
g61
(dp3414
g69
I4
ssg70
g3408
sg63
(lp3415
S'no-cache'
p3416
asbasbasbag56
(g72
g58
NtRp3417
(dp3418
g61
(dp3419
sg70
g3325
sg63
(lp3420
g56
(g77
g58
NtRp3421
(dp3422
g61
(dp3423
g81
g82
ssg70
g3417
sg63
(lp3424
S'X-Powered-By'
p3425
asbag56
(g77
g58
NtRp3426
(dp3427
g61
(dp3428
g88
g89
ssg70
g3417
sg63
(lp3429
S':'
asbag56
(g77
g58
NtRp3430
(dp3431
g61
(dp3432
sg70
g3417
sg63
(lp3433
g56
(g57
g58
NtRp3434
(dp3435
g61
(dp3436
g69
I4
ssg70
g3430
sg63
(lp3437
S'web2py'
p3438
asbasbasbasbasbasbasbag56
(g72
g58
NtRp3439
(dp3440
g61
(dp3441
sg70
g3024
sg63
(lp3442
g56
(g77
g58
NtRp3443
(dp3444
g61
(dp3445
g81
g82
ssg70
g3439
sg63
(lp3446
S'menu'
p3447
asbag56
(g77
g58
NtRp3448
(dp3449
g61
(dp3450
g88
g89
ssg70
g3439
sg63
(lp3451
S':'
asbag56
(g77
g58
NtRp3452
(dp3453
g61
(dp3454
sg70
g3439
sg63
(lp3455
g56
(g57
g58
NtRp3456
(dp3457
g61
(dp3458
g69
I5
ssg70
g3452
sg63
(lp3459
g56
(g65
g58
NtRp3460
(dp3461
g61
(dp3462
g69
I4
ssg70
Nsg63
(lp3463
g56
(g72
g58
NtRp3464
(dp3465
g61
(dp3466
sg70
g3460
sg63
(lp3467
g56
(g77
g58
NtRp3468
(dp3469
g61
(dp3470
sg70
g3464
sg63
(lp3471
g56
(g57
g58
NtRp3472
(dp3473
g61
(dp3474
g69
I4
ssg70
g3468
sg63
(lp3475
g56
(g65
g58
NtRp3476
(dp3477
g61
(dp3478
g69
I3
ssg70
Nsg63
(lp3479
g56
(g72
g58
NtRp3480
(dp3481
g61
(dp3482
sg70
g3476
sg63
(lp3483
g56
(g77
g58
NtRp3484
(dp3485
g61
(dp3486
sg70
g3480
sg63
(lp3487
g56
(g57
g58
NtRp3488
(dp3489
g61
(dp3490
g69
I3
ssg70
g3484
sg63
(lp3491
cgluon.languages
lazyT_unpickle
p3492
(S't\x04\x00\x00\x00Home'
tRp3493
asbasbasbag56
(g72
g58
NtRp3494
(dp3495
g61
(dp3496
sg70
g3476
sg63
(lp3497
g56
(g77
g58
NtRp3498
(dp3499
g61
(dp3500
sg70
g3494
sg63
(lp3501
g56
(g57
g58
NtRp3502
(dp3503
g61
(dp3504
g69
I3
ssg70
g3498
sg63
(lp3505
g99
asbasbasbag56
(g72
g58
NtRp3506
(dp3507
g61
(dp3508
sg70
g3476
sg63
(lp3509
g56
(g77
g58
NtRp3510
(dp3511
g61
(dp3512
sg70
g3506
sg63
(lp3513
g56
(g57
g58
NtRp3514
(dp3515
g61
(dp3516
g69
I3
ssg70
g3510
sg63
(lp3517
S'/wp/default/index'
p3518
asbasbasbag56
(g72
g58
NtRp3519
(dp3520
g61
(dp3521
sg70
g3476
sg63
(lp3522
g56
(g77
g58
NtRp3523
(dp3524
g61
(dp3525
sg70
g3519
sg63
(lp3526
g56
(g57
g58
NtRp3527
(dp3528
g61
(dp3529
g69
I3
ssg70
g3523
sg63
(lp3530
g56
(g65
g58
NtRp3531
(dp3532
g61
(dp3533
g69
I2
ssg70
Nsg63
(lp3534
sbasbasbasbasbasbasbasbag56
(g72
g58
NtRp3535
(dp3536
g61
(dp3537
sg70
g3460
sg63
(lp3538
g56
(g77
g58
NtRp3539
(dp3540
g61
(dp3541
sg70
g3535
sg63
(lp3542
g56
(g57
g58
NtRp3543
(dp3544
g61
(dp3545
g69
I4
ssg70
g3539
sg63
(lp3546
g56
(g65
g58
NtRp3547
(dp3548
g61
(dp3549
g69
I3
ssg70
Nsg63
(lp3550
g56
(g72
g58
NtRp3551
(dp3552
g61
(dp3553
sg70
g3547
sg63
(lp3554
g56
(g77
g58
NtRp3555
(dp3556
g61
(dp3557
sg70
g3551
sg63
(lp3558
g56
(g57
g58
NtRp3559
(dp3560
g61
(dp3561
g69
I3
ssg70
g3555
sg63
(lp3562
g3492
(S's\x08\x00\x00\x00This App'
tRp3563
asbasbasbag56
(g72
g58
NtRp3564
(dp3565
g61
(dp3566
sg70
g3547
sg63
(lp3567
g56
(g77
g58
NtRp3568
(dp3569
g61
(dp3570
sg70
g3564
sg63
(lp3571
g56
(g57
g58
NtRp3572
(dp3573
g61
(dp3574
g69
I3
ssg70
g3568
sg63
(lp3575
g99
asbasbasbag56
(g72
g58
NtRp3576
(dp3577
g61
(dp3578
sg70
g3547
sg63
(lp3579
g56
(g77
g58
NtRp3580
(dp3581
g61
(dp3582
sg70
g3576
sg63
(lp3583
g56
(g57
g58
NtRp3584
(dp3585
g61
(dp3586
g69
I3
ssg70
g3580
sg63
(lp3587
S'/admin/default/design/wp'
p3588
asbasbasbag56
(g72
g58
NtRp3589
(dp3590
g61
(dp3591
sg70
g3547
sg63
(lp3592
g56
(g77
g58
NtRp3593
(dp3594
g61
(dp3595
sg70
g3589
sg63
(lp3596
g56
(g57
g58
NtRp3597
(dp3598
g61
(dp3599
g69
I3
ssg70
g3593
sg63
(lp3600
g56
(g65
g58
NtRp3601
(dp3602
g61
(dp3603
g69
I2
ssg70
Nsg63
(lp3604
g56
(g72
g58
NtRp3605
(dp3606
g61
(dp3607
sg70
g3601
sg63
(lp3608
g56
(g77
g58
NtRp3609
(dp3610
g61
(dp3611
sg70
g3605
sg63
(lp3612
g56
(g57
g58
NtRp3613
(dp3614
g61
(dp3615
g69
I2
ssg70
g3609
sg63
(lp3616
g56
(g65
g58
NtRp3617
(dp3618
g61
(dp3619
g69
I1
ssg70
Nsg63
(lp3620
g56
(g72
g58
NtRp3621
(dp3622
g61
(dp3623
sg70
g3617
sg63
(lp3624
g56
(g77
g58
NtRp3625
(dp3626
g61
(dp3627
sg70
g3621
sg63
(lp3628
g56
(g57
g58
NtRp3629
(dp3630
g61
(dp3631
g69
I1
ssg70
g3625
sg63
(lp3632
g3492
(S't\n\x00\x00\x00Controller'
tRp3633
asbasbasbag56
(g72
g58
NtRp3634
(dp3635
g61
(dp3636
sg70
g3617
sg63
(lp3637
g56
(g77
g58
NtRp3638
(dp3639
g61
(dp3640
sg70
g3634
sg63
(lp3641
g56
(g57
g58
NtRp3642
(dp3643
g61
(dp3644
g69
I1
ssg70
g3638
sg63
(lp3645
I00
asbasbasbag56
(g72
g58
NtRp3646
(dp3647
g61
(dp3648
sg70
g3617
sg63
(lp3649
g56
(g77
g58
NtRp3650
(dp3651
g61
(dp3652
sg70
g3646
sg63
(lp3653
g56
(g57
g58
NtRp3654
(dp3655
g61
(dp3656
g69
I1
ssg70
g3650
sg63
(lp3657
S'/admin/default/edit/wp/controllers/default.py'
p3658
asbasbasbasbasbasbasbag56
(g72
g58
NtRp3659
(dp3660
g61
(dp3661
sg70
g3601
sg63
(lp3662
g56
(g77
g58
NtRp3663
(dp3664
g61
(dp3665
sg70
g3659
sg63
(lp3666
g56
(g57
g58
NtRp3667
(dp3668
g61
(dp3669
g69
I2
ssg70
g3663
sg63
(lp3670
g56
(g65
g58
NtRp3671
(dp3672
g61
(dp3673
g69
I1
ssg70
Nsg63
(lp3674
g56
(g72
g58
NtRp3675
(dp3676
g61
(dp3677
sg70
g3671
sg63
(lp3678
g56
(g77
g58
NtRp3679
(dp3680
g61
(dp3681
sg70
g3675
sg63
(lp3682
g56
(g57
g58
NtRp3683
(dp3684
g61
(dp3685
g69
I1
ssg70
g3679
sg63
(lp3686
g3492
(S't\x04\x00\x00\x00View'
tRp3687
asbasbasbag56
(g72
g58
NtRp3688
(dp3689
g61
(dp3690
sg70
g3671
sg63
(lp3691
g56
(g77
g58
NtRp3692
(dp3693
g61
(dp3694
sg70
g3688
sg63
(lp3695
g56
(g57
g58
NtRp3696
(dp3697
g61
(dp3698
g69
I1
ssg70
g3692
sg63
(lp3699
I00
asbasbasbag56
(g72
g58
NtRp3700
(dp3701
g61
(dp3702
sg70
g3671
sg63
(lp3703
g56
(g77
g58
NtRp3704
(dp3705
g61
(dp3706
sg70
g3700
sg63
(lp3707
g56
(g57
g58
NtRp3708
(dp3709
g61
(dp3710
g69
I1
ssg70
g3704
sg63
(lp3711
S'/admin/default/edit/wp/views/default/submit.html'
p3712
asbasbasbasbasbasbasbag56
(g72
g58
NtRp3713
(dp3714
g61
(dp3715
sg70
g3601
sg63
(lp3716
g56
(g77
g58
NtRp3717
(dp3718
g61
(dp3719
sg70
g3713
sg63
(lp3720
g56
(g57
g58
NtRp3721
(dp3722
g61
(dp3723
g69
I2
ssg70
g3717
sg63
(lp3724
g56
(g65
g58
NtRp3725
(dp3726
g61
(dp3727
g69
I1
ssg70
Nsg63
(lp3728
g56
(g72
g58
NtRp3729
(dp3730
g61
(dp3731
sg70
g3725
sg63
(lp3732
g56
(g77
g58
NtRp3733
(dp3734
g61
(dp3735
sg70
g3729
sg63
(lp3736
g56
(g57
g58
NtRp3737
(dp3738
g61
(dp3739
g69
I1
ssg70
g3733
sg63
(lp3740
g3492
(S't\x06\x00\x00\x00Layout'
tRp3741
asbasbasbag56
(g72
g58
NtRp3742
(dp3743
g61
(dp3744
sg70
g3725
sg63
(lp3745
g56
(g77
g58
NtRp3746
(dp3747
g61
(dp3748
sg70
g3742
sg63
(lp3749
g56
(g57
g58
NtRp3750
(dp3751
g61
(dp3752
g69
I1
ssg70
g3746
sg63
(lp3753
I00
asbasbasbag56
(g72
g58
NtRp3754
(dp3755
g61
(dp3756
sg70
g3725
sg63
(lp3757
g56
(g77
g58
NtRp3758
(dp3759
g61
(dp3760
sg70
g3754
sg63
(lp3761
g56
(g57
g58
NtRp3762
(dp3763
g61
(dp3764
g69
I1
ssg70
g3758
sg63
(lp3765
S'/admin/default/edit/wp/views/layout.html'
p3766
asbasbasbasbasbasbasbag56
(g72
g58
NtRp3767
(dp3768
g61
(dp3769
sg70
g3601
sg63
(lp3770
g56
(g77
g58
NtRp3771
(dp3772
g61
(dp3773
sg70
g3767
sg63
(lp3774
g56
(g57
g58
NtRp3775
(dp3776
g61
(dp3777
g69
I2
ssg70
g3771
sg63
(lp3778
g56
(g65
g58
NtRp3779
(dp3780
g61
(dp3781
g69
I1
ssg70
Nsg63
(lp3782
g56
(g72
g58
NtRp3783
(dp3784
g61
(dp3785
sg70
g3779
sg63
(lp3786
g56
(g77
g58
NtRp3787
(dp3788
g61
(dp3789
sg70
g3783
sg63
(lp3790
g56
(g57
g58
NtRp3791
(dp3792
g61
(dp3793
g69
I1
ssg70
g3787
sg63
(lp3794
g3492
(S't\n\x00\x00\x00Stylesheet'
tRp3795
asbasbasbag56
(g72
g58
NtRp3796
(dp3797
g61
(dp3798
sg70
g3779
sg63
(lp3799
g56
(g77
g58
NtRp3800
(dp3801
g61
(dp3802
sg70
g3796
sg63
(lp3803
g56
(g57
g58
NtRp3804
(dp3805
g61
(dp3806
g69
I1
ssg70
g3800
sg63
(lp3807
I00
asbasbasbag56
(g72
g58
NtRp3808
(dp3809
g61
(dp3810
sg70
g3779
sg63
(lp3811
g56
(g77
g58
NtRp3812
(dp3813
g61
(dp3814
sg70
g3808
sg63
(lp3815
g56
(g57
g58
NtRp3816
(dp3817
g61
(dp3818
g69
I1
ssg70
g3812
sg63
(lp3819
S'/admin/default/edit/wp/static/base.css'
p3820
asbasbasbasbasbasbasbag56
(g72
g58
NtRp3821
(dp3822
g61
(dp3823
sg70
g3601
sg63
(lp3824
g56
(g77
g58
NtRp3825
(dp3826
g61
(dp3827
sg70
g3821
sg63
(lp3828
g56
(g57
g58
NtRp3829
(dp3830
g61
(dp3831
g69
I2
ssg70
g3825
sg63
(lp3832
g56
(g65
g58
NtRp3833
(dp3834
g61
(dp3835
g69
I1
ssg70
Nsg63
(lp3836
g56
(g72
g58
NtRp3837
(dp3838
g61
(dp3839
sg70
g3833
sg63
(lp3840
g56
(g77
g58
NtRp3841
(dp3842
g61
(dp3843
sg70
g3837
sg63
(lp3844
g56
(g57
g58
NtRp3845
(dp3846
g61
(dp3847
g69
I1
ssg70
g3841
sg63
(lp3848
g3492
(S's\x08\x00\x00\x00DB Model'
tRp3849
asbasbasbag56
(g72
g58
NtRp3850
(dp3851
g61
(dp3852
sg70
g3833
sg63
(lp3853
g56
(g77
g58
NtRp3854
(dp3855
g61
(dp3856
sg70
g3850
sg63
(lp3857
g56
(g57
g58
NtRp3858
(dp3859
g61
(dp3860
g69
I1
ssg70
g3854
sg63
(lp3861
I00
asbasbasbag56
(g72
g58
NtRp3862
(dp3863
g61
(dp3864
sg70
g3833
sg63
(lp3865
g56
(g77
g58
NtRp3866
(dp3867
g61
(dp3868
sg70
g3862
sg63
(lp3869
g56
(g57
g58
NtRp3870
(dp3871
g61
(dp3872
g69
I1
ssg70
g3866
sg63
(lp3873
S'/admin/default/edit/wp/models/db.py'
p3874
asbasbasbasbasbasbasbag56
(g72
g58
NtRp3875
(dp3876
g61
(dp3877
sg70
g3601
sg63
(lp3878
g56
(g77
g58
NtRp3879
(dp3880
g61
(dp3881
sg70
g3875
sg63
(lp3882
g56
(g57
g58
NtRp3883
(dp3884
g61
(dp3885
g69
I2
ssg70
g3879
sg63
(lp3886
g56
(g65
g58
NtRp3887
(dp3888
g61
(dp3889
g69
I1
ssg70
Nsg63
(lp3890
g56
(g72
g58
NtRp3891
(dp3892
g61
(dp3893
sg70
g3887
sg63
(lp3894
g56
(g77
g58
NtRp3895
(dp3896
g61
(dp3897
sg70
g3891
sg63
(lp3898
g56
(g57
g58
NtRp3899
(dp3900
g61
(dp3901
g69
I1
ssg70
g3895
sg63
(lp3902
g3492
(S's\n\x00\x00\x00Menu Model'
tRp3903
asbasbasbag56
(g72
g58
NtRp3904
(dp3905
g61
(dp3906
sg70
g3887
sg63
(lp3907
g56
(g77
g58
NtRp3908
(dp3909
g61
(dp3910
sg70
g3904
sg63
(lp3911
g56
(g57
g58
NtRp3912
(dp3913
g61
(dp3914
g69
I1
ssg70
g3908
sg63
(lp3915
I00
asbasbasbag56
(g72
g58
NtRp3916
(dp3917
g61
(dp3918
sg70
g3887
sg63
(lp3919
g56
(g77
g58
NtRp3920
(dp3921
g61
(dp3922
sg70
g3916
sg63
(lp3923
g56
(g57
g58
NtRp3924
(dp3925
g61
(dp3926
g69
I1
ssg70
g3920
sg63
(lp3927
S'/admin/default/edit/wp/models/menu.py'
p3928
asbasbasbasbasbasbasbag56
(g72
g58
NtRp3929
(dp3930
g61
(dp3931
sg70
g3601
sg63
(lp3932
g56
(g77
g58
NtRp3933
(dp3934
g61
(dp3935
sg70
g3929
sg63
(lp3936
g56
(g57
g58
NtRp3937
(dp3938
g61
(dp3939
g69
I2
ssg70
g3933
sg63
(lp3940
g56
(g65
g58
NtRp3941
(dp3942
g61
(dp3943
g69
I1
ssg70
Nsg63
(lp3944
g56
(g72
g58
NtRp3945
(dp3946
g61
(dp3947
sg70
g3941
sg63
(lp3948
g56
(g77
g58
NtRp3949
(dp3950
g61
(dp3951
sg70
g3945
sg63
(lp3952
g56
(g57
g58
NtRp3953
(dp3954
g61
(dp3955
g69
I1
ssg70
g3949
sg63
(lp3956
g3492
(S't\x08\x00\x00\x00Database'
tRp3957
asbasbasbag56
(g72
g58
NtRp3958
(dp3959
g61
(dp3960
sg70
g3941
sg63
(lp3961
g56
(g77
g58
NtRp3962
(dp3963
g61
(dp3964
sg70
g3958
sg63
(lp3965
g56
(g57
g58
NtRp3966
(dp3967
g61
(dp3968
g69
I1
ssg70
g3962
sg63
(lp3969
I00
asbasbasbag56
(g72
g58
NtRp3970
(dp3971
g61
(dp3972
sg70
g3941
sg63
(lp3973
g56
(g77
g58
NtRp3974
(dp3975
g61
(dp3976
sg70
g3970
sg63
(lp3977
g56
(g57
g58
NtRp3978
(dp3979
g61
(dp3980
g69
I1
ssg70
g3974
sg63
(lp3981
S'/wp/appadmin/index'
p3982
asbasbasbasbasbasbasbag56
(g72
g58
NtRp3983
(dp3984
g61
(dp3985
sg70
g3601
sg63
(lp3986
g56
(g77
g58
NtRp3987
(dp3988
g61
(dp3989
sg70
g3983
sg63
(lp3990
g56
(g57
g58
NtRp3991
(dp3992
g61
(dp3993
g69
I2
ssg70
g3987
sg63
(lp3994
g56
(g65
g58
NtRp3995
(dp3996
g61
(dp3997
g69
I1
ssg70
Nsg63
(lp3998
g56
(g72
g58
NtRp3999
(dp4000
g61
(dp4001
sg70
g3995
sg63
(lp4002
g56
(g77
g58
NtRp4003
(dp4004
g61
(dp4005
sg70
g3999
sg63
(lp4006
g56
(g57
g58
NtRp4007
(dp4008
g61
(dp4009
g69
I1
ssg70
g4003
sg63
(lp4010
g3492
(S't\x06\x00\x00\x00Errors'
tRp4011
asbasbasbag56
(g72
g58
NtRp4012
(dp4013
g61
(dp4014
sg70
g3995
sg63
(lp4015
g56
(g77
g58
NtRp4016
(dp4017
g61
(dp4018
sg70
g4012
sg63
(lp4019
g56
(g57
g58
NtRp4020
(dp4021
g61
(dp4022
g69
I1
ssg70
g4016
sg63
(lp4023
I00
asbasbasbag56
(g72
g58
NtRp4024
(dp4025
g61
(dp4026
sg70
g3995
sg63
(lp4027
g56
(g77
g58
NtRp4028
(dp4029
g61
(dp4030
sg70
g4024
sg63
(lp4031
g56
(g57
g58
NtRp4032
(dp4033
g61
(dp4034
g69
I1
ssg70
g4028
sg63
(lp4035
S'/admin/default/errors/wp'
p4036
asbasbasbasbasbasbasbag56
(g72
g58
NtRp4037
(dp4038
g61
(dp4039
sg70
g3601
sg63
(lp4040
g56
(g77
g58
NtRp4041
(dp4042
g61
(dp4043
sg70
g4037
sg63
(lp4044
g56
(g57
g58
NtRp4045
(dp4046
g61
(dp4047
g69
I2
ssg70
g4041
sg63
(lp4048
g56
(g65
g58
NtRp4049
(dp4050
g61
(dp4051
g69
I1
ssg70
Nsg63
(lp4052
g56
(g72
g58
NtRp4053
(dp4054
g61
(dp4055
sg70
g4049
sg63
(lp4056
g56
(g77
g58
NtRp4057
(dp4058
g61
(dp4059
sg70
g4053
sg63
(lp4060
g56
(g57
g58
NtRp4061
(dp4062
g61
(dp4063
g69
I1
ssg70
g4057
sg63
(lp4064
g3492
(S't\x05\x00\x00\x00About'
tRp4065
asbasbasbag56
(g72
g58
NtRp4066
(dp4067
g61
(dp4068
sg70
g4049
sg63
(lp4069
g56
(g77
g58
NtRp4070
(dp4071
g61
(dp4072
sg70
g4066
sg63
(lp4073
g56
(g57
g58
NtRp4074
(dp4075
g61
(dp4076
g69
I1
ssg70
g4070
sg63
(lp4077
I00
asbasbasbag56
(g72
g58
NtRp4078
(dp4079
g61
(dp4080
sg70
g4049
sg63
(lp4081
g56
(g77
g58
NtRp4082
(dp4083
g61
(dp4084
sg70
g4078
sg63
(lp4085
g56
(g57
g58
NtRp4086
(dp4087
g61
(dp4088
g69
I1
ssg70
g4082
sg63
(lp4089
S'/admin/default/about/wp'
p4090
asbasbasbasbasbasbasbasbasbasbasbasbasbasbasbag56
(g72
g58
NtRp4091
(dp4092
g61
(dp4093
sg70
g3460
sg63
(lp4094
g56
(g77
g58
NtRp4095
(dp4096
g61
(dp4097
sg70
g4091
sg63
(lp4098
g56
(g57
g58
NtRp4099
(dp4100
g61
(dp4101
g69
I4
ssg70
g4095
sg63
(lp4102
g56
(g65
g58
NtRp4103
(dp4104
g61
(dp4105
g69
I3
ssg70
Nsg63
(lp4106
g56
(g72
g58
NtRp4107
(dp4108
g61
(dp4109
sg70
g4103
sg63
(lp4110
g56
(g77
g58
NtRp4111
(dp4112
g61
(dp4113
sg70
g4107
sg63
(lp4114
g56
(g57
g58
NtRp4115
(dp4116
g61
(dp4117
g69
I3
ssg70
g4111
sg63
(lp4118
g3492
(S't\t\x00\x00\x00Resources'
tRp4119
asbasbasbag56
(g72
g58
NtRp4120
(dp4121
g61
(dp4122
sg70
g4103
sg63
(lp4123
g56
(g77
g58
NtRp4124
(dp4125
g61
(dp4126
sg70
g4120
sg63
(lp4127
g56
(g57
g58
NtRp4128
(dp4129
g61
(dp4130
g69
I3
ssg70
g4124
sg63
(lp4131
g99
asbasbasbag56
(g72
g58
NtRp4132
(dp4133
g61
(dp4134
sg70
g4103
sg63
(lp4135
g56
(g77
g58
NtRp4136
(dp4137
g61
(dp4138
sg70
g4132
sg63
(lp4139
g56
(g57
g58
NtRp4140
(dp4141
g61
(dp4142
g69
I3
ssg70
g4136
sg63
(lp4143
S'None'
p4144
asbasbasbag56
(g72
g58
NtRp4145
(dp4146
g61
(dp4147
sg70
g4103
sg63
(lp4148
g56
(g77
g58
NtRp4149
(dp4150
g61
(dp4151
sg70
g4145
sg63
(lp4152
g56
(g57
g58
NtRp4153
(dp4154
g61
(dp4155
g69
I3
ssg70
g4149
sg63
(lp4156
g56
(g65
g58
NtRp4157
(dp4158
g61
(dp4159
g69
I2
ssg70
Nsg63
(lp4160
g56
(g72
g58
NtRp4161
(dp4162
g61
(dp4163
sg70
g4157
sg63
(lp4164
g56
(g77
g58
NtRp4165
(dp4166
g61
(dp4167
sg70
g4161
sg63
(lp4168
g56
(g57
g58
NtRp4169
(dp4170
g61
(dp4171
g69
I2
ssg70
g4165
sg63
(lp4172
g56
(g65
g58
NtRp4173
(dp4174
g61
(dp4175
g69
I1
ssg70
Nsg63
(lp4176
g56
(g72
g58
NtRp4177
(dp4178
g61
(dp4179
sg70
g4173
sg63
(lp4180
g56
(g77
g58
NtRp4181
(dp4182
g61
(dp4183
sg70
g4177
sg63
(lp4184
g56
(g57
g58
NtRp4185
(dp4186
g61
(dp4187
g69
I1
ssg70
g4181
sg63
(lp4188
g3492
(S't\r\x00\x00\x00Documentation'
tRp4189
asbasbasbag56
(g72
g58
NtRp4190
(dp4191
g61
(dp4192
sg70
g4173
sg63
(lp4193
g56
(g77
g58
NtRp4194
(dp4195
g61
(dp4196
sg70
g4190
sg63
(lp4197
g56
(g57
g58
NtRp4198
(dp4199
g61
(dp4200
g69
I1
ssg70
g4194
sg63
(lp4201
I00
asbasbasbag56
(g72
g58
NtRp4202
(dp4203
g61
(dp4204
sg70
g4173
sg63
(lp4205
g56
(g77
g58
NtRp4206
(dp4207
g61
(dp4208
sg70
g4202
sg63
(lp4209
g56
(g57
g58
NtRp4210
(dp4211
g61
(dp4212
g69
I1
ssg70
g4206
sg63
(lp4213
S'http://www.web2py.com/book'
p4214
asbasbasbag56
(g72
g58
NtRp4215
(dp4216
g61
(dp4217
sg70
g4173
sg63
(lp4218
g56
(g77
g58
NtRp4219
(dp4220
g61
(dp4221
sg70
g4215
sg63
(lp4222
g56
(g57
g58
NtRp4223
(dp4224
g61
(dp4225
g69
I1
ssg70
g4219
sg63
(lp4226
(lp4227
(g3492
(S't\x07\x00\x00\x00Preface'
tRp4228
I00
S'http://www.web2py.com/book/default/chapter/00'
tp4229
a(g3492
(S't\x0c\x00\x00\x00Introduction'
tRp4230
I00
S'http://www.web2py.com/book/default/chapter/01'
tp4231
a(g3492
(S't\x06\x00\x00\x00Python'
tRp4232
I00
S'http://www.web2py.com/book/default/chapter/02'
tp4233
a(g3492
(S't\x08\x00\x00\x00Overview'
tRp4234
I00
S'http://www.web2py.com/book/default/chapter/03'
tp4235
a(g3492
(S's\x08\x00\x00\x00The Core'
tRp4236
I00
S'http://www.web2py.com/book/default/chapter/04'
tp4237
a(g3492
(S's\t\x00\x00\x00The Views'
tRp4238
I00
S'http://www.web2py.com/book/default/chapter/05'
tp4239
a(g3492
(S't\x08\x00\x00\x00Database'
tRp4240
I00
S'http://www.web2py.com/book/default/chapter/06'
tp4241
a(g3492
(S's\x14\x00\x00\x00Forms and Validators'
tRp4242
I00
S'http://www.web2py.com/book/default/chapter/07'
tp4243
a(g3492
(S's\x0e\x00\x00\x00Access Control'
tRp4244
I00
S'http://www.web2py.com/book/default/chapter/08'
tp4245
a(g3492
(S't\x08\x00\x00\x00Services'
tRp4246
I00
S'http://www.web2py.com/book/default/chapter/09'
tp4247
a(g3492
(S's\x0c\x00\x00\x00Ajax Recipes'
tRp4248
I00
S'http://www.web2py.com/book/default/chapter/10'
tp4249
a(g3492
(S's\x12\x00\x00\x00Deployment Recipes'
tRp4250
I00
S'http://www.web2py.com/book/default/chapter/11'
tp4251
a(g3492
(S's\r\x00\x00\x00Other Recipes'
tRp4252
I00
S'http://www.web2py.com/book/default/chapter/12'
tp4253
a(g3492
(S's\r\x00\x00\x00Buy this book'
tRp4254
I00
S'http://stores.lulu.com/web2py'
tp4255
aasbasbasbasbasbasbasbag56
(g72
g58
NtRp4256
(dp4257
g61
(dp4258
sg70
g4157
sg63
(lp4259
g56
(g77
g58
NtRp4260
(dp4261
g61
(dp4262
sg70
g4256
sg63
(lp4263
g56
(g57
g58
NtRp4264
(dp4265
g61
(dp4266
g69
I2
ssg70
g4260
sg63
(lp4267
g56
(g65
g58
NtRp4268
(dp4269
g61
(dp4270
g69
I1
ssg70
Nsg63
(lp4271
g56
(g72
g58
NtRp4272
(dp4273
g61
(dp4274
sg70
g4268
sg63
(lp4275
g56
(g77
g58
NtRp4276
(dp4277
g61
(dp4278
sg70
g4272
sg63
(lp4279
g56
(g57
g58
NtRp4280
(dp4281
g61
(dp4282
g69
I1
ssg70
g4276
sg63
(lp4283
g3492
(S't\t\x00\x00\x00Community'
tRp4284
asbasbasbag56
(g72
g58
NtRp4285
(dp4286
g61
(dp4287
sg70
g4268
sg63
(lp4288
g56
(g77
g58
NtRp4289
(dp4290
g61
(dp4291
sg70
g4285
sg63
(lp4292
g56
(g57
g58
NtRp4293
(dp4294
g61
(dp4295
g69
I1
ssg70
g4289
sg63
(lp4296
I00
asbasbasbag56
(g72
g58
NtRp4297
(dp4298
g61
(dp4299
sg70
g4268
sg63
(lp4300
g56
(g77
g58
NtRp4301
(dp4302
g61
(dp4303
sg70
g4297
sg63
(lp4304
g56
(g57
g58
NtRp4305
(dp4306
g61
(dp4307
g69
I1
ssg70
g4301
sg63
(lp4308
Nasbasbasbag56
(g72
g58
NtRp4309
(dp4310
g61
(dp4311
sg70
g4268
sg63
(lp4312
g56
(g77
g58
NtRp4313
(dp4314
g61
(dp4315
sg70
g4309
sg63
(lp4316
g56
(g57
g58
NtRp4317
(dp4318
g61
(dp4319
g69
I1
ssg70
g4313
sg63
(lp4320
(lp4321
(g3492
(S't\x06\x00\x00\x00Groups'
tRp4322
I00
S'http://www.web2py.com/examples/default/usergroups'
tp4323
a(g3492
(S't\x07\x00\x00\x00Twitter'
tRp4324
I00
S'http://twitter.com/web2py'
tp4325
a(g3492
(S's\t\x00\x00\x00Live chat'
tRp4326
I00
S'http://mibbit.com/?channel=%23web2py&server=irc.mibbit.net'
tp4327
a(g3492
(S's\n\x00\x00\x00User Voice'
tRp4328
I00
S'http://web2py.uservoice.com/'
tp4329
aasbasbasbasbasbasbasbag56
(g72
g58
NtRp4330
(dp4331
g61
(dp4332
sg70
g4157
sg63
(lp4333
g56
(g77
g58
NtRp4334
(dp4335
g61
(dp4336
sg70
g4330
sg63
(lp4337
g56
(g57
g58
NtRp4338
(dp4339
g61
(dp4340
g69
I2
ssg70
g4334
sg63
(lp4341
g56
(g65
g58
NtRp4342
(dp4343
g61
(dp4344
g69
I1
ssg70
Nsg63
(lp4345
g56
(g72
g58
NtRp4346
(dp4347
g61
(dp4348
sg70
g4342
sg63
(lp4349
g56
(g77
g58
NtRp4350
(dp4351
g61
(dp4352
sg70
g4346
sg63
(lp4353
g56
(g57
g58
NtRp4354
(dp4355
g61
(dp4356
g69
I1
ssg70
g4350
sg63
(lp4357
g3492
(S't\x06\x00\x00\x00Web2py'
tRp4358
asbasbasbag56
(g72
g58
NtRp4359
(dp4360
g61
(dp4361
sg70
g4342
sg63
(lp4362
g56
(g77
g58
NtRp4363
(dp4364
g61
(dp4365
sg70
g4359
sg63
(lp4366
g56
(g57
g58
NtRp4367
(dp4368
g61
(dp4369
g69
I1
ssg70
g4363
sg63
(lp4370
I00
asbasbasbag56
(g72
g58
NtRp4371
(dp4372
g61
(dp4373
sg70
g4342
sg63
(lp4374
g56
(g77
g58
NtRp4375
(dp4376
g61
(dp4377
sg70
g4371
sg63
(lp4378
g56
(g57
g58
NtRp4379
(dp4380
g61
(dp4381
g69
I1
ssg70
g4375
sg63
(lp4382
S'http://www.web2py.com'
p4383
asbasbasbag56
(g72
g58
NtRp4384
(dp4385
g61
(dp4386
sg70
g4342
sg63
(lp4387
g56
(g77
g58
NtRp4388
(dp4389
g61
(dp4390
sg70
g4384
sg63
(lp4391
g56
(g57
g58
NtRp4392
(dp4393
g61
(dp4394
g69
I1
ssg70
g4388
sg63
(lp4395
(lp4396
(g3492
(S't\x08\x00\x00\x00Download'
tRp4397
I00
S'http://www.web2py.com/examples/default/download'
tp4398
a(g3492
(S't\x07\x00\x00\x00Support'
tRp4399
I00
S'http://www.web2py.com/examples/default/support'
tp4400
a(g3492
(S's\x0e\x00\x00\x00Quick Examples'
tRp4401
I00
S'http://web2py.com/examples/default/examples'
tp4402
a(g3492
(S't\x03\x00\x00\x00FAQ'
tRp4403
I00
S'http://web2py.com/AlterEgo'
tp4404
a(g3492
(S's\x11\x00\x00\x00Free Applications'
tRp4405
I00
S'http://web2py.com/appliances'
tp4406
a(g3492
(S't\x07\x00\x00\x00Plugins'
tRp4407
I00
S'http://web2py.com/plugins'
tp4408
a(g3492
(S't\x07\x00\x00\x00Recipes'
tRp4409
I00
S'http://web2pyslices.com/'
tp4410
a(g3492
(S't\x04\x00\x00\x00Demo'
tRp4411
I00
S'http://web2py.com/demo_admin'
tp4412
a(g3492
(S't\x08\x00\x00\x00Semantic'
tRp4413
I00
S'http://web2py.com/semantic'
tp4414
a(g3492
(S't\x07\x00\x00\x00Layouts'
tRp4415
I00
S'http://web2py.com/layouts'
tp4416
a(g3492
(S't\x06\x00\x00\x00Videos'
tRp4417
I00
S'http://www.web2py.com/examples/default/videos/'
tp4418
aasbasbasbasbasbasbasbasbasbasbasbasbasbasbasbasbasbasbasbag56
(g72
g58
NtRp4419
(dp4420
g61
(dp4421
sg70
g3024
sg63
(lp4422
g56
(g77
g58
NtRp4423
(dp4424
g61
(dp4425
g81
g82
ssg70
g4419
sg63
(lp4426
S'meta'
p4427
asbag56
(g77
g58
NtRp4428
(dp4429
g61
(dp4430
g88
g89
ssg70
g4419
sg63
(lp4431
S':'
asbag56
(g77
g58
NtRp4432
(dp4433
g61
(dp4434
sg70
g4419
sg63
(lp4435
g56
(g57
g58
NtRp4436
(dp4437
g61
(dp4438
g69
I5
ssg70
g4432
sg63
(lp4439
g56
(g65
g58
NtRp4440
(dp4441
g61
(dp4442
g69
I4
ssg70
Nsg63
(lp4443
g56
(g72
g58
NtRp4444
(dp4445
g61
(dp4446
sg70
g4440
sg63
(lp4447
g56
(g77
g58
NtRp4448
(dp4449
g61
(dp4450
g81
g82
ssg70
g4444
sg63
(lp4451
S'author'
p4452
asbag56
(g77
g58
NtRp4453
(dp4454
g61
(dp4455
g88
g89
ssg70
g4444
sg63
(lp4456
S':'
asbag56
(g77
g58
NtRp4457
(dp4458
g61
(dp4459
sg70
g4444
sg63
(lp4460
g56
(g57
g58
NtRp4461
(dp4462
g61
(dp4463
g69
I4
ssg70
g4457
sg63
(lp4464
S'you'
p4465
asbasbasbag56
(g72
g58
NtRp4466
(dp4467
g61
(dp4468
sg70
g4440
sg63
(lp4469
g56
(g77
g58
NtRp4470
(dp4471
g61
(dp4472
g81
g82
ssg70
g4466
sg63
(lp4473
S'copyright'
p4474
asbag56
(g77
g58
NtRp4475
(dp4476
g61
(dp4477
g88
g89
ssg70
g4466
sg63
(lp4478
S':'
asbag56
(g77
g58
NtRp4479
(dp4480
g61
(dp4481
sg70
g4466
sg63
(lp4482
g56
(g57
g58
NtRp4483
(dp4484
g61
(dp4485
g69
I4
ssg70
g4479
sg63
(lp4486
S'Copyright 2007-2010'
p4487
asbasbasbag56
(g72
g58
NtRp4488
(dp4489
g61
(dp4490
sg70
g4440
sg63
(lp4491
g56
(g77
g58
NtRp4492
(dp4493
g61
(dp4494
g81
g82
ssg70
g4488
sg63
(lp4495
S'description'
p4496
asbag56
(g77
g58
NtRp4497
(dp4498
g61
(dp4499
g88
g89
ssg70
g4488
sg63
(lp4500
S':'
asbag56
(g77
g58
NtRp4501
(dp4502
g61
(dp4503
sg70
g4488
sg63
(lp4504
g56
(g57
g58
NtRp4505
(dp4506
g61
(dp4507
g69
I4
ssg70
g4501
sg63
(lp4508
S'Free and open source full-stack enterprise framework for agile development of fast, scalable, secure and portable database-driven web-based applications. Written and programmable in Python'
p4509
asbasbasbag56
(g72
g58
NtRp4510
(dp4511
g61
(dp4512
sg70
g4440
sg63
(lp4513
g56
(g77
g58
NtRp4514
(dp4515
g61
(dp4516
g81
g82
ssg70
g4510
sg63
(lp4517
S'generator'
p4518
asbag56
(g77
g58
NtRp4519
(dp4520
g61
(dp4521
g88
g89
ssg70
g4510
sg63
(lp4522
S':'
asbag56
(g77
g58
NtRp4523
(dp4524
g61
(dp4525
sg70
g4510
sg63
(lp4526
g56
(g57
g58
NtRp4527
(dp4528
g61
(dp4529
g69
I4
ssg70
g4523
sg63
(lp4530
S'Web2py Enterprise Framework'
p4531
asbasbasbag56
(g72
g58
NtRp4532
(dp4533
g61
(dp4534
sg70
g4440
sg63
(lp4535
g56
(g77
g58
NtRp4536
(dp4537
g61
(dp4538
g81
g82
ssg70
g4532
sg63
(lp4539
S'keywords'
p4540
asbag56
(g77
g58
NtRp4541
(dp4542
g61
(dp4543
g88
g89
ssg70
g4532
sg63
(lp4544
S':'
asbag56
(g77
g58
NtRp4545
(dp4546
g61
(dp4547
sg70
g4532
sg63
(lp4548
g56
(g57
g58
NtRp4549
(dp4550
g61
(dp4551
g69
I4
ssg70
g4545
sg63
(lp4552
S'web2py, python, framework'
p4553
asbasbasbasbasbasbasbag56
(g72
g58
NtRp4554
(dp4555
g61
(dp4556
sg70
g3024
sg63
(lp4557
g56
(g77
g58
NtRp4558
(dp4559
g61
(dp4560
g81
g82
ssg70
g4554
sg63
(lp4561
S'postprocessing'
p4562
asbag56
(g77
g58
NtRp4563
(dp4564
g61
(dp4565
g88
g89
ssg70
g4554
sg63
(lp4566
S':'
asbag56
(g77
g58
NtRp4567
(dp4568
g61
(dp4569
sg70
g4554
sg63
(lp4570
g56
(g57
g58
NtRp4571
(dp4572
g61
(dp4573
g69
I5
ssg70
g4567
sg63
(lp4574
g56
(g65
g58
NtRp4575
(dp4576
g61
(dp4577
g69
I4
ssg70
Nsg63
(lp4578
sbasbasbasbag56
(g72
g58
NtRp4579
(dp4580
g61
(dp4581
sg70
g3024
sg63
(lp4582
g56
(g77
g58
NtRp4583
(dp4584
g61
(dp4585
g81
g82
ssg70
g4579
sg63
(lp4586
S'session_file'
p4587
asbag56
(g77
g58
NtRp4588
(dp4589
g61
(dp4590
g88
g89
ssg70
g4579
sg63
(lp4591
S':'
asbag56
(g77
g58
NtRp4592
(dp4593
g61
(dp4594
sg70
g4579
sg63
(lp4595
g56
(g57
g58
NtRp4596
(dp4597
g61
(dp4598
g69
I5
ssg70
g4592
sg63
(lp4599
S"<open file '/Users/schultzc/workspace/wherespuppet/web2py/applications/wp/sessions/127.0.0.1-292b6699-2c9a-4c11-9dfc-e30d08cf9f9a', mode 'rb+' at 0x1073ebae0>"
p4600
asbasbasbag56
(g72
g58
NtRp4601
(dp4602
g61
(dp4603
sg70
g3024
sg63
(lp4604
g56
(g77
g58
NtRp4605
(dp4606
g61
(dp4607
g81
g82
ssg70
g4601
sg63
(lp4608
S'session_filename'
p4609
asbag56
(g77
g58
NtRp4610
(dp4611
g61
(dp4612
g88
g89
ssg70
g4601
sg63
(lp4613
S':'
asbag56
(g77
g58
NtRp4614
(dp4615
g61
(dp4616
sg70
g4601
sg63
(lp4617
g56
(g57
g58
NtRp4618
(dp4619
g61
(dp4620
g69
I5
ssg70
g4614
sg63
(lp4621
S'/Users/schultzc/workspace/wherespuppet/web2py/applications/wp/sessions/127.0.0.1-292b6699-2c9a-4c11-9dfc-e30d08cf9f9a'
p4622
asbasbasbag56
(g72
g58
NtRp4623
(dp4624
g61
(dp4625
sg70
g3024
sg63
(lp4626
g56
(g77
g58
NtRp4627
(dp4628
g61
(dp4629
g81
g82
ssg70
g4623
sg63
(lp4630
S'session_id'
p4631
asbag56
(g77
g58
NtRp4632
(dp4633
g61
(dp4634
g88
g89
ssg70
g4623
sg63
(lp4635
S':'
asbag56
(g77
g58
NtRp4636
(dp4637
g61
(dp4638
sg70
g4623
sg63
(lp4639
g56
(g57
g58
NtRp4640
(dp4641
g61
(dp4642
g69
I5
ssg70
g4636
sg63
(lp4643
S'127.0.0.1-292b6699-2c9a-4c11-9dfc-e30d08cf9f9a'
p4644
asbasbasbag56
(g72
g58
NtRp4645
(dp4646
g61
(dp4647
sg70
g3024
sg63
(lp4648
g56
(g77
g58
NtRp4649
(dp4650
g61
(dp4651
g81
g82
ssg70
g4645
sg63
(lp4652
S'session_id_name'
p4653
asbag56
(g77
g58
NtRp4654
(dp4655
g61
(dp4656
g88
g89
ssg70
g4645
sg63
(lp4657
S':'
asbag56
(g77
g58
NtRp4658
(dp4659
g61
(dp4660
sg70
g4645
sg63
(lp4661
g56
(g57
g58
NtRp4662
(dp4663
g61
(dp4664
g69
I5
ssg70
g4658
sg63
(lp4665
g3081
asbasbasbag56
(g72
g58
NtRp4666
(dp4667
g61
(dp4668
sg70
g3024
sg63
(lp4669
g56
(g77
g58
NtRp4670
(dp4671
g61
(dp4672
g81
g82
ssg70
g4666
sg63
(lp4673
S'session_locked'
p4674
asbag56
(g77
g58
NtRp4675
(dp4676
g61
(dp4677
g88
g89
ssg70
g4666
sg63
(lp4678
S':'
asbag56
(g77
g58
NtRp4679
(dp4680
g61
(dp4681
sg70
g4666
sg63
(lp4682
g56
(g57
g58
NtRp4683
(dp4684
g61
(dp4685
g69
I5
ssg70
g4679
sg63
(lp4686
g1939
asbasbasbag56
(g72
g58
NtRp4687
(dp4688
g61
(dp4689
sg70
g3024
sg63
(lp4690
g56
(g77
g58
NtRp4691
(dp4692
g61
(dp4693
g81
g82
ssg70
g4687
sg63
(lp4694
S'session_new'
p4695
asbag56
(g77
g58
NtRp4696
(dp4697
g61
(dp4698
g88
g89
ssg70
g4687
sg63
(lp4699
S':'
asbag56
(g77
g58
NtRp4700
(dp4701
g61
(dp4702
sg70
g4687
sg63
(lp4703
g56
(g57
g58
NtRp4704
(dp4705
g61
(dp4706
g69
I5
ssg70
g4700
sg63
(lp4707
g99
asbasbasbag56
(g72
g58
NtRp4708
(dp4709
g61
(dp4710
sg70
g3024
sg63
(lp4711
g56
(g77
g58
NtRp4712
(dp4713
g61
(dp4714
g81
g82
ssg70
g4708
sg63
(lp4715
S'status'
p4716
asbag56
(g77
g58
NtRp4717
(dp4718
g61
(dp4719
g88
g89
ssg70
g4708
sg63
(lp4720
S':'
asbag56
(g77
g58
NtRp4721
(dp4722
g61
(dp4723
sg70
g4708
sg63
(lp4724
g56
(g57
g58
NtRp4725
(dp4726
g61
(dp4727
g69
I5
ssg70
g4721
sg63
(lp4728
S'200'
p4729
asbasbasbag56
(g72
g58
NtRp4730
(dp4731
g61
(dp4732
sg70
g3024
sg63
(lp4733
g56
(g77
g58
NtRp4734
(dp4735
g61
(dp4736
g81
g82
ssg70
g4730
sg63
(lp4737
S'subtitle'
p4738
asbag56
(g77
g58
NtRp4739
(dp4740
g61
(dp4741
g88
g89
ssg70
g4730
sg63
(lp4742
S':'
asbag56
(g77
g58
NtRp4743
(dp4744
g61
(dp4745
sg70
g4730
sg63
(lp4746
g56
(g57
g58
NtRp4747
(dp4748
g61
(dp4749
g69
I5
ssg70
g4743
sg63
(lp4750
g3492
(S's\r\x00\x00\x00customize me!'
tRp4751
asbasbasbag56
(g72
g58
NtRp4752
(dp4753
g61
(dp4754
sg70
g3024
sg63
(lp4755
g56
(g77
g58
NtRp4756
(dp4757
g61
(dp4758
g81
g82
ssg70
g4752
sg63
(lp4759
S'title'
p4760
asbag56
(g77
g58
NtRp4761
(dp4762
g61
(dp4763
g88
g89
ssg70
g4752
sg63
(lp4764
S':'
asbag56
(g77
g58
NtRp4765
(dp4766
g61
(dp4767
sg70
g4752
sg63
(lp4768
g56
(g57
g58
NtRp4769
(dp4770
g61
(dp4771
g69
I5
ssg70
g4765
sg63
(lp4772
g121
asbasbasbag56
(g72
g58
NtRp4773
(dp4774
g61
(dp4775
sg70
g3024
sg63
(lp4776
g56
(g77
g58
NtRp4777
(dp4778
g61
(dp4779
g81
g82
ssg70
g4773
sg63
(lp4780
g2263
asbag56
(g77
g58
NtRp4781
(dp4782
g61
(dp4783
g88
g89
ssg70
g4773
sg63
(lp4784
S':'
asbag56
(g77
g58
NtRp4785
(dp4786
g61
(dp4787
sg70
g4773
sg63
(lp4788
g56
(g57
g58
NtRp4789
(dp4790
g61
(dp4791
g69
I5
ssg70
g4785
sg63
(lp4792
g2276
asbasbasbag56
(g72
g58
NtRp4793
(dp4794
g61
(dp4795
sg70
g3024
sg63
(lp4796
g56
(g77
g58
NtRp4797
(dp4798
g61
(dp4799
g81
g82
ssg70
g4793
sg63
(lp4800
S'view'
p4801
asbag56
(g77
g58
NtRp4802
(dp4803
g61
(dp4804
g88
g89
ssg70
g4793
sg63
(lp4805
S':'
asbag56
(g77
g58
NtRp4806
(dp4807
g61
(dp4808
sg70
g4793
sg63
(lp4809
g56
(g57
g58
NtRp4810
(dp4811
g61
(dp4812
g69
I5
ssg70
g4806
sg63
(lp4813
S'default/submit.html'
p4814
asbasbasbasbasbsS'locals'
p4815
(dp4816
ssS'traceback'
p4817
S'Traceback (most recent call last):\n  File "/Users/schultzc/workspace/wherespuppet/web2py/gluon/restricted.py", line 192, in restricted\n    exec ccode in environment\n  File "/Users/schultzc/workspace/wherespuppet/web2py/applications/wp/controllers/default.py", line 92, in <module>\n  File "/Users/schultzc/workspace/wherespuppet/web2py/gluon/globals.py", line 137, in <lambda>\n    self._caller = lambda f: f()\n  File "/Users/schultzc/workspace/wherespuppet/web2py/applications/wp/controllers/default.py", line 19, in submit\n    latitude = request.cookies.posLat\nAttributeError: \'SimpleCookie\' object has no attribute \'posLat\'\n'
p4818
s.