(dp1
S'output'
p2
S''
sS'layer'
p3
S'/Users/schultzc/Downloads/web2py/applications/wp/controllers/default.py'
p4
sS'code'
p5
S'# -*- coding: utf-8 -*-\n# this file is released under public domain and you can use without limitations\n\n#########################################################################\n## This is a samples controller\n## - index is the default action of any application\n## - user is required for authentication and authorization\n## - download is for downloading files uploaded in the db (does streaming)\n## - call exposes all registered services (none by default)\n#########################################################################\n\ndef index():\n    """\n    example action using the internationalization operator T and flash\n    rendered by views/default/index.html or views/generic.html\n    """\n    return dict(message=T(\'Hello World\'))\n    \ndef submit():\n   form = SQLFORM(db.image)\n   if form.accepts(request.vars, session):\n       response.flash = \'form accepted\'\n   elif form.errors:\n       response.flash = \'form has errors\'\n   else:\n       response.flash = \'please fill out the form\'\n   return dict(form=form)\n   \ndef show():\n    image = db(db.image.id==request.args(0)).select().first()\n    form = SQLFORM(db.comment)\n    form.vars.image_id = image.id\n    if form.accepts(request.vars, session):\n        response.flash = \'your comment is posted\'\n    comments = db(db.comment.image_id==image.id).select()\n    return dict(image=image, comments=comments, form=form)\n\ndef user():\n    """\n    exposes:\n    http://..../[app]/default/user/login\n    http://..../[app]/default/user/logout\n    http://..../[app]/default/user/register\n    http://..../[app]/default/user/profile\n    http://..../[app]/default/user/retrieve_password\n    http://..../[app]/default/user/change_password\n    use @auth.requires_login()\n        @auth.requires_membership(\'group name\')\n        @auth.requires_permission(\'read\',\'table name\',record_id)\n    to decorate functions that need access control\n    """\n    return dict(form=auth())\n\n\ndef download():\n    """\n    allows downloading of uploaded files\n    http://..../[app]/default/download/[filename]\n    """\n    return response.download(request,db)\n\n\ndef call():\n    """\n    exposes services. for example:\n    http://..../[app]/default/call/jsonrpc\n    decorate with @services.jsonrpc the functions to expose\n    supports xml, json, xmlrpc, jsonrpc, amfrpc, rss, csv\n    """\n    return service()\n\n\'\'\'\n@auth.requires_signature()\ndef data():\n    """\n    http://..../[app]/default/data/tables\n    http://..../[app]/default/data/create/[table]\n    http://..../[app]/default/data/read/[table]/[id]\n    http://..../[app]/default/data/update/[table]/[id]\n    http://..../[app]/default/data/delete/[table]/[id[\n    http://..../[app]/default/data/select/[table]\n    http://..../[app]/default/data/search/[table]\n    but URLs bust be signed, i.e. linked with\n      A(\'table\',_href=URL(\'data/tables\',user_signature=True))\n    or with the signed load operator\n      LOAD(\'default\',\'data.load\',args=\'tables\',ajax=True,user_signature=True)\n    """\n    return dict(form=crud())\n\'\'\'\n\nresponse._vars=response._caller(show)\n'
p6
sS'snapshot'
p7
(dp8
S'exception'
p9
(dp10
S'__hash__'
p11
S"<method-wrapper '__hash__' of exceptions.AttributeError object>"
p12
sS'__setattr__'
p13
S"<method-wrapper '__setattr__' of exceptions.AttributeError object>"
p14
sS'__reduce_ex__'
p15
S'<built-in method __reduce_ex__ of exceptions.AttributeError object>'
p16
sS'__getslice__'
p17
S"<method-wrapper '__getslice__' of exceptions.AttributeError object>"
p18
sS'__getitem__'
p19
S"<method-wrapper '__getitem__' of exceptions.AttributeError object>"
p20
sS'__setstate__'
p21
S'<built-in method __setstate__ of exceptions.AttributeError object>'
p22
sS'args'
p23
S'("\'NoneType\' object has no attribute \'id\'",)'
p24
sS'__reduce__'
p25
S'<built-in method __reduce__ of exceptions.AttributeError object>'
p26
sS'__str__'
p27
S"<method-wrapper '__str__' of exceptions.AttributeError object>"
p28
sS'__format__'
p29
S'<built-in method __format__ of exceptions.AttributeError object>'
p30
sS'__getattribute__'
p31
S"<method-wrapper '__getattribute__' of exceptions.AttributeError object>"
p32
sS'__class__'
p33
S"<type 'exceptions.AttributeError'>"
p34
sS'__unicode__'
p35
S'<built-in method __unicode__ of exceptions.AttributeError object>'
p36
sS'__delattr__'
p37
S"<method-wrapper '__delattr__' of exceptions.AttributeError object>"
p38
sS'__subclasshook__'
p39
S'<built-in method __subclasshook__ of type object>'
p40
sS'__repr__'
p41
S"<method-wrapper '__repr__' of exceptions.AttributeError object>"
p42
sS'__dict__'
p43
S'{}'
p44
sS'__sizeof__'
p45
S'<built-in method __sizeof__ of exceptions.AttributeError object>'
p46
sS'__doc__'
p47
S"'Attribute not found.'"
p48
sS'__init__'
p49
S"<method-wrapper '__init__' of exceptions.AttributeError object>"
p50
sS'__new__'
p51
S'<built-in method __new__ of type object>'
p52
ssS'evalue'
p53
S"'NoneType' object has no attribute 'id'"
p54
sS'request'
p55
ccopy_reg
_reconstructor
p56
(cgluon.html
BEAUTIFY
p57
c__builtin__
object
p58
NtRp59
(dp60
S'attributes'
p61
(dp62
sS'components'
p63
(lp64
g56
(cgluon.html
TABLE
p65
g58
NtRp66
(dp67
g61
(dp68
S'level'
p69
I5
ssS'parent'
p70
Nsg63
(lp71
g56
(cgluon.html
TR
p72
g58
NtRp73
(dp74
g61
(dp75
sg70
g66
sg63
(lp76
g56
(cgluon.html
TD
p77
g58
NtRp78
(dp79
g61
(dp80
S'_style'
p81
S'font-weight:bold;'
p82
ssg70
g73
sg63
(lp83
S'ajax'
p84
asbag56
(g77
g58
NtRp85
(dp86
g61
(dp87
S'_valign'
p88
S'top'
p89
ssg70
g73
sg63
(lp90
S':'
asbag56
(g77
g58
NtRp91
(dp92
g61
(dp93
sg70
g73
sg63
(lp94
g56
(g57
g58
NtRp95
(dp96
g61
(dp97
g69
I5
ssg70
g91
sg63
(lp98
S'False'
p99
asbasbasbag56
(g72
g58
NtRp100
(dp101
g61
(dp102
sg70
g66
sg63
(lp103
g56
(g77
g58
NtRp104
(dp105
g61
(dp106
g81
g82
ssg70
g100
sg63
(lp107
S'application'
p108
asbag56
(g77
g58
NtRp109
(dp110
g61
(dp111
g88
g89
ssg70
g100
sg63
(lp112
S':'
asbag56
(g77
g58
NtRp113
(dp114
g61
(dp115
sg70
g100
sg63
(lp116
g56
(g57
g58
NtRp117
(dp118
g61
(dp119
g69
I5
ssg70
g113
sg63
(lp120
S'wp'
p121
asbasbasbag56
(g72
g58
NtRp122
(dp123
g61
(dp124
sg70
g66
sg63
(lp125
g56
(g77
g58
NtRp126
(dp127
g61
(dp128
g81
g82
ssg70
g122
sg63
(lp129
g23
asbag56
(g77
g58
NtRp130
(dp131
g61
(dp132
g88
g89
ssg70
g122
sg63
(lp133
S':'
asbag56
(g77
g58
NtRp134
(dp135
g61
(dp136
sg70
g122
sg63
(lp137
g56
(g57
g58
NtRp138
(dp139
g61
(dp140
g69
I5
ssg70
g134
sg63
(lp141
g56
(g65
g58
NtRp142
(dp143
g61
(dp144
g69
I4
ssg70
Nsg63
(lp145
sbasbasbasbag56
(g72
g58
NtRp146
(dp147
g61
(dp148
sg70
g66
sg63
(lp149
g56
(g77
g58
NtRp150
(dp151
g61
(dp152
g81
g82
ssg70
g146
sg63
(lp153
S'body'
p154
asbag56
(g77
g58
NtRp155
(dp156
g61
(dp157
g88
g89
ssg70
g146
sg63
(lp158
S':'
asbag56
(g77
g58
NtRp159
(dp160
g61
(dp161
sg70
g146
sg63
(lp162
g56
(g57
g58
NtRp163
(dp164
g61
(dp165
g69
I5
ssg70
g159
sg63
(lp166
S'<cStringIO.StringO object at 0x1073d1d18>'
p167
asbasbasbag56
(g72
g58
NtRp168
(dp169
g61
(dp170
sg70
g66
sg63
(lp171
g56
(g77
g58
NtRp172
(dp173
g61
(dp174
g81
g82
ssg70
g168
sg63
(lp175
S'client'
p176
asbag56
(g77
g58
NtRp177
(dp178
g61
(dp179
g88
g89
ssg70
g168
sg63
(lp180
S':'
asbag56
(g77
g58
NtRp181
(dp182
g61
(dp183
sg70
g168
sg63
(lp184
g56
(g57
g58
NtRp185
(dp186
g61
(dp187
g69
I5
ssg70
g181
sg63
(lp188
S'127.0.0.1'
p189
asbasbasbag56
(g72
g58
NtRp190
(dp191
g61
(dp192
sg70
g66
sg63
(lp193
g56
(g77
g58
NtRp194
(dp195
g61
(dp196
g81
g82
ssg70
g190
sg63
(lp197
S'controller'
p198
asbag56
(g77
g58
NtRp199
(dp200
g61
(dp201
g88
g89
ssg70
g190
sg63
(lp202
S':'
asbag56
(g77
g58
NtRp203
(dp204
g61
(dp205
sg70
g190
sg63
(lp206
g56
(g57
g58
NtRp207
(dp208
g61
(dp209
g69
I5
ssg70
g203
sg63
(lp210
S'default'
p211
asbasbasbag56
(g72
g58
NtRp212
(dp213
g61
(dp214
sg70
g66
sg63
(lp215
g56
(g77
g58
NtRp216
(dp217
g61
(dp218
g81
g82
ssg70
g212
sg63
(lp219
S'cookies'
p220
asbag56
(g77
g58
NtRp221
(dp222
g61
(dp223
g88
g89
ssg70
g212
sg63
(lp224
S':'
asbag56
(g77
g58
NtRp225
(dp226
g61
(dp227
sg70
g212
sg63
(lp228
g56
(g57
g58
NtRp229
(dp230
g61
(dp231
g69
I5
ssg70
g225
sg63
(lp232
g56
(g65
g58
NtRp233
(dp234
g61
(dp235
g69
I4
ssg70
Nsg63
(lp236
g56
(g72
g58
NtRp237
(dp238
g61
(dp239
sg70
g233
sg63
(lp240
g56
(g77
g58
NtRp241
(dp242
g61
(dp243
g81
g82
ssg70
g237
sg63
(lp244
S'session_id_admin'
p245
asbag56
(g77
g58
NtRp246
(dp247
g61
(dp248
g88
g89
ssg70
g237
sg63
(lp249
S':'
asbag56
(g77
g58
NtRp250
(dp251
g61
(dp252
sg70
g237
sg63
(lp253
g56
(g57
g58
NtRp254
(dp255
g61
(dp256
g69
I4
ssg70
g250
sg63
(lp257
g56
(g65
g58
NtRp258
(dp259
g61
(dp260
g69
I3
ssg70
Nsg63
(lp261
g56
(g72
g58
NtRp262
(dp263
g61
(dp264
sg70
g258
sg63
(lp265
g56
(g77
g58
NtRp266
(dp267
g61
(dp268
g81
g82
ssg70
g262
sg63
(lp269
S'comment'
p270
asbag56
(g77
g58
NtRp271
(dp272
g61
(dp273
g88
g89
ssg70
g262
sg63
(lp274
S':'
asbag56
(g77
g58
NtRp275
(dp276
g61
(dp277
sg70
g262
sg63
(lp278
g56
(g57
g58
NtRp279
(dp280
g61
(dp281
g69
I3
ssg70
g275
sg63
(lp282
S''
asbasbasbag56
(g72
g58
NtRp283
(dp284
g61
(dp285
sg70
g258
sg63
(lp286
g56
(g77
g58
NtRp287
(dp288
g61
(dp289
g81
g82
ssg70
g283
sg63
(lp290
S'domain'
p291
asbag56
(g77
g58
NtRp292
(dp293
g61
(dp294
g88
g89
ssg70
g283
sg63
(lp295
S':'
asbag56
(g77
g58
NtRp296
(dp297
g61
(dp298
sg70
g283
sg63
(lp299
g56
(g57
g58
NtRp300
(dp301
g61
(dp302
g69
I3
ssg70
g296
sg63
(lp303
S''
asbasbasbag56
(g72
g58
NtRp304
(dp305
g61
(dp306
sg70
g258
sg63
(lp307
g56
(g77
g58
NtRp308
(dp309
g61
(dp310
g81
g82
ssg70
g304
sg63
(lp311
S'expires'
p312
asbag56
(g77
g58
NtRp313
(dp314
g61
(dp315
g88
g89
ssg70
g304
sg63
(lp316
S':'
asbag56
(g77
g58
NtRp317
(dp318
g61
(dp319
sg70
g304
sg63
(lp320
g56
(g57
g58
NtRp321
(dp322
g61
(dp323
g69
I3
ssg70
g317
sg63
(lp324
S''
asbasbasbag56
(g72
g58
NtRp325
(dp326
g61
(dp327
sg70
g258
sg63
(lp328
g56
(g77
g58
NtRp329
(dp330
g61
(dp331
g81
g82
ssg70
g325
sg63
(lp332
S'httponly'
p333
asbag56
(g77
g58
NtRp334
(dp335
g61
(dp336
g88
g89
ssg70
g325
sg63
(lp337
S':'
asbag56
(g77
g58
NtRp338
(dp339
g61
(dp340
sg70
g325
sg63
(lp341
g56
(g57
g58
NtRp342
(dp343
g61
(dp344
g69
I3
ssg70
g338
sg63
(lp345
S''
asbasbasbag56
(g72
g58
NtRp346
(dp347
g61
(dp348
sg70
g258
sg63
(lp349
g56
(g77
g58
NtRp350
(dp351
g61
(dp352
g81
g82
ssg70
g346
sg63
(lp353
S'max-age'
p354
asbag56
(g77
g58
NtRp355
(dp356
g61
(dp357
g88
g89
ssg70
g346
sg63
(lp358
S':'
asbag56
(g77
g58
NtRp359
(dp360
g61
(dp361
sg70
g346
sg63
(lp362
g56
(g57
g58
NtRp363
(dp364
g61
(dp365
g69
I3
ssg70
g359
sg63
(lp366
S''
asbasbasbag56
(g72
g58
NtRp367
(dp368
g61
(dp369
sg70
g258
sg63
(lp370
g56
(g77
g58
NtRp371
(dp372
g61
(dp373
g81
g82
ssg70
g367
sg63
(lp374
S'path'
p375
asbag56
(g77
g58
NtRp376
(dp377
g61
(dp378
g88
g89
ssg70
g367
sg63
(lp379
S':'
asbag56
(g77
g58
NtRp380
(dp381
g61
(dp382
sg70
g367
sg63
(lp383
g56
(g57
g58
NtRp384
(dp385
g61
(dp386
g69
I3
ssg70
g380
sg63
(lp387
S''
asbasbasbag56
(g72
g58
NtRp388
(dp389
g61
(dp390
sg70
g258
sg63
(lp391
g56
(g77
g58
NtRp392
(dp393
g61
(dp394
g81
g82
ssg70
g388
sg63
(lp395
S'secure'
p396
asbag56
(g77
g58
NtRp397
(dp398
g61
(dp399
g88
g89
ssg70
g388
sg63
(lp400
S':'
asbag56
(g77
g58
NtRp401
(dp402
g61
(dp403
sg70
g388
sg63
(lp404
g56
(g57
g58
NtRp405
(dp406
g61
(dp407
g69
I3
ssg70
g401
sg63
(lp408
S''
asbasbasbag56
(g72
g58
NtRp409
(dp410
g61
(dp411
sg70
g258
sg63
(lp412
g56
(g77
g58
NtRp413
(dp414
g61
(dp415
g81
g82
ssg70
g409
sg63
(lp416
S'version'
p417
asbag56
(g77
g58
NtRp418
(dp419
g61
(dp420
g88
g89
ssg70
g409
sg63
(lp421
S':'
asbag56
(g77
g58
NtRp422
(dp423
g61
(dp424
sg70
g409
sg63
(lp425
g56
(g57
g58
NtRp426
(dp427
g61
(dp428
g69
I3
ssg70
g422
sg63
(lp429
S''
asbasbasbasbasbasbasbag56
(g72
g58
NtRp430
(dp431
g61
(dp432
sg70
g233
sg63
(lp433
g56
(g77
g58
NtRp434
(dp435
g61
(dp436
g81
g82
ssg70
g430
sg63
(lp437
S'session_id_imgblog'
p438
asbag56
(g77
g58
NtRp439
(dp440
g61
(dp441
g88
g89
ssg70
g430
sg63
(lp442
S':'
asbag56
(g77
g58
NtRp443
(dp444
g61
(dp445
sg70
g430
sg63
(lp446
g56
(g57
g58
NtRp447
(dp448
g61
(dp449
g69
I4
ssg70
g443
sg63
(lp450
g56
(g65
g58
NtRp451
(dp452
g61
(dp453
g69
I3
ssg70
Nsg63
(lp454
g56
(g72
g58
NtRp455
(dp456
g61
(dp457
sg70
g451
sg63
(lp458
g56
(g77
g58
NtRp459
(dp460
g61
(dp461
g81
g82
ssg70
g455
sg63
(lp462
g270
asbag56
(g77
g58
NtRp463
(dp464
g61
(dp465
g88
g89
ssg70
g455
sg63
(lp466
S':'
asbag56
(g77
g58
NtRp467
(dp468
g61
(dp469
sg70
g455
sg63
(lp470
g56
(g57
g58
NtRp471
(dp472
g61
(dp473
g69
I3
ssg70
g467
sg63
(lp474
S''
asbasbasbag56
(g72
g58
NtRp475
(dp476
g61
(dp477
sg70
g451
sg63
(lp478
g56
(g77
g58
NtRp479
(dp480
g61
(dp481
g81
g82
ssg70
g475
sg63
(lp482
g291
asbag56
(g77
g58
NtRp483
(dp484
g61
(dp485
g88
g89
ssg70
g475
sg63
(lp486
S':'
asbag56
(g77
g58
NtRp487
(dp488
g61
(dp489
sg70
g475
sg63
(lp490
g56
(g57
g58
NtRp491
(dp492
g61
(dp493
g69
I3
ssg70
g487
sg63
(lp494
S''
asbasbasbag56
(g72
g58
NtRp495
(dp496
g61
(dp497
sg70
g451
sg63
(lp498
g56
(g77
g58
NtRp499
(dp500
g61
(dp501
g81
g82
ssg70
g495
sg63
(lp502
g312
asbag56
(g77
g58
NtRp503
(dp504
g61
(dp505
g88
g89
ssg70
g495
sg63
(lp506
S':'
asbag56
(g77
g58
NtRp507
(dp508
g61
(dp509
sg70
g495
sg63
(lp510
g56
(g57
g58
NtRp511
(dp512
g61
(dp513
g69
I3
ssg70
g507
sg63
(lp514
S''
asbasbasbag56
(g72
g58
NtRp515
(dp516
g61
(dp517
sg70
g451
sg63
(lp518
g56
(g77
g58
NtRp519
(dp520
g61
(dp521
g81
g82
ssg70
g515
sg63
(lp522
g333
asbag56
(g77
g58
NtRp523
(dp524
g61
(dp525
g88
g89
ssg70
g515
sg63
(lp526
S':'
asbag56
(g77
g58
NtRp527
(dp528
g61
(dp529
sg70
g515
sg63
(lp530
g56
(g57
g58
NtRp531
(dp532
g61
(dp533
g69
I3
ssg70
g527
sg63
(lp534
S''
asbasbasbag56
(g72
g58
NtRp535
(dp536
g61
(dp537
sg70
g451
sg63
(lp538
g56
(g77
g58
NtRp539
(dp540
g61
(dp541
g81
g82
ssg70
g535
sg63
(lp542
g354
asbag56
(g77
g58
NtRp543
(dp544
g61
(dp545
g88
g89
ssg70
g535
sg63
(lp546
S':'
asbag56
(g77
g58
NtRp547
(dp548
g61
(dp549
sg70
g535
sg63
(lp550
g56
(g57
g58
NtRp551
(dp552
g61
(dp553
g69
I3
ssg70
g547
sg63
(lp554
S''
asbasbasbag56
(g72
g58
NtRp555
(dp556
g61
(dp557
sg70
g451
sg63
(lp558
g56
(g77
g58
NtRp559
(dp560
g61
(dp561
g81
g82
ssg70
g555
sg63
(lp562
g375
asbag56
(g77
g58
NtRp563
(dp564
g61
(dp565
g88
g89
ssg70
g555
sg63
(lp566
S':'
asbag56
(g77
g58
NtRp567
(dp568
g61
(dp569
sg70
g555
sg63
(lp570
g56
(g57
g58
NtRp571
(dp572
g61
(dp573
g69
I3
ssg70
g567
sg63
(lp574
S''
asbasbasbag56
(g72
g58
NtRp575
(dp576
g61
(dp577
sg70
g451
sg63
(lp578
g56
(g77
g58
NtRp579
(dp580
g61
(dp581
g81
g82
ssg70
g575
sg63
(lp582
g396
asbag56
(g77
g58
NtRp583
(dp584
g61
(dp585
g88
g89
ssg70
g575
sg63
(lp586
S':'
asbag56
(g77
g58
NtRp587
(dp588
g61
(dp589
sg70
g575
sg63
(lp590
g56
(g57
g58
NtRp591
(dp592
g61
(dp593
g69
I3
ssg70
g587
sg63
(lp594
S''
asbasbasbag56
(g72
g58
NtRp595
(dp596
g61
(dp597
sg70
g451
sg63
(lp598
g56
(g77
g58
NtRp599
(dp600
g61
(dp601
g81
g82
ssg70
g595
sg63
(lp602
g417
asbag56
(g77
g58
NtRp603
(dp604
g61
(dp605
g88
g89
ssg70
g595
sg63
(lp606
S':'
asbag56
(g77
g58
NtRp607
(dp608
g61
(dp609
sg70
g595
sg63
(lp610
g56
(g57
g58
NtRp611
(dp612
g61
(dp613
g69
I3
ssg70
g607
sg63
(lp614
S''
asbasbasbasbasbasbasbag56
(g72
g58
NtRp615
(dp616
g61
(dp617
sg70
g233
sg63
(lp618
g56
(g77
g58
NtRp619
(dp620
g61
(dp621
g81
g82
ssg70
g615
sg63
(lp622
S'session_id_welcome'
p623
asbag56
(g77
g58
NtRp624
(dp625
g61
(dp626
g88
g89
ssg70
g615
sg63
(lp627
S':'
asbag56
(g77
g58
NtRp628
(dp629
g61
(dp630
sg70
g615
sg63
(lp631
g56
(g57
g58
NtRp632
(dp633
g61
(dp634
g69
I4
ssg70
g628
sg63
(lp635
g56
(g65
g58
NtRp636
(dp637
g61
(dp638
g69
I3
ssg70
Nsg63
(lp639
g56
(g72
g58
NtRp640
(dp641
g61
(dp642
sg70
g636
sg63
(lp643
g56
(g77
g58
NtRp644
(dp645
g61
(dp646
g81
g82
ssg70
g640
sg63
(lp647
g270
asbag56
(g77
g58
NtRp648
(dp649
g61
(dp650
g88
g89
ssg70
g640
sg63
(lp651
S':'
asbag56
(g77
g58
NtRp652
(dp653
g61
(dp654
sg70
g640
sg63
(lp655
g56
(g57
g58
NtRp656
(dp657
g61
(dp658
g69
I3
ssg70
g652
sg63
(lp659
S''
asbasbasbag56
(g72
g58
NtRp660
(dp661
g61
(dp662
sg70
g636
sg63
(lp663
g56
(g77
g58
NtRp664
(dp665
g61
(dp666
g81
g82
ssg70
g660
sg63
(lp667
g291
asbag56
(g77
g58
NtRp668
(dp669
g61
(dp670
g88
g89
ssg70
g660
sg63
(lp671
S':'
asbag56
(g77
g58
NtRp672
(dp673
g61
(dp674
sg70
g660
sg63
(lp675
g56
(g57
g58
NtRp676
(dp677
g61
(dp678
g69
I3
ssg70
g672
sg63
(lp679
S''
asbasbasbag56
(g72
g58
NtRp680
(dp681
g61
(dp682
sg70
g636
sg63
(lp683
g56
(g77
g58
NtRp684
(dp685
g61
(dp686
g81
g82
ssg70
g680
sg63
(lp687
g312
asbag56
(g77
g58
NtRp688
(dp689
g61
(dp690
g88
g89
ssg70
g680
sg63
(lp691
S':'
asbag56
(g77
g58
NtRp692
(dp693
g61
(dp694
sg70
g680
sg63
(lp695
g56
(g57
g58
NtRp696
(dp697
g61
(dp698
g69
I3
ssg70
g692
sg63
(lp699
S''
asbasbasbag56
(g72
g58
NtRp700
(dp701
g61
(dp702
sg70
g636
sg63
(lp703
g56
(g77
g58
NtRp704
(dp705
g61
(dp706
g81
g82
ssg70
g700
sg63
(lp707
g333
asbag56
(g77
g58
NtRp708
(dp709
g61
(dp710
g88
g89
ssg70
g700
sg63
(lp711
S':'
asbag56
(g77
g58
NtRp712
(dp713
g61
(dp714
sg70
g700
sg63
(lp715
g56
(g57
g58
NtRp716
(dp717
g61
(dp718
g69
I3
ssg70
g712
sg63
(lp719
S''
asbasbasbag56
(g72
g58
NtRp720
(dp721
g61
(dp722
sg70
g636
sg63
(lp723
g56
(g77
g58
NtRp724
(dp725
g61
(dp726
g81
g82
ssg70
g720
sg63
(lp727
g354
asbag56
(g77
g58
NtRp728
(dp729
g61
(dp730
g88
g89
ssg70
g720
sg63
(lp731
S':'
asbag56
(g77
g58
NtRp732
(dp733
g61
(dp734
sg70
g720
sg63
(lp735
g56
(g57
g58
NtRp736
(dp737
g61
(dp738
g69
I3
ssg70
g732
sg63
(lp739
S''
asbasbasbag56
(g72
g58
NtRp740
(dp741
g61
(dp742
sg70
g636
sg63
(lp743
g56
(g77
g58
NtRp744
(dp745
g61
(dp746
g81
g82
ssg70
g740
sg63
(lp747
g375
asbag56
(g77
g58
NtRp748
(dp749
g61
(dp750
g88
g89
ssg70
g740
sg63
(lp751
S':'
asbag56
(g77
g58
NtRp752
(dp753
g61
(dp754
sg70
g740
sg63
(lp755
g56
(g57
g58
NtRp756
(dp757
g61
(dp758
g69
I3
ssg70
g752
sg63
(lp759
S''
asbasbasbag56
(g72
g58
NtRp760
(dp761
g61
(dp762
sg70
g636
sg63
(lp763
g56
(g77
g58
NtRp764
(dp765
g61
(dp766
g81
g82
ssg70
g760
sg63
(lp767
g396
asbag56
(g77
g58
NtRp768
(dp769
g61
(dp770
g88
g89
ssg70
g760
sg63
(lp771
S':'
asbag56
(g77
g58
NtRp772
(dp773
g61
(dp774
sg70
g760
sg63
(lp775
g56
(g57
g58
NtRp776
(dp777
g61
(dp778
g69
I3
ssg70
g772
sg63
(lp779
S''
asbasbasbag56
(g72
g58
NtRp780
(dp781
g61
(dp782
sg70
g636
sg63
(lp783
g56
(g77
g58
NtRp784
(dp785
g61
(dp786
g81
g82
ssg70
g780
sg63
(lp787
g417
asbag56
(g77
g58
NtRp788
(dp789
g61
(dp790
g88
g89
ssg70
g780
sg63
(lp791
S':'
asbag56
(g77
g58
NtRp792
(dp793
g61
(dp794
sg70
g780
sg63
(lp795
g56
(g57
g58
NtRp796
(dp797
g61
(dp798
g69
I3
ssg70
g792
sg63
(lp799
S''
asbasbasbasbasbasbasbag56
(g72
g58
NtRp800
(dp801
g61
(dp802
sg70
g233
sg63
(lp803
g56
(g77
g58
NtRp804
(dp805
g61
(dp806
g81
g82
ssg70
g800
sg63
(lp807
S'session_id_wp'
p808
asbag56
(g77
g58
NtRp809
(dp810
g61
(dp811
g88
g89
ssg70
g800
sg63
(lp812
S':'
asbag56
(g77
g58
NtRp813
(dp814
g61
(dp815
sg70
g800
sg63
(lp816
g56
(g57
g58
NtRp817
(dp818
g61
(dp819
g69
I4
ssg70
g813
sg63
(lp820
g56
(g65
g58
NtRp821
(dp822
g61
(dp823
g69
I3
ssg70
Nsg63
(lp824
g56
(g72
g58
NtRp825
(dp826
g61
(dp827
sg70
g821
sg63
(lp828
g56
(g77
g58
NtRp829
(dp830
g61
(dp831
g81
g82
ssg70
g825
sg63
(lp832
g270
asbag56
(g77
g58
NtRp833
(dp834
g61
(dp835
g88
g89
ssg70
g825
sg63
(lp836
S':'
asbag56
(g77
g58
NtRp837
(dp838
g61
(dp839
sg70
g825
sg63
(lp840
g56
(g57
g58
NtRp841
(dp842
g61
(dp843
g69
I3
ssg70
g837
sg63
(lp844
S''
asbasbasbag56
(g72
g58
NtRp845
(dp846
g61
(dp847
sg70
g821
sg63
(lp848
g56
(g77
g58
NtRp849
(dp850
g61
(dp851
g81
g82
ssg70
g845
sg63
(lp852
g291
asbag56
(g77
g58
NtRp853
(dp854
g61
(dp855
g88
g89
ssg70
g845
sg63
(lp856
S':'
asbag56
(g77
g58
NtRp857
(dp858
g61
(dp859
sg70
g845
sg63
(lp860
g56
(g57
g58
NtRp861
(dp862
g61
(dp863
g69
I3
ssg70
g857
sg63
(lp864
S''
asbasbasbag56
(g72
g58
NtRp865
(dp866
g61
(dp867
sg70
g821
sg63
(lp868
g56
(g77
g58
NtRp869
(dp870
g61
(dp871
g81
g82
ssg70
g865
sg63
(lp872
g312
asbag56
(g77
g58
NtRp873
(dp874
g61
(dp875
g88
g89
ssg70
g865
sg63
(lp876
S':'
asbag56
(g77
g58
NtRp877
(dp878
g61
(dp879
sg70
g865
sg63
(lp880
g56
(g57
g58
NtRp881
(dp882
g61
(dp883
g69
I3
ssg70
g877
sg63
(lp884
S''
asbasbasbag56
(g72
g58
NtRp885
(dp886
g61
(dp887
sg70
g821
sg63
(lp888
g56
(g77
g58
NtRp889
(dp890
g61
(dp891
g81
g82
ssg70
g885
sg63
(lp892
g333
asbag56
(g77
g58
NtRp893
(dp894
g61
(dp895
g88
g89
ssg70
g885
sg63
(lp896
S':'
asbag56
(g77
g58
NtRp897
(dp898
g61
(dp899
sg70
g885
sg63
(lp900
g56
(g57
g58
NtRp901
(dp902
g61
(dp903
g69
I3
ssg70
g897
sg63
(lp904
S''
asbasbasbag56
(g72
g58
NtRp905
(dp906
g61
(dp907
sg70
g821
sg63
(lp908
g56
(g77
g58
NtRp909
(dp910
g61
(dp911
g81
g82
ssg70
g905
sg63
(lp912
g354
asbag56
(g77
g58
NtRp913
(dp914
g61
(dp915
g88
g89
ssg70
g905
sg63
(lp916
S':'
asbag56
(g77
g58
NtRp917
(dp918
g61
(dp919
sg70
g905
sg63
(lp920
g56
(g57
g58
NtRp921
(dp922
g61
(dp923
g69
I3
ssg70
g917
sg63
(lp924
S''
asbasbasbag56
(g72
g58
NtRp925
(dp926
g61
(dp927
sg70
g821
sg63
(lp928
g56
(g77
g58
NtRp929
(dp930
g61
(dp931
g81
g82
ssg70
g925
sg63
(lp932
g375
asbag56
(g77
g58
NtRp933
(dp934
g61
(dp935
g88
g89
ssg70
g925
sg63
(lp936
S':'
asbag56
(g77
g58
NtRp937
(dp938
g61
(dp939
sg70
g925
sg63
(lp940
g56
(g57
g58
NtRp941
(dp942
g61
(dp943
g69
I3
ssg70
g937
sg63
(lp944
S''
asbasbasbag56
(g72
g58
NtRp945
(dp946
g61
(dp947
sg70
g821
sg63
(lp948
g56
(g77
g58
NtRp949
(dp950
g61
(dp951
g81
g82
ssg70
g945
sg63
(lp952
g396
asbag56
(g77
g58
NtRp953
(dp954
g61
(dp955
g88
g89
ssg70
g945
sg63
(lp956
S':'
asbag56
(g77
g58
NtRp957
(dp958
g61
(dp959
sg70
g945
sg63
(lp960
g56
(g57
g58
NtRp961
(dp962
g61
(dp963
g69
I3
ssg70
g957
sg63
(lp964
S''
asbasbasbag56
(g72
g58
NtRp965
(dp966
g61
(dp967
sg70
g821
sg63
(lp968
g56
(g77
g58
NtRp969
(dp970
g61
(dp971
g81
g82
ssg70
g965
sg63
(lp972
g417
asbag56
(g77
g58
NtRp973
(dp974
g61
(dp975
g88
g89
ssg70
g965
sg63
(lp976
S':'
asbag56
(g77
g58
NtRp977
(dp978
g61
(dp979
sg70
g965
sg63
(lp980
g56
(g57
g58
NtRp981
(dp982
g61
(dp983
g69
I3
ssg70
g977
sg63
(lp984
S''
asbasbasbasbasbasbasbasbasbasbasbag56
(g72
g58
NtRp985
(dp986
g61
(dp987
sg70
g66
sg63
(lp988
g56
(g77
g58
NtRp989
(dp990
g61
(dp991
g81
g82
ssg70
g985
sg63
(lp992
S'env'
p993
asbag56
(g77
g58
NtRp994
(dp995
g61
(dp996
g88
g89
ssg70
g985
sg63
(lp997
S':'
asbag56
(g77
g58
NtRp998
(dp999
g61
(dp1000
sg70
g985
sg63
(lp1001
g56
(g57
g58
NtRp1002
(dp1003
g61
(dp1004
g69
I5
ssg70
g998
sg63
(lp1005
g56
(g65
g58
NtRp1006
(dp1007
g61
(dp1008
g69
I4
ssg70
Nsg63
(lp1009
g56
(g72
g58
NtRp1010
(dp1011
g61
(dp1012
sg70
g1006
sg63
(lp1013
g56
(g77
g58
NtRp1014
(dp1015
g61
(dp1016
g81
g82
ssg70
g1010
sg63
(lp1017
S'app_folders'
p1018
asbag56
(g77
g58
NtRp1019
(dp1020
g61
(dp1021
g88
g89
ssg70
g1010
sg63
(lp1022
S':'
asbag56
(g77
g58
NtRp1023
(dp1024
g61
(dp1025
sg70
g1010
sg63
(lp1026
g56
(g57
g58
NtRp1027
(dp1028
g61
(dp1029
g69
I4
ssg70
g1023
sg63
(lp1030
S"set(['/Users/schultzc/Downloads/web2py/applications/wp/', '/Users/schultzc/Downloads/web2py/applications/admin/', '/Users/schultzc/Downloads/web2py/applications/imgblog/', '/Users/schultzc/Downloads/web2py/applications/welcome/'])"
p1031
asbasbasbag56
(g72
g58
NtRp1032
(dp1033
g61
(dp1034
sg70
g1006
sg63
(lp1035
g56
(g77
g58
NtRp1036
(dp1037
g61
(dp1038
g81
g82
ssg70
g1032
sg63
(lp1039
S'applications_parent'
p1040
asbag56
(g77
g58
NtRp1041
(dp1042
g61
(dp1043
g88
g89
ssg70
g1032
sg63
(lp1044
S':'
asbag56
(g77
g58
NtRp1045
(dp1046
g61
(dp1047
sg70
g1032
sg63
(lp1048
g56
(g57
g58
NtRp1049
(dp1050
g61
(dp1051
g69
I4
ssg70
g1045
sg63
(lp1052
S'/Users/schultzc/Downloads/web2py'
p1053
asbasbasbag56
(g72
g58
NtRp1054
(dp1055
g61
(dp1056
sg70
g1006
sg63
(lp1057
g56
(g77
g58
NtRp1058
(dp1059
g61
(dp1060
g81
g82
ssg70
g1054
sg63
(lp1061
S'cmd_args'
p1062
asbag56
(g77
g58
NtRp1063
(dp1064
g61
(dp1065
g88
g89
ssg70
g1054
sg63
(lp1066
S':'
asbag56
(g77
g58
NtRp1067
(dp1068
g61
(dp1069
sg70
g1054
sg63
(lp1070
g56
(g57
g58
NtRp1071
(dp1072
g61
(dp1073
g69
I4
ssg70
g1067
sg63
(lp1074
g56
(g65
g58
NtRp1075
(dp1076
g61
(dp1077
g69
I3
ssg70
Nsg63
(lp1078
sbasbasbasbag56
(g72
g58
NtRp1079
(dp1080
g61
(dp1081
sg70
g1006
sg63
(lp1082
g56
(g77
g58
NtRp1083
(dp1084
g61
(dp1085
g81
g82
ssg70
g1079
sg63
(lp1086
S'cmd_options'
p1087
asbag56
(g77
g58
NtRp1088
(dp1089
g61
(dp1090
g88
g89
ssg70
g1079
sg63
(lp1091
S':'
asbag56
(g77
g58
NtRp1092
(dp1093
g61
(dp1094
sg70
g1079
sg63
(lp1095
g56
(g57
g58
NtRp1096
(dp1097
g61
(dp1098
g69
I4
ssg70
g1092
sg63
(lp1099
S"<Values at 0x101b35dd0: {'verbose': False, 'ip': '127.0.0.1', 'shutdown_timeout': 5, 'taskbar': False, 'port': 8000, 'maxthreads': None, 'softcron': False, 'server_name': 'Magnus-Specialis.local', 'bpython': False, 'nogui': False, 'nocron': False, 'extcron': False, 'debuglevel': 30, 'test': None, 'folder': '/Users/schultzc/Downloads/web2py', 'config': '', 'import_models': False, 'winservice': '', 'shell': None, 'run': '', 'log_filename': 'httpserver.log', 'args': [''], 'profiler_filename': None, 'ssl_private_key': '', 'password': 'hello', 'request_queue_size': 5, 'ssl_certificate': '', 'cronjob': False, 'plain': False, 'quiet': False, 'interfaces': None, 'minthreads': None, 'timeout': 10, 'numthreads': None, 'nobanner': False, 'pid_filename': 'httpserver.pid'}>"
p1100
asbasbasbag56
(g72
g58
NtRp1101
(dp1102
g61
(dp1103
sg70
g1006
sg63
(lp1104
g56
(g77
g58
NtRp1105
(dp1106
g61
(dp1107
g81
g82
ssg70
g1101
sg63
(lp1108
S'db_sessions'
p1109
asbag56
(g77
g58
NtRp1110
(dp1111
g61
(dp1112
g88
g89
ssg70
g1101
sg63
(lp1113
S':'
asbag56
(g77
g58
NtRp1114
(dp1115
g61
(dp1116
sg70
g1101
sg63
(lp1117
g56
(g57
g58
NtRp1118
(dp1119
g61
(dp1120
g69
I4
ssg70
g1114
sg63
(lp1121
S'set([])'
p1122
asbasbasbag56
(g72
g58
NtRp1123
(dp1124
g61
(dp1125
sg70
g1006
sg63
(lp1126
g56
(g77
g58
NtRp1127
(dp1128
g61
(dp1129
g81
g82
ssg70
g1123
sg63
(lp1130
S'debugging'
p1131
asbag56
(g77
g58
NtRp1132
(dp1133
g61
(dp1134
g88
g89
ssg70
g1123
sg63
(lp1135
S':'
asbag56
(g77
g58
NtRp1136
(dp1137
g61
(dp1138
sg70
g1123
sg63
(lp1139
g56
(g57
g58
NtRp1140
(dp1141
g61
(dp1142
g69
I4
ssg70
g1136
sg63
(lp1143
g99
asbasbasbag56
(g72
g58
NtRp1144
(dp1145
g61
(dp1146
sg70
g1006
sg63
(lp1147
g56
(g77
g58
NtRp1148
(dp1149
g61
(dp1150
g81
g82
ssg70
g1144
sg63
(lp1151
S'gluon_parent'
p1152
asbag56
(g77
g58
NtRp1153
(dp1154
g61
(dp1155
g88
g89
ssg70
g1144
sg63
(lp1156
S':'
asbag56
(g77
g58
NtRp1157
(dp1158
g61
(dp1159
sg70
g1144
sg63
(lp1160
g56
(g57
g58
NtRp1161
(dp1162
g61
(dp1163
g69
I4
ssg70
g1157
sg63
(lp1164
S'/Users/schultzc/Downloads/web2py'
p1165
asbasbasbag56
(g72
g58
NtRp1166
(dp1167
g61
(dp1168
sg70
g1006
sg63
(lp1169
g56
(g77
g58
NtRp1170
(dp1171
g61
(dp1172
g81
g82
ssg70
g1166
sg63
(lp1173
S'http_accept'
p1174
asbag56
(g77
g58
NtRp1175
(dp1176
g61
(dp1177
g88
g89
ssg70
g1166
sg63
(lp1178
S':'
asbag56
(g77
g58
NtRp1179
(dp1180
g61
(dp1181
sg70
g1166
sg63
(lp1182
g56
(g57
g58
NtRp1183
(dp1184
g61
(dp1185
g69
I4
ssg70
g1179
sg63
(lp1186
S'text/html,application/xhtml+xml,application/xml;q=0.9,*/*;q=0.8'
p1187
asbasbasbag56
(g72
g58
NtRp1188
(dp1189
g61
(dp1190
sg70
g1006
sg63
(lp1191
g56
(g77
g58
NtRp1192
(dp1193
g61
(dp1194
g81
g82
ssg70
g1188
sg63
(lp1195
S'http_accept_charset'
p1196
asbag56
(g77
g58
NtRp1197
(dp1198
g61
(dp1199
g88
g89
ssg70
g1188
sg63
(lp1200
S':'
asbag56
(g77
g58
NtRp1201
(dp1202
g61
(dp1203
sg70
g1188
sg63
(lp1204
g56
(g57
g58
NtRp1205
(dp1206
g61
(dp1207
g69
I4
ssg70
g1201
sg63
(lp1208
S'ISO-8859-1,utf-8;q=0.7,*;q=0.3'
p1209
asbasbasbag56
(g72
g58
NtRp1210
(dp1211
g61
(dp1212
sg70
g1006
sg63
(lp1213
g56
(g77
g58
NtRp1214
(dp1215
g61
(dp1216
g81
g82
ssg70
g1210
sg63
(lp1217
S'http_accept_encoding'
p1218
asbag56
(g77
g58
NtRp1219
(dp1220
g61
(dp1221
g88
g89
ssg70
g1210
sg63
(lp1222
S':'
asbag56
(g77
g58
NtRp1223
(dp1224
g61
(dp1225
sg70
g1210
sg63
(lp1226
g56
(g57
g58
NtRp1227
(dp1228
g61
(dp1229
g69
I4
ssg70
g1223
sg63
(lp1230
S'gzip,deflate,sdch'
p1231
asbasbasbag56
(g72
g58
NtRp1232
(dp1233
g61
(dp1234
sg70
g1006
sg63
(lp1235
g56
(g77
g58
NtRp1236
(dp1237
g61
(dp1238
g81
g82
ssg70
g1232
sg63
(lp1239
S'http_accept_language'
p1240
asbag56
(g77
g58
NtRp1241
(dp1242
g61
(dp1243
g88
g89
ssg70
g1232
sg63
(lp1244
S':'
asbag56
(g77
g58
NtRp1245
(dp1246
g61
(dp1247
sg70
g1232
sg63
(lp1248
g56
(g57
g58
NtRp1249
(dp1250
g61
(dp1251
g69
I4
ssg70
g1245
sg63
(lp1252
S'en-US,en;q=0.8'
p1253
asbasbasbag56
(g72
g58
NtRp1254
(dp1255
g61
(dp1256
sg70
g1006
sg63
(lp1257
g56
(g77
g58
NtRp1258
(dp1259
g61
(dp1260
g81
g82
ssg70
g1254
sg63
(lp1261
S'http_connection'
p1262
asbag56
(g77
g58
NtRp1263
(dp1264
g61
(dp1265
g88
g89
ssg70
g1254
sg63
(lp1266
S':'
asbag56
(g77
g58
NtRp1267
(dp1268
g61
(dp1269
sg70
g1254
sg63
(lp1270
g56
(g57
g58
NtRp1271
(dp1272
g61
(dp1273
g69
I4
ssg70
g1267
sg63
(lp1274
S'keep-alive'
p1275
asbasbasbag56
(g72
g58
NtRp1276
(dp1277
g61
(dp1278
sg70
g1006
sg63
(lp1279
g56
(g77
g58
NtRp1280
(dp1281
g61
(dp1282
g81
g82
ssg70
g1276
sg63
(lp1283
S'http_cookie'
p1284
asbag56
(g77
g58
NtRp1285
(dp1286
g61
(dp1287
g88
g89
ssg70
g1276
sg63
(lp1288
S':'
asbag56
(g77
g58
NtRp1289
(dp1290
g61
(dp1291
sg70
g1276
sg63
(lp1292
g56
(g57
g58
NtRp1293
(dp1294
g61
(dp1295
g69
I4
ssg70
g1289
sg63
(lp1296
S'session_id_welcome=127.0.0.1-b1f4fbb8-94ab-46c8-8d5b-f7cc0b0aa5e5; session_id_wp=127.0.0.1-01db6c83-c53b-4e65-87a5-300964303da9; session_id_admin=127.0.0.1-78d167a8-f1a0-47c7-a548-4e1c1a288c87; session_id_imgblog=127.0.0.1-e3a94cbc-0a17-4272-95c2-3597f5a4563b'
p1297
asbasbasbag56
(g72
g58
NtRp1298
(dp1299
g61
(dp1300
sg70
g1006
sg63
(lp1301
g56
(g77
g58
NtRp1302
(dp1303
g61
(dp1304
g81
g82
ssg70
g1298
sg63
(lp1305
S'http_host'
p1306
asbag56
(g77
g58
NtRp1307
(dp1308
g61
(dp1309
g88
g89
ssg70
g1298
sg63
(lp1310
S':'
asbag56
(g77
g58
NtRp1311
(dp1312
g61
(dp1313
sg70
g1298
sg63
(lp1314
g56
(g57
g58
NtRp1315
(dp1316
g61
(dp1317
g69
I4
ssg70
g1311
sg63
(lp1318
S'localhost:8000'
p1319
asbasbasbag56
(g72
g58
NtRp1320
(dp1321
g61
(dp1322
sg70
g1006
sg63
(lp1323
g56
(g77
g58
NtRp1324
(dp1325
g61
(dp1326
g81
g82
ssg70
g1320
sg63
(lp1327
S'http_user_agent'
p1328
asbag56
(g77
g58
NtRp1329
(dp1330
g61
(dp1331
g88
g89
ssg70
g1320
sg63
(lp1332
S':'
asbag56
(g77
g58
NtRp1333
(dp1334
g61
(dp1335
sg70
g1320
sg63
(lp1336
g56
(g57
g58
NtRp1337
(dp1338
g61
(dp1339
g69
I4
ssg70
g1333
sg63
(lp1340
S'Mozilla/5.0 (Macintosh; Intel Mac OS X 10_6_8) AppleWebKit/534.30 (KHTML, like Gecko) Chrome/12.0.742.112 Safari/534.30'
p1341
asbasbasbag56
(g72
g58
NtRp1342
(dp1343
g61
(dp1344
sg70
g1006
sg63
(lp1345
g56
(g77
g58
NtRp1346
(dp1347
g61
(dp1348
g81
g82
ssg70
g1342
sg63
(lp1349
S'path_info'
p1350
asbag56
(g77
g58
NtRp1351
(dp1352
g61
(dp1353
g88
g89
ssg70
g1342
sg63
(lp1354
S':'
asbag56
(g77
g58
NtRp1355
(dp1356
g61
(dp1357
sg70
g1342
sg63
(lp1358
g56
(g57
g58
NtRp1359
(dp1360
g61
(dp1361
g69
I4
ssg70
g1355
sg63
(lp1362
S'/wp/default/show/'
p1363
asbasbasbag56
(g72
g58
NtRp1364
(dp1365
g61
(dp1366
sg70
g1006
sg63
(lp1367
g56
(g77
g58
NtRp1368
(dp1369
g61
(dp1370
g81
g82
ssg70
g1364
sg63
(lp1371
S'query_string'
p1372
asbag56
(g77
g58
NtRp1373
(dp1374
g61
(dp1375
g88
g89
ssg70
g1364
sg63
(lp1376
S':'
asbag56
(g77
g58
NtRp1377
(dp1378
g61
(dp1379
sg70
g1364
sg63
(lp1380
g56
(g57
g58
NtRp1381
(dp1382
g61
(dp1383
g69
I4
ssg70
g1377
sg63
(lp1384
S''
asbasbasbag56
(g72
g58
NtRp1385
(dp1386
g61
(dp1387
sg70
g1006
sg63
(lp1388
g56
(g77
g58
NtRp1389
(dp1390
g61
(dp1391
g81
g82
ssg70
g1385
sg63
(lp1392
S'remote_addr'
p1393
asbag56
(g77
g58
NtRp1394
(dp1395
g61
(dp1396
g88
g89
ssg70
g1385
sg63
(lp1397
S':'
asbag56
(g77
g58
NtRp1398
(dp1399
g61
(dp1400
sg70
g1385
sg63
(lp1401
g56
(g57
g58
NtRp1402
(dp1403
g61
(dp1404
g69
I4
ssg70
g1398
sg63
(lp1405
g189
asbasbasbag56
(g72
g58
NtRp1406
(dp1407
g61
(dp1408
sg70
g1006
sg63
(lp1409
g56
(g77
g58
NtRp1410
(dp1411
g61
(dp1412
g81
g82
ssg70
g1406
sg63
(lp1413
S'remote_port'
p1414
asbag56
(g77
g58
NtRp1415
(dp1416
g61
(dp1417
g88
g89
ssg70
g1406
sg63
(lp1418
S':'
asbag56
(g77
g58
NtRp1419
(dp1420
g61
(dp1421
sg70
g1406
sg63
(lp1422
g56
(g57
g58
NtRp1423
(dp1424
g61
(dp1425
g69
I4
ssg70
g1419
sg63
(lp1426
S'62320'
p1427
asbasbasbag56
(g72
g58
NtRp1428
(dp1429
g61
(dp1430
sg70
g1006
sg63
(lp1431
g56
(g77
g58
NtRp1432
(dp1433
g61
(dp1434
g81
g82
ssg70
g1428
sg63
(lp1435
S'request_method'
p1436
asbag56
(g77
g58
NtRp1437
(dp1438
g61
(dp1439
g88
g89
ssg70
g1428
sg63
(lp1440
S':'
asbag56
(g77
g58
NtRp1441
(dp1442
g61
(dp1443
sg70
g1428
sg63
(lp1444
g56
(g57
g58
NtRp1445
(dp1446
g61
(dp1447
g69
I4
ssg70
g1441
sg63
(lp1448
S'GET'
p1449
asbasbasbag56
(g72
g58
NtRp1450
(dp1451
g61
(dp1452
sg70
g1006
sg63
(lp1453
g56
(g77
g58
NtRp1454
(dp1455
g61
(dp1456
g81
g82
ssg70
g1450
sg63
(lp1457
S'script_name'
p1458
asbag56
(g77
g58
NtRp1459
(dp1460
g61
(dp1461
g88
g89
ssg70
g1450
sg63
(lp1462
S':'
asbag56
(g77
g58
NtRp1463
(dp1464
g61
(dp1465
sg70
g1450
sg63
(lp1466
g56
(g57
g58
NtRp1467
(dp1468
g61
(dp1469
g69
I4
ssg70
g1463
sg63
(lp1470
S''
asbasbasbag56
(g72
g58
NtRp1471
(dp1472
g61
(dp1473
sg70
g1006
sg63
(lp1474
g56
(g77
g58
NtRp1475
(dp1476
g61
(dp1477
g81
g82
ssg70
g1471
sg63
(lp1478
S'server_name'
p1479
asbag56
(g77
g58
NtRp1480
(dp1481
g61
(dp1482
g88
g89
ssg70
g1471
sg63
(lp1483
S':'
asbag56
(g77
g58
NtRp1484
(dp1485
g61
(dp1486
sg70
g1471
sg63
(lp1487
g56
(g57
g58
NtRp1488
(dp1489
g61
(dp1490
g69
I4
ssg70
g1484
sg63
(lp1491
S'Magnus-Specialis.local'
p1492
asbasbasbag56
(g72
g58
NtRp1493
(dp1494
g61
(dp1495
sg70
g1006
sg63
(lp1496
g56
(g77
g58
NtRp1497
(dp1498
g61
(dp1499
g81
g82
ssg70
g1493
sg63
(lp1500
S'server_port'
p1501
asbag56
(g77
g58
NtRp1502
(dp1503
g61
(dp1504
g88
g89
ssg70
g1493
sg63
(lp1505
S':'
asbag56
(g77
g58
NtRp1506
(dp1507
g61
(dp1508
sg70
g1493
sg63
(lp1509
g56
(g57
g58
NtRp1510
(dp1511
g61
(dp1512
g69
I4
ssg70
g1506
sg63
(lp1513
S'8000'
p1514
asbasbasbag56
(g72
g58
NtRp1515
(dp1516
g61
(dp1517
sg70
g1006
sg63
(lp1518
g56
(g77
g58
NtRp1519
(dp1520
g61
(dp1521
g81
g82
ssg70
g1515
sg63
(lp1522
S'server_protocol'
p1523
asbag56
(g77
g58
NtRp1524
(dp1525
g61
(dp1526
g88
g89
ssg70
g1515
sg63
(lp1527
S':'
asbag56
(g77
g58
NtRp1528
(dp1529
g61
(dp1530
sg70
g1515
sg63
(lp1531
g56
(g57
g58
NtRp1532
(dp1533
g61
(dp1534
g69
I4
ssg70
g1528
sg63
(lp1535
S'HTTP/1.1'
p1536
asbasbasbag56
(g72
g58
NtRp1537
(dp1538
g61
(dp1539
sg70
g1006
sg63
(lp1540
g56
(g77
g58
NtRp1541
(dp1542
g61
(dp1543
g81
g82
ssg70
g1537
sg63
(lp1544
S'server_software'
p1545
asbag56
(g77
g58
NtRp1546
(dp1547
g61
(dp1548
g88
g89
ssg70
g1537
sg63
(lp1549
S':'
asbag56
(g77
g58
NtRp1550
(dp1551
g61
(dp1552
sg70
g1537
sg63
(lp1553
g56
(g57
g58
NtRp1554
(dp1555
g61
(dp1556
g69
I4
ssg70
g1550
sg63
(lp1557
S'Rocket 1.2.2'
p1558
asbasbasbag56
(g72
g58
NtRp1559
(dp1560
g61
(dp1561
sg70
g1006
sg63
(lp1562
g56
(g77
g58
NtRp1563
(dp1564
g61
(dp1565
g81
g82
ssg70
g1559
sg63
(lp1566
S'web2py_crontype'
p1567
asbag56
(g77
g58
NtRp1568
(dp1569
g61
(dp1570
g88
g89
ssg70
g1559
sg63
(lp1571
S':'
asbag56
(g77
g58
NtRp1572
(dp1573
g61
(dp1574
sg70
g1559
sg63
(lp1575
g56
(g57
g58
NtRp1576
(dp1577
g61
(dp1578
g69
I4
ssg70
g1572
sg63
(lp1579
S'hard'
p1580
asbasbasbag56
(g72
g58
NtRp1581
(dp1582
g61
(dp1583
sg70
g1006
sg63
(lp1584
g56
(g77
g58
NtRp1585
(dp1586
g61
(dp1587
g81
g82
ssg70
g1581
sg63
(lp1588
S'web2py_path'
p1589
asbag56
(g77
g58
NtRp1590
(dp1591
g61
(dp1592
g88
g89
ssg70
g1581
sg63
(lp1593
S':'
asbag56
(g77
g58
NtRp1594
(dp1595
g61
(dp1596
sg70
g1581
sg63
(lp1597
g56
(g57
g58
NtRp1598
(dp1599
g61
(dp1600
g69
I4
ssg70
g1594
sg63
(lp1601
g1053
asbasbasbag56
(g72
g58
NtRp1602
(dp1603
g61
(dp1604
sg70
g1006
sg63
(lp1605
g56
(g77
g58
NtRp1606
(dp1607
g61
(dp1608
g81
g82
ssg70
g1602
sg63
(lp1609
S'web2py_version'
p1610
asbag56
(g77
g58
NtRp1611
(dp1612
g61
(dp1613
g88
g89
ssg70
g1602
sg63
(lp1614
S':'
asbag56
(g77
g58
NtRp1615
(dp1616
g61
(dp1617
sg70
g1602
sg63
(lp1618
g56
(g57
g58
NtRp1619
(dp1620
g61
(dp1621
g69
I4
ssg70
g1615
sg63
(lp1622
S'Version 1.97.1 (2011-06-26 19:25:44)\n'
p1623
asbasbasbag56
(g72
g58
NtRp1624
(dp1625
g61
(dp1626
sg70
g1006
sg63
(lp1627
g56
(g77
g58
NtRp1628
(dp1629
g61
(dp1630
g81
g82
ssg70
g1624
sg63
(lp1631
S'wsgi_errors'
p1632
asbag56
(g77
g58
NtRp1633
(dp1634
g61
(dp1635
g88
g89
ssg70
g1624
sg63
(lp1636
S':'
asbag56
(g77
g58
NtRp1637
(dp1638
g61
(dp1639
sg70
g1624
sg63
(lp1640
g56
(g57
g58
NtRp1641
(dp1642
g61
(dp1643
g69
I4
ssg70
g1637
sg63
(lp1644
S"<open file '<stderr>', mode 'w' at 0x100283270>"
p1645
asbasbasbag56
(g72
g58
NtRp1646
(dp1647
g61
(dp1648
sg70
g1006
sg63
(lp1649
g56
(g77
g58
NtRp1650
(dp1651
g61
(dp1652
g81
g82
ssg70
g1646
sg63
(lp1653
S'wsgi_file_wrapper'
p1654
asbag56
(g77
g58
NtRp1655
(dp1656
g61
(dp1657
g88
g89
ssg70
g1646
sg63
(lp1658
S':'
asbag56
(g77
g58
NtRp1659
(dp1660
g61
(dp1661
sg70
g1646
sg63
(lp1662
g56
(g57
g58
NtRp1663
(dp1664
g61
(dp1665
g69
I4
ssg70
g1659
sg63
(lp1666
S'<class gluon.rocket.FileWrapper at 0x1019a02c0>'
p1667
asbasbasbag56
(g72
g58
NtRp1668
(dp1669
g61
(dp1670
sg70
g1006
sg63
(lp1671
g56
(g77
g58
NtRp1672
(dp1673
g61
(dp1674
g81
g82
ssg70
g1668
sg63
(lp1675
S'wsgi_input'
p1676
asbag56
(g77
g58
NtRp1677
(dp1678
g61
(dp1679
g88
g89
ssg70
g1668
sg63
(lp1680
S':'
asbag56
(g77
g58
NtRp1681
(dp1682
g61
(dp1683
sg70
g1668
sg63
(lp1684
g56
(g57
g58
NtRp1685
(dp1686
g61
(dp1687
g69
I4
ssg70
g1681
sg63
(lp1688
S'<socket._fileobject object at 0x1071d8050>'
p1689
asbasbasbag56
(g72
g58
NtRp1690
(dp1691
g61
(dp1692
sg70
g1006
sg63
(lp1693
g56
(g77
g58
NtRp1694
(dp1695
g61
(dp1696
g81
g82
ssg70
g1690
sg63
(lp1697
S'wsgi_multiprocess'
p1698
asbag56
(g77
g58
NtRp1699
(dp1700
g61
(dp1701
g88
g89
ssg70
g1690
sg63
(lp1702
S':'
asbag56
(g77
g58
NtRp1703
(dp1704
g61
(dp1705
sg70
g1690
sg63
(lp1706
g56
(g57
g58
NtRp1707
(dp1708
g61
(dp1709
g69
I4
ssg70
g1703
sg63
(lp1710
g99
asbasbasbag56
(g72
g58
NtRp1711
(dp1712
g61
(dp1713
sg70
g1006
sg63
(lp1714
g56
(g77
g58
NtRp1715
(dp1716
g61
(dp1717
g81
g82
ssg70
g1711
sg63
(lp1718
S'wsgi_multithread'
p1719
asbag56
(g77
g58
NtRp1720
(dp1721
g61
(dp1722
g88
g89
ssg70
g1711
sg63
(lp1723
S':'
asbag56
(g77
g58
NtRp1724
(dp1725
g61
(dp1726
sg70
g1711
sg63
(lp1727
g56
(g57
g58
NtRp1728
(dp1729
g61
(dp1730
g69
I4
ssg70
g1724
sg63
(lp1731
S'True'
p1732
asbasbasbag56
(g72
g58
NtRp1733
(dp1734
g61
(dp1735
sg70
g1006
sg63
(lp1736
g56
(g77
g58
NtRp1737
(dp1738
g61
(dp1739
g81
g82
ssg70
g1733
sg63
(lp1740
S'wsgi_run_once'
p1741
asbag56
(g77
g58
NtRp1742
(dp1743
g61
(dp1744
g88
g89
ssg70
g1733
sg63
(lp1745
S':'
asbag56
(g77
g58
NtRp1746
(dp1747
g61
(dp1748
sg70
g1733
sg63
(lp1749
g56
(g57
g58
NtRp1750
(dp1751
g61
(dp1752
g69
I4
ssg70
g1746
sg63
(lp1753
g99
asbasbasbag56
(g72
g58
NtRp1754
(dp1755
g61
(dp1756
sg70
g1006
sg63
(lp1757
g56
(g77
g58
NtRp1758
(dp1759
g61
(dp1760
g81
g82
ssg70
g1754
sg63
(lp1761
S'wsgi_url_scheme'
p1762
asbag56
(g77
g58
NtRp1763
(dp1764
g61
(dp1765
g88
g89
ssg70
g1754
sg63
(lp1766
S':'
asbag56
(g77
g58
NtRp1767
(dp1768
g61
(dp1769
sg70
g1754
sg63
(lp1770
g56
(g57
g58
NtRp1771
(dp1772
g61
(dp1773
g69
I4
ssg70
g1767
sg63
(lp1774
S'http'
p1775
asbasbasbag56
(g72
g58
NtRp1776
(dp1777
g61
(dp1778
sg70
g1006
sg63
(lp1779
g56
(g77
g58
NtRp1780
(dp1781
g61
(dp1782
g81
g82
ssg70
g1776
sg63
(lp1783
S'wsgi_version'
p1784
asbag56
(g77
g58
NtRp1785
(dp1786
g61
(dp1787
g88
g89
ssg70
g1776
sg63
(lp1788
S':'
asbag56
(g77
g58
NtRp1789
(dp1790
g61
(dp1791
sg70
g1776
sg63
(lp1792
g56
(g57
g58
NtRp1793
(dp1794
g61
(dp1795
g69
I4
ssg70
g1789
sg63
(lp1796
g56
(g65
g58
NtRp1797
(dp1798
g61
(dp1799
g69
I3
ssg70
Nsg63
(lp1800
g56
(g72
g58
NtRp1801
(dp1802
g61
(dp1803
sg70
g1797
sg63
(lp1804
g56
(g77
g58
NtRp1805
(dp1806
g61
(dp1807
sg70
g1801
sg63
(lp1808
g56
(g57
g58
NtRp1809
(dp1810
g61
(dp1811
g69
I3
ssg70
g1805
sg63
(lp1812
S'1'
asbasbasbag56
(g72
g58
NtRp1813
(dp1814
g61
(dp1815
sg70
g1797
sg63
(lp1816
g56
(g77
g58
NtRp1817
(dp1818
g61
(dp1819
sg70
g1813
sg63
(lp1820
g56
(g57
g58
NtRp1821
(dp1822
g61
(dp1823
g69
I3
ssg70
g1817
sg63
(lp1824
S'0'
asbasbasbasbasbasbasbasbasbasbasbag56
(g72
g58
NtRp1825
(dp1826
g61
(dp1827
sg70
g66
sg63
(lp1828
g56
(g77
g58
NtRp1829
(dp1830
g61
(dp1831
g81
g82
ssg70
g1825
sg63
(lp1832
S'extension'
p1833
asbag56
(g77
g58
NtRp1834
(dp1835
g61
(dp1836
g88
g89
ssg70
g1825
sg63
(lp1837
S':'
asbag56
(g77
g58
NtRp1838
(dp1839
g61
(dp1840
sg70
g1825
sg63
(lp1841
g56
(g57
g58
NtRp1842
(dp1843
g61
(dp1844
g69
I5
ssg70
g1838
sg63
(lp1845
S'html'
p1846
asbasbasbag56
(g72
g58
NtRp1847
(dp1848
g61
(dp1849
sg70
g66
sg63
(lp1850
g56
(g77
g58
NtRp1851
(dp1852
g61
(dp1853
g81
g82
ssg70
g1847
sg63
(lp1854
S'folder'
p1855
asbag56
(g77
g58
NtRp1856
(dp1857
g61
(dp1858
g88
g89
ssg70
g1847
sg63
(lp1859
S':'
asbag56
(g77
g58
NtRp1860
(dp1861
g61
(dp1862
sg70
g1847
sg63
(lp1863
g56
(g57
g58
NtRp1864
(dp1865
g61
(dp1866
g69
I5
ssg70
g1860
sg63
(lp1867
S'/Users/schultzc/Downloads/web2py/applications/wp/'
p1868
asbasbasbag56
(g72
g58
NtRp1869
(dp1870
g61
(dp1871
sg70
g66
sg63
(lp1872
g56
(g77
g58
NtRp1873
(dp1874
g61
(dp1875
g81
g82
ssg70
g1869
sg63
(lp1876
S'function'
p1877
asbag56
(g77
g58
NtRp1878
(dp1879
g61
(dp1880
g88
g89
ssg70
g1869
sg63
(lp1881
S':'
asbag56
(g77
g58
NtRp1882
(dp1883
g61
(dp1884
sg70
g1869
sg63
(lp1885
g56
(g57
g58
NtRp1886
(dp1887
g61
(dp1888
g69
I5
ssg70
g1882
sg63
(lp1889
S'show'
p1890
asbasbasbag56
(g72
g58
NtRp1891
(dp1892
g61
(dp1893
sg70
g66
sg63
(lp1894
g56
(g77
g58
NtRp1895
(dp1896
g61
(dp1897
g81
g82
ssg70
g1891
sg63
(lp1898
S'get_vars'
p1899
asbag56
(g77
g58
NtRp1900
(dp1901
g61
(dp1902
g88
g89
ssg70
g1891
sg63
(lp1903
S':'
asbag56
(g77
g58
NtRp1904
(dp1905
g61
(dp1906
sg70
g1891
sg63
(lp1907
g56
(g57
g58
NtRp1908
(dp1909
g61
(dp1910
g69
I5
ssg70
g1904
sg63
(lp1911
g56
(g65
g58
NtRp1912
(dp1913
g61
(dp1914
g69
I4
ssg70
Nsg63
(lp1915
sbasbasbasbag56
(g72
g58
NtRp1916
(dp1917
g61
(dp1918
sg70
g66
sg63
(lp1919
g56
(g77
g58
NtRp1920
(dp1921
g61
(dp1922
g81
g82
ssg70
g1916
sg63
(lp1923
S'is_https'
p1924
asbag56
(g77
g58
NtRp1925
(dp1926
g61
(dp1927
g88
g89
ssg70
g1916
sg63
(lp1928
S':'
asbag56
(g77
g58
NtRp1929
(dp1930
g61
(dp1931
sg70
g1916
sg63
(lp1932
g56
(g57
g58
NtRp1933
(dp1934
g61
(dp1935
g69
I5
ssg70
g1929
sg63
(lp1936
g99
asbasbasbag56
(g72
g58
NtRp1937
(dp1938
g61
(dp1939
sg70
g66
sg63
(lp1940
g56
(g77
g58
NtRp1941
(dp1942
g61
(dp1943
g81
g82
ssg70
g1937
sg63
(lp1944
S'is_local'
p1945
asbag56
(g77
g58
NtRp1946
(dp1947
g61
(dp1948
g88
g89
ssg70
g1937
sg63
(lp1949
S':'
asbag56
(g77
g58
NtRp1950
(dp1951
g61
(dp1952
sg70
g1937
sg63
(lp1953
g56
(g57
g58
NtRp1954
(dp1955
g61
(dp1956
g69
I5
ssg70
g1950
sg63
(lp1957
g1732
asbasbasbag56
(g72
g58
NtRp1958
(dp1959
g61
(dp1960
sg70
g66
sg63
(lp1961
g56
(g77
g58
NtRp1962
(dp1963
g61
(dp1964
g81
g82
ssg70
g1958
sg63
(lp1965
S'is_restful'
p1966
asbag56
(g77
g58
NtRp1967
(dp1968
g61
(dp1969
g88
g89
ssg70
g1958
sg63
(lp1970
S':'
asbag56
(g77
g58
NtRp1971
(dp1972
g61
(dp1973
sg70
g1958
sg63
(lp1974
g56
(g57
g58
NtRp1975
(dp1976
g61
(dp1977
g69
I5
ssg70
g1971
sg63
(lp1978
g99
asbasbasbag56
(g72
g58
NtRp1979
(dp1980
g61
(dp1981
sg70
g66
sg63
(lp1982
g56
(g77
g58
NtRp1983
(dp1984
g61
(dp1985
g81
g82
ssg70
g1979
sg63
(lp1986
S'now'
p1987
asbag56
(g77
g58
NtRp1988
(dp1989
g61
(dp1990
g88
g89
ssg70
g1979
sg63
(lp1991
S':'
asbag56
(g77
g58
NtRp1992
(dp1993
g61
(dp1994
sg70
g1979
sg63
(lp1995
g56
(g57
g58
NtRp1996
(dp1997
g61
(dp1998
g69
I5
ssg70
g1992
sg63
(lp1999
S'datetime.datetime(2011, 7, 15, 22, 31, 37, 912847)'
p2000
asbasbasbag56
(g72
g58
NtRp2001
(dp2002
g61
(dp2003
sg70
g66
sg63
(lp2004
g56
(g77
g58
NtRp2005
(dp2006
g61
(dp2007
g81
g82
ssg70
g2001
sg63
(lp2008
S'post_vars'
p2009
asbag56
(g77
g58
NtRp2010
(dp2011
g61
(dp2012
g88
g89
ssg70
g2001
sg63
(lp2013
S':'
asbag56
(g77
g58
NtRp2014
(dp2015
g61
(dp2016
sg70
g2001
sg63
(lp2017
g56
(g57
g58
NtRp2018
(dp2019
g61
(dp2020
g69
I5
ssg70
g2014
sg63
(lp2021
g56
(g65
g58
NtRp2022
(dp2023
g61
(dp2024
g69
I4
ssg70
Nsg63
(lp2025
sbasbasbasbag56
(g72
g58
NtRp2026
(dp2027
g61
(dp2028
sg70
g66
sg63
(lp2029
g56
(g77
g58
NtRp2030
(dp2031
g61
(dp2032
g81
g82
ssg70
g2026
sg63
(lp2033
S'raw_args'
p2034
asbag56
(g77
g58
NtRp2035
(dp2036
g61
(dp2037
g88
g89
ssg70
g2026
sg63
(lp2038
S':'
asbag56
(g77
g58
NtRp2039
(dp2040
g61
(dp2041
sg70
g2026
sg63
(lp2042
g56
(g57
g58
NtRp2043
(dp2044
g61
(dp2045
g69
I5
ssg70
g2039
sg63
(lp2046
S''
asbasbasbag56
(g72
g58
NtRp2047
(dp2048
g61
(dp2049
sg70
g66
sg63
(lp2050
g56
(g77
g58
NtRp2051
(dp2052
g61
(dp2053
g81
g82
ssg70
g2047
sg63
(lp2054
S'url'
p2055
asbag56
(g77
g58
NtRp2056
(dp2057
g61
(dp2058
g88
g89
ssg70
g2047
sg63
(lp2059
S':'
asbag56
(g77
g58
NtRp2060
(dp2061
g61
(dp2062
sg70
g2047
sg63
(lp2063
g56
(g57
g58
NtRp2064
(dp2065
g61
(dp2066
g69
I5
ssg70
g2060
sg63
(lp2067
S'/wp/default/show'
p2068
asbasbasbag56
(g72
g58
NtRp2069
(dp2070
g61
(dp2071
sg70
g66
sg63
(lp2072
g56
(g77
g58
NtRp2073
(dp2074
g61
(dp2075
g81
g82
ssg70
g2069
sg63
(lp2076
S'uuid'
p2077
asbag56
(g77
g58
NtRp2078
(dp2079
g61
(dp2080
g88
g89
ssg70
g2069
sg63
(lp2081
S':'
asbag56
(g77
g58
NtRp2082
(dp2083
g61
(dp2084
sg70
g2069
sg63
(lp2085
g56
(g57
g58
NtRp2086
(dp2087
g61
(dp2088
g69
I5
ssg70
g2082
sg63
(lp2089
S'wp/127.0.0.1.2011-07-15.22-31-37.1aed89b2-e0a3-40ef-b280-9dad7a6d2fed'
p2090
asbasbasbag56
(g72
g58
NtRp2091
(dp2092
g61
(dp2093
sg70
g66
sg63
(lp2094
g56
(g77
g58
NtRp2095
(dp2096
g61
(dp2097
g81
g82
ssg70
g2091
sg63
(lp2098
S'vars'
p2099
asbag56
(g77
g58
NtRp2100
(dp2101
g61
(dp2102
g88
g89
ssg70
g2091
sg63
(lp2103
S':'
asbag56
(g77
g58
NtRp2104
(dp2105
g61
(dp2106
sg70
g2091
sg63
(lp2107
g56
(g57
g58
NtRp2108
(dp2109
g61
(dp2110
g69
I5
ssg70
g2104
sg63
(lp2111
g56
(g65
g58
NtRp2112
(dp2113
g61
(dp2114
g69
I4
ssg70
Nsg63
(lp2115
sbasbasbasbag56
(g72
g58
NtRp2116
(dp2117
g61
(dp2118
sg70
g66
sg63
(lp2119
g56
(g77
g58
NtRp2120
(dp2121
g61
(dp2122
g81
g82
ssg70
g2116
sg63
(lp2123
S'wsgi'
p2124
asbag56
(g77
g58
NtRp2125
(dp2126
g61
(dp2127
g88
g89
ssg70
g2116
sg63
(lp2128
S':'
asbag56
(g77
g58
NtRp2129
(dp2130
g61
(dp2131
sg70
g2116
sg63
(lp2132
g56
(g57
g58
NtRp2133
(dp2134
g61
(dp2135
g69
I5
ssg70
g2129
sg63
(lp2136
g56
(g65
g58
NtRp2137
(dp2138
g61
(dp2139
g69
I4
ssg70
Nsg63
(lp2140
g56
(g72
g58
NtRp2141
(dp2142
g61
(dp2143
sg70
g2137
sg63
(lp2144
g56
(g77
g58
NtRp2145
(dp2146
g61
(dp2147
g81
g82
ssg70
g2141
sg63
(lp2148
S'environ'
p2149
asbag56
(g77
g58
NtRp2150
(dp2151
g61
(dp2152
g88
g89
ssg70
g2141
sg63
(lp2153
S':'
asbag56
(g77
g58
NtRp2154
(dp2155
g61
(dp2156
sg70
g2141
sg63
(lp2157
g56
(g57
g58
NtRp2158
(dp2159
g61
(dp2160
g69
I4
ssg70
g2154
sg63
(lp2161
g56
(g65
g58
NtRp2162
(dp2163
g61
(dp2164
g69
I3
ssg70
Nsg63
(lp2165
g56
(g72
g58
NtRp2166
(dp2167
g61
(dp2168
sg70
g2162
sg63
(lp2169
g56
(g77
g58
NtRp2170
(dp2171
g61
(dp2172
g81
g82
ssg70
g2166
sg63
(lp2173
S'HTTP_ACCEPT'
p2174
asbag56
(g77
g58
NtRp2175
(dp2176
g61
(dp2177
g88
g89
ssg70
g2166
sg63
(lp2178
S':'
asbag56
(g77
g58
NtRp2179
(dp2180
g61
(dp2181
sg70
g2166
sg63
(lp2182
g56
(g57
g58
NtRp2183
(dp2184
g61
(dp2185
g69
I3
ssg70
g2179
sg63
(lp2186
g1187
asbasbasbag56
(g72
g58
NtRp2187
(dp2188
g61
(dp2189
sg70
g2162
sg63
(lp2190
g56
(g77
g58
NtRp2191
(dp2192
g61
(dp2193
g81
g82
ssg70
g2187
sg63
(lp2194
S'HTTP_ACCEPT_CHARSET'
p2195
asbag56
(g77
g58
NtRp2196
(dp2197
g61
(dp2198
g88
g89
ssg70
g2187
sg63
(lp2199
S':'
asbag56
(g77
g58
NtRp2200
(dp2201
g61
(dp2202
sg70
g2187
sg63
(lp2203
g56
(g57
g58
NtRp2204
(dp2205
g61
(dp2206
g69
I3
ssg70
g2200
sg63
(lp2207
g1209
asbasbasbag56
(g72
g58
NtRp2208
(dp2209
g61
(dp2210
sg70
g2162
sg63
(lp2211
g56
(g77
g58
NtRp2212
(dp2213
g61
(dp2214
g81
g82
ssg70
g2208
sg63
(lp2215
S'HTTP_ACCEPT_ENCODING'
p2216
asbag56
(g77
g58
NtRp2217
(dp2218
g61
(dp2219
g88
g89
ssg70
g2208
sg63
(lp2220
S':'
asbag56
(g77
g58
NtRp2221
(dp2222
g61
(dp2223
sg70
g2208
sg63
(lp2224
g56
(g57
g58
NtRp2225
(dp2226
g61
(dp2227
g69
I3
ssg70
g2221
sg63
(lp2228
g1231
asbasbasbag56
(g72
g58
NtRp2229
(dp2230
g61
(dp2231
sg70
g2162
sg63
(lp2232
g56
(g77
g58
NtRp2233
(dp2234
g61
(dp2235
g81
g82
ssg70
g2229
sg63
(lp2236
S'HTTP_ACCEPT_LANGUAGE'
p2237
asbag56
(g77
g58
NtRp2238
(dp2239
g61
(dp2240
g88
g89
ssg70
g2229
sg63
(lp2241
S':'
asbag56
(g77
g58
NtRp2242
(dp2243
g61
(dp2244
sg70
g2229
sg63
(lp2245
g56
(g57
g58
NtRp2246
(dp2247
g61
(dp2248
g69
I3
ssg70
g2242
sg63
(lp2249
g1253
asbasbasbag56
(g72
g58
NtRp2250
(dp2251
g61
(dp2252
sg70
g2162
sg63
(lp2253
g56
(g77
g58
NtRp2254
(dp2255
g61
(dp2256
g81
g82
ssg70
g2250
sg63
(lp2257
S'HTTP_CONNECTION'
p2258
asbag56
(g77
g58
NtRp2259
(dp2260
g61
(dp2261
g88
g89
ssg70
g2250
sg63
(lp2262
S':'
asbag56
(g77
g58
NtRp2263
(dp2264
g61
(dp2265
sg70
g2250
sg63
(lp2266
g56
(g57
g58
NtRp2267
(dp2268
g61
(dp2269
g69
I3
ssg70
g2263
sg63
(lp2270
g1275
asbasbasbag56
(g72
g58
NtRp2271
(dp2272
g61
(dp2273
sg70
g2162
sg63
(lp2274
g56
(g77
g58
NtRp2275
(dp2276
g61
(dp2277
g81
g82
ssg70
g2271
sg63
(lp2278
S'HTTP_COOKIE'
p2279
asbag56
(g77
g58
NtRp2280
(dp2281
g61
(dp2282
g88
g89
ssg70
g2271
sg63
(lp2283
S':'
asbag56
(g77
g58
NtRp2284
(dp2285
g61
(dp2286
sg70
g2271
sg63
(lp2287
g56
(g57
g58
NtRp2288
(dp2289
g61
(dp2290
g69
I3
ssg70
g2284
sg63
(lp2291
g1297
asbasbasbag56
(g72
g58
NtRp2292
(dp2293
g61
(dp2294
sg70
g2162
sg63
(lp2295
g56
(g77
g58
NtRp2296
(dp2297
g61
(dp2298
g81
g82
ssg70
g2292
sg63
(lp2299
S'HTTP_HOST'
p2300
asbag56
(g77
g58
NtRp2301
(dp2302
g61
(dp2303
g88
g89
ssg70
g2292
sg63
(lp2304
S':'
asbag56
(g77
g58
NtRp2305
(dp2306
g61
(dp2307
sg70
g2292
sg63
(lp2308
g56
(g57
g58
NtRp2309
(dp2310
g61
(dp2311
g69
I3
ssg70
g2305
sg63
(lp2312
g1319
asbasbasbag56
(g72
g58
NtRp2313
(dp2314
g61
(dp2315
sg70
g2162
sg63
(lp2316
g56
(g77
g58
NtRp2317
(dp2318
g61
(dp2319
g81
g82
ssg70
g2313
sg63
(lp2320
S'HTTP_USER_AGENT'
p2321
asbag56
(g77
g58
NtRp2322
(dp2323
g61
(dp2324
g88
g89
ssg70
g2313
sg63
(lp2325
S':'
asbag56
(g77
g58
NtRp2326
(dp2327
g61
(dp2328
sg70
g2313
sg63
(lp2329
g56
(g57
g58
NtRp2330
(dp2331
g61
(dp2332
g69
I3
ssg70
g2326
sg63
(lp2333
g1341
asbasbasbag56
(g72
g58
NtRp2334
(dp2335
g61
(dp2336
sg70
g2162
sg63
(lp2337
g56
(g77
g58
NtRp2338
(dp2339
g61
(dp2340
g81
g82
ssg70
g2334
sg63
(lp2341
S'PATH_INFO'
p2342
asbag56
(g77
g58
NtRp2343
(dp2344
g61
(dp2345
g88
g89
ssg70
g2334
sg63
(lp2346
S':'
asbag56
(g77
g58
NtRp2347
(dp2348
g61
(dp2349
sg70
g2334
sg63
(lp2350
g56
(g57
g58
NtRp2351
(dp2352
g61
(dp2353
g69
I3
ssg70
g2347
sg63
(lp2354
g1363
asbasbasbag56
(g72
g58
NtRp2355
(dp2356
g61
(dp2357
sg70
g2162
sg63
(lp2358
g56
(g77
g58
NtRp2359
(dp2360
g61
(dp2361
g81
g82
ssg70
g2355
sg63
(lp2362
S'QUERY_STRING'
p2363
asbag56
(g77
g58
NtRp2364
(dp2365
g61
(dp2366
g88
g89
ssg70
g2355
sg63
(lp2367
S':'
asbag56
(g77
g58
NtRp2368
(dp2369
g61
(dp2370
sg70
g2355
sg63
(lp2371
g56
(g57
g58
NtRp2372
(dp2373
g61
(dp2374
g69
I3
ssg70
g2368
sg63
(lp2375
S''
asbasbasbag56
(g72
g58
NtRp2376
(dp2377
g61
(dp2378
sg70
g2162
sg63
(lp2379
g56
(g77
g58
NtRp2380
(dp2381
g61
(dp2382
g81
g82
ssg70
g2376
sg63
(lp2383
S'REMOTE_ADDR'
p2384
asbag56
(g77
g58
NtRp2385
(dp2386
g61
(dp2387
g88
g89
ssg70
g2376
sg63
(lp2388
S':'
asbag56
(g77
g58
NtRp2389
(dp2390
g61
(dp2391
sg70
g2376
sg63
(lp2392
g56
(g57
g58
NtRp2393
(dp2394
g61
(dp2395
g69
I3
ssg70
g2389
sg63
(lp2396
g189
asbasbasbag56
(g72
g58
NtRp2397
(dp2398
g61
(dp2399
sg70
g2162
sg63
(lp2400
g56
(g77
g58
NtRp2401
(dp2402
g61
(dp2403
g81
g82
ssg70
g2397
sg63
(lp2404
S'REMOTE_PORT'
p2405
asbag56
(g77
g58
NtRp2406
(dp2407
g61
(dp2408
g88
g89
ssg70
g2397
sg63
(lp2409
S':'
asbag56
(g77
g58
NtRp2410
(dp2411
g61
(dp2412
sg70
g2397
sg63
(lp2413
g56
(g57
g58
NtRp2414
(dp2415
g61
(dp2416
g69
I3
ssg70
g2410
sg63
(lp2417
g1427
asbasbasbag56
(g72
g58
NtRp2418
(dp2419
g61
(dp2420
sg70
g2162
sg63
(lp2421
g56
(g77
g58
NtRp2422
(dp2423
g61
(dp2424
g81
g82
ssg70
g2418
sg63
(lp2425
S'REQUEST_METHOD'
p2426
asbag56
(g77
g58
NtRp2427
(dp2428
g61
(dp2429
g88
g89
ssg70
g2418
sg63
(lp2430
S':'
asbag56
(g77
g58
NtRp2431
(dp2432
g61
(dp2433
sg70
g2418
sg63
(lp2434
g56
(g57
g58
NtRp2435
(dp2436
g61
(dp2437
g69
I3
ssg70
g2431
sg63
(lp2438
g1449
asbasbasbag56
(g72
g58
NtRp2439
(dp2440
g61
(dp2441
sg70
g2162
sg63
(lp2442
g56
(g77
g58
NtRp2443
(dp2444
g61
(dp2445
g81
g82
ssg70
g2439
sg63
(lp2446
S'SCRIPT_NAME'
p2447
asbag56
(g77
g58
NtRp2448
(dp2449
g61
(dp2450
g88
g89
ssg70
g2439
sg63
(lp2451
S':'
asbag56
(g77
g58
NtRp2452
(dp2453
g61
(dp2454
sg70
g2439
sg63
(lp2455
g56
(g57
g58
NtRp2456
(dp2457
g61
(dp2458
g69
I3
ssg70
g2452
sg63
(lp2459
S''
asbasbasbag56
(g72
g58
NtRp2460
(dp2461
g61
(dp2462
sg70
g2162
sg63
(lp2463
g56
(g77
g58
NtRp2464
(dp2465
g61
(dp2466
g81
g82
ssg70
g2460
sg63
(lp2467
S'SERVER_NAME'
p2468
asbag56
(g77
g58
NtRp2469
(dp2470
g61
(dp2471
g88
g89
ssg70
g2460
sg63
(lp2472
S':'
asbag56
(g77
g58
NtRp2473
(dp2474
g61
(dp2475
sg70
g2460
sg63
(lp2476
g56
(g57
g58
NtRp2477
(dp2478
g61
(dp2479
g69
I3
ssg70
g2473
sg63
(lp2480
g1492
asbasbasbag56
(g72
g58
NtRp2481
(dp2482
g61
(dp2483
sg70
g2162
sg63
(lp2484
g56
(g77
g58
NtRp2485
(dp2486
g61
(dp2487
g81
g82
ssg70
g2481
sg63
(lp2488
S'SERVER_PORT'
p2489
asbag56
(g77
g58
NtRp2490
(dp2491
g61
(dp2492
g88
g89
ssg70
g2481
sg63
(lp2493
S':'
asbag56
(g77
g58
NtRp2494
(dp2495
g61
(dp2496
sg70
g2481
sg63
(lp2497
g56
(g57
g58
NtRp2498
(dp2499
g61
(dp2500
g69
I3
ssg70
g2494
sg63
(lp2501
g1514
asbasbasbag56
(g72
g58
NtRp2502
(dp2503
g61
(dp2504
sg70
g2162
sg63
(lp2505
g56
(g77
g58
NtRp2506
(dp2507
g61
(dp2508
g81
g82
ssg70
g2502
sg63
(lp2509
S'SERVER_PROTOCOL'
p2510
asbag56
(g77
g58
NtRp2511
(dp2512
g61
(dp2513
g88
g89
ssg70
g2502
sg63
(lp2514
S':'
asbag56
(g77
g58
NtRp2515
(dp2516
g61
(dp2517
sg70
g2502
sg63
(lp2518
g56
(g57
g58
NtRp2519
(dp2520
g61
(dp2521
g69
I3
ssg70
g2515
sg63
(lp2522
g1536
asbasbasbag56
(g72
g58
NtRp2523
(dp2524
g61
(dp2525
sg70
g2162
sg63
(lp2526
g56
(g77
g58
NtRp2527
(dp2528
g61
(dp2529
g81
g82
ssg70
g2523
sg63
(lp2530
S'SERVER_SOFTWARE'
p2531
asbag56
(g77
g58
NtRp2532
(dp2533
g61
(dp2534
g88
g89
ssg70
g2523
sg63
(lp2535
S':'
asbag56
(g77
g58
NtRp2536
(dp2537
g61
(dp2538
sg70
g2523
sg63
(lp2539
g56
(g57
g58
NtRp2540
(dp2541
g61
(dp2542
g69
I3
ssg70
g2536
sg63
(lp2543
g1558
asbasbasbag56
(g72
g58
NtRp2544
(dp2545
g61
(dp2546
sg70
g2162
sg63
(lp2547
g56
(g77
g58
NtRp2548
(dp2549
g61
(dp2550
g81
g82
ssg70
g2544
sg63
(lp2551
S'wsgi.errors'
p2552
asbag56
(g77
g58
NtRp2553
(dp2554
g61
(dp2555
g88
g89
ssg70
g2544
sg63
(lp2556
S':'
asbag56
(g77
g58
NtRp2557
(dp2558
g61
(dp2559
sg70
g2544
sg63
(lp2560
g56
(g57
g58
NtRp2561
(dp2562
g61
(dp2563
g69
I3
ssg70
g2557
sg63
(lp2564
S"<open file '<stderr>', mode 'w' at 0x100283270>"
p2565
asbasbasbag56
(g72
g58
NtRp2566
(dp2567
g61
(dp2568
sg70
g2162
sg63
(lp2569
g56
(g77
g58
NtRp2570
(dp2571
g61
(dp2572
g81
g82
ssg70
g2566
sg63
(lp2573
S'wsgi.file_wrapper'
p2574
asbag56
(g77
g58
NtRp2575
(dp2576
g61
(dp2577
g88
g89
ssg70
g2566
sg63
(lp2578
S':'
asbag56
(g77
g58
NtRp2579
(dp2580
g61
(dp2581
sg70
g2566
sg63
(lp2582
g56
(g57
g58
NtRp2583
(dp2584
g61
(dp2585
g69
I3
ssg70
g2579
sg63
(lp2586
S'<class gluon.rocket.FileWrapper at 0x1019a02c0>'
p2587
asbasbasbag56
(g72
g58
NtRp2588
(dp2589
g61
(dp2590
sg70
g2162
sg63
(lp2591
g56
(g77
g58
NtRp2592
(dp2593
g61
(dp2594
g81
g82
ssg70
g2588
sg63
(lp2595
S'wsgi.input'
p2596
asbag56
(g77
g58
NtRp2597
(dp2598
g61
(dp2599
g88
g89
ssg70
g2588
sg63
(lp2600
S':'
asbag56
(g77
g58
NtRp2601
(dp2602
g61
(dp2603
sg70
g2588
sg63
(lp2604
g56
(g57
g58
NtRp2605
(dp2606
g61
(dp2607
g69
I3
ssg70
g2601
sg63
(lp2608
S'<cStringIO.StringO object at 0x1073d1d18>'
p2609
asbasbasbag56
(g72
g58
NtRp2610
(dp2611
g61
(dp2612
sg70
g2162
sg63
(lp2613
g56
(g77
g58
NtRp2614
(dp2615
g61
(dp2616
g81
g82
ssg70
g2610
sg63
(lp2617
S'wsgi.multiprocess'
p2618
asbag56
(g77
g58
NtRp2619
(dp2620
g61
(dp2621
g88
g89
ssg70
g2610
sg63
(lp2622
S':'
asbag56
(g77
g58
NtRp2623
(dp2624
g61
(dp2625
sg70
g2610
sg63
(lp2626
g56
(g57
g58
NtRp2627
(dp2628
g61
(dp2629
g69
I3
ssg70
g2623
sg63
(lp2630
g99
asbasbasbag56
(g72
g58
NtRp2631
(dp2632
g61
(dp2633
sg70
g2162
sg63
(lp2634
g56
(g77
g58
NtRp2635
(dp2636
g61
(dp2637
g81
g82
ssg70
g2631
sg63
(lp2638
S'wsgi.multithread'
p2639
asbag56
(g77
g58
NtRp2640
(dp2641
g61
(dp2642
g88
g89
ssg70
g2631
sg63
(lp2643
S':'
asbag56
(g77
g58
NtRp2644
(dp2645
g61
(dp2646
sg70
g2631
sg63
(lp2647
g56
(g57
g58
NtRp2648
(dp2649
g61
(dp2650
g69
I3
ssg70
g2644
sg63
(lp2651
g1732
asbasbasbag56
(g72
g58
NtRp2652
(dp2653
g61
(dp2654
sg70
g2162
sg63
(lp2655
g56
(g77
g58
NtRp2656
(dp2657
g61
(dp2658
g81
g82
ssg70
g2652
sg63
(lp2659
S'wsgi.run_once'
p2660
asbag56
(g77
g58
NtRp2661
(dp2662
g61
(dp2663
g88
g89
ssg70
g2652
sg63
(lp2664
S':'
asbag56
(g77
g58
NtRp2665
(dp2666
g61
(dp2667
sg70
g2652
sg63
(lp2668
g56
(g57
g58
NtRp2669
(dp2670
g61
(dp2671
g69
I3
ssg70
g2665
sg63
(lp2672
g99
asbasbasbag56
(g72
g58
NtRp2673
(dp2674
g61
(dp2675
sg70
g2162
sg63
(lp2676
g56
(g77
g58
NtRp2677
(dp2678
g61
(dp2679
g81
g82
ssg70
g2673
sg63
(lp2680
S'wsgi.url_scheme'
p2681
asbag56
(g77
g58
NtRp2682
(dp2683
g61
(dp2684
g88
g89
ssg70
g2673
sg63
(lp2685
S':'
asbag56
(g77
g58
NtRp2686
(dp2687
g61
(dp2688
sg70
g2673
sg63
(lp2689
g56
(g57
g58
NtRp2690
(dp2691
g61
(dp2692
g69
I3
ssg70
g2686
sg63
(lp2693
g1775
asbasbasbag56
(g72
g58
NtRp2694
(dp2695
g61
(dp2696
sg70
g2162
sg63
(lp2697
g56
(g77
g58
NtRp2698
(dp2699
g61
(dp2700
g81
g82
ssg70
g2694
sg63
(lp2701
S'wsgi.version'
p2702
asbag56
(g77
g58
NtRp2703
(dp2704
g61
(dp2705
g88
g89
ssg70
g2694
sg63
(lp2706
S':'
asbag56
(g77
g58
NtRp2707
(dp2708
g61
(dp2709
sg70
g2694
sg63
(lp2710
g56
(g57
g58
NtRp2711
(dp2712
g61
(dp2713
g69
I3
ssg70
g2707
sg63
(lp2714
S'1'
asbasbasbasbasbasbasbasbasbasbasbasbasbsS'frames'
p2715
(lp2716
(dp2717
S'file'
p2718
S'/Users/schultzc/Downloads/web2py/gluon/restricted.py'
p2719
sS'dump'
p2720
(dp2721
S'environment'
p2722
S"{'A': <class 'gluon.html.A'>, 'B': <class 'gluon.html.B'>, 'BEAUTIFY': <class 'gluon.html.BEAUTIFY'>, 'BODY': <class 'gluon.html.BODY'>, 'BR': <class 'gluon.html.BR'>, 'BUTTON': <class 'gluon.html.BUTTON'>, 'CENTER': <class 'gluon.html.CENTER'>, 'CLEANUP': <class 'gluon.validators.CLEANUP'>, 'CODE': <class 'gluon.html.CODE'>, 'CRYPT': <class 'gluon.validators.CRYPT'>, ...}"
p2723
sS'ccode'
p2724
S'<code object <module> at 0x105f87b30, file "/Use...applications/wp/controllers/default.py", line 12>'
p2725
ssS'lnum'
p2726
I192
sS'lines'
p2727
(dp2728
I192
S'        exec ccode in environment'
p2729
sI193
S'    except HTTP:'
p2730
sI194
S'        raise'
p2731
sI195
S'    except Exception:'
p2732
sI196
S'        # XXX Show exception in Wing IDE if running in debugger'
p2733
sI187
S'    try:'
p2734
sI188
S'        if type(code) == types.CodeType:'
p2735
sI189
S'            ccode = code'
p2736
sI190
S'        else:'
p2737
sI191
S'            ccode = compile2(code,layer)'
p2738
ssS'call'
p2739
S'(code="# -*- coding: utf-8 -*-\\n# this file is released ...ud())\\n\'\'\'\\n\\nresponse._vars=response._caller(show)\\n", environment={\'A\': <class \'gluon.html.A\'>, \'B\': <class \'gluon.html.B\'>, \'BEAUTIFY\': <class \'gluon.html.BEAUTIFY\'>, \'BODY\': <class \'gluon.html.BODY\'>, \'BR\': <class \'gluon.html.BR\'>, \'BUTTON\': <class \'gluon.html.BUTTON\'>, \'CENTER\': <class \'gluon.html.CENTER\'>, \'CLEANUP\': <class \'gluon.validators.CLEANUP\'>, \'CODE\': <class \'gluon.html.CODE\'>, \'CRYPT\': <class \'gluon.validators.CRYPT\'>, ...}, layer=\'/Users/schultzc/Downloads/web2py/applications/wp/controllers/default.py\')'
p2740
sS'func'
p2741
S'restricted'
p2742
sa(dp2743
g2718
S'/Users/schultzc/Downloads/web2py/applications/wp/controllers/default.py'
p2744
sg2720
(dp2745
sg2726
I91
sg2727
(dp2746
I80
S'    http://..../[app]/default/data/delete/[table]/[id['
p2747
sI81
S'    http://..../[app]/default/data/select/[table]'
p2748
sI82
S'    http://..../[app]/default/data/search/[table]'
p2749
sI83
S'    but URLs bust be signed, i.e. linked with'
p2750
sI84
S"      A('table',_href=URL('data/tables',user_signature=True))"
p2751
sI85
S'    or with the signed load operator'
p2752
sI86
S"      LOAD('default','data.load',args='tables',ajax=True,user_signature=True)"
p2753
sI87
S'    """'
p2754
sI88
S'    return dict(form=crud())'
p2755
sI89
S"'''"
p2756
ssg2739
S'()'
p2757
sg2741
S'<module>'
p2758
sa(dp2759
g2718
S'/Users/schultzc/Downloads/web2py/gluon/globals.py'
p2760
sg2720
(dp2761
S'self'
p2762
S'undefined'
p2763
sS'f'
S'<function show>'
p2764
ssg2726
I137
sg2727
(dp2765
I132
S"        self.flash = ''           # used by the default view layout"
p2766
sI133
S'        self.meta = Storage()     # used by web2py_ajax.html'
p2767
sI134
S'        self.menu = []            # used by the default view layout'
p2768
sI135
S'        self.files = []           # used by web2py_ajax.html'
p2769
sI136
S'        self._vars = None'
p2770
sI137
S'        self._caller = lambda f: f()'
p2771
sI138
S'        self._view_environment = None'
p2772
sI139
S'        self._custom_commit = None'
p2773
sI140
S'        self._custom_rollback = None'
p2774
sI141
S''
ssg2739
S'(f=<function show>)'
p2775
sg2741
S'<lambda>'
p2776
sa(dp2777
g2718
S'/Users/schultzc/Downloads/web2py/applications/wp/controllers/default.py'
p2778
sg2720
(dp2779
S'image'
p2780
S'None'
p2781
sS'form.vars'
p2782
S'<Storage {}>'
p2783
sS'image.id'
p2784
g2763
sS'form'
p2785
S'<gluon.sqlhtml.SQLFORM object>'
p2786
sS'form.vars.image_id'
p2787
S'None'
p2788
ssg2726
I32
sg2727
(dp2789
I32
S'    form.vars.image_id = image.id'
p2790
sI33
S'    if form.accepts(request.vars, session):'
p2791
sI34
S"        response.flash = 'your comment is posted'"
p2792
sI35
S'    comments = db(db.comment.image_id==image.id).select()'
p2793
sI36
S'    return dict(image=image, comments=comments, form=form)'
p2794
sI27
S'   return dict(form=form)'
p2795
sI28
S''
sI29
S'def show():'
p2796
sI30
S'    image = db(db.image.id==request.args(0)).select().first()'
p2797
sI31
S'    form = SQLFORM(db.comment)'
p2798
ssg2739
S'()'
p2799
sg2741
S'show'
p2800
sasS'pyver'
p2801
S'Python 2.7.2: /opt/local/Library/Frameworks/Python.framework/Versions/2.7/Resources/Python.app/Contents/MacOS/Python'
p2802
sS'session'
p2803
g56
(g57
g58
NtRp2804
(dp2805
g61
(dp2806
sg63
(lp2807
g56
(g65
g58
NtRp2808
(dp2809
g61
(dp2810
g69
I5
ssg70
Nsg63
(lp2811
g56
(g72
g58
NtRp2812
(dp2813
g61
(dp2814
sg70
g2808
sg63
(lp2815
g56
(g77
g58
NtRp2816
(dp2817
g61
(dp2818
g81
g82
ssg70
g2812
sg63
(lp2819
S'last_query'
p2820
asbag56
(g77
g58
NtRp2821
(dp2822
g61
(dp2823
g88
g89
ssg70
g2812
sg63
(lp2824
S':'
asbag56
(g77
g58
NtRp2825
(dp2826
g61
(dp2827
sg70
g2812
sg63
(lp2828
g56
(g57
g58
NtRp2829
(dp2830
g61
(dp2831
g69
I5
ssg70
g2825
sg63
(lp2832
S'db.image.id>0'
p2833
asbasbasbasbasbsS'etype'
p2834
S"<type 'exceptions.AttributeError'>"
p2835
sS'date'
p2836
S'Fri Jul 15 22:31:37 2011'
p2837
sS'response'
p2838
g56
(g57
g58
NtRp2839
(dp2840
g61
(dp2841
sg63
(lp2842
g56
(g65
g58
NtRp2843
(dp2844
g61
(dp2845
g69
I5
ssg70
Nsg63
(lp2846
g56
(g72
g58
NtRp2847
(dp2848
g61
(dp2849
sg70
g2843
sg63
(lp2850
g56
(g77
g58
NtRp2851
(dp2852
g61
(dp2853
g81
g82
ssg70
g2847
sg63
(lp2854
g154
asbag56
(g77
g58
NtRp2855
(dp2856
g61
(dp2857
g88
g89
ssg70
g2847
sg63
(lp2858
S':'
asbag56
(g77
g58
NtRp2859
(dp2860
g61
(dp2861
sg70
g2847
sg63
(lp2862
g56
(g57
g58
NtRp2863
(dp2864
g61
(dp2865
g69
I5
ssg70
g2859
sg63
(lp2866
S'<cStringIO.StringO object at 0x1073d1bc8>'
p2867
asbasbasbag56
(g72
g58
NtRp2868
(dp2869
g61
(dp2870
sg70
g2843
sg63
(lp2871
g56
(g77
g58
NtRp2872
(dp2873
g61
(dp2874
g81
g82
ssg70
g2868
sg63
(lp2875
g220
asbag56
(g77
g58
NtRp2876
(dp2877
g61
(dp2878
g88
g89
ssg70
g2868
sg63
(lp2879
S':'
asbag56
(g77
g58
NtRp2880
(dp2881
g61
(dp2882
sg70
g2868
sg63
(lp2883
g56
(g57
g58
NtRp2884
(dp2885
g61
(dp2886
g69
I5
ssg70
g2880
sg63
(lp2887
g56
(g65
g58
NtRp2888
(dp2889
g61
(dp2890
g69
I4
ssg70
Nsg63
(lp2891
g56
(g72
g58
NtRp2892
(dp2893
g61
(dp2894
sg70
g2888
sg63
(lp2895
g56
(g77
g58
NtRp2896
(dp2897
g61
(dp2898
g81
g82
ssg70
g2892
sg63
(lp2899
S'session_id_wp'
p2900
asbag56
(g77
g58
NtRp2901
(dp2902
g61
(dp2903
g88
g89
ssg70
g2892
sg63
(lp2904
S':'
asbag56
(g77
g58
NtRp2905
(dp2906
g61
(dp2907
sg70
g2892
sg63
(lp2908
g56
(g57
g58
NtRp2909
(dp2910
g61
(dp2911
g69
I4
ssg70
g2905
sg63
(lp2912
g56
(g65
g58
NtRp2913
(dp2914
g61
(dp2915
g69
I3
ssg70
Nsg63
(lp2916
g56
(g72
g58
NtRp2917
(dp2918
g61
(dp2919
sg70
g2913
sg63
(lp2920
g56
(g77
g58
NtRp2921
(dp2922
g61
(dp2923
g81
g82
ssg70
g2917
sg63
(lp2924
g270
asbag56
(g77
g58
NtRp2925
(dp2926
g61
(dp2927
g88
g89
ssg70
g2917
sg63
(lp2928
S':'
asbag56
(g77
g58
NtRp2929
(dp2930
g61
(dp2931
sg70
g2917
sg63
(lp2932
g56
(g57
g58
NtRp2933
(dp2934
g61
(dp2935
g69
I3
ssg70
g2929
sg63
(lp2936
S''
asbasbasbag56
(g72
g58
NtRp2937
(dp2938
g61
(dp2939
sg70
g2913
sg63
(lp2940
g56
(g77
g58
NtRp2941
(dp2942
g61
(dp2943
g81
g82
ssg70
g2937
sg63
(lp2944
g291
asbag56
(g77
g58
NtRp2945
(dp2946
g61
(dp2947
g88
g89
ssg70
g2937
sg63
(lp2948
S':'
asbag56
(g77
g58
NtRp2949
(dp2950
g61
(dp2951
sg70
g2937
sg63
(lp2952
g56
(g57
g58
NtRp2953
(dp2954
g61
(dp2955
g69
I3
ssg70
g2949
sg63
(lp2956
S''
asbasbasbag56
(g72
g58
NtRp2957
(dp2958
g61
(dp2959
sg70
g2913
sg63
(lp2960
g56
(g77
g58
NtRp2961
(dp2962
g61
(dp2963
g81
g82
ssg70
g2957
sg63
(lp2964
g312
asbag56
(g77
g58
NtRp2965
(dp2966
g61
(dp2967
g88
g89
ssg70
g2957
sg63
(lp2968
S':'
asbag56
(g77
g58
NtRp2969
(dp2970
g61
(dp2971
sg70
g2957
sg63
(lp2972
g56
(g57
g58
NtRp2973
(dp2974
g61
(dp2975
g69
I3
ssg70
g2969
sg63
(lp2976
S''
asbasbasbag56
(g72
g58
NtRp2977
(dp2978
g61
(dp2979
sg70
g2913
sg63
(lp2980
g56
(g77
g58
NtRp2981
(dp2982
g61
(dp2983
g81
g82
ssg70
g2977
sg63
(lp2984
g333
asbag56
(g77
g58
NtRp2985
(dp2986
g61
(dp2987
g88
g89
ssg70
g2977
sg63
(lp2988
S':'
asbag56
(g77
g58
NtRp2989
(dp2990
g61
(dp2991
sg70
g2977
sg63
(lp2992
g56
(g57
g58
NtRp2993
(dp2994
g61
(dp2995
g69
I3
ssg70
g2989
sg63
(lp2996
S''
asbasbasbag56
(g72
g58
NtRp2997
(dp2998
g61
(dp2999
sg70
g2913
sg63
(lp3000
g56
(g77
g58
NtRp3001
(dp3002
g61
(dp3003
g81
g82
ssg70
g2997
sg63
(lp3004
g354
asbag56
(g77
g58
NtRp3005
(dp3006
g61
(dp3007
g88
g89
ssg70
g2997
sg63
(lp3008
S':'
asbag56
(g77
g58
NtRp3009
(dp3010
g61
(dp3011
sg70
g2997
sg63
(lp3012
g56
(g57
g58
NtRp3013
(dp3014
g61
(dp3015
g69
I3
ssg70
g3009
sg63
(lp3016
S''
asbasbasbag56
(g72
g58
NtRp3017
(dp3018
g61
(dp3019
sg70
g2913
sg63
(lp3020
g56
(g77
g58
NtRp3021
(dp3022
g61
(dp3023
g81
g82
ssg70
g3017
sg63
(lp3024
g375
asbag56
(g77
g58
NtRp3025
(dp3026
g61
(dp3027
g88
g89
ssg70
g3017
sg63
(lp3028
S':'
asbag56
(g77
g58
NtRp3029
(dp3030
g61
(dp3031
sg70
g3017
sg63
(lp3032
g56
(g57
g58
NtRp3033
(dp3034
g61
(dp3035
g69
I3
ssg70
g3029
sg63
(lp3036
S'/'
asbasbasbag56
(g72
g58
NtRp3037
(dp3038
g61
(dp3039
sg70
g2913
sg63
(lp3040
g56
(g77
g58
NtRp3041
(dp3042
g61
(dp3043
g81
g82
ssg70
g3037
sg63
(lp3044
g396
asbag56
(g77
g58
NtRp3045
(dp3046
g61
(dp3047
g88
g89
ssg70
g3037
sg63
(lp3048
S':'
asbag56
(g77
g58
NtRp3049
(dp3050
g61
(dp3051
sg70
g3037
sg63
(lp3052
g56
(g57
g58
NtRp3053
(dp3054
g61
(dp3055
g69
I3
ssg70
g3049
sg63
(lp3056
S''
asbasbasbag56
(g72
g58
NtRp3057
(dp3058
g61
(dp3059
sg70
g2913
sg63
(lp3060
g56
(g77
g58
NtRp3061
(dp3062
g61
(dp3063
g81
g82
ssg70
g3057
sg63
(lp3064
g417
asbag56
(g77
g58
NtRp3065
(dp3066
g61
(dp3067
g88
g89
ssg70
g3057
sg63
(lp3068
S':'
asbag56
(g77
g58
NtRp3069
(dp3070
g61
(dp3071
sg70
g3057
sg63
(lp3072
g56
(g57
g58
NtRp3073
(dp3074
g61
(dp3075
g69
I3
ssg70
g3069
sg63
(lp3076
S''
asbasbasbasbasbasbasbasbasbasbasbag56
(g72
g58
NtRp3077
(dp3078
g61
(dp3079
sg70
g2843
sg63
(lp3080
g56
(g77
g58
NtRp3081
(dp3082
g61
(dp3083
g81
g82
ssg70
g3077
sg63
(lp3084
S'files'
p3085
asbag56
(g77
g58
NtRp3086
(dp3087
g61
(dp3088
g88
g89
ssg70
g3077
sg63
(lp3089
S':'
asbag56
(g77
g58
NtRp3090
(dp3091
g61
(dp3092
sg70
g3077
sg63
(lp3093
g56
(g57
g58
NtRp3094
(dp3095
g61
(dp3096
g69
I5
ssg70
g3090
sg63
(lp3097
g56
(g65
g58
NtRp3098
(dp3099
g61
(dp3100
g69
I4
ssg70
Nsg63
(lp3101
sbasbasbasbag56
(g72
g58
NtRp3102
(dp3103
g61
(dp3104
sg70
g2843
sg63
(lp3105
g56
(g77
g58
NtRp3106
(dp3107
g61
(dp3108
g81
g82
ssg70
g3102
sg63
(lp3109
S'flash'
p3110
asbag56
(g77
g58
NtRp3111
(dp3112
g61
(dp3113
g88
g89
ssg70
g3102
sg63
(lp3114
S':'
asbag56
(g77
g58
NtRp3115
(dp3116
g61
(dp3117
sg70
g3102
sg63
(lp3118
g56
(g57
g58
NtRp3119
(dp3120
g61
(dp3121
g69
I5
ssg70
g3115
sg63
(lp3122
S''
asbasbasbag56
(g72
g58
NtRp3123
(dp3124
g61
(dp3125
sg70
g2843
sg63
(lp3126
g56
(g77
g58
NtRp3127
(dp3128
g61
(dp3129
g81
g82
ssg70
g3123
sg63
(lp3130
S'headers'
p3131
asbag56
(g77
g58
NtRp3132
(dp3133
g61
(dp3134
g88
g89
ssg70
g3123
sg63
(lp3135
S':'
asbag56
(g77
g58
NtRp3136
(dp3137
g61
(dp3138
sg70
g3123
sg63
(lp3139
g56
(g57
g58
NtRp3140
(dp3141
g61
(dp3142
g69
I5
ssg70
g3136
sg63
(lp3143
g56
(g65
g58
NtRp3144
(dp3145
g61
(dp3146
g69
I4
ssg70
Nsg63
(lp3147
g56
(g72
g58
NtRp3148
(dp3149
g61
(dp3150
sg70
g3144
sg63
(lp3151
g56
(g77
g58
NtRp3152
(dp3153
g61
(dp3154
g81
g82
ssg70
g3148
sg63
(lp3155
S'Cache-Control'
p3156
asbag56
(g77
g58
NtRp3157
(dp3158
g61
(dp3159
g88
g89
ssg70
g3148
sg63
(lp3160
S':'
asbag56
(g77
g58
NtRp3161
(dp3162
g61
(dp3163
sg70
g3148
sg63
(lp3164
g56
(g57
g58
NtRp3165
(dp3166
g61
(dp3167
g69
I4
ssg70
g3161
sg63
(lp3168
S'no-store, no-cache, must-revalidate, post-check=0, pre-check=0'
p3169
asbasbasbag56
(g72
g58
NtRp3170
(dp3171
g61
(dp3172
sg70
g3144
sg63
(lp3173
g56
(g77
g58
NtRp3174
(dp3175
g61
(dp3176
g81
g82
ssg70
g3170
sg63
(lp3177
S'Content-Type'
p3178
asbag56
(g77
g58
NtRp3179
(dp3180
g61
(dp3181
g88
g89
ssg70
g3170
sg63
(lp3182
S':'
asbag56
(g77
g58
NtRp3183
(dp3184
g61
(dp3185
sg70
g3170
sg63
(lp3186
g56
(g57
g58
NtRp3187
(dp3188
g61
(dp3189
g69
I4
ssg70
g3183
sg63
(lp3190
S'text/html; charset=utf-8'
p3191
asbasbasbag56
(g72
g58
NtRp3192
(dp3193
g61
(dp3194
sg70
g3144
sg63
(lp3195
g56
(g77
g58
NtRp3196
(dp3197
g61
(dp3198
g81
g82
ssg70
g3192
sg63
(lp3199
S'Expires'
p3200
asbag56
(g77
g58
NtRp3201
(dp3202
g61
(dp3203
g88
g89
ssg70
g3192
sg63
(lp3204
S':'
asbag56
(g77
g58
NtRp3205
(dp3206
g61
(dp3207
sg70
g3192
sg63
(lp3208
g56
(g57
g58
NtRp3209
(dp3210
g61
(dp3211
g69
I4
ssg70
g3205
sg63
(lp3212
S'Sat, 16 Jul 2011 05:31:37 GMT'
p3213
asbasbasbag56
(g72
g58
NtRp3214
(dp3215
g61
(dp3216
sg70
g3144
sg63
(lp3217
g56
(g77
g58
NtRp3218
(dp3219
g61
(dp3220
g81
g82
ssg70
g3214
sg63
(lp3221
S'Pragma'
p3222
asbag56
(g77
g58
NtRp3223
(dp3224
g61
(dp3225
g88
g89
ssg70
g3214
sg63
(lp3226
S':'
asbag56
(g77
g58
NtRp3227
(dp3228
g61
(dp3229
sg70
g3214
sg63
(lp3230
g56
(g57
g58
NtRp3231
(dp3232
g61
(dp3233
g69
I4
ssg70
g3227
sg63
(lp3234
S'no-cache'
p3235
asbasbasbag56
(g72
g58
NtRp3236
(dp3237
g61
(dp3238
sg70
g3144
sg63
(lp3239
g56
(g77
g58
NtRp3240
(dp3241
g61
(dp3242
g81
g82
ssg70
g3236
sg63
(lp3243
S'X-Powered-By'
p3244
asbag56
(g77
g58
NtRp3245
(dp3246
g61
(dp3247
g88
g89
ssg70
g3236
sg63
(lp3248
S':'
asbag56
(g77
g58
NtRp3249
(dp3250
g61
(dp3251
sg70
g3236
sg63
(lp3252
g56
(g57
g58
NtRp3253
(dp3254
g61
(dp3255
g69
I4
ssg70
g3249
sg63
(lp3256
S'web2py'
p3257
asbasbasbasbasbasbasbag56
(g72
g58
NtRp3258
(dp3259
g61
(dp3260
sg70
g2843
sg63
(lp3261
g56
(g77
g58
NtRp3262
(dp3263
g61
(dp3264
g81
g82
ssg70
g3258
sg63
(lp3265
S'menu'
p3266
asbag56
(g77
g58
NtRp3267
(dp3268
g61
(dp3269
g88
g89
ssg70
g3258
sg63
(lp3270
S':'
asbag56
(g77
g58
NtRp3271
(dp3272
g61
(dp3273
sg70
g3258
sg63
(lp3274
g56
(g57
g58
NtRp3275
(dp3276
g61
(dp3277
g69
I5
ssg70
g3271
sg63
(lp3278
g56
(g65
g58
NtRp3279
(dp3280
g61
(dp3281
g69
I4
ssg70
Nsg63
(lp3282
g56
(g72
g58
NtRp3283
(dp3284
g61
(dp3285
sg70
g3279
sg63
(lp3286
g56
(g77
g58
NtRp3287
(dp3288
g61
(dp3289
sg70
g3283
sg63
(lp3290
g56
(g57
g58
NtRp3291
(dp3292
g61
(dp3293
g69
I4
ssg70
g3287
sg63
(lp3294
g56
(g65
g58
NtRp3295
(dp3296
g61
(dp3297
g69
I3
ssg70
Nsg63
(lp3298
g56
(g72
g58
NtRp3299
(dp3300
g61
(dp3301
sg70
g3295
sg63
(lp3302
g56
(g77
g58
NtRp3303
(dp3304
g61
(dp3305
sg70
g3299
sg63
(lp3306
g56
(g57
g58
NtRp3307
(dp3308
g61
(dp3309
g69
I3
ssg70
g3303
sg63
(lp3310
cgluon.languages
lazyT_unpickle
p3311
(S't\x04\x00\x00\x00Home'
tRp3312
asbasbasbag56
(g72
g58
NtRp3313
(dp3314
g61
(dp3315
sg70
g3295
sg63
(lp3316
g56
(g77
g58
NtRp3317
(dp3318
g61
(dp3319
sg70
g3313
sg63
(lp3320
g56
(g57
g58
NtRp3321
(dp3322
g61
(dp3323
g69
I3
ssg70
g3317
sg63
(lp3324
g99
asbasbasbag56
(g72
g58
NtRp3325
(dp3326
g61
(dp3327
sg70
g3295
sg63
(lp3328
g56
(g77
g58
NtRp3329
(dp3330
g61
(dp3331
sg70
g3325
sg63
(lp3332
g56
(g57
g58
NtRp3333
(dp3334
g61
(dp3335
g69
I3
ssg70
g3329
sg63
(lp3336
S'/wp/default/index'
p3337
asbasbasbag56
(g72
g58
NtRp3338
(dp3339
g61
(dp3340
sg70
g3295
sg63
(lp3341
g56
(g77
g58
NtRp3342
(dp3343
g61
(dp3344
sg70
g3338
sg63
(lp3345
g56
(g57
g58
NtRp3346
(dp3347
g61
(dp3348
g69
I3
ssg70
g3342
sg63
(lp3349
g56
(g65
g58
NtRp3350
(dp3351
g61
(dp3352
g69
I2
ssg70
Nsg63
(lp3353
sbasbasbasbasbasbasbasbag56
(g72
g58
NtRp3354
(dp3355
g61
(dp3356
sg70
g3279
sg63
(lp3357
g56
(g77
g58
NtRp3358
(dp3359
g61
(dp3360
sg70
g3354
sg63
(lp3361
g56
(g57
g58
NtRp3362
(dp3363
g61
(dp3364
g69
I4
ssg70
g3358
sg63
(lp3365
g56
(g65
g58
NtRp3366
(dp3367
g61
(dp3368
g69
I3
ssg70
Nsg63
(lp3369
g56
(g72
g58
NtRp3370
(dp3371
g61
(dp3372
sg70
g3366
sg63
(lp3373
g56
(g77
g58
NtRp3374
(dp3375
g61
(dp3376
sg70
g3370
sg63
(lp3377
g56
(g57
g58
NtRp3378
(dp3379
g61
(dp3380
g69
I3
ssg70
g3374
sg63
(lp3381
g3311
(S's\x08\x00\x00\x00This App'
tRp3382
asbasbasbag56
(g72
g58
NtRp3383
(dp3384
g61
(dp3385
sg70
g3366
sg63
(lp3386
g56
(g77
g58
NtRp3387
(dp3388
g61
(dp3389
sg70
g3383
sg63
(lp3390
g56
(g57
g58
NtRp3391
(dp3392
g61
(dp3393
g69
I3
ssg70
g3387
sg63
(lp3394
g99
asbasbasbag56
(g72
g58
NtRp3395
(dp3396
g61
(dp3397
sg70
g3366
sg63
(lp3398
g56
(g77
g58
NtRp3399
(dp3400
g61
(dp3401
sg70
g3395
sg63
(lp3402
g56
(g57
g58
NtRp3403
(dp3404
g61
(dp3405
g69
I3
ssg70
g3399
sg63
(lp3406
S'/admin/default/design/wp'
p3407
asbasbasbag56
(g72
g58
NtRp3408
(dp3409
g61
(dp3410
sg70
g3366
sg63
(lp3411
g56
(g77
g58
NtRp3412
(dp3413
g61
(dp3414
sg70
g3408
sg63
(lp3415
g56
(g57
g58
NtRp3416
(dp3417
g61
(dp3418
g69
I3
ssg70
g3412
sg63
(lp3419
g56
(g65
g58
NtRp3420
(dp3421
g61
(dp3422
g69
I2
ssg70
Nsg63
(lp3423
g56
(g72
g58
NtRp3424
(dp3425
g61
(dp3426
sg70
g3420
sg63
(lp3427
g56
(g77
g58
NtRp3428
(dp3429
g61
(dp3430
sg70
g3424
sg63
(lp3431
g56
(g57
g58
NtRp3432
(dp3433
g61
(dp3434
g69
I2
ssg70
g3428
sg63
(lp3435
g56
(g65
g58
NtRp3436
(dp3437
g61
(dp3438
g69
I1
ssg70
Nsg63
(lp3439
g56
(g72
g58
NtRp3440
(dp3441
g61
(dp3442
sg70
g3436
sg63
(lp3443
g56
(g77
g58
NtRp3444
(dp3445
g61
(dp3446
sg70
g3440
sg63
(lp3447
g56
(g57
g58
NtRp3448
(dp3449
g61
(dp3450
g69
I1
ssg70
g3444
sg63
(lp3451
g3311
(S't\n\x00\x00\x00Controller'
tRp3452
asbasbasbag56
(g72
g58
NtRp3453
(dp3454
g61
(dp3455
sg70
g3436
sg63
(lp3456
g56
(g77
g58
NtRp3457
(dp3458
g61
(dp3459
sg70
g3453
sg63
(lp3460
g56
(g57
g58
NtRp3461
(dp3462
g61
(dp3463
g69
I1
ssg70
g3457
sg63
(lp3464
I00
asbasbasbag56
(g72
g58
NtRp3465
(dp3466
g61
(dp3467
sg70
g3436
sg63
(lp3468
g56
(g77
g58
NtRp3469
(dp3470
g61
(dp3471
sg70
g3465
sg63
(lp3472
g56
(g57
g58
NtRp3473
(dp3474
g61
(dp3475
g69
I1
ssg70
g3469
sg63
(lp3476
S'/admin/default/edit/wp/controllers/default.py'
p3477
asbasbasbasbasbasbasbag56
(g72
g58
NtRp3478
(dp3479
g61
(dp3480
sg70
g3420
sg63
(lp3481
g56
(g77
g58
NtRp3482
(dp3483
g61
(dp3484
sg70
g3478
sg63
(lp3485
g56
(g57
g58
NtRp3486
(dp3487
g61
(dp3488
g69
I2
ssg70
g3482
sg63
(lp3489
g56
(g65
g58
NtRp3490
(dp3491
g61
(dp3492
g69
I1
ssg70
Nsg63
(lp3493
g56
(g72
g58
NtRp3494
(dp3495
g61
(dp3496
sg70
g3490
sg63
(lp3497
g56
(g77
g58
NtRp3498
(dp3499
g61
(dp3500
sg70
g3494
sg63
(lp3501
g56
(g57
g58
NtRp3502
(dp3503
g61
(dp3504
g69
I1
ssg70
g3498
sg63
(lp3505
g3311
(S't\x04\x00\x00\x00View'
tRp3506
asbasbasbag56
(g72
g58
NtRp3507
(dp3508
g61
(dp3509
sg70
g3490
sg63
(lp3510
g56
(g77
g58
NtRp3511
(dp3512
g61
(dp3513
sg70
g3507
sg63
(lp3514
g56
(g57
g58
NtRp3515
(dp3516
g61
(dp3517
g69
I1
ssg70
g3511
sg63
(lp3518
I00
asbasbasbag56
(g72
g58
NtRp3519
(dp3520
g61
(dp3521
sg70
g3490
sg63
(lp3522
g56
(g77
g58
NtRp3523
(dp3524
g61
(dp3525
sg70
g3519
sg63
(lp3526
g56
(g57
g58
NtRp3527
(dp3528
g61
(dp3529
g69
I1
ssg70
g3523
sg63
(lp3530
S'/admin/default/edit/wp/views/default/show.html'
p3531
asbasbasbasbasbasbasbag56
(g72
g58
NtRp3532
(dp3533
g61
(dp3534
sg70
g3420
sg63
(lp3535
g56
(g77
g58
NtRp3536
(dp3537
g61
(dp3538
sg70
g3532
sg63
(lp3539
g56
(g57
g58
NtRp3540
(dp3541
g61
(dp3542
g69
I2
ssg70
g3536
sg63
(lp3543
g56
(g65
g58
NtRp3544
(dp3545
g61
(dp3546
g69
I1
ssg70
Nsg63
(lp3547
g56
(g72
g58
NtRp3548
(dp3549
g61
(dp3550
sg70
g3544
sg63
(lp3551
g56
(g77
g58
NtRp3552
(dp3553
g61
(dp3554
sg70
g3548
sg63
(lp3555
g56
(g57
g58
NtRp3556
(dp3557
g61
(dp3558
g69
I1
ssg70
g3552
sg63
(lp3559
g3311
(S't\x06\x00\x00\x00Layout'
tRp3560
asbasbasbag56
(g72
g58
NtRp3561
(dp3562
g61
(dp3563
sg70
g3544
sg63
(lp3564
g56
(g77
g58
NtRp3565
(dp3566
g61
(dp3567
sg70
g3561
sg63
(lp3568
g56
(g57
g58
NtRp3569
(dp3570
g61
(dp3571
g69
I1
ssg70
g3565
sg63
(lp3572
I00
asbasbasbag56
(g72
g58
NtRp3573
(dp3574
g61
(dp3575
sg70
g3544
sg63
(lp3576
g56
(g77
g58
NtRp3577
(dp3578
g61
(dp3579
sg70
g3573
sg63
(lp3580
g56
(g57
g58
NtRp3581
(dp3582
g61
(dp3583
g69
I1
ssg70
g3577
sg63
(lp3584
S'/admin/default/edit/wp/views/layout.html'
p3585
asbasbasbasbasbasbasbag56
(g72
g58
NtRp3586
(dp3587
g61
(dp3588
sg70
g3420
sg63
(lp3589
g56
(g77
g58
NtRp3590
(dp3591
g61
(dp3592
sg70
g3586
sg63
(lp3593
g56
(g57
g58
NtRp3594
(dp3595
g61
(dp3596
g69
I2
ssg70
g3590
sg63
(lp3597
g56
(g65
g58
NtRp3598
(dp3599
g61
(dp3600
g69
I1
ssg70
Nsg63
(lp3601
g56
(g72
g58
NtRp3602
(dp3603
g61
(dp3604
sg70
g3598
sg63
(lp3605
g56
(g77
g58
NtRp3606
(dp3607
g61
(dp3608
sg70
g3602
sg63
(lp3609
g56
(g57
g58
NtRp3610
(dp3611
g61
(dp3612
g69
I1
ssg70
g3606
sg63
(lp3613
g3311
(S't\n\x00\x00\x00Stylesheet'
tRp3614
asbasbasbag56
(g72
g58
NtRp3615
(dp3616
g61
(dp3617
sg70
g3598
sg63
(lp3618
g56
(g77
g58
NtRp3619
(dp3620
g61
(dp3621
sg70
g3615
sg63
(lp3622
g56
(g57
g58
NtRp3623
(dp3624
g61
(dp3625
g69
I1
ssg70
g3619
sg63
(lp3626
I00
asbasbasbag56
(g72
g58
NtRp3627
(dp3628
g61
(dp3629
sg70
g3598
sg63
(lp3630
g56
(g77
g58
NtRp3631
(dp3632
g61
(dp3633
sg70
g3627
sg63
(lp3634
g56
(g57
g58
NtRp3635
(dp3636
g61
(dp3637
g69
I1
ssg70
g3631
sg63
(lp3638
S'/admin/default/edit/wp/static/base.css'
p3639
asbasbasbasbasbasbasbag56
(g72
g58
NtRp3640
(dp3641
g61
(dp3642
sg70
g3420
sg63
(lp3643
g56
(g77
g58
NtRp3644
(dp3645
g61
(dp3646
sg70
g3640
sg63
(lp3647
g56
(g57
g58
NtRp3648
(dp3649
g61
(dp3650
g69
I2
ssg70
g3644
sg63
(lp3651
g56
(g65
g58
NtRp3652
(dp3653
g61
(dp3654
g69
I1
ssg70
Nsg63
(lp3655
g56
(g72
g58
NtRp3656
(dp3657
g61
(dp3658
sg70
g3652
sg63
(lp3659
g56
(g77
g58
NtRp3660
(dp3661
g61
(dp3662
sg70
g3656
sg63
(lp3663
g56
(g57
g58
NtRp3664
(dp3665
g61
(dp3666
g69
I1
ssg70
g3660
sg63
(lp3667
g3311
(S's\x08\x00\x00\x00DB Model'
tRp3668
asbasbasbag56
(g72
g58
NtRp3669
(dp3670
g61
(dp3671
sg70
g3652
sg63
(lp3672
g56
(g77
g58
NtRp3673
(dp3674
g61
(dp3675
sg70
g3669
sg63
(lp3676
g56
(g57
g58
NtRp3677
(dp3678
g61
(dp3679
g69
I1
ssg70
g3673
sg63
(lp3680
I00
asbasbasbag56
(g72
g58
NtRp3681
(dp3682
g61
(dp3683
sg70
g3652
sg63
(lp3684
g56
(g77
g58
NtRp3685
(dp3686
g61
(dp3687
sg70
g3681
sg63
(lp3688
g56
(g57
g58
NtRp3689
(dp3690
g61
(dp3691
g69
I1
ssg70
g3685
sg63
(lp3692
S'/admin/default/edit/wp/models/db.py'
p3693
asbasbasbasbasbasbasbag56
(g72
g58
NtRp3694
(dp3695
g61
(dp3696
sg70
g3420
sg63
(lp3697
g56
(g77
g58
NtRp3698
(dp3699
g61
(dp3700
sg70
g3694
sg63
(lp3701
g56
(g57
g58
NtRp3702
(dp3703
g61
(dp3704
g69
I2
ssg70
g3698
sg63
(lp3705
g56
(g65
g58
NtRp3706
(dp3707
g61
(dp3708
g69
I1
ssg70
Nsg63
(lp3709
g56
(g72
g58
NtRp3710
(dp3711
g61
(dp3712
sg70
g3706
sg63
(lp3713
g56
(g77
g58
NtRp3714
(dp3715
g61
(dp3716
sg70
g3710
sg63
(lp3717
g56
(g57
g58
NtRp3718
(dp3719
g61
(dp3720
g69
I1
ssg70
g3714
sg63
(lp3721
g3311
(S's\n\x00\x00\x00Menu Model'
tRp3722
asbasbasbag56
(g72
g58
NtRp3723
(dp3724
g61
(dp3725
sg70
g3706
sg63
(lp3726
g56
(g77
g58
NtRp3727
(dp3728
g61
(dp3729
sg70
g3723
sg63
(lp3730
g56
(g57
g58
NtRp3731
(dp3732
g61
(dp3733
g69
I1
ssg70
g3727
sg63
(lp3734
I00
asbasbasbag56
(g72
g58
NtRp3735
(dp3736
g61
(dp3737
sg70
g3706
sg63
(lp3738
g56
(g77
g58
NtRp3739
(dp3740
g61
(dp3741
sg70
g3735
sg63
(lp3742
g56
(g57
g58
NtRp3743
(dp3744
g61
(dp3745
g69
I1
ssg70
g3739
sg63
(lp3746
S'/admin/default/edit/wp/models/menu.py'
p3747
asbasbasbasbasbasbasbag56
(g72
g58
NtRp3748
(dp3749
g61
(dp3750
sg70
g3420
sg63
(lp3751
g56
(g77
g58
NtRp3752
(dp3753
g61
(dp3754
sg70
g3748
sg63
(lp3755
g56
(g57
g58
NtRp3756
(dp3757
g61
(dp3758
g69
I2
ssg70
g3752
sg63
(lp3759
g56
(g65
g58
NtRp3760
(dp3761
g61
(dp3762
g69
I1
ssg70
Nsg63
(lp3763
g56
(g72
g58
NtRp3764
(dp3765
g61
(dp3766
sg70
g3760
sg63
(lp3767
g56
(g77
g58
NtRp3768
(dp3769
g61
(dp3770
sg70
g3764
sg63
(lp3771
g56
(g57
g58
NtRp3772
(dp3773
g61
(dp3774
g69
I1
ssg70
g3768
sg63
(lp3775
g3311
(S't\x08\x00\x00\x00Database'
tRp3776
asbasbasbag56
(g72
g58
NtRp3777
(dp3778
g61
(dp3779
sg70
g3760
sg63
(lp3780
g56
(g77
g58
NtRp3781
(dp3782
g61
(dp3783
sg70
g3777
sg63
(lp3784
g56
(g57
g58
NtRp3785
(dp3786
g61
(dp3787
g69
I1
ssg70
g3781
sg63
(lp3788
I00
asbasbasbag56
(g72
g58
NtRp3789
(dp3790
g61
(dp3791
sg70
g3760
sg63
(lp3792
g56
(g77
g58
NtRp3793
(dp3794
g61
(dp3795
sg70
g3789
sg63
(lp3796
g56
(g57
g58
NtRp3797
(dp3798
g61
(dp3799
g69
I1
ssg70
g3793
sg63
(lp3800
S'/wp/appadmin/index'
p3801
asbasbasbasbasbasbasbag56
(g72
g58
NtRp3802
(dp3803
g61
(dp3804
sg70
g3420
sg63
(lp3805
g56
(g77
g58
NtRp3806
(dp3807
g61
(dp3808
sg70
g3802
sg63
(lp3809
g56
(g57
g58
NtRp3810
(dp3811
g61
(dp3812
g69
I2
ssg70
g3806
sg63
(lp3813
g56
(g65
g58
NtRp3814
(dp3815
g61
(dp3816
g69
I1
ssg70
Nsg63
(lp3817
g56
(g72
g58
NtRp3818
(dp3819
g61
(dp3820
sg70
g3814
sg63
(lp3821
g56
(g77
g58
NtRp3822
(dp3823
g61
(dp3824
sg70
g3818
sg63
(lp3825
g56
(g57
g58
NtRp3826
(dp3827
g61
(dp3828
g69
I1
ssg70
g3822
sg63
(lp3829
g3311
(S't\x06\x00\x00\x00Errors'
tRp3830
asbasbasbag56
(g72
g58
NtRp3831
(dp3832
g61
(dp3833
sg70
g3814
sg63
(lp3834
g56
(g77
g58
NtRp3835
(dp3836
g61
(dp3837
sg70
g3831
sg63
(lp3838
g56
(g57
g58
NtRp3839
(dp3840
g61
(dp3841
g69
I1
ssg70
g3835
sg63
(lp3842
I00
asbasbasbag56
(g72
g58
NtRp3843
(dp3844
g61
(dp3845
sg70
g3814
sg63
(lp3846
g56
(g77
g58
NtRp3847
(dp3848
g61
(dp3849
sg70
g3843
sg63
(lp3850
g56
(g57
g58
NtRp3851
(dp3852
g61
(dp3853
g69
I1
ssg70
g3847
sg63
(lp3854
S'/admin/default/errors/wp'
p3855
asbasbasbasbasbasbasbag56
(g72
g58
NtRp3856
(dp3857
g61
(dp3858
sg70
g3420
sg63
(lp3859
g56
(g77
g58
NtRp3860
(dp3861
g61
(dp3862
sg70
g3856
sg63
(lp3863
g56
(g57
g58
NtRp3864
(dp3865
g61
(dp3866
g69
I2
ssg70
g3860
sg63
(lp3867
g56
(g65
g58
NtRp3868
(dp3869
g61
(dp3870
g69
I1
ssg70
Nsg63
(lp3871
g56
(g72
g58
NtRp3872
(dp3873
g61
(dp3874
sg70
g3868
sg63
(lp3875
g56
(g77
g58
NtRp3876
(dp3877
g61
(dp3878
sg70
g3872
sg63
(lp3879
g56
(g57
g58
NtRp3880
(dp3881
g61
(dp3882
g69
I1
ssg70
g3876
sg63
(lp3883
g3311
(S't\x05\x00\x00\x00About'
tRp3884
asbasbasbag56
(g72
g58
NtRp3885
(dp3886
g61
(dp3887
sg70
g3868
sg63
(lp3888
g56
(g77
g58
NtRp3889
(dp3890
g61
(dp3891
sg70
g3885
sg63
(lp3892
g56
(g57
g58
NtRp3893
(dp3894
g61
(dp3895
g69
I1
ssg70
g3889
sg63
(lp3896
I00
asbasbasbag56
(g72
g58
NtRp3897
(dp3898
g61
(dp3899
sg70
g3868
sg63
(lp3900
g56
(g77
g58
NtRp3901
(dp3902
g61
(dp3903
sg70
g3897
sg63
(lp3904
g56
(g57
g58
NtRp3905
(dp3906
g61
(dp3907
g69
I1
ssg70
g3901
sg63
(lp3908
S'/admin/default/about/wp'
p3909
asbasbasbasbasbasbasbasbasbasbasbasbasbasbasbag56
(g72
g58
NtRp3910
(dp3911
g61
(dp3912
sg70
g3279
sg63
(lp3913
g56
(g77
g58
NtRp3914
(dp3915
g61
(dp3916
sg70
g3910
sg63
(lp3917
g56
(g57
g58
NtRp3918
(dp3919
g61
(dp3920
g69
I4
ssg70
g3914
sg63
(lp3921
g56
(g65
g58
NtRp3922
(dp3923
g61
(dp3924
g69
I3
ssg70
Nsg63
(lp3925
g56
(g72
g58
NtRp3926
(dp3927
g61
(dp3928
sg70
g3922
sg63
(lp3929
g56
(g77
g58
NtRp3930
(dp3931
g61
(dp3932
sg70
g3926
sg63
(lp3933
g56
(g57
g58
NtRp3934
(dp3935
g61
(dp3936
g69
I3
ssg70
g3930
sg63
(lp3937
g3311
(S't\t\x00\x00\x00Resources'
tRp3938
asbasbasbag56
(g72
g58
NtRp3939
(dp3940
g61
(dp3941
sg70
g3922
sg63
(lp3942
g56
(g77
g58
NtRp3943
(dp3944
g61
(dp3945
sg70
g3939
sg63
(lp3946
g56
(g57
g58
NtRp3947
(dp3948
g61
(dp3949
g69
I3
ssg70
g3943
sg63
(lp3950
g99
asbasbasbag56
(g72
g58
NtRp3951
(dp3952
g61
(dp3953
sg70
g3922
sg63
(lp3954
g56
(g77
g58
NtRp3955
(dp3956
g61
(dp3957
sg70
g3951
sg63
(lp3958
g56
(g57
g58
NtRp3959
(dp3960
g61
(dp3961
g69
I3
ssg70
g3955
sg63
(lp3962
S'None'
p3963
asbasbasbag56
(g72
g58
NtRp3964
(dp3965
g61
(dp3966
sg70
g3922
sg63
(lp3967
g56
(g77
g58
NtRp3968
(dp3969
g61
(dp3970
sg70
g3964
sg63
(lp3971
g56
(g57
g58
NtRp3972
(dp3973
g61
(dp3974
g69
I3
ssg70
g3968
sg63
(lp3975
g56
(g65
g58
NtRp3976
(dp3977
g61
(dp3978
g69
I2
ssg70
Nsg63
(lp3979
g56
(g72
g58
NtRp3980
(dp3981
g61
(dp3982
sg70
g3976
sg63
(lp3983
g56
(g77
g58
NtRp3984
(dp3985
g61
(dp3986
sg70
g3980
sg63
(lp3987
g56
(g57
g58
NtRp3988
(dp3989
g61
(dp3990
g69
I2
ssg70
g3984
sg63
(lp3991
g56
(g65
g58
NtRp3992
(dp3993
g61
(dp3994
g69
I1
ssg70
Nsg63
(lp3995
g56
(g72
g58
NtRp3996
(dp3997
g61
(dp3998
sg70
g3992
sg63
(lp3999
g56
(g77
g58
NtRp4000
(dp4001
g61
(dp4002
sg70
g3996
sg63
(lp4003
g56
(g57
g58
NtRp4004
(dp4005
g61
(dp4006
g69
I1
ssg70
g4000
sg63
(lp4007
g3311
(S't\r\x00\x00\x00Documentation'
tRp4008
asbasbasbag56
(g72
g58
NtRp4009
(dp4010
g61
(dp4011
sg70
g3992
sg63
(lp4012
g56
(g77
g58
NtRp4013
(dp4014
g61
(dp4015
sg70
g4009
sg63
(lp4016
g56
(g57
g58
NtRp4017
(dp4018
g61
(dp4019
g69
I1
ssg70
g4013
sg63
(lp4020
I00
asbasbasbag56
(g72
g58
NtRp4021
(dp4022
g61
(dp4023
sg70
g3992
sg63
(lp4024
g56
(g77
g58
NtRp4025
(dp4026
g61
(dp4027
sg70
g4021
sg63
(lp4028
g56
(g57
g58
NtRp4029
(dp4030
g61
(dp4031
g69
I1
ssg70
g4025
sg63
(lp4032
S'http://www.web2py.com/book'
p4033
asbasbasbag56
(g72
g58
NtRp4034
(dp4035
g61
(dp4036
sg70
g3992
sg63
(lp4037
g56
(g77
g58
NtRp4038
(dp4039
g61
(dp4040
sg70
g4034
sg63
(lp4041
g56
(g57
g58
NtRp4042
(dp4043
g61
(dp4044
g69
I1
ssg70
g4038
sg63
(lp4045
(lp4046
(g3311
(S't\x07\x00\x00\x00Preface'
tRp4047
I00
S'http://www.web2py.com/book/default/chapter/00'
tp4048
a(g3311
(S't\x0c\x00\x00\x00Introduction'
tRp4049
I00
S'http://www.web2py.com/book/default/chapter/01'
tp4050
a(g3311
(S't\x06\x00\x00\x00Python'
tRp4051
I00
S'http://www.web2py.com/book/default/chapter/02'
tp4052
a(g3311
(S't\x08\x00\x00\x00Overview'
tRp4053
I00
S'http://www.web2py.com/book/default/chapter/03'
tp4054
a(g3311
(S's\x08\x00\x00\x00The Core'
tRp4055
I00
S'http://www.web2py.com/book/default/chapter/04'
tp4056
a(g3311
(S's\t\x00\x00\x00The Views'
tRp4057
I00
S'http://www.web2py.com/book/default/chapter/05'
tp4058
a(g3311
(S't\x08\x00\x00\x00Database'
tRp4059
I00
S'http://www.web2py.com/book/default/chapter/06'
tp4060
a(g3311
(S's\x14\x00\x00\x00Forms and Validators'
tRp4061
I00
S'http://www.web2py.com/book/default/chapter/07'
tp4062
a(g3311
(S's\x0e\x00\x00\x00Access Control'
tRp4063
I00
S'http://www.web2py.com/book/default/chapter/08'
tp4064
a(g3311
(S't\x08\x00\x00\x00Services'
tRp4065
I00
S'http://www.web2py.com/book/default/chapter/09'
tp4066
a(g3311
(S's\x0c\x00\x00\x00Ajax Recipes'
tRp4067
I00
S'http://www.web2py.com/book/default/chapter/10'
tp4068
a(g3311
(S's\x12\x00\x00\x00Deployment Recipes'
tRp4069
I00
S'http://www.web2py.com/book/default/chapter/11'
tp4070
a(g3311
(S's\r\x00\x00\x00Other Recipes'
tRp4071
I00
S'http://www.web2py.com/book/default/chapter/12'
tp4072
a(g3311
(S's\r\x00\x00\x00Buy this book'
tRp4073
I00
S'http://stores.lulu.com/web2py'
tp4074
aasbasbasbasbasbasbasbag56
(g72
g58
NtRp4075
(dp4076
g61
(dp4077
sg70
g3976
sg63
(lp4078
g56
(g77
g58
NtRp4079
(dp4080
g61
(dp4081
sg70
g4075
sg63
(lp4082
g56
(g57
g58
NtRp4083
(dp4084
g61
(dp4085
g69
I2
ssg70
g4079
sg63
(lp4086
g56
(g65
g58
NtRp4087
(dp4088
g61
(dp4089
g69
I1
ssg70
Nsg63
(lp4090
g56
(g72
g58
NtRp4091
(dp4092
g61
(dp4093
sg70
g4087
sg63
(lp4094
g56
(g77
g58
NtRp4095
(dp4096
g61
(dp4097
sg70
g4091
sg63
(lp4098
g56
(g57
g58
NtRp4099
(dp4100
g61
(dp4101
g69
I1
ssg70
g4095
sg63
(lp4102
g3311
(S't\t\x00\x00\x00Community'
tRp4103
asbasbasbag56
(g72
g58
NtRp4104
(dp4105
g61
(dp4106
sg70
g4087
sg63
(lp4107
g56
(g77
g58
NtRp4108
(dp4109
g61
(dp4110
sg70
g4104
sg63
(lp4111
g56
(g57
g58
NtRp4112
(dp4113
g61
(dp4114
g69
I1
ssg70
g4108
sg63
(lp4115
I00
asbasbasbag56
(g72
g58
NtRp4116
(dp4117
g61
(dp4118
sg70
g4087
sg63
(lp4119
g56
(g77
g58
NtRp4120
(dp4121
g61
(dp4122
sg70
g4116
sg63
(lp4123
g56
(g57
g58
NtRp4124
(dp4125
g61
(dp4126
g69
I1
ssg70
g4120
sg63
(lp4127
Nasbasbasbag56
(g72
g58
NtRp4128
(dp4129
g61
(dp4130
sg70
g4087
sg63
(lp4131
g56
(g77
g58
NtRp4132
(dp4133
g61
(dp4134
sg70
g4128
sg63
(lp4135
g56
(g57
g58
NtRp4136
(dp4137
g61
(dp4138
g69
I1
ssg70
g4132
sg63
(lp4139
(lp4140
(g3311
(S't\x06\x00\x00\x00Groups'
tRp4141
I00
S'http://www.web2py.com/examples/default/usergroups'
tp4142
a(g3311
(S't\x07\x00\x00\x00Twitter'
tRp4143
I00
S'http://twitter.com/web2py'
tp4144
a(g3311
(S's\t\x00\x00\x00Live chat'
tRp4145
I00
S'http://mibbit.com/?channel=%23web2py&server=irc.mibbit.net'
tp4146
a(g3311
(S's\n\x00\x00\x00User Voice'
tRp4147
I00
S'http://web2py.uservoice.com/'
tp4148
aasbasbasbasbasbasbasbag56
(g72
g58
NtRp4149
(dp4150
g61
(dp4151
sg70
g3976
sg63
(lp4152
g56
(g77
g58
NtRp4153
(dp4154
g61
(dp4155
sg70
g4149
sg63
(lp4156
g56
(g57
g58
NtRp4157
(dp4158
g61
(dp4159
g69
I2
ssg70
g4153
sg63
(lp4160
g56
(g65
g58
NtRp4161
(dp4162
g61
(dp4163
g69
I1
ssg70
Nsg63
(lp4164
g56
(g72
g58
NtRp4165
(dp4166
g61
(dp4167
sg70
g4161
sg63
(lp4168
g56
(g77
g58
NtRp4169
(dp4170
g61
(dp4171
sg70
g4165
sg63
(lp4172
g56
(g57
g58
NtRp4173
(dp4174
g61
(dp4175
g69
I1
ssg70
g4169
sg63
(lp4176
g3311
(S't\x06\x00\x00\x00Web2py'
tRp4177
asbasbasbag56
(g72
g58
NtRp4178
(dp4179
g61
(dp4180
sg70
g4161
sg63
(lp4181
g56
(g77
g58
NtRp4182
(dp4183
g61
(dp4184
sg70
g4178
sg63
(lp4185
g56
(g57
g58
NtRp4186
(dp4187
g61
(dp4188
g69
I1
ssg70
g4182
sg63
(lp4189
I00
asbasbasbag56
(g72
g58
NtRp4190
(dp4191
g61
(dp4192
sg70
g4161
sg63
(lp4193
g56
(g77
g58
NtRp4194
(dp4195
g61
(dp4196
sg70
g4190
sg63
(lp4197
g56
(g57
g58
NtRp4198
(dp4199
g61
(dp4200
g69
I1
ssg70
g4194
sg63
(lp4201
S'http://www.web2py.com'
p4202
asbasbasbag56
(g72
g58
NtRp4203
(dp4204
g61
(dp4205
sg70
g4161
sg63
(lp4206
g56
(g77
g58
NtRp4207
(dp4208
g61
(dp4209
sg70
g4203
sg63
(lp4210
g56
(g57
g58
NtRp4211
(dp4212
g61
(dp4213
g69
I1
ssg70
g4207
sg63
(lp4214
(lp4215
(g3311
(S't\x08\x00\x00\x00Download'
tRp4216
I00
S'http://www.web2py.com/examples/default/download'
tp4217
a(g3311
(S't\x07\x00\x00\x00Support'
tRp4218
I00
S'http://www.web2py.com/examples/default/support'
tp4219
a(g3311
(S's\x0e\x00\x00\x00Quick Examples'
tRp4220
I00
S'http://web2py.com/examples/default/examples'
tp4221
a(g3311
(S't\x03\x00\x00\x00FAQ'
tRp4222
I00
S'http://web2py.com/AlterEgo'
tp4223
a(g3311
(S's\x11\x00\x00\x00Free Applications'
tRp4224
I00
S'http://web2py.com/appliances'
tp4225
a(g3311
(S't\x07\x00\x00\x00Plugins'
tRp4226
I00
S'http://web2py.com/plugins'
tp4227
a(g3311
(S't\x07\x00\x00\x00Recipes'
tRp4228
I00
S'http://web2pyslices.com/'
tp4229
a(g3311
(S't\x04\x00\x00\x00Demo'
tRp4230
I00
S'http://web2py.com/demo_admin'
tp4231
a(g3311
(S't\x08\x00\x00\x00Semantic'
tRp4232
I00
S'http://web2py.com/semantic'
tp4233
a(g3311
(S't\x07\x00\x00\x00Layouts'
tRp4234
I00
S'http://web2py.com/layouts'
tp4235
a(g3311
(S't\x06\x00\x00\x00Videos'
tRp4236
I00
S'http://www.web2py.com/examples/default/videos/'
tp4237
aasbasbasbasbasbasbasbasbasbasbasbasbasbasbasbasbasbasbasbag56
(g72
g58
NtRp4238
(dp4239
g61
(dp4240
sg70
g2843
sg63
(lp4241
g56
(g77
g58
NtRp4242
(dp4243
g61
(dp4244
g81
g82
ssg70
g4238
sg63
(lp4245
S'meta'
p4246
asbag56
(g77
g58
NtRp4247
(dp4248
g61
(dp4249
g88
g89
ssg70
g4238
sg63
(lp4250
S':'
asbag56
(g77
g58
NtRp4251
(dp4252
g61
(dp4253
sg70
g4238
sg63
(lp4254
g56
(g57
g58
NtRp4255
(dp4256
g61
(dp4257
g69
I5
ssg70
g4251
sg63
(lp4258
g56
(g65
g58
NtRp4259
(dp4260
g61
(dp4261
g69
I4
ssg70
Nsg63
(lp4262
g56
(g72
g58
NtRp4263
(dp4264
g61
(dp4265
sg70
g4259
sg63
(lp4266
g56
(g77
g58
NtRp4267
(dp4268
g61
(dp4269
g81
g82
ssg70
g4263
sg63
(lp4270
S'author'
p4271
asbag56
(g77
g58
NtRp4272
(dp4273
g61
(dp4274
g88
g89
ssg70
g4263
sg63
(lp4275
S':'
asbag56
(g77
g58
NtRp4276
(dp4277
g61
(dp4278
sg70
g4263
sg63
(lp4279
g56
(g57
g58
NtRp4280
(dp4281
g61
(dp4282
g69
I4
ssg70
g4276
sg63
(lp4283
S'you'
p4284
asbasbasbag56
(g72
g58
NtRp4285
(dp4286
g61
(dp4287
sg70
g4259
sg63
(lp4288
g56
(g77
g58
NtRp4289
(dp4290
g61
(dp4291
g81
g82
ssg70
g4285
sg63
(lp4292
S'copyright'
p4293
asbag56
(g77
g58
NtRp4294
(dp4295
g61
(dp4296
g88
g89
ssg70
g4285
sg63
(lp4297
S':'
asbag56
(g77
g58
NtRp4298
(dp4299
g61
(dp4300
sg70
g4285
sg63
(lp4301
g56
(g57
g58
NtRp4302
(dp4303
g61
(dp4304
g69
I4
ssg70
g4298
sg63
(lp4305
S'Copyright 2007-2010'
p4306
asbasbasbag56
(g72
g58
NtRp4307
(dp4308
g61
(dp4309
sg70
g4259
sg63
(lp4310
g56
(g77
g58
NtRp4311
(dp4312
g61
(dp4313
g81
g82
ssg70
g4307
sg63
(lp4314
S'description'
p4315
asbag56
(g77
g58
NtRp4316
(dp4317
g61
(dp4318
g88
g89
ssg70
g4307
sg63
(lp4319
S':'
asbag56
(g77
g58
NtRp4320
(dp4321
g61
(dp4322
sg70
g4307
sg63
(lp4323
g56
(g57
g58
NtRp4324
(dp4325
g61
(dp4326
g69
I4
ssg70
g4320
sg63
(lp4327
S'Free and open source full-stack enterprise framework for agile development of fast, scalable, secure and portable database-driven web-based applications. Written and programmable in Python'
p4328
asbasbasbag56
(g72
g58
NtRp4329
(dp4330
g61
(dp4331
sg70
g4259
sg63
(lp4332
g56
(g77
g58
NtRp4333
(dp4334
g61
(dp4335
g81
g82
ssg70
g4329
sg63
(lp4336
S'generator'
p4337
asbag56
(g77
g58
NtRp4338
(dp4339
g61
(dp4340
g88
g89
ssg70
g4329
sg63
(lp4341
S':'
asbag56
(g77
g58
NtRp4342
(dp4343
g61
(dp4344
sg70
g4329
sg63
(lp4345
g56
(g57
g58
NtRp4346
(dp4347
g61
(dp4348
g69
I4
ssg70
g4342
sg63
(lp4349
S'Web2py Enterprise Framework'
p4350
asbasbasbag56
(g72
g58
NtRp4351
(dp4352
g61
(dp4353
sg70
g4259
sg63
(lp4354
g56
(g77
g58
NtRp4355
(dp4356
g61
(dp4357
g81
g82
ssg70
g4351
sg63
(lp4358
S'keywords'
p4359
asbag56
(g77
g58
NtRp4360
(dp4361
g61
(dp4362
g88
g89
ssg70
g4351
sg63
(lp4363
S':'
asbag56
(g77
g58
NtRp4364
(dp4365
g61
(dp4366
sg70
g4351
sg63
(lp4367
g56
(g57
g58
NtRp4368
(dp4369
g61
(dp4370
g69
I4
ssg70
g4364
sg63
(lp4371
S'web2py, python, framework'
p4372
asbasbasbasbasbasbasbag56
(g72
g58
NtRp4373
(dp4374
g61
(dp4375
sg70
g2843
sg63
(lp4376
g56
(g77
g58
NtRp4377
(dp4378
g61
(dp4379
g81
g82
ssg70
g4373
sg63
(lp4380
S'postprocessing'
p4381
asbag56
(g77
g58
NtRp4382
(dp4383
g61
(dp4384
g88
g89
ssg70
g4373
sg63
(lp4385
S':'
asbag56
(g77
g58
NtRp4386
(dp4387
g61
(dp4388
sg70
g4373
sg63
(lp4389
g56
(g57
g58
NtRp4390
(dp4391
g61
(dp4392
g69
I5
ssg70
g4386
sg63
(lp4393
g56
(g65
g58
NtRp4394
(dp4395
g61
(dp4396
g69
I4
ssg70
Nsg63
(lp4397
sbasbasbasbag56
(g72
g58
NtRp4398
(dp4399
g61
(dp4400
sg70
g2843
sg63
(lp4401
g56
(g77
g58
NtRp4402
(dp4403
g61
(dp4404
g81
g82
ssg70
g4398
sg63
(lp4405
S'session_file'
p4406
asbag56
(g77
g58
NtRp4407
(dp4408
g61
(dp4409
g88
g89
ssg70
g4398
sg63
(lp4410
S':'
asbag56
(g77
g58
NtRp4411
(dp4412
g61
(dp4413
sg70
g4398
sg63
(lp4414
g56
(g57
g58
NtRp4415
(dp4416
g61
(dp4417
g69
I5
ssg70
g4411
sg63
(lp4418
S"<open file '/Users/schultzc/Downloads/web2py/applications/wp/sessions/127.0.0.1-01db6c83-c53b-4e65-87a5-300964303da9', mode 'rb+' at 0x10710e540>"
p4419
asbasbasbag56
(g72
g58
NtRp4420
(dp4421
g61
(dp4422
sg70
g2843
sg63
(lp4423
g56
(g77
g58
NtRp4424
(dp4425
g61
(dp4426
g81
g82
ssg70
g4420
sg63
(lp4427
S'session_filename'
p4428
asbag56
(g77
g58
NtRp4429
(dp4430
g61
(dp4431
g88
g89
ssg70
g4420
sg63
(lp4432
S':'
asbag56
(g77
g58
NtRp4433
(dp4434
g61
(dp4435
sg70
g4420
sg63
(lp4436
g56
(g57
g58
NtRp4437
(dp4438
g61
(dp4439
g69
I5
ssg70
g4433
sg63
(lp4440
S'/Users/schultzc/Downloads/web2py/applications/wp/sessions/127.0.0.1-01db6c83-c53b-4e65-87a5-300964303da9'
p4441
asbasbasbag56
(g72
g58
NtRp4442
(dp4443
g61
(dp4444
sg70
g2843
sg63
(lp4445
g56
(g77
g58
NtRp4446
(dp4447
g61
(dp4448
g81
g82
ssg70
g4442
sg63
(lp4449
S'session_id'
p4450
asbag56
(g77
g58
NtRp4451
(dp4452
g61
(dp4453
g88
g89
ssg70
g4442
sg63
(lp4454
S':'
asbag56
(g77
g58
NtRp4455
(dp4456
g61
(dp4457
sg70
g4442
sg63
(lp4458
g56
(g57
g58
NtRp4459
(dp4460
g61
(dp4461
g69
I5
ssg70
g4455
sg63
(lp4462
S'127.0.0.1-01db6c83-c53b-4e65-87a5-300964303da9'
p4463
asbasbasbag56
(g72
g58
NtRp4464
(dp4465
g61
(dp4466
sg70
g2843
sg63
(lp4467
g56
(g77
g58
NtRp4468
(dp4469
g61
(dp4470
g81
g82
ssg70
g4464
sg63
(lp4471
S'session_id_name'
p4472
asbag56
(g77
g58
NtRp4473
(dp4474
g61
(dp4475
g88
g89
ssg70
g4464
sg63
(lp4476
S':'
asbag56
(g77
g58
NtRp4477
(dp4478
g61
(dp4479
sg70
g4464
sg63
(lp4480
g56
(g57
g58
NtRp4481
(dp4482
g61
(dp4483
g69
I5
ssg70
g4477
sg63
(lp4484
g2900
asbasbasbag56
(g72
g58
NtRp4485
(dp4486
g61
(dp4487
sg70
g2843
sg63
(lp4488
g56
(g77
g58
NtRp4489
(dp4490
g61
(dp4491
g81
g82
ssg70
g4485
sg63
(lp4492
S'session_locked'
p4493
asbag56
(g77
g58
NtRp4494
(dp4495
g61
(dp4496
g88
g89
ssg70
g4485
sg63
(lp4497
S':'
asbag56
(g77
g58
NtRp4498
(dp4499
g61
(dp4500
sg70
g4485
sg63
(lp4501
g56
(g57
g58
NtRp4502
(dp4503
g61
(dp4504
g69
I5
ssg70
g4498
sg63
(lp4505
g1732
asbasbasbag56
(g72
g58
NtRp4506
(dp4507
g61
(dp4508
sg70
g2843
sg63
(lp4509
g56
(g77
g58
NtRp4510
(dp4511
g61
(dp4512
g81
g82
ssg70
g4506
sg63
(lp4513
S'session_new'
p4514
asbag56
(g77
g58
NtRp4515
(dp4516
g61
(dp4517
g88
g89
ssg70
g4506
sg63
(lp4518
S':'
asbag56
(g77
g58
NtRp4519
(dp4520
g61
(dp4521
sg70
g4506
sg63
(lp4522
g56
(g57
g58
NtRp4523
(dp4524
g61
(dp4525
g69
I5
ssg70
g4519
sg63
(lp4526
g99
asbasbasbag56
(g72
g58
NtRp4527
(dp4528
g61
(dp4529
sg70
g2843
sg63
(lp4530
g56
(g77
g58
NtRp4531
(dp4532
g61
(dp4533
g81
g82
ssg70
g4527
sg63
(lp4534
S'status'
p4535
asbag56
(g77
g58
NtRp4536
(dp4537
g61
(dp4538
g88
g89
ssg70
g4527
sg63
(lp4539
S':'
asbag56
(g77
g58
NtRp4540
(dp4541
g61
(dp4542
sg70
g4527
sg63
(lp4543
g56
(g57
g58
NtRp4544
(dp4545
g61
(dp4546
g69
I5
ssg70
g4540
sg63
(lp4547
S'200'
p4548
asbasbasbag56
(g72
g58
NtRp4549
(dp4550
g61
(dp4551
sg70
g2843
sg63
(lp4552
g56
(g77
g58
NtRp4553
(dp4554
g61
(dp4555
g81
g82
ssg70
g4549
sg63
(lp4556
S'subtitle'
p4557
asbag56
(g77
g58
NtRp4558
(dp4559
g61
(dp4560
g88
g89
ssg70
g4549
sg63
(lp4561
S':'
asbag56
(g77
g58
NtRp4562
(dp4563
g61
(dp4564
sg70
g4549
sg63
(lp4565
g56
(g57
g58
NtRp4566
(dp4567
g61
(dp4568
g69
I5
ssg70
g4562
sg63
(lp4569
g3311
(S's\r\x00\x00\x00customize me!'
tRp4570
asbasbasbag56
(g72
g58
NtRp4571
(dp4572
g61
(dp4573
sg70
g2843
sg63
(lp4574
g56
(g77
g58
NtRp4575
(dp4576
g61
(dp4577
g81
g82
ssg70
g4571
sg63
(lp4578
S'title'
p4579
asbag56
(g77
g58
NtRp4580
(dp4581
g61
(dp4582
g88
g89
ssg70
g4571
sg63
(lp4583
S':'
asbag56
(g77
g58
NtRp4584
(dp4585
g61
(dp4586
sg70
g4571
sg63
(lp4587
g56
(g57
g58
NtRp4588
(dp4589
g61
(dp4590
g69
I5
ssg70
g4584
sg63
(lp4591
g121
asbasbasbag56
(g72
g58
NtRp4592
(dp4593
g61
(dp4594
sg70
g2843
sg63
(lp4595
g56
(g77
g58
NtRp4596
(dp4597
g61
(dp4598
g81
g82
ssg70
g4592
sg63
(lp4599
g2077
asbag56
(g77
g58
NtRp4600
(dp4601
g61
(dp4602
g88
g89
ssg70
g4592
sg63
(lp4603
S':'
asbag56
(g77
g58
NtRp4604
(dp4605
g61
(dp4606
sg70
g4592
sg63
(lp4607
g56
(g57
g58
NtRp4608
(dp4609
g61
(dp4610
g69
I5
ssg70
g4604
sg63
(lp4611
g2090
asbasbasbag56
(g72
g58
NtRp4612
(dp4613
g61
(dp4614
sg70
g2843
sg63
(lp4615
g56
(g77
g58
NtRp4616
(dp4617
g61
(dp4618
g81
g82
ssg70
g4612
sg63
(lp4619
S'view'
p4620
asbag56
(g77
g58
NtRp4621
(dp4622
g61
(dp4623
g88
g89
ssg70
g4612
sg63
(lp4624
S':'
asbag56
(g77
g58
NtRp4625
(dp4626
g61
(dp4627
sg70
g4612
sg63
(lp4628
g56
(g57
g58
NtRp4629
(dp4630
g61
(dp4631
g69
I5
ssg70
g4625
sg63
(lp4632
S'default/show.html'
p4633
asbasbasbasbasbsS'locals'
p4634
(dp4635
S'image'
p4636
S'None'
p4637
sS'form'
p4638
S'<gluon.sqlhtml.SQLFORM object>'
p4639
sssS'traceback'
p4640
S'Traceback (most recent call last):\n  File "/Users/schultzc/Downloads/web2py/gluon/restricted.py", line 192, in restricted\n    exec ccode in environment\n  File "/Users/schultzc/Downloads/web2py/applications/wp/controllers/default.py", line 91, in <module>\n  File "/Users/schultzc/Downloads/web2py/gluon/globals.py", line 137, in <lambda>\n    self._caller = lambda f: f()\n  File "/Users/schultzc/Downloads/web2py/applications/wp/controllers/default.py", line 32, in show\n    form.vars.image_id = image.id\nAttributeError: \'NoneType\' object has no attribute \'id\'\n'
p4641
s.