(dp1
S'output'
p2
S''
sS'layer'
p3
S'/Users/schultzc/workspace/wherespuppet/web2py/applications/wp/controllers/default.py'
p4
sS'code'
p5
S'# -*- coding: utf-8 -*-\n# this file is released under public domain and you can use without limitations\n\n#########################################################################\n## This is a samples controller\n## - index is the default action of any application\n## - user is required for authentication and authorization\n## - download is for downloading files uploaded in the db (does streaming)\n## - call exposes all registered services (none by default)\n#########################################################################\nimport datetime\n\n\ndef index():\n    images = db().select(db.image.ALL, orderby=db.image.title)\n    return dict(images=images)\n    \ndef submit():\n   ## latitude = request.cookies[\'posLat\'].value\n    form = SQLFORM(db.image, submit_button=\'Submit Puppet\', _id = "submission",formstyle="divs")\n    \n    if form.accepts(request.vars, session):\n        response.flash = \'form accepted\'\n    elif form.errors:\n        response.flash = \'form has errors\'\n    else:\n        response.flash = \'please fill out the form\'\n    return dict(form=form,latitude=latitude)\n   \ndef show():\n    image = db(db.image.id==request.args(0)).select().first()\n    form = SQLFORM(db.comment)\n    form.vars.image_id = image.id\n    if form.accepts(request.vars, session):\n        response.flash = \'your comment is posted\'\n    comments = db(db.comment.image_id==image.id).select()\n    return dict(image=image, comments=comments, form=form)\n\ndef user():\n    """\n    exposes:\n    http://..../[app]/default/user/login\n    http://..../[app]/default/user/logout\n    http://..../[app]/default/user/register\n    http://..../[app]/default/user/profile\n    http://..../[app]/default/user/retrieve_password\n    http://..../[app]/default/user/change_password\n    use @auth.requires_login()\n        @auth.requires_membership(\'group name\')\n        @auth.requires_permission(\'read\',\'table name\',record_id)\n    to decorate functions that need access control\n    """\n    return dict(form=auth())\n\n\ndef download():\n    """\n    allows downloading of uploaded files\n    http://..../[app]/default/download/[filename]\n    """\n    return response.download(request,db)\n\n\ndef call():\n    """\n    exposes services. for example:\n    http://..../[app]/default/call/jsonrpc\n    decorate with @services.jsonrpc the functions to expose\n    supports xml, json, xmlrpc, jsonrpc, amfrpc, rss, csv\n    """\n    return service()\n\n\'\'\'\n@auth.requires_signature()\ndef data():\n    """\n    http://..../[app]/default/data/tables\n    http://..../[app]/default/data/create/[table]\n    http://..../[app]/default/data/read/[table]/[id]\n    http://..../[app]/default/data/update/[table]/[id]\n    http://..../[app]/default/data/delete/[table]/[id[\n    http://..../[app]/default/data/select/[table]\n    http://..../[app]/default/data/search/[table]\n    but URLs bust be signed, i.e. linked with\n      A(\'table\',_href=URL(\'data/tables\',user_signature=True))\n    or with the signed load operator\n      LOAD(\'default\',\'data.load\',args=\'tables\',ajax=True,user_signature=True)\n    """\n    return dict(form=crud())\n\'\'\'\n\nresponse._vars=response._caller(submit)\n'
p6
sS'snapshot'
p7
(dp8
S'exception'
p9
(dp10
S'__hash__'
p11
S"<method-wrapper '__hash__' of exceptions.NameError object>"
p12
sS'__setattr__'
p13
S"<method-wrapper '__setattr__' of exceptions.NameError object>"
p14
sS'__reduce_ex__'
p15
S'<built-in method __reduce_ex__ of exceptions.NameError object>'
p16
sS'__getslice__'
p17
S"<method-wrapper '__getslice__' of exceptions.NameError object>"
p18
sS'__getitem__'
p19
S"<method-wrapper '__getitem__' of exceptions.NameError object>"
p20
sS'__setstate__'
p21
S'<built-in method __setstate__ of exceptions.NameError object>'
p22
sS'args'
p23
S'("global name \'latitude\' is not defined",)'
p24
sS'__reduce__'
p25
S'<built-in method __reduce__ of exceptions.NameError object>'
p26
sS'__str__'
p27
S"<method-wrapper '__str__' of exceptions.NameError object>"
p28
sS'__format__'
p29
S'<built-in method __format__ of exceptions.NameError object>'
p30
sS'__getattribute__'
p31
S"<method-wrapper '__getattribute__' of exceptions.NameError object>"
p32
sS'__class__'
p33
S"<type 'exceptions.NameError'>"
p34
sS'__unicode__'
p35
S'<built-in method __unicode__ of exceptions.NameError object>'
p36
sS'__delattr__'
p37
S"<method-wrapper '__delattr__' of exceptions.NameError object>"
p38
sS'__subclasshook__'
p39
S'<built-in method __subclasshook__ of type object>'
p40
sS'__repr__'
p41
S"<method-wrapper '__repr__' of exceptions.NameError object>"
p42
sS'__dict__'
p43
S'{}'
p44
sS'__sizeof__'
p45
S'<built-in method __sizeof__ of exceptions.NameError object>'
p46
sS'__doc__'
p47
S"'Name not found globally.'"
p48
sS'__init__'
p49
S"<method-wrapper '__init__' of exceptions.NameError object>"
p50
sS'__new__'
p51
S'<built-in method __new__ of type object>'
p52
ssS'evalue'
p53
S"global name 'latitude' is not defined"
p54
sS'request'
p55
ccopy_reg
_reconstructor
p56
(cgluon.html
BEAUTIFY
p57
c__builtin__
object
p58
NtRp59
(dp60
S'attributes'
p61
(dp62
sS'components'
p63
(lp64
g56
(cgluon.html
TABLE
p65
g58
NtRp66
(dp67
g61
(dp68
S'level'
p69
I5
ssS'parent'
p70
Nsg63
(lp71
g56
(cgluon.html
TR
p72
g58
NtRp73
(dp74
g61
(dp75
sg70
g66
sg63
(lp76
g56
(cgluon.html
TD
p77
g58
NtRp78
(dp79
g61
(dp80
S'_style'
p81
S'font-weight:bold;'
p82
ssg70
g73
sg63
(lp83
S'ajax'
p84
asbag56
(g77
g58
NtRp85
(dp86
g61
(dp87
S'_valign'
p88
S'top'
p89
ssg70
g73
sg63
(lp90
S':'
asbag56
(g77
g58
NtRp91
(dp92
g61
(dp93
sg70
g73
sg63
(lp94
g56
(g57
g58
NtRp95
(dp96
g61
(dp97
g69
I5
ssg70
g91
sg63
(lp98
S'False'
p99
asbasbasbag56
(g72
g58
NtRp100
(dp101
g61
(dp102
sg70
g66
sg63
(lp103
g56
(g77
g58
NtRp104
(dp105
g61
(dp106
g81
g82
ssg70
g100
sg63
(lp107
S'application'
p108
asbag56
(g77
g58
NtRp109
(dp110
g61
(dp111
g88
g89
ssg70
g100
sg63
(lp112
S':'
asbag56
(g77
g58
NtRp113
(dp114
g61
(dp115
sg70
g100
sg63
(lp116
g56
(g57
g58
NtRp117
(dp118
g61
(dp119
g69
I5
ssg70
g113
sg63
(lp120
S'wp'
p121
asbasbasbag56
(g72
g58
NtRp122
(dp123
g61
(dp124
sg70
g66
sg63
(lp125
g56
(g77
g58
NtRp126
(dp127
g61
(dp128
g81
g82
ssg70
g122
sg63
(lp129
g23
asbag56
(g77
g58
NtRp130
(dp131
g61
(dp132
g88
g89
ssg70
g122
sg63
(lp133
S':'
asbag56
(g77
g58
NtRp134
(dp135
g61
(dp136
sg70
g122
sg63
(lp137
g56
(g57
g58
NtRp138
(dp139
g61
(dp140
g69
I5
ssg70
g134
sg63
(lp141
g56
(g65
g58
NtRp142
(dp143
g61
(dp144
g69
I4
ssg70
Nsg63
(lp145
sbasbasbasbag56
(g72
g58
NtRp146
(dp147
g61
(dp148
sg70
g66
sg63
(lp149
g56
(g77
g58
NtRp150
(dp151
g61
(dp152
g81
g82
ssg70
g146
sg63
(lp153
S'body'
p154
asbag56
(g77
g58
NtRp155
(dp156
g61
(dp157
g88
g89
ssg70
g146
sg63
(lp158
S':'
asbag56
(g77
g58
NtRp159
(dp160
g61
(dp161
sg70
g146
sg63
(lp162
g56
(g57
g58
NtRp163
(dp164
g61
(dp165
g69
I5
ssg70
g159
sg63
(lp166
S'<cStringIO.StringO object at 0x101b550a0>'
p167
asbasbasbag56
(g72
g58
NtRp168
(dp169
g61
(dp170
sg70
g66
sg63
(lp171
g56
(g77
g58
NtRp172
(dp173
g61
(dp174
g81
g82
ssg70
g168
sg63
(lp175
S'client'
p176
asbag56
(g77
g58
NtRp177
(dp178
g61
(dp179
g88
g89
ssg70
g168
sg63
(lp180
S':'
asbag56
(g77
g58
NtRp181
(dp182
g61
(dp183
sg70
g168
sg63
(lp184
g56
(g57
g58
NtRp185
(dp186
g61
(dp187
g69
I5
ssg70
g181
sg63
(lp188
S'127.0.0.1'
p189
asbasbasbag56
(g72
g58
NtRp190
(dp191
g61
(dp192
sg70
g66
sg63
(lp193
g56
(g77
g58
NtRp194
(dp195
g61
(dp196
g81
g82
ssg70
g190
sg63
(lp197
S'controller'
p198
asbag56
(g77
g58
NtRp199
(dp200
g61
(dp201
g88
g89
ssg70
g190
sg63
(lp202
S':'
asbag56
(g77
g58
NtRp203
(dp204
g61
(dp205
sg70
g190
sg63
(lp206
g56
(g57
g58
NtRp207
(dp208
g61
(dp209
g69
I5
ssg70
g203
sg63
(lp210
S'default'
p211
asbasbasbag56
(g72
g58
NtRp212
(dp213
g61
(dp214
sg70
g66
sg63
(lp215
g56
(g77
g58
NtRp216
(dp217
g61
(dp218
g81
g82
ssg70
g212
sg63
(lp219
S'cookies'
p220
asbag56
(g77
g58
NtRp221
(dp222
g61
(dp223
g88
g89
ssg70
g212
sg63
(lp224
S':'
asbag56
(g77
g58
NtRp225
(dp226
g61
(dp227
sg70
g212
sg63
(lp228
g56
(g57
g58
NtRp229
(dp230
g61
(dp231
g69
I5
ssg70
g225
sg63
(lp232
g56
(g65
g58
NtRp233
(dp234
g61
(dp235
g69
I4
ssg70
Nsg63
(lp236
sbasbasbasbag56
(g72
g58
NtRp237
(dp238
g61
(dp239
sg70
g66
sg63
(lp240
g56
(g77
g58
NtRp241
(dp242
g61
(dp243
g81
g82
ssg70
g237
sg63
(lp244
S'env'
p245
asbag56
(g77
g58
NtRp246
(dp247
g61
(dp248
g88
g89
ssg70
g237
sg63
(lp249
S':'
asbag56
(g77
g58
NtRp250
(dp251
g61
(dp252
sg70
g237
sg63
(lp253
g56
(g57
g58
NtRp254
(dp255
g61
(dp256
g69
I5
ssg70
g250
sg63
(lp257
g56
(g65
g58
NtRp258
(dp259
g61
(dp260
g69
I4
ssg70
Nsg63
(lp261
g56
(g72
g58
NtRp262
(dp263
g61
(dp264
sg70
g258
sg63
(lp265
g56
(g77
g58
NtRp266
(dp267
g61
(dp268
g81
g82
ssg70
g262
sg63
(lp269
S'app_folders'
p270
asbag56
(g77
g58
NtRp271
(dp272
g61
(dp273
g88
g89
ssg70
g262
sg63
(lp274
S':'
asbag56
(g77
g58
NtRp275
(dp276
g61
(dp277
sg70
g262
sg63
(lp278
g56
(g57
g58
NtRp279
(dp280
g61
(dp281
g69
I4
ssg70
g275
sg63
(lp282
S"set(['/Users/schultzc/workspace/wherespuppet/web2py/applications/wp/'])"
p283
asbasbasbag56
(g72
g58
NtRp284
(dp285
g61
(dp286
sg70
g258
sg63
(lp287
g56
(g77
g58
NtRp288
(dp289
g61
(dp290
g81
g82
ssg70
g284
sg63
(lp291
S'applications_parent'
p292
asbag56
(g77
g58
NtRp293
(dp294
g61
(dp295
g88
g89
ssg70
g284
sg63
(lp296
S':'
asbag56
(g77
g58
NtRp297
(dp298
g61
(dp299
sg70
g284
sg63
(lp300
g56
(g57
g58
NtRp301
(dp302
g61
(dp303
g69
I4
ssg70
g297
sg63
(lp304
S'/Users/schultzc/workspace/wherespuppet/web2py'
p305
asbasbasbag56
(g72
g58
NtRp306
(dp307
g61
(dp308
sg70
g258
sg63
(lp309
g56
(g77
g58
NtRp310
(dp311
g61
(dp312
g81
g82
ssg70
g306
sg63
(lp313
S'cmd_args'
p314
asbag56
(g77
g58
NtRp315
(dp316
g61
(dp317
g88
g89
ssg70
g306
sg63
(lp318
S':'
asbag56
(g77
g58
NtRp319
(dp320
g61
(dp321
sg70
g306
sg63
(lp322
g56
(g57
g58
NtRp323
(dp324
g61
(dp325
g69
I4
ssg70
g319
sg63
(lp326
g56
(g65
g58
NtRp327
(dp328
g61
(dp329
g69
I3
ssg70
Nsg63
(lp330
sbasbasbasbag56
(g72
g58
NtRp331
(dp332
g61
(dp333
sg70
g258
sg63
(lp334
g56
(g77
g58
NtRp335
(dp336
g61
(dp337
g81
g82
ssg70
g331
sg63
(lp338
S'cmd_options'
p339
asbag56
(g77
g58
NtRp340
(dp341
g61
(dp342
g88
g89
ssg70
g331
sg63
(lp343
S':'
asbag56
(g77
g58
NtRp344
(dp345
g61
(dp346
sg70
g331
sg63
(lp347
g56
(g57
g58
NtRp348
(dp349
g61
(dp350
g69
I4
ssg70
g344
sg63
(lp351
S"<Values at 0x101b19ab8: {'verbose': False, 'ip': '127.0.0.1', 'shutdown_timeout': 5, 'taskbar': False, 'port': 8000, 'maxthreads': None, 'softcron': False, 'server_name': 'Magnus-Specialis.local', 'bpython': False, 'nogui': False, 'nocron': False, 'extcron': False, 'debuglevel': 30, 'test': None, 'folder': '/Users/schultzc/workspace/wherespuppet/web2py', 'config': '', 'import_models': False, 'winservice': '', 'shell': None, 'run': '', 'log_filename': 'httpserver.log', 'args': [''], 'profiler_filename': None, 'ssl_private_key': '', 'password': 'hello', 'request_queue_size': 5, 'ssl_certificate': '', 'cronjob': False, 'plain': False, 'quiet': False, 'interfaces': None, 'minthreads': None, 'timeout': 10, 'numthreads': None, 'nobanner': False, 'pid_filename': 'httpserver.pid'}>"
p352
asbasbasbag56
(g72
g58
NtRp353
(dp354
g61
(dp355
sg70
g258
sg63
(lp356
g56
(g77
g58
NtRp357
(dp358
g61
(dp359
g81
g82
ssg70
g353
sg63
(lp360
S'db_sessions'
p361
asbag56
(g77
g58
NtRp362
(dp363
g61
(dp364
g88
g89
ssg70
g353
sg63
(lp365
S':'
asbag56
(g77
g58
NtRp366
(dp367
g61
(dp368
sg70
g353
sg63
(lp369
g56
(g57
g58
NtRp370
(dp371
g61
(dp372
g69
I4
ssg70
g366
sg63
(lp373
S'set([])'
p374
asbasbasbag56
(g72
g58
NtRp375
(dp376
g61
(dp377
sg70
g258
sg63
(lp378
g56
(g77
g58
NtRp379
(dp380
g61
(dp381
g81
g82
ssg70
g375
sg63
(lp382
S'debugging'
p383
asbag56
(g77
g58
NtRp384
(dp385
g61
(dp386
g88
g89
ssg70
g375
sg63
(lp387
S':'
asbag56
(g77
g58
NtRp388
(dp389
g61
(dp390
sg70
g375
sg63
(lp391
g56
(g57
g58
NtRp392
(dp393
g61
(dp394
g69
I4
ssg70
g388
sg63
(lp395
g99
asbasbasbag56
(g72
g58
NtRp396
(dp397
g61
(dp398
sg70
g258
sg63
(lp399
g56
(g77
g58
NtRp400
(dp401
g61
(dp402
g81
g82
ssg70
g396
sg63
(lp403
S'gluon_parent'
p404
asbag56
(g77
g58
NtRp405
(dp406
g61
(dp407
g88
g89
ssg70
g396
sg63
(lp408
S':'
asbag56
(g77
g58
NtRp409
(dp410
g61
(dp411
sg70
g396
sg63
(lp412
g56
(g57
g58
NtRp413
(dp414
g61
(dp415
g69
I4
ssg70
g409
sg63
(lp416
S'/Users/schultzc/workspace/wherespuppet/web2py'
p417
asbasbasbag56
(g72
g58
NtRp418
(dp419
g61
(dp420
sg70
g258
sg63
(lp421
g56
(g77
g58
NtRp422
(dp423
g61
(dp424
g81
g82
ssg70
g418
sg63
(lp425
S'http_accept'
p426
asbag56
(g77
g58
NtRp427
(dp428
g61
(dp429
g88
g89
ssg70
g418
sg63
(lp430
S':'
asbag56
(g77
g58
NtRp431
(dp432
g61
(dp433
sg70
g418
sg63
(lp434
g56
(g57
g58
NtRp435
(dp436
g61
(dp437
g69
I4
ssg70
g431
sg63
(lp438
S'text/html,application/xhtml+xml,application/xml;q=0.9,*/*;q=0.8'
p439
asbasbasbag56
(g72
g58
NtRp440
(dp441
g61
(dp442
sg70
g258
sg63
(lp443
g56
(g77
g58
NtRp444
(dp445
g61
(dp446
g81
g82
ssg70
g440
sg63
(lp447
S'http_accept_charset'
p448
asbag56
(g77
g58
NtRp449
(dp450
g61
(dp451
g88
g89
ssg70
g440
sg63
(lp452
S':'
asbag56
(g77
g58
NtRp453
(dp454
g61
(dp455
sg70
g440
sg63
(lp456
g56
(g57
g58
NtRp457
(dp458
g61
(dp459
g69
I4
ssg70
g453
sg63
(lp460
S'ISO-8859-1,utf-8;q=0.7,*;q=0.3'
p461
asbasbasbag56
(g72
g58
NtRp462
(dp463
g61
(dp464
sg70
g258
sg63
(lp465
g56
(g77
g58
NtRp466
(dp467
g61
(dp468
g81
g82
ssg70
g462
sg63
(lp469
S'http_accept_encoding'
p470
asbag56
(g77
g58
NtRp471
(dp472
g61
(dp473
g88
g89
ssg70
g462
sg63
(lp474
S':'
asbag56
(g77
g58
NtRp475
(dp476
g61
(dp477
sg70
g462
sg63
(lp478
g56
(g57
g58
NtRp479
(dp480
g61
(dp481
g69
I4
ssg70
g475
sg63
(lp482
S'gzip,deflate,sdch'
p483
asbasbasbag56
(g72
g58
NtRp484
(dp485
g61
(dp486
sg70
g258
sg63
(lp487
g56
(g77
g58
NtRp488
(dp489
g61
(dp490
g81
g82
ssg70
g484
sg63
(lp491
S'http_accept_language'
p492
asbag56
(g77
g58
NtRp493
(dp494
g61
(dp495
g88
g89
ssg70
g484
sg63
(lp496
S':'
asbag56
(g77
g58
NtRp497
(dp498
g61
(dp499
sg70
g484
sg63
(lp500
g56
(g57
g58
NtRp501
(dp502
g61
(dp503
g69
I4
ssg70
g497
sg63
(lp504
S'en-US,en;q=0.8'
p505
asbasbasbag56
(g72
g58
NtRp506
(dp507
g61
(dp508
sg70
g258
sg63
(lp509
g56
(g77
g58
NtRp510
(dp511
g61
(dp512
g81
g82
ssg70
g506
sg63
(lp513
S'http_connection'
p514
asbag56
(g77
g58
NtRp515
(dp516
g61
(dp517
g88
g89
ssg70
g506
sg63
(lp518
S':'
asbag56
(g77
g58
NtRp519
(dp520
g61
(dp521
sg70
g506
sg63
(lp522
g56
(g57
g58
NtRp523
(dp524
g61
(dp525
g69
I4
ssg70
g519
sg63
(lp526
S'keep-alive'
p527
asbasbasbag56
(g72
g58
NtRp528
(dp529
g61
(dp530
sg70
g258
sg63
(lp531
g56
(g77
g58
NtRp532
(dp533
g61
(dp534
g81
g82
ssg70
g528
sg63
(lp535
S'http_host'
p536
asbag56
(g77
g58
NtRp537
(dp538
g61
(dp539
g88
g89
ssg70
g528
sg63
(lp540
S':'
asbag56
(g77
g58
NtRp541
(dp542
g61
(dp543
sg70
g528
sg63
(lp544
g56
(g57
g58
NtRp545
(dp546
g61
(dp547
g69
I4
ssg70
g541
sg63
(lp548
S'localhost:8000'
p549
asbasbasbag56
(g72
g58
NtRp550
(dp551
g61
(dp552
sg70
g258
sg63
(lp553
g56
(g77
g58
NtRp554
(dp555
g61
(dp556
g81
g82
ssg70
g550
sg63
(lp557
S'http_user_agent'
p558
asbag56
(g77
g58
NtRp559
(dp560
g61
(dp561
g88
g89
ssg70
g550
sg63
(lp562
S':'
asbag56
(g77
g58
NtRp563
(dp564
g61
(dp565
sg70
g550
sg63
(lp566
g56
(g57
g58
NtRp567
(dp568
g61
(dp569
g69
I4
ssg70
g563
sg63
(lp570
S'Mozilla/5.0 (Macintosh; Intel Mac OS X 10_6_8) AppleWebKit/534.30 (KHTML, like Gecko) Chrome/12.0.742.122 Safari/534.30'
p571
asbasbasbag56
(g72
g58
NtRp572
(dp573
g61
(dp574
sg70
g258
sg63
(lp575
g56
(g77
g58
NtRp576
(dp577
g61
(dp578
g81
g82
ssg70
g572
sg63
(lp579
S'path_info'
p580
asbag56
(g77
g58
NtRp581
(dp582
g61
(dp583
g88
g89
ssg70
g572
sg63
(lp584
S':'
asbag56
(g77
g58
NtRp585
(dp586
g61
(dp587
sg70
g572
sg63
(lp588
g56
(g57
g58
NtRp589
(dp590
g61
(dp591
g69
I4
ssg70
g585
sg63
(lp592
S'/wp/default/submit'
p593
asbasbasbag56
(g72
g58
NtRp594
(dp595
g61
(dp596
sg70
g258
sg63
(lp597
g56
(g77
g58
NtRp598
(dp599
g61
(dp600
g81
g82
ssg70
g594
sg63
(lp601
S'query_string'
p602
asbag56
(g77
g58
NtRp603
(dp604
g61
(dp605
g88
g89
ssg70
g594
sg63
(lp606
S':'
asbag56
(g77
g58
NtRp607
(dp608
g61
(dp609
sg70
g594
sg63
(lp610
g56
(g57
g58
NtRp611
(dp612
g61
(dp613
g69
I4
ssg70
g607
sg63
(lp614
S''
asbasbasbag56
(g72
g58
NtRp615
(dp616
g61
(dp617
sg70
g258
sg63
(lp618
g56
(g77
g58
NtRp619
(dp620
g61
(dp621
g81
g82
ssg70
g615
sg63
(lp622
S'remote_addr'
p623
asbag56
(g77
g58
NtRp624
(dp625
g61
(dp626
g88
g89
ssg70
g615
sg63
(lp627
S':'
asbag56
(g77
g58
NtRp628
(dp629
g61
(dp630
sg70
g615
sg63
(lp631
g56
(g57
g58
NtRp632
(dp633
g61
(dp634
g69
I4
ssg70
g628
sg63
(lp635
g189
asbasbasbag56
(g72
g58
NtRp636
(dp637
g61
(dp638
sg70
g258
sg63
(lp639
g56
(g77
g58
NtRp640
(dp641
g61
(dp642
g81
g82
ssg70
g636
sg63
(lp643
S'remote_port'
p644
asbag56
(g77
g58
NtRp645
(dp646
g61
(dp647
g88
g89
ssg70
g636
sg63
(lp648
S':'
asbag56
(g77
g58
NtRp649
(dp650
g61
(dp651
sg70
g636
sg63
(lp652
g56
(g57
g58
NtRp653
(dp654
g61
(dp655
g69
I4
ssg70
g649
sg63
(lp656
S'55372'
p657
asbasbasbag56
(g72
g58
NtRp658
(dp659
g61
(dp660
sg70
g258
sg63
(lp661
g56
(g77
g58
NtRp662
(dp663
g61
(dp664
g81
g82
ssg70
g658
sg63
(lp665
S'request_method'
p666
asbag56
(g77
g58
NtRp667
(dp668
g61
(dp669
g88
g89
ssg70
g658
sg63
(lp670
S':'
asbag56
(g77
g58
NtRp671
(dp672
g61
(dp673
sg70
g658
sg63
(lp674
g56
(g57
g58
NtRp675
(dp676
g61
(dp677
g69
I4
ssg70
g671
sg63
(lp678
S'GET'
p679
asbasbasbag56
(g72
g58
NtRp680
(dp681
g61
(dp682
sg70
g258
sg63
(lp683
g56
(g77
g58
NtRp684
(dp685
g61
(dp686
g81
g82
ssg70
g680
sg63
(lp687
S'script_name'
p688
asbag56
(g77
g58
NtRp689
(dp690
g61
(dp691
g88
g89
ssg70
g680
sg63
(lp692
S':'
asbag56
(g77
g58
NtRp693
(dp694
g61
(dp695
sg70
g680
sg63
(lp696
g56
(g57
g58
NtRp697
(dp698
g61
(dp699
g69
I4
ssg70
g693
sg63
(lp700
S''
asbasbasbag56
(g72
g58
NtRp701
(dp702
g61
(dp703
sg70
g258
sg63
(lp704
g56
(g77
g58
NtRp705
(dp706
g61
(dp707
g81
g82
ssg70
g701
sg63
(lp708
S'server_name'
p709
asbag56
(g77
g58
NtRp710
(dp711
g61
(dp712
g88
g89
ssg70
g701
sg63
(lp713
S':'
asbag56
(g77
g58
NtRp714
(dp715
g61
(dp716
sg70
g701
sg63
(lp717
g56
(g57
g58
NtRp718
(dp719
g61
(dp720
g69
I4
ssg70
g714
sg63
(lp721
S'Magnus-Specialis.local'
p722
asbasbasbag56
(g72
g58
NtRp723
(dp724
g61
(dp725
sg70
g258
sg63
(lp726
g56
(g77
g58
NtRp727
(dp728
g61
(dp729
g81
g82
ssg70
g723
sg63
(lp730
S'server_port'
p731
asbag56
(g77
g58
NtRp732
(dp733
g61
(dp734
g88
g89
ssg70
g723
sg63
(lp735
S':'
asbag56
(g77
g58
NtRp736
(dp737
g61
(dp738
sg70
g723
sg63
(lp739
g56
(g57
g58
NtRp740
(dp741
g61
(dp742
g69
I4
ssg70
g736
sg63
(lp743
S'8000'
p744
asbasbasbag56
(g72
g58
NtRp745
(dp746
g61
(dp747
sg70
g258
sg63
(lp748
g56
(g77
g58
NtRp749
(dp750
g61
(dp751
g81
g82
ssg70
g745
sg63
(lp752
S'server_protocol'
p753
asbag56
(g77
g58
NtRp754
(dp755
g61
(dp756
g88
g89
ssg70
g745
sg63
(lp757
S':'
asbag56
(g77
g58
NtRp758
(dp759
g61
(dp760
sg70
g745
sg63
(lp761
g56
(g57
g58
NtRp762
(dp763
g61
(dp764
g69
I4
ssg70
g758
sg63
(lp765
S'HTTP/1.1'
p766
asbasbasbag56
(g72
g58
NtRp767
(dp768
g61
(dp769
sg70
g258
sg63
(lp770
g56
(g77
g58
NtRp771
(dp772
g61
(dp773
g81
g82
ssg70
g767
sg63
(lp774
S'server_software'
p775
asbag56
(g77
g58
NtRp776
(dp777
g61
(dp778
g88
g89
ssg70
g767
sg63
(lp779
S':'
asbag56
(g77
g58
NtRp780
(dp781
g61
(dp782
sg70
g767
sg63
(lp783
g56
(g57
g58
NtRp784
(dp785
g61
(dp786
g69
I4
ssg70
g780
sg63
(lp787
S'Rocket 1.2.2'
p788
asbasbasbag56
(g72
g58
NtRp789
(dp790
g61
(dp791
sg70
g258
sg63
(lp792
g56
(g77
g58
NtRp793
(dp794
g61
(dp795
g81
g82
ssg70
g789
sg63
(lp796
S'web2py_crontype'
p797
asbag56
(g77
g58
NtRp798
(dp799
g61
(dp800
g88
g89
ssg70
g789
sg63
(lp801
S':'
asbag56
(g77
g58
NtRp802
(dp803
g61
(dp804
sg70
g789
sg63
(lp805
g56
(g57
g58
NtRp806
(dp807
g61
(dp808
g69
I4
ssg70
g802
sg63
(lp809
S'hard'
p810
asbasbasbag56
(g72
g58
NtRp811
(dp812
g61
(dp813
sg70
g258
sg63
(lp814
g56
(g77
g58
NtRp815
(dp816
g61
(dp817
g81
g82
ssg70
g811
sg63
(lp818
S'web2py_path'
p819
asbag56
(g77
g58
NtRp820
(dp821
g61
(dp822
g88
g89
ssg70
g811
sg63
(lp823
S':'
asbag56
(g77
g58
NtRp824
(dp825
g61
(dp826
sg70
g811
sg63
(lp827
g56
(g57
g58
NtRp828
(dp829
g61
(dp830
g69
I4
ssg70
g824
sg63
(lp831
g305
asbasbasbag56
(g72
g58
NtRp832
(dp833
g61
(dp834
sg70
g258
sg63
(lp835
g56
(g77
g58
NtRp836
(dp837
g61
(dp838
g81
g82
ssg70
g832
sg63
(lp839
S'web2py_version'
p840
asbag56
(g77
g58
NtRp841
(dp842
g61
(dp843
g88
g89
ssg70
g832
sg63
(lp844
S':'
asbag56
(g77
g58
NtRp845
(dp846
g61
(dp847
sg70
g832
sg63
(lp848
g56
(g57
g58
NtRp849
(dp850
g61
(dp851
g69
I4
ssg70
g845
sg63
(lp852
S'Version 1.97.1 (2011-06-26 19:25:44)\n'
p853
asbasbasbag56
(g72
g58
NtRp854
(dp855
g61
(dp856
sg70
g258
sg63
(lp857
g56
(g77
g58
NtRp858
(dp859
g61
(dp860
g81
g82
ssg70
g854
sg63
(lp861
S'wsgi_errors'
p862
asbag56
(g77
g58
NtRp863
(dp864
g61
(dp865
g88
g89
ssg70
g854
sg63
(lp866
S':'
asbag56
(g77
g58
NtRp867
(dp868
g61
(dp869
sg70
g854
sg63
(lp870
g56
(g57
g58
NtRp871
(dp872
g61
(dp873
g69
I4
ssg70
g867
sg63
(lp874
S"<open file '<stderr>', mode 'w' at 0x100283270>"
p875
asbasbasbag56
(g72
g58
NtRp876
(dp877
g61
(dp878
sg70
g258
sg63
(lp879
g56
(g77
g58
NtRp880
(dp881
g61
(dp882
g81
g82
ssg70
g876
sg63
(lp883
S'wsgi_file_wrapper'
p884
asbag56
(g77
g58
NtRp885
(dp886
g61
(dp887
g88
g89
ssg70
g876
sg63
(lp888
S':'
asbag56
(g77
g58
NtRp889
(dp890
g61
(dp891
sg70
g876
sg63
(lp892
g56
(g57
g58
NtRp893
(dp894
g61
(dp895
g69
I4
ssg70
g889
sg63
(lp896
S'<class gluon.rocket.FileWrapper at 0x101976ef0>'
p897
asbasbasbag56
(g72
g58
NtRp898
(dp899
g61
(dp900
sg70
g258
sg63
(lp901
g56
(g77
g58
NtRp902
(dp903
g61
(dp904
g81
g82
ssg70
g898
sg63
(lp905
S'wsgi_input'
p906
asbag56
(g77
g58
NtRp907
(dp908
g61
(dp909
g88
g89
ssg70
g898
sg63
(lp910
S':'
asbag56
(g77
g58
NtRp911
(dp912
g61
(dp913
sg70
g898
sg63
(lp914
g56
(g57
g58
NtRp915
(dp916
g61
(dp917
g69
I4
ssg70
g911
sg63
(lp918
S'<socket._fileobject object at 0x101b489d0>'
p919
asbasbasbag56
(g72
g58
NtRp920
(dp921
g61
(dp922
sg70
g258
sg63
(lp923
g56
(g77
g58
NtRp924
(dp925
g61
(dp926
g81
g82
ssg70
g920
sg63
(lp927
S'wsgi_multiprocess'
p928
asbag56
(g77
g58
NtRp929
(dp930
g61
(dp931
g88
g89
ssg70
g920
sg63
(lp932
S':'
asbag56
(g77
g58
NtRp933
(dp934
g61
(dp935
sg70
g920
sg63
(lp936
g56
(g57
g58
NtRp937
(dp938
g61
(dp939
g69
I4
ssg70
g933
sg63
(lp940
g99
asbasbasbag56
(g72
g58
NtRp941
(dp942
g61
(dp943
sg70
g258
sg63
(lp944
g56
(g77
g58
NtRp945
(dp946
g61
(dp947
g81
g82
ssg70
g941
sg63
(lp948
S'wsgi_multithread'
p949
asbag56
(g77
g58
NtRp950
(dp951
g61
(dp952
g88
g89
ssg70
g941
sg63
(lp953
S':'
asbag56
(g77
g58
NtRp954
(dp955
g61
(dp956
sg70
g941
sg63
(lp957
g56
(g57
g58
NtRp958
(dp959
g61
(dp960
g69
I4
ssg70
g954
sg63
(lp961
S'True'
p962
asbasbasbag56
(g72
g58
NtRp963
(dp964
g61
(dp965
sg70
g258
sg63
(lp966
g56
(g77
g58
NtRp967
(dp968
g61
(dp969
g81
g82
ssg70
g963
sg63
(lp970
S'wsgi_run_once'
p971
asbag56
(g77
g58
NtRp972
(dp973
g61
(dp974
g88
g89
ssg70
g963
sg63
(lp975
S':'
asbag56
(g77
g58
NtRp976
(dp977
g61
(dp978
sg70
g963
sg63
(lp979
g56
(g57
g58
NtRp980
(dp981
g61
(dp982
g69
I4
ssg70
g976
sg63
(lp983
g99
asbasbasbag56
(g72
g58
NtRp984
(dp985
g61
(dp986
sg70
g258
sg63
(lp987
g56
(g77
g58
NtRp988
(dp989
g61
(dp990
g81
g82
ssg70
g984
sg63
(lp991
S'wsgi_url_scheme'
p992
asbag56
(g77
g58
NtRp993
(dp994
g61
(dp995
g88
g89
ssg70
g984
sg63
(lp996
S':'
asbag56
(g77
g58
NtRp997
(dp998
g61
(dp999
sg70
g984
sg63
(lp1000
g56
(g57
g58
NtRp1001
(dp1002
g61
(dp1003
g69
I4
ssg70
g997
sg63
(lp1004
S'http'
p1005
asbasbasbag56
(g72
g58
NtRp1006
(dp1007
g61
(dp1008
sg70
g258
sg63
(lp1009
g56
(g77
g58
NtRp1010
(dp1011
g61
(dp1012
g81
g82
ssg70
g1006
sg63
(lp1013
S'wsgi_version'
p1014
asbag56
(g77
g58
NtRp1015
(dp1016
g61
(dp1017
g88
g89
ssg70
g1006
sg63
(lp1018
S':'
asbag56
(g77
g58
NtRp1019
(dp1020
g61
(dp1021
sg70
g1006
sg63
(lp1022
g56
(g57
g58
NtRp1023
(dp1024
g61
(dp1025
g69
I4
ssg70
g1019
sg63
(lp1026
g56
(g65
g58
NtRp1027
(dp1028
g61
(dp1029
g69
I3
ssg70
Nsg63
(lp1030
g56
(g72
g58
NtRp1031
(dp1032
g61
(dp1033
sg70
g1027
sg63
(lp1034
g56
(g77
g58
NtRp1035
(dp1036
g61
(dp1037
sg70
g1031
sg63
(lp1038
g56
(g57
g58
NtRp1039
(dp1040
g61
(dp1041
g69
I3
ssg70
g1035
sg63
(lp1042
S'1'
asbasbasbag56
(g72
g58
NtRp1043
(dp1044
g61
(dp1045
sg70
g1027
sg63
(lp1046
g56
(g77
g58
NtRp1047
(dp1048
g61
(dp1049
sg70
g1043
sg63
(lp1050
g56
(g57
g58
NtRp1051
(dp1052
g61
(dp1053
g69
I3
ssg70
g1047
sg63
(lp1054
S'0'
asbasbasbasbasbasbasbasbasbasbasbag56
(g72
g58
NtRp1055
(dp1056
g61
(dp1057
sg70
g66
sg63
(lp1058
g56
(g77
g58
NtRp1059
(dp1060
g61
(dp1061
g81
g82
ssg70
g1055
sg63
(lp1062
S'extension'
p1063
asbag56
(g77
g58
NtRp1064
(dp1065
g61
(dp1066
g88
g89
ssg70
g1055
sg63
(lp1067
S':'
asbag56
(g77
g58
NtRp1068
(dp1069
g61
(dp1070
sg70
g1055
sg63
(lp1071
g56
(g57
g58
NtRp1072
(dp1073
g61
(dp1074
g69
I5
ssg70
g1068
sg63
(lp1075
S'html'
p1076
asbasbasbag56
(g72
g58
NtRp1077
(dp1078
g61
(dp1079
sg70
g66
sg63
(lp1080
g56
(g77
g58
NtRp1081
(dp1082
g61
(dp1083
g81
g82
ssg70
g1077
sg63
(lp1084
S'folder'
p1085
asbag56
(g77
g58
NtRp1086
(dp1087
g61
(dp1088
g88
g89
ssg70
g1077
sg63
(lp1089
S':'
asbag56
(g77
g58
NtRp1090
(dp1091
g61
(dp1092
sg70
g1077
sg63
(lp1093
g56
(g57
g58
NtRp1094
(dp1095
g61
(dp1096
g69
I5
ssg70
g1090
sg63
(lp1097
S'/Users/schultzc/workspace/wherespuppet/web2py/applications/wp/'
p1098
asbasbasbag56
(g72
g58
NtRp1099
(dp1100
g61
(dp1101
sg70
g66
sg63
(lp1102
g56
(g77
g58
NtRp1103
(dp1104
g61
(dp1105
g81
g82
ssg70
g1099
sg63
(lp1106
S'function'
p1107
asbag56
(g77
g58
NtRp1108
(dp1109
g61
(dp1110
g88
g89
ssg70
g1099
sg63
(lp1111
S':'
asbag56
(g77
g58
NtRp1112
(dp1113
g61
(dp1114
sg70
g1099
sg63
(lp1115
g56
(g57
g58
NtRp1116
(dp1117
g61
(dp1118
g69
I5
ssg70
g1112
sg63
(lp1119
S'submit'
p1120
asbasbasbag56
(g72
g58
NtRp1121
(dp1122
g61
(dp1123
sg70
g66
sg63
(lp1124
g56
(g77
g58
NtRp1125
(dp1126
g61
(dp1127
g81
g82
ssg70
g1121
sg63
(lp1128
S'get_vars'
p1129
asbag56
(g77
g58
NtRp1130
(dp1131
g61
(dp1132
g88
g89
ssg70
g1121
sg63
(lp1133
S':'
asbag56
(g77
g58
NtRp1134
(dp1135
g61
(dp1136
sg70
g1121
sg63
(lp1137
g56
(g57
g58
NtRp1138
(dp1139
g61
(dp1140
g69
I5
ssg70
g1134
sg63
(lp1141
g56
(g65
g58
NtRp1142
(dp1143
g61
(dp1144
g69
I4
ssg70
Nsg63
(lp1145
sbasbasbasbag56
(g72
g58
NtRp1146
(dp1147
g61
(dp1148
sg70
g66
sg63
(lp1149
g56
(g77
g58
NtRp1150
(dp1151
g61
(dp1152
g81
g82
ssg70
g1146
sg63
(lp1153
S'is_https'
p1154
asbag56
(g77
g58
NtRp1155
(dp1156
g61
(dp1157
g88
g89
ssg70
g1146
sg63
(lp1158
S':'
asbag56
(g77
g58
NtRp1159
(dp1160
g61
(dp1161
sg70
g1146
sg63
(lp1162
g56
(g57
g58
NtRp1163
(dp1164
g61
(dp1165
g69
I5
ssg70
g1159
sg63
(lp1166
g99
asbasbasbag56
(g72
g58
NtRp1167
(dp1168
g61
(dp1169
sg70
g66
sg63
(lp1170
g56
(g77
g58
NtRp1171
(dp1172
g61
(dp1173
g81
g82
ssg70
g1167
sg63
(lp1174
S'is_local'
p1175
asbag56
(g77
g58
NtRp1176
(dp1177
g61
(dp1178
g88
g89
ssg70
g1167
sg63
(lp1179
S':'
asbag56
(g77
g58
NtRp1180
(dp1181
g61
(dp1182
sg70
g1167
sg63
(lp1183
g56
(g57
g58
NtRp1184
(dp1185
g61
(dp1186
g69
I5
ssg70
g1180
sg63
(lp1187
g962
asbasbasbag56
(g72
g58
NtRp1188
(dp1189
g61
(dp1190
sg70
g66
sg63
(lp1191
g56
(g77
g58
NtRp1192
(dp1193
g61
(dp1194
g81
g82
ssg70
g1188
sg63
(lp1195
S'is_restful'
p1196
asbag56
(g77
g58
NtRp1197
(dp1198
g61
(dp1199
g88
g89
ssg70
g1188
sg63
(lp1200
S':'
asbag56
(g77
g58
NtRp1201
(dp1202
g61
(dp1203
sg70
g1188
sg63
(lp1204
g56
(g57
g58
NtRp1205
(dp1206
g61
(dp1207
g69
I5
ssg70
g1201
sg63
(lp1208
g99
asbasbasbag56
(g72
g58
NtRp1209
(dp1210
g61
(dp1211
sg70
g66
sg63
(lp1212
g56
(g77
g58
NtRp1213
(dp1214
g61
(dp1215
g81
g82
ssg70
g1209
sg63
(lp1216
S'now'
p1217
asbag56
(g77
g58
NtRp1218
(dp1219
g61
(dp1220
g88
g89
ssg70
g1209
sg63
(lp1221
S':'
asbag56
(g77
g58
NtRp1222
(dp1223
g61
(dp1224
sg70
g1209
sg63
(lp1225
g56
(g57
g58
NtRp1226
(dp1227
g61
(dp1228
g69
I5
ssg70
g1222
sg63
(lp1229
S'datetime.datetime(2011, 7, 25, 12, 18, 44, 21303)'
p1230
asbasbasbag56
(g72
g58
NtRp1231
(dp1232
g61
(dp1233
sg70
g66
sg63
(lp1234
g56
(g77
g58
NtRp1235
(dp1236
g61
(dp1237
g81
g82
ssg70
g1231
sg63
(lp1238
S'post_vars'
p1239
asbag56
(g77
g58
NtRp1240
(dp1241
g61
(dp1242
g88
g89
ssg70
g1231
sg63
(lp1243
S':'
asbag56
(g77
g58
NtRp1244
(dp1245
g61
(dp1246
sg70
g1231
sg63
(lp1247
g56
(g57
g58
NtRp1248
(dp1249
g61
(dp1250
g69
I5
ssg70
g1244
sg63
(lp1251
g56
(g65
g58
NtRp1252
(dp1253
g61
(dp1254
g69
I4
ssg70
Nsg63
(lp1255
sbasbasbasbag56
(g72
g58
NtRp1256
(dp1257
g61
(dp1258
sg70
g66
sg63
(lp1259
g56
(g77
g58
NtRp1260
(dp1261
g61
(dp1262
g81
g82
ssg70
g1256
sg63
(lp1263
S'url'
p1264
asbag56
(g77
g58
NtRp1265
(dp1266
g61
(dp1267
g88
g89
ssg70
g1256
sg63
(lp1268
S':'
asbag56
(g77
g58
NtRp1269
(dp1270
g61
(dp1271
sg70
g1256
sg63
(lp1272
g56
(g57
g58
NtRp1273
(dp1274
g61
(dp1275
g69
I5
ssg70
g1269
sg63
(lp1276
S'/wp/default/submit'
p1277
asbasbasbag56
(g72
g58
NtRp1278
(dp1279
g61
(dp1280
sg70
g66
sg63
(lp1281
g56
(g77
g58
NtRp1282
(dp1283
g61
(dp1284
g81
g82
ssg70
g1278
sg63
(lp1285
S'uuid'
p1286
asbag56
(g77
g58
NtRp1287
(dp1288
g61
(dp1289
g88
g89
ssg70
g1278
sg63
(lp1290
S':'
asbag56
(g77
g58
NtRp1291
(dp1292
g61
(dp1293
sg70
g1278
sg63
(lp1294
g56
(g57
g58
NtRp1295
(dp1296
g61
(dp1297
g69
I5
ssg70
g1291
sg63
(lp1298
S'wp/127.0.0.1.2011-07-25.12-18-44.df3d00a1-9f80-4b76-9aa0-3f32d722386b'
p1299
asbasbasbag56
(g72
g58
NtRp1300
(dp1301
g61
(dp1302
sg70
g66
sg63
(lp1303
g56
(g77
g58
NtRp1304
(dp1305
g61
(dp1306
g81
g82
ssg70
g1300
sg63
(lp1307
S'vars'
p1308
asbag56
(g77
g58
NtRp1309
(dp1310
g61
(dp1311
g88
g89
ssg70
g1300
sg63
(lp1312
S':'
asbag56
(g77
g58
NtRp1313
(dp1314
g61
(dp1315
sg70
g1300
sg63
(lp1316
g56
(g57
g58
NtRp1317
(dp1318
g61
(dp1319
g69
I5
ssg70
g1313
sg63
(lp1320
g56
(g65
g58
NtRp1321
(dp1322
g61
(dp1323
g69
I4
ssg70
Nsg63
(lp1324
sbasbasbasbag56
(g72
g58
NtRp1325
(dp1326
g61
(dp1327
sg70
g66
sg63
(lp1328
g56
(g77
g58
NtRp1329
(dp1330
g61
(dp1331
g81
g82
ssg70
g1325
sg63
(lp1332
S'wsgi'
p1333
asbag56
(g77
g58
NtRp1334
(dp1335
g61
(dp1336
g88
g89
ssg70
g1325
sg63
(lp1337
S':'
asbag56
(g77
g58
NtRp1338
(dp1339
g61
(dp1340
sg70
g1325
sg63
(lp1341
g56
(g57
g58
NtRp1342
(dp1343
g61
(dp1344
g69
I5
ssg70
g1338
sg63
(lp1345
g56
(g65
g58
NtRp1346
(dp1347
g61
(dp1348
g69
I4
ssg70
Nsg63
(lp1349
g56
(g72
g58
NtRp1350
(dp1351
g61
(dp1352
sg70
g1346
sg63
(lp1353
g56
(g77
g58
NtRp1354
(dp1355
g61
(dp1356
g81
g82
ssg70
g1350
sg63
(lp1357
S'environ'
p1358
asbag56
(g77
g58
NtRp1359
(dp1360
g61
(dp1361
g88
g89
ssg70
g1350
sg63
(lp1362
S':'
asbag56
(g77
g58
NtRp1363
(dp1364
g61
(dp1365
sg70
g1350
sg63
(lp1366
g56
(g57
g58
NtRp1367
(dp1368
g61
(dp1369
g69
I4
ssg70
g1363
sg63
(lp1370
g56
(g65
g58
NtRp1371
(dp1372
g61
(dp1373
g69
I3
ssg70
Nsg63
(lp1374
g56
(g72
g58
NtRp1375
(dp1376
g61
(dp1377
sg70
g1371
sg63
(lp1378
g56
(g77
g58
NtRp1379
(dp1380
g61
(dp1381
g81
g82
ssg70
g1375
sg63
(lp1382
S'HTTP_ACCEPT'
p1383
asbag56
(g77
g58
NtRp1384
(dp1385
g61
(dp1386
g88
g89
ssg70
g1375
sg63
(lp1387
S':'
asbag56
(g77
g58
NtRp1388
(dp1389
g61
(dp1390
sg70
g1375
sg63
(lp1391
g56
(g57
g58
NtRp1392
(dp1393
g61
(dp1394
g69
I3
ssg70
g1388
sg63
(lp1395
g439
asbasbasbag56
(g72
g58
NtRp1396
(dp1397
g61
(dp1398
sg70
g1371
sg63
(lp1399
g56
(g77
g58
NtRp1400
(dp1401
g61
(dp1402
g81
g82
ssg70
g1396
sg63
(lp1403
S'HTTP_ACCEPT_CHARSET'
p1404
asbag56
(g77
g58
NtRp1405
(dp1406
g61
(dp1407
g88
g89
ssg70
g1396
sg63
(lp1408
S':'
asbag56
(g77
g58
NtRp1409
(dp1410
g61
(dp1411
sg70
g1396
sg63
(lp1412
g56
(g57
g58
NtRp1413
(dp1414
g61
(dp1415
g69
I3
ssg70
g1409
sg63
(lp1416
g461
asbasbasbag56
(g72
g58
NtRp1417
(dp1418
g61
(dp1419
sg70
g1371
sg63
(lp1420
g56
(g77
g58
NtRp1421
(dp1422
g61
(dp1423
g81
g82
ssg70
g1417
sg63
(lp1424
S'HTTP_ACCEPT_ENCODING'
p1425
asbag56
(g77
g58
NtRp1426
(dp1427
g61
(dp1428
g88
g89
ssg70
g1417
sg63
(lp1429
S':'
asbag56
(g77
g58
NtRp1430
(dp1431
g61
(dp1432
sg70
g1417
sg63
(lp1433
g56
(g57
g58
NtRp1434
(dp1435
g61
(dp1436
g69
I3
ssg70
g1430
sg63
(lp1437
g483
asbasbasbag56
(g72
g58
NtRp1438
(dp1439
g61
(dp1440
sg70
g1371
sg63
(lp1441
g56
(g77
g58
NtRp1442
(dp1443
g61
(dp1444
g81
g82
ssg70
g1438
sg63
(lp1445
S'HTTP_ACCEPT_LANGUAGE'
p1446
asbag56
(g77
g58
NtRp1447
(dp1448
g61
(dp1449
g88
g89
ssg70
g1438
sg63
(lp1450
S':'
asbag56
(g77
g58
NtRp1451
(dp1452
g61
(dp1453
sg70
g1438
sg63
(lp1454
g56
(g57
g58
NtRp1455
(dp1456
g61
(dp1457
g69
I3
ssg70
g1451
sg63
(lp1458
g505
asbasbasbag56
(g72
g58
NtRp1459
(dp1460
g61
(dp1461
sg70
g1371
sg63
(lp1462
g56
(g77
g58
NtRp1463
(dp1464
g61
(dp1465
g81
g82
ssg70
g1459
sg63
(lp1466
S'HTTP_CONNECTION'
p1467
asbag56
(g77
g58
NtRp1468
(dp1469
g61
(dp1470
g88
g89
ssg70
g1459
sg63
(lp1471
S':'
asbag56
(g77
g58
NtRp1472
(dp1473
g61
(dp1474
sg70
g1459
sg63
(lp1475
g56
(g57
g58
NtRp1476
(dp1477
g61
(dp1478
g69
I3
ssg70
g1472
sg63
(lp1479
g527
asbasbasbag56
(g72
g58
NtRp1480
(dp1481
g61
(dp1482
sg70
g1371
sg63
(lp1483
g56
(g77
g58
NtRp1484
(dp1485
g61
(dp1486
g81
g82
ssg70
g1480
sg63
(lp1487
S'HTTP_HOST'
p1488
asbag56
(g77
g58
NtRp1489
(dp1490
g61
(dp1491
g88
g89
ssg70
g1480
sg63
(lp1492
S':'
asbag56
(g77
g58
NtRp1493
(dp1494
g61
(dp1495
sg70
g1480
sg63
(lp1496
g56
(g57
g58
NtRp1497
(dp1498
g61
(dp1499
g69
I3
ssg70
g1493
sg63
(lp1500
g549
asbasbasbag56
(g72
g58
NtRp1501
(dp1502
g61
(dp1503
sg70
g1371
sg63
(lp1504
g56
(g77
g58
NtRp1505
(dp1506
g61
(dp1507
g81
g82
ssg70
g1501
sg63
(lp1508
S'HTTP_USER_AGENT'
p1509
asbag56
(g77
g58
NtRp1510
(dp1511
g61
(dp1512
g88
g89
ssg70
g1501
sg63
(lp1513
S':'
asbag56
(g77
g58
NtRp1514
(dp1515
g61
(dp1516
sg70
g1501
sg63
(lp1517
g56
(g57
g58
NtRp1518
(dp1519
g61
(dp1520
g69
I3
ssg70
g1514
sg63
(lp1521
g571
asbasbasbag56
(g72
g58
NtRp1522
(dp1523
g61
(dp1524
sg70
g1371
sg63
(lp1525
g56
(g77
g58
NtRp1526
(dp1527
g61
(dp1528
g81
g82
ssg70
g1522
sg63
(lp1529
S'PATH_INFO'
p1530
asbag56
(g77
g58
NtRp1531
(dp1532
g61
(dp1533
g88
g89
ssg70
g1522
sg63
(lp1534
S':'
asbag56
(g77
g58
NtRp1535
(dp1536
g61
(dp1537
sg70
g1522
sg63
(lp1538
g56
(g57
g58
NtRp1539
(dp1540
g61
(dp1541
g69
I3
ssg70
g1535
sg63
(lp1542
g593
asbasbasbag56
(g72
g58
NtRp1543
(dp1544
g61
(dp1545
sg70
g1371
sg63
(lp1546
g56
(g77
g58
NtRp1547
(dp1548
g61
(dp1549
g81
g82
ssg70
g1543
sg63
(lp1550
S'QUERY_STRING'
p1551
asbag56
(g77
g58
NtRp1552
(dp1553
g61
(dp1554
g88
g89
ssg70
g1543
sg63
(lp1555
S':'
asbag56
(g77
g58
NtRp1556
(dp1557
g61
(dp1558
sg70
g1543
sg63
(lp1559
g56
(g57
g58
NtRp1560
(dp1561
g61
(dp1562
g69
I3
ssg70
g1556
sg63
(lp1563
S''
asbasbasbag56
(g72
g58
NtRp1564
(dp1565
g61
(dp1566
sg70
g1371
sg63
(lp1567
g56
(g77
g58
NtRp1568
(dp1569
g61
(dp1570
g81
g82
ssg70
g1564
sg63
(lp1571
S'REMOTE_ADDR'
p1572
asbag56
(g77
g58
NtRp1573
(dp1574
g61
(dp1575
g88
g89
ssg70
g1564
sg63
(lp1576
S':'
asbag56
(g77
g58
NtRp1577
(dp1578
g61
(dp1579
sg70
g1564
sg63
(lp1580
g56
(g57
g58
NtRp1581
(dp1582
g61
(dp1583
g69
I3
ssg70
g1577
sg63
(lp1584
g189
asbasbasbag56
(g72
g58
NtRp1585
(dp1586
g61
(dp1587
sg70
g1371
sg63
(lp1588
g56
(g77
g58
NtRp1589
(dp1590
g61
(dp1591
g81
g82
ssg70
g1585
sg63
(lp1592
S'REMOTE_PORT'
p1593
asbag56
(g77
g58
NtRp1594
(dp1595
g61
(dp1596
g88
g89
ssg70
g1585
sg63
(lp1597
S':'
asbag56
(g77
g58
NtRp1598
(dp1599
g61
(dp1600
sg70
g1585
sg63
(lp1601
g56
(g57
g58
NtRp1602
(dp1603
g61
(dp1604
g69
I3
ssg70
g1598
sg63
(lp1605
g657
asbasbasbag56
(g72
g58
NtRp1606
(dp1607
g61
(dp1608
sg70
g1371
sg63
(lp1609
g56
(g77
g58
NtRp1610
(dp1611
g61
(dp1612
g81
g82
ssg70
g1606
sg63
(lp1613
S'REQUEST_METHOD'
p1614
asbag56
(g77
g58
NtRp1615
(dp1616
g61
(dp1617
g88
g89
ssg70
g1606
sg63
(lp1618
S':'
asbag56
(g77
g58
NtRp1619
(dp1620
g61
(dp1621
sg70
g1606
sg63
(lp1622
g56
(g57
g58
NtRp1623
(dp1624
g61
(dp1625
g69
I3
ssg70
g1619
sg63
(lp1626
g679
asbasbasbag56
(g72
g58
NtRp1627
(dp1628
g61
(dp1629
sg70
g1371
sg63
(lp1630
g56
(g77
g58
NtRp1631
(dp1632
g61
(dp1633
g81
g82
ssg70
g1627
sg63
(lp1634
S'SCRIPT_NAME'
p1635
asbag56
(g77
g58
NtRp1636
(dp1637
g61
(dp1638
g88
g89
ssg70
g1627
sg63
(lp1639
S':'
asbag56
(g77
g58
NtRp1640
(dp1641
g61
(dp1642
sg70
g1627
sg63
(lp1643
g56
(g57
g58
NtRp1644
(dp1645
g61
(dp1646
g69
I3
ssg70
g1640
sg63
(lp1647
S''
asbasbasbag56
(g72
g58
NtRp1648
(dp1649
g61
(dp1650
sg70
g1371
sg63
(lp1651
g56
(g77
g58
NtRp1652
(dp1653
g61
(dp1654
g81
g82
ssg70
g1648
sg63
(lp1655
S'SERVER_NAME'
p1656
asbag56
(g77
g58
NtRp1657
(dp1658
g61
(dp1659
g88
g89
ssg70
g1648
sg63
(lp1660
S':'
asbag56
(g77
g58
NtRp1661
(dp1662
g61
(dp1663
sg70
g1648
sg63
(lp1664
g56
(g57
g58
NtRp1665
(dp1666
g61
(dp1667
g69
I3
ssg70
g1661
sg63
(lp1668
g722
asbasbasbag56
(g72
g58
NtRp1669
(dp1670
g61
(dp1671
sg70
g1371
sg63
(lp1672
g56
(g77
g58
NtRp1673
(dp1674
g61
(dp1675
g81
g82
ssg70
g1669
sg63
(lp1676
S'SERVER_PORT'
p1677
asbag56
(g77
g58
NtRp1678
(dp1679
g61
(dp1680
g88
g89
ssg70
g1669
sg63
(lp1681
S':'
asbag56
(g77
g58
NtRp1682
(dp1683
g61
(dp1684
sg70
g1669
sg63
(lp1685
g56
(g57
g58
NtRp1686
(dp1687
g61
(dp1688
g69
I3
ssg70
g1682
sg63
(lp1689
g744
asbasbasbag56
(g72
g58
NtRp1690
(dp1691
g61
(dp1692
sg70
g1371
sg63
(lp1693
g56
(g77
g58
NtRp1694
(dp1695
g61
(dp1696
g81
g82
ssg70
g1690
sg63
(lp1697
S'SERVER_PROTOCOL'
p1698
asbag56
(g77
g58
NtRp1699
(dp1700
g61
(dp1701
g88
g89
ssg70
g1690
sg63
(lp1702
S':'
asbag56
(g77
g58
NtRp1703
(dp1704
g61
(dp1705
sg70
g1690
sg63
(lp1706
g56
(g57
g58
NtRp1707
(dp1708
g61
(dp1709
g69
I3
ssg70
g1703
sg63
(lp1710
g766
asbasbasbag56
(g72
g58
NtRp1711
(dp1712
g61
(dp1713
sg70
g1371
sg63
(lp1714
g56
(g77
g58
NtRp1715
(dp1716
g61
(dp1717
g81
g82
ssg70
g1711
sg63
(lp1718
S'SERVER_SOFTWARE'
p1719
asbag56
(g77
g58
NtRp1720
(dp1721
g61
(dp1722
g88
g89
ssg70
g1711
sg63
(lp1723
S':'
asbag56
(g77
g58
NtRp1724
(dp1725
g61
(dp1726
sg70
g1711
sg63
(lp1727
g56
(g57
g58
NtRp1728
(dp1729
g61
(dp1730
g69
I3
ssg70
g1724
sg63
(lp1731
g788
asbasbasbag56
(g72
g58
NtRp1732
(dp1733
g61
(dp1734
sg70
g1371
sg63
(lp1735
g56
(g77
g58
NtRp1736
(dp1737
g61
(dp1738
g81
g82
ssg70
g1732
sg63
(lp1739
S'wsgi.errors'
p1740
asbag56
(g77
g58
NtRp1741
(dp1742
g61
(dp1743
g88
g89
ssg70
g1732
sg63
(lp1744
S':'
asbag56
(g77
g58
NtRp1745
(dp1746
g61
(dp1747
sg70
g1732
sg63
(lp1748
g56
(g57
g58
NtRp1749
(dp1750
g61
(dp1751
g69
I3
ssg70
g1745
sg63
(lp1752
S"<open file '<stderr>', mode 'w' at 0x100283270>"
p1753
asbasbasbag56
(g72
g58
NtRp1754
(dp1755
g61
(dp1756
sg70
g1371
sg63
(lp1757
g56
(g77
g58
NtRp1758
(dp1759
g61
(dp1760
g81
g82
ssg70
g1754
sg63
(lp1761
S'wsgi.file_wrapper'
p1762
asbag56
(g77
g58
NtRp1763
(dp1764
g61
(dp1765
g88
g89
ssg70
g1754
sg63
(lp1766
S':'
asbag56
(g77
g58
NtRp1767
(dp1768
g61
(dp1769
sg70
g1754
sg63
(lp1770
g56
(g57
g58
NtRp1771
(dp1772
g61
(dp1773
g69
I3
ssg70
g1767
sg63
(lp1774
S'<class gluon.rocket.FileWrapper at 0x101976ef0>'
p1775
asbasbasbag56
(g72
g58
NtRp1776
(dp1777
g61
(dp1778
sg70
g1371
sg63
(lp1779
g56
(g77
g58
NtRp1780
(dp1781
g61
(dp1782
g81
g82
ssg70
g1776
sg63
(lp1783
S'wsgi.input'
p1784
asbag56
(g77
g58
NtRp1785
(dp1786
g61
(dp1787
g88
g89
ssg70
g1776
sg63
(lp1788
S':'
asbag56
(g77
g58
NtRp1789
(dp1790
g61
(dp1791
sg70
g1776
sg63
(lp1792
g56
(g57
g58
NtRp1793
(dp1794
g61
(dp1795
g69
I3
ssg70
g1789
sg63
(lp1796
S'<cStringIO.StringO object at 0x101b550a0>'
p1797
asbasbasbag56
(g72
g58
NtRp1798
(dp1799
g61
(dp1800
sg70
g1371
sg63
(lp1801
g56
(g77
g58
NtRp1802
(dp1803
g61
(dp1804
g81
g82
ssg70
g1798
sg63
(lp1805
S'wsgi.multiprocess'
p1806
asbag56
(g77
g58
NtRp1807
(dp1808
g61
(dp1809
g88
g89
ssg70
g1798
sg63
(lp1810
S':'
asbag56
(g77
g58
NtRp1811
(dp1812
g61
(dp1813
sg70
g1798
sg63
(lp1814
g56
(g57
g58
NtRp1815
(dp1816
g61
(dp1817
g69
I3
ssg70
g1811
sg63
(lp1818
g99
asbasbasbag56
(g72
g58
NtRp1819
(dp1820
g61
(dp1821
sg70
g1371
sg63
(lp1822
g56
(g77
g58
NtRp1823
(dp1824
g61
(dp1825
g81
g82
ssg70
g1819
sg63
(lp1826
S'wsgi.multithread'
p1827
asbag56
(g77
g58
NtRp1828
(dp1829
g61
(dp1830
g88
g89
ssg70
g1819
sg63
(lp1831
S':'
asbag56
(g77
g58
NtRp1832
(dp1833
g61
(dp1834
sg70
g1819
sg63
(lp1835
g56
(g57
g58
NtRp1836
(dp1837
g61
(dp1838
g69
I3
ssg70
g1832
sg63
(lp1839
g962
asbasbasbag56
(g72
g58
NtRp1840
(dp1841
g61
(dp1842
sg70
g1371
sg63
(lp1843
g56
(g77
g58
NtRp1844
(dp1845
g61
(dp1846
g81
g82
ssg70
g1840
sg63
(lp1847
S'wsgi.run_once'
p1848
asbag56
(g77
g58
NtRp1849
(dp1850
g61
(dp1851
g88
g89
ssg70
g1840
sg63
(lp1852
S':'
asbag56
(g77
g58
NtRp1853
(dp1854
g61
(dp1855
sg70
g1840
sg63
(lp1856
g56
(g57
g58
NtRp1857
(dp1858
g61
(dp1859
g69
I3
ssg70
g1853
sg63
(lp1860
g99
asbasbasbag56
(g72
g58
NtRp1861
(dp1862
g61
(dp1863
sg70
g1371
sg63
(lp1864
g56
(g77
g58
NtRp1865
(dp1866
g61
(dp1867
g81
g82
ssg70
g1861
sg63
(lp1868
S'wsgi.url_scheme'
p1869
asbag56
(g77
g58
NtRp1870
(dp1871
g61
(dp1872
g88
g89
ssg70
g1861
sg63
(lp1873
S':'
asbag56
(g77
g58
NtRp1874
(dp1875
g61
(dp1876
sg70
g1861
sg63
(lp1877
g56
(g57
g58
NtRp1878
(dp1879
g61
(dp1880
g69
I3
ssg70
g1874
sg63
(lp1881
g1005
asbasbasbag56
(g72
g58
NtRp1882
(dp1883
g61
(dp1884
sg70
g1371
sg63
(lp1885
g56
(g77
g58
NtRp1886
(dp1887
g61
(dp1888
g81
g82
ssg70
g1882
sg63
(lp1889
S'wsgi.version'
p1890
asbag56
(g77
g58
NtRp1891
(dp1892
g61
(dp1893
g88
g89
ssg70
g1882
sg63
(lp1894
S':'
asbag56
(g77
g58
NtRp1895
(dp1896
g61
(dp1897
sg70
g1882
sg63
(lp1898
g56
(g57
g58
NtRp1899
(dp1900
g61
(dp1901
g69
I3
ssg70
g1895
sg63
(lp1902
S'1'
asbasbasbasbasbasbasbasbasbasbasbasbasbsS'frames'
p1903
(lp1904
(dp1905
S'file'
p1906
S'/Users/schultzc/workspace/wherespuppet/web2py/gluon/restricted.py'
p1907
sS'dump'
p1908
(dp1909
S'environment'
p1910
S"{'A': <class 'gluon.html.A'>, 'B': <class 'gluon.html.B'>, 'BEAUTIFY': <class 'gluon.html.BEAUTIFY'>, 'BODY': <class 'gluon.html.BODY'>, 'BR': <class 'gluon.html.BR'>, 'BUTTON': <class 'gluon.html.BUTTON'>, 'CENTER': <class 'gluon.html.CENTER'>, 'CLEANUP': <class 'gluon.validators.CLEANUP'>, 'CODE': <class 'gluon.html.CODE'>, 'CRYPT': <class 'gluon.validators.CRYPT'>, ...}"
p1911
sS'ccode'
p1912
S'<code object <module> at 0x101fbe230, file "/Use...applications/wp/controllers/default.py", line 11>'
p1913
ssS'lnum'
p1914
I192
sS'lines'
p1915
(dp1916
I192
S'        exec ccode in environment'
p1917
sI193
S'    except HTTP:'
p1918
sI194
S'        raise'
p1919
sI195
S'    except Exception:'
p1920
sI196
S'        # XXX Show exception in Wing IDE if running in debugger'
p1921
sI187
S'    try:'
p1922
sI188
S'        if type(code) == types.CodeType:'
p1923
sI189
S'            ccode = code'
p1924
sI190
S'        else:'
p1925
sI191
S'            ccode = compile2(code,layer)'
p1926
ssS'call'
p1927
S'(code="# -*- coding: utf-8 -*-\\n# this file is released ...())\\n\'\'\'\\n\\nresponse._vars=response._caller(submit)\\n", environment={\'A\': <class \'gluon.html.A\'>, \'B\': <class \'gluon.html.B\'>, \'BEAUTIFY\': <class \'gluon.html.BEAUTIFY\'>, \'BODY\': <class \'gluon.html.BODY\'>, \'BR\': <class \'gluon.html.BR\'>, \'BUTTON\': <class \'gluon.html.BUTTON\'>, \'CENTER\': <class \'gluon.html.CENTER\'>, \'CLEANUP\': <class \'gluon.validators.CLEANUP\'>, \'CODE\': <class \'gluon.html.CODE\'>, \'CRYPT\': <class \'gluon.validators.CRYPT\'>, ...}, layer=\'/Users/schultzc/workspace/wherespuppet/web2py/applications/wp/controllers/default.py\')'
p1928
sS'func'
p1929
S'restricted'
p1930
sa(dp1931
g1906
S'/Users/schultzc/workspace/wherespuppet/web2py/applications/wp/controllers/default.py'
p1932
sg1908
(dp1933
sg1914
I92
sg1915
(dp1934
I81
S'    http://..../[app]/default/data/delete/[table]/[id['
p1935
sI82
S'    http://..../[app]/default/data/select/[table]'
p1936
sI83
S'    http://..../[app]/default/data/search/[table]'
p1937
sI84
S'    but URLs bust be signed, i.e. linked with'
p1938
sI85
S"      A('table',_href=URL('data/tables',user_signature=True))"
p1939
sI86
S'    or with the signed load operator'
p1940
sI87
S"      LOAD('default','data.load',args='tables',ajax=True,user_signature=True)"
p1941
sI88
S'    """'
p1942
sI89
S'    return dict(form=crud())'
p1943
sI90
S"'''"
p1944
ssg1927
S'()'
p1945
sg1929
S'<module>'
p1946
sa(dp1947
g1906
S'/Users/schultzc/workspace/wherespuppet/web2py/gluon/globals.py'
p1948
sg1908
(dp1949
S'self'
p1950
S'undefined'
p1951
sS'f'
S'<function submit>'
p1952
ssg1914
I137
sg1915
(dp1953
I132
S"        self.flash = ''           # used by the default view layout"
p1954
sI133
S'        self.meta = Storage()     # used by web2py_ajax.html'
p1955
sI134
S'        self.menu = []            # used by the default view layout'
p1956
sI135
S'        self.files = []           # used by web2py_ajax.html'
p1957
sI136
S'        self._vars = None'
p1958
sI137
S'        self._caller = lambda f: f()'
p1959
sI138
S'        self._view_environment = None'
p1960
sI139
S'        self._custom_commit = None'
p1961
sI140
S'        self._custom_rollback = None'
p1962
sI141
S''
ssg1927
S'(f=<function submit>)'
p1963
sg1929
S'<lambda>'
p1964
sa(dp1965
g1906
S'/Users/schultzc/workspace/wherespuppet/web2py/applications/wp/controllers/default.py'
p1966
sg1908
(dp1967
S'latitude'
p1968
g1951
sS'form'
p1969
S'<gluon.sqlhtml.SQLFORM object>'
p1970
sS'builtindict'
p1971
S"<type 'dict'>"
p1972
ssg1914
I28
sg1915
(dp1973
I32
S'    form = SQLFORM(db.comment)'
p1974
sI23
S"        response.flash = 'form accepted'"
p1975
sI24
S'    elif form.errors:'
p1976
sI25
S"        response.flash = 'form has errors'"
p1977
sI26
S'    else:'
p1978
sI27
S"        response.flash = 'please fill out the form'"
p1979
sI28
S'    return dict(form=form,latitude=latitude)'
p1980
sI29
S''
sI30
S'def show():'
p1981
sI31
S'    image = db(db.image.id==request.args(0)).select().first()'
p1982
ssg1927
S'()'
p1983
sg1929
S'submit'
p1984
sasS'pyver'
p1985
S'Python 2.7.2: /opt/local/Library/Frameworks/Python.framework/Versions/2.7/Resources/Python.app/Contents/MacOS/Python'
p1986
sS'session'
p1987
g56
(g57
g58
NtRp1988
(dp1989
g61
(dp1990
sg63
(lp1991
g56
(g65
g58
NtRp1992
(dp1993
g61
(dp1994
g69
I5
ssg70
Nsg63
(lp1995
sbasbsS'etype'
p1996
S"<type 'exceptions.NameError'>"
p1997
sS'date'
p1998
S'Mon Jul 25 12:18:44 2011'
p1999
sS'response'
p2000
g56
(g57
g58
NtRp2001
(dp2002
g61
(dp2003
sg63
(lp2004
g56
(g65
g58
NtRp2005
(dp2006
g61
(dp2007
g69
I5
ssg70
Nsg63
(lp2008
g56
(g72
g58
NtRp2009
(dp2010
g61
(dp2011
sg70
g2005
sg63
(lp2012
g56
(g77
g58
NtRp2013
(dp2014
g61
(dp2015
g81
g82
ssg70
g2009
sg63
(lp2016
g154
asbag56
(g77
g58
NtRp2017
(dp2018
g61
(dp2019
g88
g89
ssg70
g2009
sg63
(lp2020
S':'
asbag56
(g77
g58
NtRp2021
(dp2022
g61
(dp2023
sg70
g2009
sg63
(lp2024
g56
(g57
g58
NtRp2025
(dp2026
g61
(dp2027
g69
I5
ssg70
g2021
sg63
(lp2028
S'<cStringIO.StringO object at 0x101b3bca8>'
p2029
asbasbasbag56
(g72
g58
NtRp2030
(dp2031
g61
(dp2032
sg70
g2005
sg63
(lp2033
g56
(g77
g58
NtRp2034
(dp2035
g61
(dp2036
g81
g82
ssg70
g2030
sg63
(lp2037
g220
asbag56
(g77
g58
NtRp2038
(dp2039
g61
(dp2040
g88
g89
ssg70
g2030
sg63
(lp2041
S':'
asbag56
(g77
g58
NtRp2042
(dp2043
g61
(dp2044
sg70
g2030
sg63
(lp2045
g56
(g57
g58
NtRp2046
(dp2047
g61
(dp2048
g69
I5
ssg70
g2042
sg63
(lp2049
g56
(g65
g58
NtRp2050
(dp2051
g61
(dp2052
g69
I4
ssg70
Nsg63
(lp2053
g56
(g72
g58
NtRp2054
(dp2055
g61
(dp2056
sg70
g2050
sg63
(lp2057
g56
(g77
g58
NtRp2058
(dp2059
g61
(dp2060
g81
g82
ssg70
g2054
sg63
(lp2061
S'session_id_wp'
p2062
asbag56
(g77
g58
NtRp2063
(dp2064
g61
(dp2065
g88
g89
ssg70
g2054
sg63
(lp2066
S':'
asbag56
(g77
g58
NtRp2067
(dp2068
g61
(dp2069
sg70
g2054
sg63
(lp2070
g56
(g57
g58
NtRp2071
(dp2072
g61
(dp2073
g69
I4
ssg70
g2067
sg63
(lp2074
g56
(g65
g58
NtRp2075
(dp2076
g61
(dp2077
g69
I3
ssg70
Nsg63
(lp2078
g56
(g72
g58
NtRp2079
(dp2080
g61
(dp2081
sg70
g2075
sg63
(lp2082
g56
(g77
g58
NtRp2083
(dp2084
g61
(dp2085
g81
g82
ssg70
g2079
sg63
(lp2086
S'comment'
p2087
asbag56
(g77
g58
NtRp2088
(dp2089
g61
(dp2090
g88
g89
ssg70
g2079
sg63
(lp2091
S':'
asbag56
(g77
g58
NtRp2092
(dp2093
g61
(dp2094
sg70
g2079
sg63
(lp2095
g56
(g57
g58
NtRp2096
(dp2097
g61
(dp2098
g69
I3
ssg70
g2092
sg63
(lp2099
S''
asbasbasbag56
(g72
g58
NtRp2100
(dp2101
g61
(dp2102
sg70
g2075
sg63
(lp2103
g56
(g77
g58
NtRp2104
(dp2105
g61
(dp2106
g81
g82
ssg70
g2100
sg63
(lp2107
S'domain'
p2108
asbag56
(g77
g58
NtRp2109
(dp2110
g61
(dp2111
g88
g89
ssg70
g2100
sg63
(lp2112
S':'
asbag56
(g77
g58
NtRp2113
(dp2114
g61
(dp2115
sg70
g2100
sg63
(lp2116
g56
(g57
g58
NtRp2117
(dp2118
g61
(dp2119
g69
I3
ssg70
g2113
sg63
(lp2120
S''
asbasbasbag56
(g72
g58
NtRp2121
(dp2122
g61
(dp2123
sg70
g2075
sg63
(lp2124
g56
(g77
g58
NtRp2125
(dp2126
g61
(dp2127
g81
g82
ssg70
g2121
sg63
(lp2128
S'expires'
p2129
asbag56
(g77
g58
NtRp2130
(dp2131
g61
(dp2132
g88
g89
ssg70
g2121
sg63
(lp2133
S':'
asbag56
(g77
g58
NtRp2134
(dp2135
g61
(dp2136
sg70
g2121
sg63
(lp2137
g56
(g57
g58
NtRp2138
(dp2139
g61
(dp2140
g69
I3
ssg70
g2134
sg63
(lp2141
S''
asbasbasbag56
(g72
g58
NtRp2142
(dp2143
g61
(dp2144
sg70
g2075
sg63
(lp2145
g56
(g77
g58
NtRp2146
(dp2147
g61
(dp2148
g81
g82
ssg70
g2142
sg63
(lp2149
S'httponly'
p2150
asbag56
(g77
g58
NtRp2151
(dp2152
g61
(dp2153
g88
g89
ssg70
g2142
sg63
(lp2154
S':'
asbag56
(g77
g58
NtRp2155
(dp2156
g61
(dp2157
sg70
g2142
sg63
(lp2158
g56
(g57
g58
NtRp2159
(dp2160
g61
(dp2161
g69
I3
ssg70
g2155
sg63
(lp2162
S''
asbasbasbag56
(g72
g58
NtRp2163
(dp2164
g61
(dp2165
sg70
g2075
sg63
(lp2166
g56
(g77
g58
NtRp2167
(dp2168
g61
(dp2169
g81
g82
ssg70
g2163
sg63
(lp2170
S'max-age'
p2171
asbag56
(g77
g58
NtRp2172
(dp2173
g61
(dp2174
g88
g89
ssg70
g2163
sg63
(lp2175
S':'
asbag56
(g77
g58
NtRp2176
(dp2177
g61
(dp2178
sg70
g2163
sg63
(lp2179
g56
(g57
g58
NtRp2180
(dp2181
g61
(dp2182
g69
I3
ssg70
g2176
sg63
(lp2183
S''
asbasbasbag56
(g72
g58
NtRp2184
(dp2185
g61
(dp2186
sg70
g2075
sg63
(lp2187
g56
(g77
g58
NtRp2188
(dp2189
g61
(dp2190
g81
g82
ssg70
g2184
sg63
(lp2191
S'path'
p2192
asbag56
(g77
g58
NtRp2193
(dp2194
g61
(dp2195
g88
g89
ssg70
g2184
sg63
(lp2196
S':'
asbag56
(g77
g58
NtRp2197
(dp2198
g61
(dp2199
sg70
g2184
sg63
(lp2200
g56
(g57
g58
NtRp2201
(dp2202
g61
(dp2203
g69
I3
ssg70
g2197
sg63
(lp2204
S'/'
asbasbasbag56
(g72
g58
NtRp2205
(dp2206
g61
(dp2207
sg70
g2075
sg63
(lp2208
g56
(g77
g58
NtRp2209
(dp2210
g61
(dp2211
g81
g82
ssg70
g2205
sg63
(lp2212
S'secure'
p2213
asbag56
(g77
g58
NtRp2214
(dp2215
g61
(dp2216
g88
g89
ssg70
g2205
sg63
(lp2217
S':'
asbag56
(g77
g58
NtRp2218
(dp2219
g61
(dp2220
sg70
g2205
sg63
(lp2221
g56
(g57
g58
NtRp2222
(dp2223
g61
(dp2224
g69
I3
ssg70
g2218
sg63
(lp2225
S''
asbasbasbag56
(g72
g58
NtRp2226
(dp2227
g61
(dp2228
sg70
g2075
sg63
(lp2229
g56
(g77
g58
NtRp2230
(dp2231
g61
(dp2232
g81
g82
ssg70
g2226
sg63
(lp2233
S'version'
p2234
asbag56
(g77
g58
NtRp2235
(dp2236
g61
(dp2237
g88
g89
ssg70
g2226
sg63
(lp2238
S':'
asbag56
(g77
g58
NtRp2239
(dp2240
g61
(dp2241
sg70
g2226
sg63
(lp2242
g56
(g57
g58
NtRp2243
(dp2244
g61
(dp2245
g69
I3
ssg70
g2239
sg63
(lp2246
S''
asbasbasbasbasbasbasbasbasbasbasbag56
(g72
g58
NtRp2247
(dp2248
g61
(dp2249
sg70
g2005
sg63
(lp2250
g56
(g77
g58
NtRp2251
(dp2252
g61
(dp2253
g81
g82
ssg70
g2247
sg63
(lp2254
S'files'
p2255
asbag56
(g77
g58
NtRp2256
(dp2257
g61
(dp2258
g88
g89
ssg70
g2247
sg63
(lp2259
S':'
asbag56
(g77
g58
NtRp2260
(dp2261
g61
(dp2262
sg70
g2247
sg63
(lp2263
g56
(g57
g58
NtRp2264
(dp2265
g61
(dp2266
g69
I5
ssg70
g2260
sg63
(lp2267
g56
(g65
g58
NtRp2268
(dp2269
g61
(dp2270
g69
I4
ssg70
Nsg63
(lp2271
sbasbasbasbag56
(g72
g58
NtRp2272
(dp2273
g61
(dp2274
sg70
g2005
sg63
(lp2275
g56
(g77
g58
NtRp2276
(dp2277
g61
(dp2278
g81
g82
ssg70
g2272
sg63
(lp2279
S'flash'
p2280
asbag56
(g77
g58
NtRp2281
(dp2282
g61
(dp2283
g88
g89
ssg70
g2272
sg63
(lp2284
S':'
asbag56
(g77
g58
NtRp2285
(dp2286
g61
(dp2287
sg70
g2272
sg63
(lp2288
g56
(g57
g58
NtRp2289
(dp2290
g61
(dp2291
g69
I5
ssg70
g2285
sg63
(lp2292
S'please fill out the form'
p2293
asbasbasbag56
(g72
g58
NtRp2294
(dp2295
g61
(dp2296
sg70
g2005
sg63
(lp2297
g56
(g77
g58
NtRp2298
(dp2299
g61
(dp2300
g81
g82
ssg70
g2294
sg63
(lp2301
S'headers'
p2302
asbag56
(g77
g58
NtRp2303
(dp2304
g61
(dp2305
g88
g89
ssg70
g2294
sg63
(lp2306
S':'
asbag56
(g77
g58
NtRp2307
(dp2308
g61
(dp2309
sg70
g2294
sg63
(lp2310
g56
(g57
g58
NtRp2311
(dp2312
g61
(dp2313
g69
I5
ssg70
g2307
sg63
(lp2314
g56
(g65
g58
NtRp2315
(dp2316
g61
(dp2317
g69
I4
ssg70
Nsg63
(lp2318
g56
(g72
g58
NtRp2319
(dp2320
g61
(dp2321
sg70
g2315
sg63
(lp2322
g56
(g77
g58
NtRp2323
(dp2324
g61
(dp2325
g81
g82
ssg70
g2319
sg63
(lp2326
S'Cache-Control'
p2327
asbag56
(g77
g58
NtRp2328
(dp2329
g61
(dp2330
g88
g89
ssg70
g2319
sg63
(lp2331
S':'
asbag56
(g77
g58
NtRp2332
(dp2333
g61
(dp2334
sg70
g2319
sg63
(lp2335
g56
(g57
g58
NtRp2336
(dp2337
g61
(dp2338
g69
I4
ssg70
g2332
sg63
(lp2339
S'no-store, no-cache, must-revalidate, post-check=0, pre-check=0'
p2340
asbasbasbag56
(g72
g58
NtRp2341
(dp2342
g61
(dp2343
sg70
g2315
sg63
(lp2344
g56
(g77
g58
NtRp2345
(dp2346
g61
(dp2347
g81
g82
ssg70
g2341
sg63
(lp2348
S'Content-Type'
p2349
asbag56
(g77
g58
NtRp2350
(dp2351
g61
(dp2352
g88
g89
ssg70
g2341
sg63
(lp2353
S':'
asbag56
(g77
g58
NtRp2354
(dp2355
g61
(dp2356
sg70
g2341
sg63
(lp2357
g56
(g57
g58
NtRp2358
(dp2359
g61
(dp2360
g69
I4
ssg70
g2354
sg63
(lp2361
S'text/html; charset=utf-8'
p2362
asbasbasbag56
(g72
g58
NtRp2363
(dp2364
g61
(dp2365
sg70
g2315
sg63
(lp2366
g56
(g77
g58
NtRp2367
(dp2368
g61
(dp2369
g81
g82
ssg70
g2363
sg63
(lp2370
S'Expires'
p2371
asbag56
(g77
g58
NtRp2372
(dp2373
g61
(dp2374
g88
g89
ssg70
g2363
sg63
(lp2375
S':'
asbag56
(g77
g58
NtRp2376
(dp2377
g61
(dp2378
sg70
g2363
sg63
(lp2379
g56
(g57
g58
NtRp2380
(dp2381
g61
(dp2382
g69
I4
ssg70
g2376
sg63
(lp2383
S'Mon, 25 Jul 2011 19:18:44 GMT'
p2384
asbasbasbag56
(g72
g58
NtRp2385
(dp2386
g61
(dp2387
sg70
g2315
sg63
(lp2388
g56
(g77
g58
NtRp2389
(dp2390
g61
(dp2391
g81
g82
ssg70
g2385
sg63
(lp2392
S'Pragma'
p2393
asbag56
(g77
g58
NtRp2394
(dp2395
g61
(dp2396
g88
g89
ssg70
g2385
sg63
(lp2397
S':'
asbag56
(g77
g58
NtRp2398
(dp2399
g61
(dp2400
sg70
g2385
sg63
(lp2401
g56
(g57
g58
NtRp2402
(dp2403
g61
(dp2404
g69
I4
ssg70
g2398
sg63
(lp2405
S'no-cache'
p2406
asbasbasbag56
(g72
g58
NtRp2407
(dp2408
g61
(dp2409
sg70
g2315
sg63
(lp2410
g56
(g77
g58
NtRp2411
(dp2412
g61
(dp2413
g81
g82
ssg70
g2407
sg63
(lp2414
S'X-Powered-By'
p2415
asbag56
(g77
g58
NtRp2416
(dp2417
g61
(dp2418
g88
g89
ssg70
g2407
sg63
(lp2419
S':'
asbag56
(g77
g58
NtRp2420
(dp2421
g61
(dp2422
sg70
g2407
sg63
(lp2423
g56
(g57
g58
NtRp2424
(dp2425
g61
(dp2426
g69
I4
ssg70
g2420
sg63
(lp2427
S'web2py'
p2428
asbasbasbasbasbasbasbag56
(g72
g58
NtRp2429
(dp2430
g61
(dp2431
sg70
g2005
sg63
(lp2432
g56
(g77
g58
NtRp2433
(dp2434
g61
(dp2435
g81
g82
ssg70
g2429
sg63
(lp2436
S'menu'
p2437
asbag56
(g77
g58
NtRp2438
(dp2439
g61
(dp2440
g88
g89
ssg70
g2429
sg63
(lp2441
S':'
asbag56
(g77
g58
NtRp2442
(dp2443
g61
(dp2444
sg70
g2429
sg63
(lp2445
g56
(g57
g58
NtRp2446
(dp2447
g61
(dp2448
g69
I5
ssg70
g2442
sg63
(lp2449
g56
(g65
g58
NtRp2450
(dp2451
g61
(dp2452
g69
I4
ssg70
Nsg63
(lp2453
g56
(g72
g58
NtRp2454
(dp2455
g61
(dp2456
sg70
g2450
sg63
(lp2457
g56
(g77
g58
NtRp2458
(dp2459
g61
(dp2460
sg70
g2454
sg63
(lp2461
g56
(g57
g58
NtRp2462
(dp2463
g61
(dp2464
g69
I4
ssg70
g2458
sg63
(lp2465
g56
(g65
g58
NtRp2466
(dp2467
g61
(dp2468
g69
I3
ssg70
Nsg63
(lp2469
g56
(g72
g58
NtRp2470
(dp2471
g61
(dp2472
sg70
g2466
sg63
(lp2473
g56
(g77
g58
NtRp2474
(dp2475
g61
(dp2476
sg70
g2470
sg63
(lp2477
g56
(g57
g58
NtRp2478
(dp2479
g61
(dp2480
g69
I3
ssg70
g2474
sg63
(lp2481
cgluon.languages
lazyT_unpickle
p2482
(S't\x04\x00\x00\x00Home'
tRp2483
asbasbasbag56
(g72
g58
NtRp2484
(dp2485
g61
(dp2486
sg70
g2466
sg63
(lp2487
g56
(g77
g58
NtRp2488
(dp2489
g61
(dp2490
sg70
g2484
sg63
(lp2491
g56
(g57
g58
NtRp2492
(dp2493
g61
(dp2494
g69
I3
ssg70
g2488
sg63
(lp2495
g99
asbasbasbag56
(g72
g58
NtRp2496
(dp2497
g61
(dp2498
sg70
g2466
sg63
(lp2499
g56
(g77
g58
NtRp2500
(dp2501
g61
(dp2502
sg70
g2496
sg63
(lp2503
g56
(g57
g58
NtRp2504
(dp2505
g61
(dp2506
g69
I3
ssg70
g2500
sg63
(lp2507
S'/wp/default/index'
p2508
asbasbasbag56
(g72
g58
NtRp2509
(dp2510
g61
(dp2511
sg70
g2466
sg63
(lp2512
g56
(g77
g58
NtRp2513
(dp2514
g61
(dp2515
sg70
g2509
sg63
(lp2516
g56
(g57
g58
NtRp2517
(dp2518
g61
(dp2519
g69
I3
ssg70
g2513
sg63
(lp2520
g56
(g65
g58
NtRp2521
(dp2522
g61
(dp2523
g69
I2
ssg70
Nsg63
(lp2524
sbasbasbasbasbasbasbasbag56
(g72
g58
NtRp2525
(dp2526
g61
(dp2527
sg70
g2450
sg63
(lp2528
g56
(g77
g58
NtRp2529
(dp2530
g61
(dp2531
sg70
g2525
sg63
(lp2532
g56
(g57
g58
NtRp2533
(dp2534
g61
(dp2535
g69
I4
ssg70
g2529
sg63
(lp2536
g56
(g65
g58
NtRp2537
(dp2538
g61
(dp2539
g69
I3
ssg70
Nsg63
(lp2540
g56
(g72
g58
NtRp2541
(dp2542
g61
(dp2543
sg70
g2537
sg63
(lp2544
g56
(g77
g58
NtRp2545
(dp2546
g61
(dp2547
sg70
g2541
sg63
(lp2548
g56
(g57
g58
NtRp2549
(dp2550
g61
(dp2551
g69
I3
ssg70
g2545
sg63
(lp2552
g2482
(S's\x08\x00\x00\x00This App'
tRp2553
asbasbasbag56
(g72
g58
NtRp2554
(dp2555
g61
(dp2556
sg70
g2537
sg63
(lp2557
g56
(g77
g58
NtRp2558
(dp2559
g61
(dp2560
sg70
g2554
sg63
(lp2561
g56
(g57
g58
NtRp2562
(dp2563
g61
(dp2564
g69
I3
ssg70
g2558
sg63
(lp2565
g99
asbasbasbag56
(g72
g58
NtRp2566
(dp2567
g61
(dp2568
sg70
g2537
sg63
(lp2569
g56
(g77
g58
NtRp2570
(dp2571
g61
(dp2572
sg70
g2566
sg63
(lp2573
g56
(g57
g58
NtRp2574
(dp2575
g61
(dp2576
g69
I3
ssg70
g2570
sg63
(lp2577
S'/admin/default/design/wp'
p2578
asbasbasbag56
(g72
g58
NtRp2579
(dp2580
g61
(dp2581
sg70
g2537
sg63
(lp2582
g56
(g77
g58
NtRp2583
(dp2584
g61
(dp2585
sg70
g2579
sg63
(lp2586
g56
(g57
g58
NtRp2587
(dp2588
g61
(dp2589
g69
I3
ssg70
g2583
sg63
(lp2590
g56
(g65
g58
NtRp2591
(dp2592
g61
(dp2593
g69
I2
ssg70
Nsg63
(lp2594
g56
(g72
g58
NtRp2595
(dp2596
g61
(dp2597
sg70
g2591
sg63
(lp2598
g56
(g77
g58
NtRp2599
(dp2600
g61
(dp2601
sg70
g2595
sg63
(lp2602
g56
(g57
g58
NtRp2603
(dp2604
g61
(dp2605
g69
I2
ssg70
g2599
sg63
(lp2606
g56
(g65
g58
NtRp2607
(dp2608
g61
(dp2609
g69
I1
ssg70
Nsg63
(lp2610
g56
(g72
g58
NtRp2611
(dp2612
g61
(dp2613
sg70
g2607
sg63
(lp2614
g56
(g77
g58
NtRp2615
(dp2616
g61
(dp2617
sg70
g2611
sg63
(lp2618
g56
(g57
g58
NtRp2619
(dp2620
g61
(dp2621
g69
I1
ssg70
g2615
sg63
(lp2622
g2482
(S't\n\x00\x00\x00Controller'
tRp2623
asbasbasbag56
(g72
g58
NtRp2624
(dp2625
g61
(dp2626
sg70
g2607
sg63
(lp2627
g56
(g77
g58
NtRp2628
(dp2629
g61
(dp2630
sg70
g2624
sg63
(lp2631
g56
(g57
g58
NtRp2632
(dp2633
g61
(dp2634
g69
I1
ssg70
g2628
sg63
(lp2635
I00
asbasbasbag56
(g72
g58
NtRp2636
(dp2637
g61
(dp2638
sg70
g2607
sg63
(lp2639
g56
(g77
g58
NtRp2640
(dp2641
g61
(dp2642
sg70
g2636
sg63
(lp2643
g56
(g57
g58
NtRp2644
(dp2645
g61
(dp2646
g69
I1
ssg70
g2640
sg63
(lp2647
S'/admin/default/edit/wp/controllers/default.py'
p2648
asbasbasbasbasbasbasbag56
(g72
g58
NtRp2649
(dp2650
g61
(dp2651
sg70
g2591
sg63
(lp2652
g56
(g77
g58
NtRp2653
(dp2654
g61
(dp2655
sg70
g2649
sg63
(lp2656
g56
(g57
g58
NtRp2657
(dp2658
g61
(dp2659
g69
I2
ssg70
g2653
sg63
(lp2660
g56
(g65
g58
NtRp2661
(dp2662
g61
(dp2663
g69
I1
ssg70
Nsg63
(lp2664
g56
(g72
g58
NtRp2665
(dp2666
g61
(dp2667
sg70
g2661
sg63
(lp2668
g56
(g77
g58
NtRp2669
(dp2670
g61
(dp2671
sg70
g2665
sg63
(lp2672
g56
(g57
g58
NtRp2673
(dp2674
g61
(dp2675
g69
I1
ssg70
g2669
sg63
(lp2676
g2482
(S't\x04\x00\x00\x00View'
tRp2677
asbasbasbag56
(g72
g58
NtRp2678
(dp2679
g61
(dp2680
sg70
g2661
sg63
(lp2681
g56
(g77
g58
NtRp2682
(dp2683
g61
(dp2684
sg70
g2678
sg63
(lp2685
g56
(g57
g58
NtRp2686
(dp2687
g61
(dp2688
g69
I1
ssg70
g2682
sg63
(lp2689
I00
asbasbasbag56
(g72
g58
NtRp2690
(dp2691
g61
(dp2692
sg70
g2661
sg63
(lp2693
g56
(g77
g58
NtRp2694
(dp2695
g61
(dp2696
sg70
g2690
sg63
(lp2697
g56
(g57
g58
NtRp2698
(dp2699
g61
(dp2700
g69
I1
ssg70
g2694
sg63
(lp2701
S'/admin/default/edit/wp/views/default/submit.html'
p2702
asbasbasbasbasbasbasbag56
(g72
g58
NtRp2703
(dp2704
g61
(dp2705
sg70
g2591
sg63
(lp2706
g56
(g77
g58
NtRp2707
(dp2708
g61
(dp2709
sg70
g2703
sg63
(lp2710
g56
(g57
g58
NtRp2711
(dp2712
g61
(dp2713
g69
I2
ssg70
g2707
sg63
(lp2714
g56
(g65
g58
NtRp2715
(dp2716
g61
(dp2717
g69
I1
ssg70
Nsg63
(lp2718
g56
(g72
g58
NtRp2719
(dp2720
g61
(dp2721
sg70
g2715
sg63
(lp2722
g56
(g77
g58
NtRp2723
(dp2724
g61
(dp2725
sg70
g2719
sg63
(lp2726
g56
(g57
g58
NtRp2727
(dp2728
g61
(dp2729
g69
I1
ssg70
g2723
sg63
(lp2730
g2482
(S't\x06\x00\x00\x00Layout'
tRp2731
asbasbasbag56
(g72
g58
NtRp2732
(dp2733
g61
(dp2734
sg70
g2715
sg63
(lp2735
g56
(g77
g58
NtRp2736
(dp2737
g61
(dp2738
sg70
g2732
sg63
(lp2739
g56
(g57
g58
NtRp2740
(dp2741
g61
(dp2742
g69
I1
ssg70
g2736
sg63
(lp2743
I00
asbasbasbag56
(g72
g58
NtRp2744
(dp2745
g61
(dp2746
sg70
g2715
sg63
(lp2747
g56
(g77
g58
NtRp2748
(dp2749
g61
(dp2750
sg70
g2744
sg63
(lp2751
g56
(g57
g58
NtRp2752
(dp2753
g61
(dp2754
g69
I1
ssg70
g2748
sg63
(lp2755
S'/admin/default/edit/wp/views/layout.html'
p2756
asbasbasbasbasbasbasbag56
(g72
g58
NtRp2757
(dp2758
g61
(dp2759
sg70
g2591
sg63
(lp2760
g56
(g77
g58
NtRp2761
(dp2762
g61
(dp2763
sg70
g2757
sg63
(lp2764
g56
(g57
g58
NtRp2765
(dp2766
g61
(dp2767
g69
I2
ssg70
g2761
sg63
(lp2768
g56
(g65
g58
NtRp2769
(dp2770
g61
(dp2771
g69
I1
ssg70
Nsg63
(lp2772
g56
(g72
g58
NtRp2773
(dp2774
g61
(dp2775
sg70
g2769
sg63
(lp2776
g56
(g77
g58
NtRp2777
(dp2778
g61
(dp2779
sg70
g2773
sg63
(lp2780
g56
(g57
g58
NtRp2781
(dp2782
g61
(dp2783
g69
I1
ssg70
g2777
sg63
(lp2784
g2482
(S't\n\x00\x00\x00Stylesheet'
tRp2785
asbasbasbag56
(g72
g58
NtRp2786
(dp2787
g61
(dp2788
sg70
g2769
sg63
(lp2789
g56
(g77
g58
NtRp2790
(dp2791
g61
(dp2792
sg70
g2786
sg63
(lp2793
g56
(g57
g58
NtRp2794
(dp2795
g61
(dp2796
g69
I1
ssg70
g2790
sg63
(lp2797
I00
asbasbasbag56
(g72
g58
NtRp2798
(dp2799
g61
(dp2800
sg70
g2769
sg63
(lp2801
g56
(g77
g58
NtRp2802
(dp2803
g61
(dp2804
sg70
g2798
sg63
(lp2805
g56
(g57
g58
NtRp2806
(dp2807
g61
(dp2808
g69
I1
ssg70
g2802
sg63
(lp2809
S'/admin/default/edit/wp/static/base.css'
p2810
asbasbasbasbasbasbasbag56
(g72
g58
NtRp2811
(dp2812
g61
(dp2813
sg70
g2591
sg63
(lp2814
g56
(g77
g58
NtRp2815
(dp2816
g61
(dp2817
sg70
g2811
sg63
(lp2818
g56
(g57
g58
NtRp2819
(dp2820
g61
(dp2821
g69
I2
ssg70
g2815
sg63
(lp2822
g56
(g65
g58
NtRp2823
(dp2824
g61
(dp2825
g69
I1
ssg70
Nsg63
(lp2826
g56
(g72
g58
NtRp2827
(dp2828
g61
(dp2829
sg70
g2823
sg63
(lp2830
g56
(g77
g58
NtRp2831
(dp2832
g61
(dp2833
sg70
g2827
sg63
(lp2834
g56
(g57
g58
NtRp2835
(dp2836
g61
(dp2837
g69
I1
ssg70
g2831
sg63
(lp2838
g2482
(S's\x08\x00\x00\x00DB Model'
tRp2839
asbasbasbag56
(g72
g58
NtRp2840
(dp2841
g61
(dp2842
sg70
g2823
sg63
(lp2843
g56
(g77
g58
NtRp2844
(dp2845
g61
(dp2846
sg70
g2840
sg63
(lp2847
g56
(g57
g58
NtRp2848
(dp2849
g61
(dp2850
g69
I1
ssg70
g2844
sg63
(lp2851
I00
asbasbasbag56
(g72
g58
NtRp2852
(dp2853
g61
(dp2854
sg70
g2823
sg63
(lp2855
g56
(g77
g58
NtRp2856
(dp2857
g61
(dp2858
sg70
g2852
sg63
(lp2859
g56
(g57
g58
NtRp2860
(dp2861
g61
(dp2862
g69
I1
ssg70
g2856
sg63
(lp2863
S'/admin/default/edit/wp/models/db.py'
p2864
asbasbasbasbasbasbasbag56
(g72
g58
NtRp2865
(dp2866
g61
(dp2867
sg70
g2591
sg63
(lp2868
g56
(g77
g58
NtRp2869
(dp2870
g61
(dp2871
sg70
g2865
sg63
(lp2872
g56
(g57
g58
NtRp2873
(dp2874
g61
(dp2875
g69
I2
ssg70
g2869
sg63
(lp2876
g56
(g65
g58
NtRp2877
(dp2878
g61
(dp2879
g69
I1
ssg70
Nsg63
(lp2880
g56
(g72
g58
NtRp2881
(dp2882
g61
(dp2883
sg70
g2877
sg63
(lp2884
g56
(g77
g58
NtRp2885
(dp2886
g61
(dp2887
sg70
g2881
sg63
(lp2888
g56
(g57
g58
NtRp2889
(dp2890
g61
(dp2891
g69
I1
ssg70
g2885
sg63
(lp2892
g2482
(S's\n\x00\x00\x00Menu Model'
tRp2893
asbasbasbag56
(g72
g58
NtRp2894
(dp2895
g61
(dp2896
sg70
g2877
sg63
(lp2897
g56
(g77
g58
NtRp2898
(dp2899
g61
(dp2900
sg70
g2894
sg63
(lp2901
g56
(g57
g58
NtRp2902
(dp2903
g61
(dp2904
g69
I1
ssg70
g2898
sg63
(lp2905
I00
asbasbasbag56
(g72
g58
NtRp2906
(dp2907
g61
(dp2908
sg70
g2877
sg63
(lp2909
g56
(g77
g58
NtRp2910
(dp2911
g61
(dp2912
sg70
g2906
sg63
(lp2913
g56
(g57
g58
NtRp2914
(dp2915
g61
(dp2916
g69
I1
ssg70
g2910
sg63
(lp2917
S'/admin/default/edit/wp/models/menu.py'
p2918
asbasbasbasbasbasbasbag56
(g72
g58
NtRp2919
(dp2920
g61
(dp2921
sg70
g2591
sg63
(lp2922
g56
(g77
g58
NtRp2923
(dp2924
g61
(dp2925
sg70
g2919
sg63
(lp2926
g56
(g57
g58
NtRp2927
(dp2928
g61
(dp2929
g69
I2
ssg70
g2923
sg63
(lp2930
g56
(g65
g58
NtRp2931
(dp2932
g61
(dp2933
g69
I1
ssg70
Nsg63
(lp2934
g56
(g72
g58
NtRp2935
(dp2936
g61
(dp2937
sg70
g2931
sg63
(lp2938
g56
(g77
g58
NtRp2939
(dp2940
g61
(dp2941
sg70
g2935
sg63
(lp2942
g56
(g57
g58
NtRp2943
(dp2944
g61
(dp2945
g69
I1
ssg70
g2939
sg63
(lp2946
g2482
(S't\x08\x00\x00\x00Database'
tRp2947
asbasbasbag56
(g72
g58
NtRp2948
(dp2949
g61
(dp2950
sg70
g2931
sg63
(lp2951
g56
(g77
g58
NtRp2952
(dp2953
g61
(dp2954
sg70
g2948
sg63
(lp2955
g56
(g57
g58
NtRp2956
(dp2957
g61
(dp2958
g69
I1
ssg70
g2952
sg63
(lp2959
I00
asbasbasbag56
(g72
g58
NtRp2960
(dp2961
g61
(dp2962
sg70
g2931
sg63
(lp2963
g56
(g77
g58
NtRp2964
(dp2965
g61
(dp2966
sg70
g2960
sg63
(lp2967
g56
(g57
g58
NtRp2968
(dp2969
g61
(dp2970
g69
I1
ssg70
g2964
sg63
(lp2971
S'/wp/appadmin/index'
p2972
asbasbasbasbasbasbasbag56
(g72
g58
NtRp2973
(dp2974
g61
(dp2975
sg70
g2591
sg63
(lp2976
g56
(g77
g58
NtRp2977
(dp2978
g61
(dp2979
sg70
g2973
sg63
(lp2980
g56
(g57
g58
NtRp2981
(dp2982
g61
(dp2983
g69
I2
ssg70
g2977
sg63
(lp2984
g56
(g65
g58
NtRp2985
(dp2986
g61
(dp2987
g69
I1
ssg70
Nsg63
(lp2988
g56
(g72
g58
NtRp2989
(dp2990
g61
(dp2991
sg70
g2985
sg63
(lp2992
g56
(g77
g58
NtRp2993
(dp2994
g61
(dp2995
sg70
g2989
sg63
(lp2996
g56
(g57
g58
NtRp2997
(dp2998
g61
(dp2999
g69
I1
ssg70
g2993
sg63
(lp3000
g2482
(S't\x06\x00\x00\x00Errors'
tRp3001
asbasbasbag56
(g72
g58
NtRp3002
(dp3003
g61
(dp3004
sg70
g2985
sg63
(lp3005
g56
(g77
g58
NtRp3006
(dp3007
g61
(dp3008
sg70
g3002
sg63
(lp3009
g56
(g57
g58
NtRp3010
(dp3011
g61
(dp3012
g69
I1
ssg70
g3006
sg63
(lp3013
I00
asbasbasbag56
(g72
g58
NtRp3014
(dp3015
g61
(dp3016
sg70
g2985
sg63
(lp3017
g56
(g77
g58
NtRp3018
(dp3019
g61
(dp3020
sg70
g3014
sg63
(lp3021
g56
(g57
g58
NtRp3022
(dp3023
g61
(dp3024
g69
I1
ssg70
g3018
sg63
(lp3025
S'/admin/default/errors/wp'
p3026
asbasbasbasbasbasbasbag56
(g72
g58
NtRp3027
(dp3028
g61
(dp3029
sg70
g2591
sg63
(lp3030
g56
(g77
g58
NtRp3031
(dp3032
g61
(dp3033
sg70
g3027
sg63
(lp3034
g56
(g57
g58
NtRp3035
(dp3036
g61
(dp3037
g69
I2
ssg70
g3031
sg63
(lp3038
g56
(g65
g58
NtRp3039
(dp3040
g61
(dp3041
g69
I1
ssg70
Nsg63
(lp3042
g56
(g72
g58
NtRp3043
(dp3044
g61
(dp3045
sg70
g3039
sg63
(lp3046
g56
(g77
g58
NtRp3047
(dp3048
g61
(dp3049
sg70
g3043
sg63
(lp3050
g56
(g57
g58
NtRp3051
(dp3052
g61
(dp3053
g69
I1
ssg70
g3047
sg63
(lp3054
g2482
(S't\x05\x00\x00\x00About'
tRp3055
asbasbasbag56
(g72
g58
NtRp3056
(dp3057
g61
(dp3058
sg70
g3039
sg63
(lp3059
g56
(g77
g58
NtRp3060
(dp3061
g61
(dp3062
sg70
g3056
sg63
(lp3063
g56
(g57
g58
NtRp3064
(dp3065
g61
(dp3066
g69
I1
ssg70
g3060
sg63
(lp3067
I00
asbasbasbag56
(g72
g58
NtRp3068
(dp3069
g61
(dp3070
sg70
g3039
sg63
(lp3071
g56
(g77
g58
NtRp3072
(dp3073
g61
(dp3074
sg70
g3068
sg63
(lp3075
g56
(g57
g58
NtRp3076
(dp3077
g61
(dp3078
g69
I1
ssg70
g3072
sg63
(lp3079
S'/admin/default/about/wp'
p3080
asbasbasbasbasbasbasbasbasbasbasbasbasbasbasbag56
(g72
g58
NtRp3081
(dp3082
g61
(dp3083
sg70
g2450
sg63
(lp3084
g56
(g77
g58
NtRp3085
(dp3086
g61
(dp3087
sg70
g3081
sg63
(lp3088
g56
(g57
g58
NtRp3089
(dp3090
g61
(dp3091
g69
I4
ssg70
g3085
sg63
(lp3092
g56
(g65
g58
NtRp3093
(dp3094
g61
(dp3095
g69
I3
ssg70
Nsg63
(lp3096
g56
(g72
g58
NtRp3097
(dp3098
g61
(dp3099
sg70
g3093
sg63
(lp3100
g56
(g77
g58
NtRp3101
(dp3102
g61
(dp3103
sg70
g3097
sg63
(lp3104
g56
(g57
g58
NtRp3105
(dp3106
g61
(dp3107
g69
I3
ssg70
g3101
sg63
(lp3108
g2482
(S't\t\x00\x00\x00Resources'
tRp3109
asbasbasbag56
(g72
g58
NtRp3110
(dp3111
g61
(dp3112
sg70
g3093
sg63
(lp3113
g56
(g77
g58
NtRp3114
(dp3115
g61
(dp3116
sg70
g3110
sg63
(lp3117
g56
(g57
g58
NtRp3118
(dp3119
g61
(dp3120
g69
I3
ssg70
g3114
sg63
(lp3121
g99
asbasbasbag56
(g72
g58
NtRp3122
(dp3123
g61
(dp3124
sg70
g3093
sg63
(lp3125
g56
(g77
g58
NtRp3126
(dp3127
g61
(dp3128
sg70
g3122
sg63
(lp3129
g56
(g57
g58
NtRp3130
(dp3131
g61
(dp3132
g69
I3
ssg70
g3126
sg63
(lp3133
S'None'
p3134
asbasbasbag56
(g72
g58
NtRp3135
(dp3136
g61
(dp3137
sg70
g3093
sg63
(lp3138
g56
(g77
g58
NtRp3139
(dp3140
g61
(dp3141
sg70
g3135
sg63
(lp3142
g56
(g57
g58
NtRp3143
(dp3144
g61
(dp3145
g69
I3
ssg70
g3139
sg63
(lp3146
g56
(g65
g58
NtRp3147
(dp3148
g61
(dp3149
g69
I2
ssg70
Nsg63
(lp3150
g56
(g72
g58
NtRp3151
(dp3152
g61
(dp3153
sg70
g3147
sg63
(lp3154
g56
(g77
g58
NtRp3155
(dp3156
g61
(dp3157
sg70
g3151
sg63
(lp3158
g56
(g57
g58
NtRp3159
(dp3160
g61
(dp3161
g69
I2
ssg70
g3155
sg63
(lp3162
g56
(g65
g58
NtRp3163
(dp3164
g61
(dp3165
g69
I1
ssg70
Nsg63
(lp3166
g56
(g72
g58
NtRp3167
(dp3168
g61
(dp3169
sg70
g3163
sg63
(lp3170
g56
(g77
g58
NtRp3171
(dp3172
g61
(dp3173
sg70
g3167
sg63
(lp3174
g56
(g57
g58
NtRp3175
(dp3176
g61
(dp3177
g69
I1
ssg70
g3171
sg63
(lp3178
g2482
(S't\r\x00\x00\x00Documentation'
tRp3179
asbasbasbag56
(g72
g58
NtRp3180
(dp3181
g61
(dp3182
sg70
g3163
sg63
(lp3183
g56
(g77
g58
NtRp3184
(dp3185
g61
(dp3186
sg70
g3180
sg63
(lp3187
g56
(g57
g58
NtRp3188
(dp3189
g61
(dp3190
g69
I1
ssg70
g3184
sg63
(lp3191
I00
asbasbasbag56
(g72
g58
NtRp3192
(dp3193
g61
(dp3194
sg70
g3163
sg63
(lp3195
g56
(g77
g58
NtRp3196
(dp3197
g61
(dp3198
sg70
g3192
sg63
(lp3199
g56
(g57
g58
NtRp3200
(dp3201
g61
(dp3202
g69
I1
ssg70
g3196
sg63
(lp3203
S'http://www.web2py.com/book'
p3204
asbasbasbag56
(g72
g58
NtRp3205
(dp3206
g61
(dp3207
sg70
g3163
sg63
(lp3208
g56
(g77
g58
NtRp3209
(dp3210
g61
(dp3211
sg70
g3205
sg63
(lp3212
g56
(g57
g58
NtRp3213
(dp3214
g61
(dp3215
g69
I1
ssg70
g3209
sg63
(lp3216
(lp3217
(g2482
(S't\x07\x00\x00\x00Preface'
tRp3218
I00
S'http://www.web2py.com/book/default/chapter/00'
tp3219
a(g2482
(S't\x0c\x00\x00\x00Introduction'
tRp3220
I00
S'http://www.web2py.com/book/default/chapter/01'
tp3221
a(g2482
(S't\x06\x00\x00\x00Python'
tRp3222
I00
S'http://www.web2py.com/book/default/chapter/02'
tp3223
a(g2482
(S't\x08\x00\x00\x00Overview'
tRp3224
I00
S'http://www.web2py.com/book/default/chapter/03'
tp3225
a(g2482
(S's\x08\x00\x00\x00The Core'
tRp3226
I00
S'http://www.web2py.com/book/default/chapter/04'
tp3227
a(g2482
(S's\t\x00\x00\x00The Views'
tRp3228
I00
S'http://www.web2py.com/book/default/chapter/05'
tp3229
a(g2482
(S't\x08\x00\x00\x00Database'
tRp3230
I00
S'http://www.web2py.com/book/default/chapter/06'
tp3231
a(g2482
(S's\x14\x00\x00\x00Forms and Validators'
tRp3232
I00
S'http://www.web2py.com/book/default/chapter/07'
tp3233
a(g2482
(S's\x0e\x00\x00\x00Access Control'
tRp3234
I00
S'http://www.web2py.com/book/default/chapter/08'
tp3235
a(g2482
(S't\x08\x00\x00\x00Services'
tRp3236
I00
S'http://www.web2py.com/book/default/chapter/09'
tp3237
a(g2482
(S's\x0c\x00\x00\x00Ajax Recipes'
tRp3238
I00
S'http://www.web2py.com/book/default/chapter/10'
tp3239
a(g2482
(S's\x12\x00\x00\x00Deployment Recipes'
tRp3240
I00
S'http://www.web2py.com/book/default/chapter/11'
tp3241
a(g2482
(S's\r\x00\x00\x00Other Recipes'
tRp3242
I00
S'http://www.web2py.com/book/default/chapter/12'
tp3243
a(g2482
(S's\r\x00\x00\x00Buy this book'
tRp3244
I00
S'http://stores.lulu.com/web2py'
tp3245
aasbasbasbasbasbasbasbag56
(g72
g58
NtRp3246
(dp3247
g61
(dp3248
sg70
g3147
sg63
(lp3249
g56
(g77
g58
NtRp3250
(dp3251
g61
(dp3252
sg70
g3246
sg63
(lp3253
g56
(g57
g58
NtRp3254
(dp3255
g61
(dp3256
g69
I2
ssg70
g3250
sg63
(lp3257
g56
(g65
g58
NtRp3258
(dp3259
g61
(dp3260
g69
I1
ssg70
Nsg63
(lp3261
g56
(g72
g58
NtRp3262
(dp3263
g61
(dp3264
sg70
g3258
sg63
(lp3265
g56
(g77
g58
NtRp3266
(dp3267
g61
(dp3268
sg70
g3262
sg63
(lp3269
g56
(g57
g58
NtRp3270
(dp3271
g61
(dp3272
g69
I1
ssg70
g3266
sg63
(lp3273
g2482
(S't\t\x00\x00\x00Community'
tRp3274
asbasbasbag56
(g72
g58
NtRp3275
(dp3276
g61
(dp3277
sg70
g3258
sg63
(lp3278
g56
(g77
g58
NtRp3279
(dp3280
g61
(dp3281
sg70
g3275
sg63
(lp3282
g56
(g57
g58
NtRp3283
(dp3284
g61
(dp3285
g69
I1
ssg70
g3279
sg63
(lp3286
I00
asbasbasbag56
(g72
g58
NtRp3287
(dp3288
g61
(dp3289
sg70
g3258
sg63
(lp3290
g56
(g77
g58
NtRp3291
(dp3292
g61
(dp3293
sg70
g3287
sg63
(lp3294
g56
(g57
g58
NtRp3295
(dp3296
g61
(dp3297
g69
I1
ssg70
g3291
sg63
(lp3298
Nasbasbasbag56
(g72
g58
NtRp3299
(dp3300
g61
(dp3301
sg70
g3258
sg63
(lp3302
g56
(g77
g58
NtRp3303
(dp3304
g61
(dp3305
sg70
g3299
sg63
(lp3306
g56
(g57
g58
NtRp3307
(dp3308
g61
(dp3309
g69
I1
ssg70
g3303
sg63
(lp3310
(lp3311
(g2482
(S't\x06\x00\x00\x00Groups'
tRp3312
I00
S'http://www.web2py.com/examples/default/usergroups'
tp3313
a(g2482
(S't\x07\x00\x00\x00Twitter'
tRp3314
I00
S'http://twitter.com/web2py'
tp3315
a(g2482
(S's\t\x00\x00\x00Live chat'
tRp3316
I00
S'http://mibbit.com/?channel=%23web2py&server=irc.mibbit.net'
tp3317
a(g2482
(S's\n\x00\x00\x00User Voice'
tRp3318
I00
S'http://web2py.uservoice.com/'
tp3319
aasbasbasbasbasbasbasbag56
(g72
g58
NtRp3320
(dp3321
g61
(dp3322
sg70
g3147
sg63
(lp3323
g56
(g77
g58
NtRp3324
(dp3325
g61
(dp3326
sg70
g3320
sg63
(lp3327
g56
(g57
g58
NtRp3328
(dp3329
g61
(dp3330
g69
I2
ssg70
g3324
sg63
(lp3331
g56
(g65
g58
NtRp3332
(dp3333
g61
(dp3334
g69
I1
ssg70
Nsg63
(lp3335
g56
(g72
g58
NtRp3336
(dp3337
g61
(dp3338
sg70
g3332
sg63
(lp3339
g56
(g77
g58
NtRp3340
(dp3341
g61
(dp3342
sg70
g3336
sg63
(lp3343
g56
(g57
g58
NtRp3344
(dp3345
g61
(dp3346
g69
I1
ssg70
g3340
sg63
(lp3347
g2482
(S't\x06\x00\x00\x00Web2py'
tRp3348
asbasbasbag56
(g72
g58
NtRp3349
(dp3350
g61
(dp3351
sg70
g3332
sg63
(lp3352
g56
(g77
g58
NtRp3353
(dp3354
g61
(dp3355
sg70
g3349
sg63
(lp3356
g56
(g57
g58
NtRp3357
(dp3358
g61
(dp3359
g69
I1
ssg70
g3353
sg63
(lp3360
I00
asbasbasbag56
(g72
g58
NtRp3361
(dp3362
g61
(dp3363
sg70
g3332
sg63
(lp3364
g56
(g77
g58
NtRp3365
(dp3366
g61
(dp3367
sg70
g3361
sg63
(lp3368
g56
(g57
g58
NtRp3369
(dp3370
g61
(dp3371
g69
I1
ssg70
g3365
sg63
(lp3372
S'http://www.web2py.com'
p3373
asbasbasbag56
(g72
g58
NtRp3374
(dp3375
g61
(dp3376
sg70
g3332
sg63
(lp3377
g56
(g77
g58
NtRp3378
(dp3379
g61
(dp3380
sg70
g3374
sg63
(lp3381
g56
(g57
g58
NtRp3382
(dp3383
g61
(dp3384
g69
I1
ssg70
g3378
sg63
(lp3385
(lp3386
(g2482
(S't\x08\x00\x00\x00Download'
tRp3387
I00
S'http://www.web2py.com/examples/default/download'
tp3388
a(g2482
(S't\x07\x00\x00\x00Support'
tRp3389
I00
S'http://www.web2py.com/examples/default/support'
tp3390
a(g2482
(S's\x0e\x00\x00\x00Quick Examples'
tRp3391
I00
S'http://web2py.com/examples/default/examples'
tp3392
a(g2482
(S't\x03\x00\x00\x00FAQ'
tRp3393
I00
S'http://web2py.com/AlterEgo'
tp3394
a(g2482
(S's\x11\x00\x00\x00Free Applications'
tRp3395
I00
S'http://web2py.com/appliances'
tp3396
a(g2482
(S't\x07\x00\x00\x00Plugins'
tRp3397
I00
S'http://web2py.com/plugins'
tp3398
a(g2482
(S't\x07\x00\x00\x00Recipes'
tRp3399
I00
S'http://web2pyslices.com/'
tp3400
a(g2482
(S't\x04\x00\x00\x00Demo'
tRp3401
I00
S'http://web2py.com/demo_admin'
tp3402
a(g2482
(S't\x08\x00\x00\x00Semantic'
tRp3403
I00
S'http://web2py.com/semantic'
tp3404
a(g2482
(S't\x07\x00\x00\x00Layouts'
tRp3405
I00
S'http://web2py.com/layouts'
tp3406
a(g2482
(S't\x06\x00\x00\x00Videos'
tRp3407
I00
S'http://www.web2py.com/examples/default/videos/'
tp3408
aasbasbasbasbasbasbasbasbasbasbasbasbasbasbasbasbasbasbasbag56
(g72
g58
NtRp3409
(dp3410
g61
(dp3411
sg70
g2005
sg63
(lp3412
g56
(g77
g58
NtRp3413
(dp3414
g61
(dp3415
g81
g82
ssg70
g3409
sg63
(lp3416
S'meta'
p3417
asbag56
(g77
g58
NtRp3418
(dp3419
g61
(dp3420
g88
g89
ssg70
g3409
sg63
(lp3421
S':'
asbag56
(g77
g58
NtRp3422
(dp3423
g61
(dp3424
sg70
g3409
sg63
(lp3425
g56
(g57
g58
NtRp3426
(dp3427
g61
(dp3428
g69
I5
ssg70
g3422
sg63
(lp3429
g56
(g65
g58
NtRp3430
(dp3431
g61
(dp3432
g69
I4
ssg70
Nsg63
(lp3433
g56
(g72
g58
NtRp3434
(dp3435
g61
(dp3436
sg70
g3430
sg63
(lp3437
g56
(g77
g58
NtRp3438
(dp3439
g61
(dp3440
g81
g82
ssg70
g3434
sg63
(lp3441
S'author'
p3442
asbag56
(g77
g58
NtRp3443
(dp3444
g61
(dp3445
g88
g89
ssg70
g3434
sg63
(lp3446
S':'
asbag56
(g77
g58
NtRp3447
(dp3448
g61
(dp3449
sg70
g3434
sg63
(lp3450
g56
(g57
g58
NtRp3451
(dp3452
g61
(dp3453
g69
I4
ssg70
g3447
sg63
(lp3454
S'you'
p3455
asbasbasbag56
(g72
g58
NtRp3456
(dp3457
g61
(dp3458
sg70
g3430
sg63
(lp3459
g56
(g77
g58
NtRp3460
(dp3461
g61
(dp3462
g81
g82
ssg70
g3456
sg63
(lp3463
S'copyright'
p3464
asbag56
(g77
g58
NtRp3465
(dp3466
g61
(dp3467
g88
g89
ssg70
g3456
sg63
(lp3468
S':'
asbag56
(g77
g58
NtRp3469
(dp3470
g61
(dp3471
sg70
g3456
sg63
(lp3472
g56
(g57
g58
NtRp3473
(dp3474
g61
(dp3475
g69
I4
ssg70
g3469
sg63
(lp3476
S'Copyright 2007-2010'
p3477
asbasbasbag56
(g72
g58
NtRp3478
(dp3479
g61
(dp3480
sg70
g3430
sg63
(lp3481
g56
(g77
g58
NtRp3482
(dp3483
g61
(dp3484
g81
g82
ssg70
g3478
sg63
(lp3485
S'description'
p3486
asbag56
(g77
g58
NtRp3487
(dp3488
g61
(dp3489
g88
g89
ssg70
g3478
sg63
(lp3490
S':'
asbag56
(g77
g58
NtRp3491
(dp3492
g61
(dp3493
sg70
g3478
sg63
(lp3494
g56
(g57
g58
NtRp3495
(dp3496
g61
(dp3497
g69
I4
ssg70
g3491
sg63
(lp3498
S'Free and open source full-stack enterprise framework for agile development of fast, scalable, secure and portable database-driven web-based applications. Written and programmable in Python'
p3499
asbasbasbag56
(g72
g58
NtRp3500
(dp3501
g61
(dp3502
sg70
g3430
sg63
(lp3503
g56
(g77
g58
NtRp3504
(dp3505
g61
(dp3506
g81
g82
ssg70
g3500
sg63
(lp3507
S'generator'
p3508
asbag56
(g77
g58
NtRp3509
(dp3510
g61
(dp3511
g88
g89
ssg70
g3500
sg63
(lp3512
S':'
asbag56
(g77
g58
NtRp3513
(dp3514
g61
(dp3515
sg70
g3500
sg63
(lp3516
g56
(g57
g58
NtRp3517
(dp3518
g61
(dp3519
g69
I4
ssg70
g3513
sg63
(lp3520
S'Web2py Enterprise Framework'
p3521
asbasbasbag56
(g72
g58
NtRp3522
(dp3523
g61
(dp3524
sg70
g3430
sg63
(lp3525
g56
(g77
g58
NtRp3526
(dp3527
g61
(dp3528
g81
g82
ssg70
g3522
sg63
(lp3529
S'keywords'
p3530
asbag56
(g77
g58
NtRp3531
(dp3532
g61
(dp3533
g88
g89
ssg70
g3522
sg63
(lp3534
S':'
asbag56
(g77
g58
NtRp3535
(dp3536
g61
(dp3537
sg70
g3522
sg63
(lp3538
g56
(g57
g58
NtRp3539
(dp3540
g61
(dp3541
g69
I4
ssg70
g3535
sg63
(lp3542
S'web2py, python, framework'
p3543
asbasbasbasbasbasbasbag56
(g72
g58
NtRp3544
(dp3545
g61
(dp3546
sg70
g2005
sg63
(lp3547
g56
(g77
g58
NtRp3548
(dp3549
g61
(dp3550
g81
g82
ssg70
g3544
sg63
(lp3551
S'postprocessing'
p3552
asbag56
(g77
g58
NtRp3553
(dp3554
g61
(dp3555
g88
g89
ssg70
g3544
sg63
(lp3556
S':'
asbag56
(g77
g58
NtRp3557
(dp3558
g61
(dp3559
sg70
g3544
sg63
(lp3560
g56
(g57
g58
NtRp3561
(dp3562
g61
(dp3563
g69
I5
ssg70
g3557
sg63
(lp3564
g56
(g65
g58
NtRp3565
(dp3566
g61
(dp3567
g69
I4
ssg70
Nsg63
(lp3568
sbasbasbasbag56
(g72
g58
NtRp3569
(dp3570
g61
(dp3571
sg70
g2005
sg63
(lp3572
g56
(g77
g58
NtRp3573
(dp3574
g61
(dp3575
g81
g82
ssg70
g3569
sg63
(lp3576
S'session_filename'
p3577
asbag56
(g77
g58
NtRp3578
(dp3579
g61
(dp3580
g88
g89
ssg70
g3569
sg63
(lp3581
S':'
asbag56
(g77
g58
NtRp3582
(dp3583
g61
(dp3584
sg70
g3569
sg63
(lp3585
g56
(g57
g58
NtRp3586
(dp3587
g61
(dp3588
g69
I5
ssg70
g3582
sg63
(lp3589
S'/Users/schultzc/workspace/wherespuppet/web2py/applications/wp/sessions/127.0.0.1-28a16da7-e228-443d-b6f2-faaecc3d06e0'
p3590
asbasbasbag56
(g72
g58
NtRp3591
(dp3592
g61
(dp3593
sg70
g2005
sg63
(lp3594
g56
(g77
g58
NtRp3595
(dp3596
g61
(dp3597
g81
g82
ssg70
g3591
sg63
(lp3598
S'session_id'
p3599
asbag56
(g77
g58
NtRp3600
(dp3601
g61
(dp3602
g88
g89
ssg70
g3591
sg63
(lp3603
S':'
asbag56
(g77
g58
NtRp3604
(dp3605
g61
(dp3606
sg70
g3591
sg63
(lp3607
g56
(g57
g58
NtRp3608
(dp3609
g61
(dp3610
g69
I5
ssg70
g3604
sg63
(lp3611
S'127.0.0.1-28a16da7-e228-443d-b6f2-faaecc3d06e0'
p3612
asbasbasbag56
(g72
g58
NtRp3613
(dp3614
g61
(dp3615
sg70
g2005
sg63
(lp3616
g56
(g77
g58
NtRp3617
(dp3618
g61
(dp3619
g81
g82
ssg70
g3613
sg63
(lp3620
S'session_id_name'
p3621
asbag56
(g77
g58
NtRp3622
(dp3623
g61
(dp3624
g88
g89
ssg70
g3613
sg63
(lp3625
S':'
asbag56
(g77
g58
NtRp3626
(dp3627
g61
(dp3628
sg70
g3613
sg63
(lp3629
g56
(g57
g58
NtRp3630
(dp3631
g61
(dp3632
g69
I5
ssg70
g3626
sg63
(lp3633
g2062
asbasbasbag56
(g72
g58
NtRp3634
(dp3635
g61
(dp3636
sg70
g2005
sg63
(lp3637
g56
(g77
g58
NtRp3638
(dp3639
g61
(dp3640
g81
g82
ssg70
g3634
sg63
(lp3641
S'session_new'
p3642
asbag56
(g77
g58
NtRp3643
(dp3644
g61
(dp3645
g88
g89
ssg70
g3634
sg63
(lp3646
S':'
asbag56
(g77
g58
NtRp3647
(dp3648
g61
(dp3649
sg70
g3634
sg63
(lp3650
g56
(g57
g58
NtRp3651
(dp3652
g61
(dp3653
g69
I5
ssg70
g3647
sg63
(lp3654
g962
asbasbasbag56
(g72
g58
NtRp3655
(dp3656
g61
(dp3657
sg70
g2005
sg63
(lp3658
g56
(g77
g58
NtRp3659
(dp3660
g61
(dp3661
g81
g82
ssg70
g3655
sg63
(lp3662
S'status'
p3663
asbag56
(g77
g58
NtRp3664
(dp3665
g61
(dp3666
g88
g89
ssg70
g3655
sg63
(lp3667
S':'
asbag56
(g77
g58
NtRp3668
(dp3669
g61
(dp3670
sg70
g3655
sg63
(lp3671
g56
(g57
g58
NtRp3672
(dp3673
g61
(dp3674
g69
I5
ssg70
g3668
sg63
(lp3675
S'200'
p3676
asbasbasbag56
(g72
g58
NtRp3677
(dp3678
g61
(dp3679
sg70
g2005
sg63
(lp3680
g56
(g77
g58
NtRp3681
(dp3682
g61
(dp3683
g81
g82
ssg70
g3677
sg63
(lp3684
S'subtitle'
p3685
asbag56
(g77
g58
NtRp3686
(dp3687
g61
(dp3688
g88
g89
ssg70
g3677
sg63
(lp3689
S':'
asbag56
(g77
g58
NtRp3690
(dp3691
g61
(dp3692
sg70
g3677
sg63
(lp3693
g56
(g57
g58
NtRp3694
(dp3695
g61
(dp3696
g69
I5
ssg70
g3690
sg63
(lp3697
g2482
(S's\r\x00\x00\x00customize me!'
tRp3698
asbasbasbag56
(g72
g58
NtRp3699
(dp3700
g61
(dp3701
sg70
g2005
sg63
(lp3702
g56
(g77
g58
NtRp3703
(dp3704
g61
(dp3705
g81
g82
ssg70
g3699
sg63
(lp3706
S'title'
p3707
asbag56
(g77
g58
NtRp3708
(dp3709
g61
(dp3710
g88
g89
ssg70
g3699
sg63
(lp3711
S':'
asbag56
(g77
g58
NtRp3712
(dp3713
g61
(dp3714
sg70
g3699
sg63
(lp3715
g56
(g57
g58
NtRp3716
(dp3717
g61
(dp3718
g69
I5
ssg70
g3712
sg63
(lp3719
g121
asbasbasbag56
(g72
g58
NtRp3720
(dp3721
g61
(dp3722
sg70
g2005
sg63
(lp3723
g56
(g77
g58
NtRp3724
(dp3725
g61
(dp3726
g81
g82
ssg70
g3720
sg63
(lp3727
g1286
asbag56
(g77
g58
NtRp3728
(dp3729
g61
(dp3730
g88
g89
ssg70
g3720
sg63
(lp3731
S':'
asbag56
(g77
g58
NtRp3732
(dp3733
g61
(dp3734
sg70
g3720
sg63
(lp3735
g56
(g57
g58
NtRp3736
(dp3737
g61
(dp3738
g69
I5
ssg70
g3732
sg63
(lp3739
g1299
asbasbasbag56
(g72
g58
NtRp3740
(dp3741
g61
(dp3742
sg70
g2005
sg63
(lp3743
g56
(g77
g58
NtRp3744
(dp3745
g61
(dp3746
g81
g82
ssg70
g3740
sg63
(lp3747
S'view'
p3748
asbag56
(g77
g58
NtRp3749
(dp3750
g61
(dp3751
g88
g89
ssg70
g3740
sg63
(lp3752
S':'
asbag56
(g77
g58
NtRp3753
(dp3754
g61
(dp3755
sg70
g3740
sg63
(lp3756
g56
(g57
g58
NtRp3757
(dp3758
g61
(dp3759
g69
I5
ssg70
g3753
sg63
(lp3760
S'default/submit.html'
p3761
asbasbasbasbasbsS'locals'
p3762
(dp3763
S'form'
p3764
S'<gluon.sqlhtml.SQLFORM object>'
p3765
sssS'traceback'
p3766
S'Traceback (most recent call last):\n  File "/Users/schultzc/workspace/wherespuppet/web2py/gluon/restricted.py", line 192, in restricted\n    exec ccode in environment\n  File "/Users/schultzc/workspace/wherespuppet/web2py/applications/wp/controllers/default.py", line 92, in <module>\n  File "/Users/schultzc/workspace/wherespuppet/web2py/gluon/globals.py", line 137, in <lambda>\n    self._caller = lambda f: f()\n  File "/Users/schultzc/workspace/wherespuppet/web2py/applications/wp/controllers/default.py", line 28, in submit\n    return dict(form=form,latitude=latitude)\nNameError: global name \'latitude\' is not defined\n'
p3767
s.