(dp1
S'output'
p2
S''
sS'layer'
p3
S'/Users/schultzc/workspace/wherespuppet/web2py/applications/wp/views/default/index.html'
p4
sS'code'
p5
S'response.write(\'<!DOCTYPE html>\\n<html lang="\', escape=False)\nresponse.write(T.accepted_language or \'en\')\nresponse.write(\'" class="no-js"><!-- no-js need it for modernzr -->\\n  <head>\\n    <meta charset="utf-8" />        \\n    <!-- www.phpied.com/conditional-comments-block-downloads/ -->\\n    <!--[if IE]><![endif]-->    \\n    <!-- Always force latest IE rendering engine \\n     (even in intranet) & Chrome Frame \\n     Remove this if you use the .htaccess -->\\n    <meta http-equiv="X-UA-Compatible" content="IE=edge,chrome=1">\\n    \\n    <title>\', escape=False)\nresponse.write(response.title or request.application)\nresponse.write(\'</title>\\n    \\n    <!-- http://dev.w3.org/html5/markup/meta.name.html -->\\n    <meta name="application-name" content="\', escape=False)\nresponse.write(request.application)\nresponse.write(\'" /> \\n    \\n    <!-- Speaking of Google, don\\\'t forget to set your site up: \\n     http://google.com/webmasters -->\\n    <meta name="google-site-verification" content="" />\\n    \\n    <!--  Mobile Viewport Fix\\n      j.mp/mobileviewport & davidbcalhoun.com/2010/viewport-metatag \\n      device-width: Occupy full width of the screen in its current orientation\\n      initial-scale = 1.0 retains dimensions instead of zooming out if page height > device height\\n      maximum-scale = 1.0 retains dimensions instead of zooming in if page width < device width\\n      -->\\n    <!--meta name="viewport" content="width=device-width; initial-scale=1.0; maximum-scale=1.0;"-->\\n    \\n    <!-- Place favicon.ico and apple-touch-icon.png in the root of your domain and delete these references -->\\n    <link rel="shortcut icon" href="\', escape=False)\nresponse.write(URL(\'static\',\'favicon.ico\'))\nresponse.write(\'" type="image/x-icon">\\n    <link rel="apple-touch-icon" href="\', escape=False)\nresponse.write(URL(\'static\',\'favicon.png\'))\nresponse.write(\'">\\n\\n    <!-- For the less-enabled mobile browsers like Opera Mini -->\\n    <link rel="stylesheet" media="handheld" href="\', escape=False)\nresponse.write(URL(\'static\',\'plugin_jqmobile/css/handheld.css\'))\nresponse.write(\'">\\n    \\n    <!-- All JavaScript at the bottom, except for Modernizr which enables HTML5 elements & feature detects -->\\n    <script src="\', escape=False)\nresponse.write(URL(\'static\',\'js/modernizr-1.6.min.js\'))\nresponse.write(\'"></script>\\n        \\n    \', escape=False)\nresponse.files.insert(0,URL(\'static\',\'js/jquery.js\'))\nresponse.files.insert(1,URL(\'static\',\'css/calendar.css\'))\nresponse.files.insert(2,URL(\'static\',\'js/calendar.js\'))\nfor _item in response.meta or []:\n    response.write(\'\\n     <meta name="\', escape=False)\n    response.write(_item)\n    response.write(\'" content="\', escape=False)\n    response.write(response.meta[_item])\n    response.write(\'" />\', escape=False)\n    pass\nfor _k,_file in enumerate(response.files or []):\n    if _file in response.files[:_k]:\n        continue\n    _file0=_file.lower().split(\'?\')[0]\n    if _file0.endswith(\'.css\'):\n        response.write(\'\\n     <link href="\', escape=False)\n        response.write(_file)\n        response.write(\'" rel="stylesheet" type="text/css" />\', escape=False)\n    elif _file0.endswith(\'.js\'):\n        response.write(\'\\n     <script src="\', escape=False)\n        response.write(_file)\n        response.write(\'" type="text/javascript"></script>\', escape=False)\n        pass\n    pass\nresponse.write(\'\\n    <script type="text/javascript"><!--\\n    // These variables are used by the web2py_ajax_init function in web2py_ajax.js (which is loaded below).\\n    var w2p_ajax_confirm_message = "\', escape=False)\nresponse.write(T(\'Are you sure you want to delete this object?\'))\nresponse.write(\'";\\n    var w2p_ajax_date_format = "\', escape=False)\nresponse.write(T(\'%Y-%m-%d\'))\nresponse.write(\'";\\n    var w2p_ajax_datetime_format = "\', escape=False)\nresponse.write(T(\'%Y-%m-%d %H:%M:%S\'))\nresponse.write(\'";\\n    //--></script>\\n    <script src="\', escape=False)\nresponse.write(URL(\'static\',\'js/web2py_ajax.js\'))\nresponse.write(\'" type="text/javascript"></script>\\n\', escape=False)\nresponse.write(\'    \\n\\n    <script type="text/javascript">\\n    //run this script after jQuery loads, but before jQuery Mobile loads\\n\\n//customize jQuery Mobile to let IE7+ in (Mobile IE)                           \\n$(document).bind("mobileinit", function(){\\n  $.extend(  $.mobile , {\\n         \\n  //extend gradeA qualifier to include IE7+\\n    gradeA: function(){            \\n         //IE version check by James Padolsey, modified by jdalton - from http://gist.github.com/527683\\n                 var ie = (function() {\\n                     var v = 3, div = document.createElement(\\\'div\\\'), a = div.all || [];\\n                     while (div.innerHTML = \\\'<!--[if gt IE \\\'+(++v)+\\\']><br><![endif]-->\\\', a[0]); \\n                     return v > 4 ? v : !v;\\n                 }());\\n         \\n         //must either support media queries or be IE7+\\n         return $.support.mediaquery || (ie && ie >= 7);\\n    }\\n  });\\n});\\n    </script>\\n\\n    <link rel="stylesheet" href="http://code.jquery.com/mobile/1.0a4.1/jquery.mobile-1.0a4.1.min.css" />\\n    <script src="http://code.jquery.com/mobile/1.0a4.1/jquery.mobile-1.0a4.1.min.js"></script>\\n    <style>\\n      .error { color: red; }\\n    </style>\\n  </head>\\n  \\n  <!-- paulirish.com/2008/conditional-stylesheets-vs-css-hacks-answer-neither/ -->  \\n  <!--[if lt IE 7 ]> <body class="ie6"> <![endif]-->\\n  <!--[if IE 7 ]>    <body class="ie7"> <![endif]-->\\n  <!--[if IE 8 ]>    <body class="ie8"> <![endif]-->\\n  <!--[if IE 9 ]>    <body class="ie9"> <![endif]-->\\n  <!--[if (gt IE 9)|!(IE)]><!--> <body> <!--<![endif]-->\\n    \\n    <div data-role="page">\\n      <div data-role="header" data-fullscreen="true" data-position="fixed">\\n\\t<h1>\', escape=False)\nresponse.write(response.title)\nresponse.write(\'</h1>\\n\\t\', escape=False)\nresponse.write(\'\\n\\t\', escape=False)\nif not auth.user:\n    response.write(\'\\n\\t<a rel="external" href="\', escape=False)\n    response.write(URL(\'default\',\'user\',args=\'login\'))\n    response.write(\'" data-icon="login" class="ui-btn-left">Login</a>\\n\\t\', escape=False)\nelse:\n    response.write(\'\\n\\t<a rel="external" href="\', escape=False)\n    response.write(URL(\'default\',\'user\',args=\'logout\'))\n    response.write(\'" data-icon="logout" class="ui-btn-left">Logout</a>\\n\\t\', escape=False)\n    pass\nresponse.write(\'\\n\\t<a rel="external" href="\', escape=False)\nresponse.write(URL(\'default\',\'index\'))\nresponse.write(\'" data-icon="home" class="ui-btn-right">\', escape=False)\nresponse.write(T("Home"))\nresponse.write(\'</a>\\n\\t\', escape=False)\nresponse.write(\'\\n      </div>\\n      <div data-role="content">\\n\\t\', escape=False)\nif response.flash:\n    response.write(\'<div class="ui-body ui-body-e">\', escape=False)\n    response.write(response.flash)\n    response.write(\'</div>\', escape=False)\n    pass\nresponse.write(\'\\n\\t\', escape=False)\nif response.menu:\n    response.write(\'\\n\\t<ul data-role="listview" data-inset="true">\\n\\t  <li data-role=\\\'list-divider\\\'>\', escape=False)\n    response.write(T("Main Menu"))\n    response.write(\'</li>\\n\\t  \', escape=False)\n    for _ in response.menu:\n        response.write(\'\\n\\t  <li><a href="\', escape=False)\n        response.write(_[2])\n        response.write(\'">\', escape=False)\n        response.write(_[0])\n        response.write(\'</a></li>\\n\\t  \', escape=False)\n        pass\n    response.write(\'\\n\\t</ul>\\n\\t\', escape=False)\n    pass\nresponse.write(\'\\n\\t\', escape=False)\nresponse.write(\'\\n<h1>Current Images</h1>\\n<ul>\\n\', escape=False)\nfor image in images:\n    response.write(\'\\n\', escape=False)\n    response.write(LI(A(image.title, _href=URL("show", args=image.id))))\n    response.write(\'\\n\', escape=False)\n    pass\nresponse.write(\'\\n</ul>\\n\', escape=False)\nresponse.write(\'\\n      </div>\\n      <div data-role="footer" data-fullscreen="true" data-position="fixed" style="padding: 5px; text-align: center">\\n\\t\', escape=False)\nresponse.write(\'\\n\\tpowered by web2py - @2011\\n\\t\', escape=False)\nresponse.write(\'\\n      </div>\\n    </div>\\n\\n  \\n    <!--[if lt IE 7 ]>\\n    <script src="\', escape=False)\nresponse.write(URL(\'static\',\'plugin_jqmobile/js/dd_belatedpng.js\'))\nresponse.write(\'"></script>\\n    <script> DD_belatedPNG.fix(\\\'img, .png_bg\\\'); //fix any <img> or .png_bg background-images </script>\\n    <![endif]-->\\n     \\n  </body>\\n</html>\\n\', escape=False)'
p6
sS'snapshot'
p7
(dp8
S'exception'
p9
(dp10
S'__hash__'
p11
S"<method-wrapper '__hash__' of exceptions.NameError object>"
p12
sS'__setattr__'
p13
S"<method-wrapper '__setattr__' of exceptions.NameError object>"
p14
sS'__reduce_ex__'
p15
S'<built-in method __reduce_ex__ of exceptions.NameError object>'
p16
sS'__getslice__'
p17
S"<method-wrapper '__getslice__' of exceptions.NameError object>"
p18
sS'__getitem__'
p19
S"<method-wrapper '__getitem__' of exceptions.NameError object>"
p20
sS'__setstate__'
p21
S'<built-in method __setstate__ of exceptions.NameError object>'
p22
sS'args'
p23
S'("name \'auth\' is not defined",)'
p24
sS'__reduce__'
p25
S'<built-in method __reduce__ of exceptions.NameError object>'
p26
sS'__str__'
p27
S"<method-wrapper '__str__' of exceptions.NameError object>"
p28
sS'__format__'
p29
S'<built-in method __format__ of exceptions.NameError object>'
p30
sS'__getattribute__'
p31
S"<method-wrapper '__getattribute__' of exceptions.NameError object>"
p32
sS'__class__'
p33
S"<type 'exceptions.NameError'>"
p34
sS'__unicode__'
p35
S'<built-in method __unicode__ of exceptions.NameError object>'
p36
sS'__delattr__'
p37
S"<method-wrapper '__delattr__' of exceptions.NameError object>"
p38
sS'__subclasshook__'
p39
S'<built-in method __subclasshook__ of type object>'
p40
sS'__repr__'
p41
S"<method-wrapper '__repr__' of exceptions.NameError object>"
p42
sS'__dict__'
p43
S'{}'
p44
sS'__sizeof__'
p45
S'<built-in method __sizeof__ of exceptions.NameError object>'
p46
sS'__doc__'
p47
S"'Name not found globally.'"
p48
sS'__init__'
p49
S"<method-wrapper '__init__' of exceptions.NameError object>"
p50
sS'__new__'
p51
S'<built-in method __new__ of type object>'
p52
ssS'evalue'
p53
S"name 'auth' is not defined"
p54
sS'request'
p55
ccopy_reg
_reconstructor
p56
(cgluon.html
BEAUTIFY
p57
c__builtin__
object
p58
NtRp59
(dp60
S'attributes'
p61
(dp62
sS'components'
p63
(lp64
g56
(cgluon.html
TABLE
p65
g58
NtRp66
(dp67
g61
(dp68
S'level'
p69
I5
ssS'parent'
p70
Nsg63
(lp71
g56
(cgluon.html
TR
p72
g58
NtRp73
(dp74
g61
(dp75
sg70
g66
sg63
(lp76
g56
(cgluon.html
TD
p77
g58
NtRp78
(dp79
g61
(dp80
S'_style'
p81
S'font-weight:bold;'
p82
ssg70
g73
sg63
(lp83
S'ajax'
p84
asbag56
(g77
g58
NtRp85
(dp86
g61
(dp87
S'_valign'
p88
S'top'
p89
ssg70
g73
sg63
(lp90
S':'
asbag56
(g77
g58
NtRp91
(dp92
g61
(dp93
sg70
g73
sg63
(lp94
g56
(g57
g58
NtRp95
(dp96
g61
(dp97
g69
I5
ssg70
g91
sg63
(lp98
S'False'
p99
asbasbasbag56
(g72
g58
NtRp100
(dp101
g61
(dp102
sg70
g66
sg63
(lp103
g56
(g77
g58
NtRp104
(dp105
g61
(dp106
g81
g82
ssg70
g100
sg63
(lp107
S'application'
p108
asbag56
(g77
g58
NtRp109
(dp110
g61
(dp111
g88
g89
ssg70
g100
sg63
(lp112
S':'
asbag56
(g77
g58
NtRp113
(dp114
g61
(dp115
sg70
g100
sg63
(lp116
g56
(g57
g58
NtRp117
(dp118
g61
(dp119
g69
I5
ssg70
g113
sg63
(lp120
S'wp'
p121
asbasbasbag56
(g72
g58
NtRp122
(dp123
g61
(dp124
sg70
g66
sg63
(lp125
g56
(g77
g58
NtRp126
(dp127
g61
(dp128
g81
g82
ssg70
g122
sg63
(lp129
g23
asbag56
(g77
g58
NtRp130
(dp131
g61
(dp132
g88
g89
ssg70
g122
sg63
(lp133
S':'
asbag56
(g77
g58
NtRp134
(dp135
g61
(dp136
sg70
g122
sg63
(lp137
g56
(g57
g58
NtRp138
(dp139
g61
(dp140
g69
I5
ssg70
g134
sg63
(lp141
g56
(g65
g58
NtRp142
(dp143
g61
(dp144
g69
I4
ssg70
Nsg63
(lp145
sbasbasbasbag56
(g72
g58
NtRp146
(dp147
g61
(dp148
sg70
g66
sg63
(lp149
g56
(g77
g58
NtRp150
(dp151
g61
(dp152
g81
g82
ssg70
g146
sg63
(lp153
S'body'
p154
asbag56
(g77
g58
NtRp155
(dp156
g61
(dp157
g88
g89
ssg70
g146
sg63
(lp158
S':'
asbag56
(g77
g58
NtRp159
(dp160
g61
(dp161
sg70
g146
sg63
(lp162
g56
(g57
g58
NtRp163
(dp164
g61
(dp165
g69
I5
ssg70
g159
sg63
(lp166
S'<cStringIO.StringO object at 0x1081d1e30>'
p167
asbasbasbag56
(g72
g58
NtRp168
(dp169
g61
(dp170
sg70
g66
sg63
(lp171
g56
(g77
g58
NtRp172
(dp173
g61
(dp174
g81
g82
ssg70
g168
sg63
(lp175
S'client'
p176
asbag56
(g77
g58
NtRp177
(dp178
g61
(dp179
g88
g89
ssg70
g168
sg63
(lp180
S':'
asbag56
(g77
g58
NtRp181
(dp182
g61
(dp183
sg70
g168
sg63
(lp184
g56
(g57
g58
NtRp185
(dp186
g61
(dp187
g69
I5
ssg70
g181
sg63
(lp188
S'127.0.0.1'
p189
asbasbasbag56
(g72
g58
NtRp190
(dp191
g61
(dp192
sg70
g66
sg63
(lp193
g56
(g77
g58
NtRp194
(dp195
g61
(dp196
g81
g82
ssg70
g190
sg63
(lp197
S'controller'
p198
asbag56
(g77
g58
NtRp199
(dp200
g61
(dp201
g88
g89
ssg70
g190
sg63
(lp202
S':'
asbag56
(g77
g58
NtRp203
(dp204
g61
(dp205
sg70
g190
sg63
(lp206
g56
(g57
g58
NtRp207
(dp208
g61
(dp209
g69
I5
ssg70
g203
sg63
(lp210
S'default'
p211
asbasbasbag56
(g72
g58
NtRp212
(dp213
g61
(dp214
sg70
g66
sg63
(lp215
g56
(g77
g58
NtRp216
(dp217
g61
(dp218
g81
g82
ssg70
g212
sg63
(lp219
S'cookies'
p220
asbag56
(g77
g58
NtRp221
(dp222
g61
(dp223
g88
g89
ssg70
g212
sg63
(lp224
S':'
asbag56
(g77
g58
NtRp225
(dp226
g61
(dp227
sg70
g212
sg63
(lp228
g56
(g57
g58
NtRp229
(dp230
g61
(dp231
g69
I5
ssg70
g225
sg63
(lp232
g56
(g65
g58
NtRp233
(dp234
g61
(dp235
g69
I4
ssg70
Nsg63
(lp236
g56
(g72
g58
NtRp237
(dp238
g61
(dp239
sg70
g233
sg63
(lp240
g56
(g77
g58
NtRp241
(dp242
g61
(dp243
g81
g82
ssg70
g237
sg63
(lp244
S'session_id_admin'
p245
asbag56
(g77
g58
NtRp246
(dp247
g61
(dp248
g88
g89
ssg70
g237
sg63
(lp249
S':'
asbag56
(g77
g58
NtRp250
(dp251
g61
(dp252
sg70
g237
sg63
(lp253
g56
(g57
g58
NtRp254
(dp255
g61
(dp256
g69
I4
ssg70
g250
sg63
(lp257
g56
(g65
g58
NtRp258
(dp259
g61
(dp260
g69
I3
ssg70
Nsg63
(lp261
g56
(g72
g58
NtRp262
(dp263
g61
(dp264
sg70
g258
sg63
(lp265
g56
(g77
g58
NtRp266
(dp267
g61
(dp268
g81
g82
ssg70
g262
sg63
(lp269
S'comment'
p270
asbag56
(g77
g58
NtRp271
(dp272
g61
(dp273
g88
g89
ssg70
g262
sg63
(lp274
S':'
asbag56
(g77
g58
NtRp275
(dp276
g61
(dp277
sg70
g262
sg63
(lp278
g56
(g57
g58
NtRp279
(dp280
g61
(dp281
g69
I3
ssg70
g275
sg63
(lp282
S''
asbasbasbag56
(g72
g58
NtRp283
(dp284
g61
(dp285
sg70
g258
sg63
(lp286
g56
(g77
g58
NtRp287
(dp288
g61
(dp289
g81
g82
ssg70
g283
sg63
(lp290
S'domain'
p291
asbag56
(g77
g58
NtRp292
(dp293
g61
(dp294
g88
g89
ssg70
g283
sg63
(lp295
S':'
asbag56
(g77
g58
NtRp296
(dp297
g61
(dp298
sg70
g283
sg63
(lp299
g56
(g57
g58
NtRp300
(dp301
g61
(dp302
g69
I3
ssg70
g296
sg63
(lp303
S''
asbasbasbag56
(g72
g58
NtRp304
(dp305
g61
(dp306
sg70
g258
sg63
(lp307
g56
(g77
g58
NtRp308
(dp309
g61
(dp310
g81
g82
ssg70
g304
sg63
(lp311
S'expires'
p312
asbag56
(g77
g58
NtRp313
(dp314
g61
(dp315
g88
g89
ssg70
g304
sg63
(lp316
S':'
asbag56
(g77
g58
NtRp317
(dp318
g61
(dp319
sg70
g304
sg63
(lp320
g56
(g57
g58
NtRp321
(dp322
g61
(dp323
g69
I3
ssg70
g317
sg63
(lp324
S''
asbasbasbag56
(g72
g58
NtRp325
(dp326
g61
(dp327
sg70
g258
sg63
(lp328
g56
(g77
g58
NtRp329
(dp330
g61
(dp331
g81
g82
ssg70
g325
sg63
(lp332
S'httponly'
p333
asbag56
(g77
g58
NtRp334
(dp335
g61
(dp336
g88
g89
ssg70
g325
sg63
(lp337
S':'
asbag56
(g77
g58
NtRp338
(dp339
g61
(dp340
sg70
g325
sg63
(lp341
g56
(g57
g58
NtRp342
(dp343
g61
(dp344
g69
I3
ssg70
g338
sg63
(lp345
S''
asbasbasbag56
(g72
g58
NtRp346
(dp347
g61
(dp348
sg70
g258
sg63
(lp349
g56
(g77
g58
NtRp350
(dp351
g61
(dp352
g81
g82
ssg70
g346
sg63
(lp353
S'max-age'
p354
asbag56
(g77
g58
NtRp355
(dp356
g61
(dp357
g88
g89
ssg70
g346
sg63
(lp358
S':'
asbag56
(g77
g58
NtRp359
(dp360
g61
(dp361
sg70
g346
sg63
(lp362
g56
(g57
g58
NtRp363
(dp364
g61
(dp365
g69
I3
ssg70
g359
sg63
(lp366
S''
asbasbasbag56
(g72
g58
NtRp367
(dp368
g61
(dp369
sg70
g258
sg63
(lp370
g56
(g77
g58
NtRp371
(dp372
g61
(dp373
g81
g82
ssg70
g367
sg63
(lp374
S'path'
p375
asbag56
(g77
g58
NtRp376
(dp377
g61
(dp378
g88
g89
ssg70
g367
sg63
(lp379
S':'
asbag56
(g77
g58
NtRp380
(dp381
g61
(dp382
sg70
g367
sg63
(lp383
g56
(g57
g58
NtRp384
(dp385
g61
(dp386
g69
I3
ssg70
g380
sg63
(lp387
S''
asbasbasbag56
(g72
g58
NtRp388
(dp389
g61
(dp390
sg70
g258
sg63
(lp391
g56
(g77
g58
NtRp392
(dp393
g61
(dp394
g81
g82
ssg70
g388
sg63
(lp395
S'secure'
p396
asbag56
(g77
g58
NtRp397
(dp398
g61
(dp399
g88
g89
ssg70
g388
sg63
(lp400
S':'
asbag56
(g77
g58
NtRp401
(dp402
g61
(dp403
sg70
g388
sg63
(lp404
g56
(g57
g58
NtRp405
(dp406
g61
(dp407
g69
I3
ssg70
g401
sg63
(lp408
S''
asbasbasbag56
(g72
g58
NtRp409
(dp410
g61
(dp411
sg70
g258
sg63
(lp412
g56
(g77
g58
NtRp413
(dp414
g61
(dp415
g81
g82
ssg70
g409
sg63
(lp416
S'version'
p417
asbag56
(g77
g58
NtRp418
(dp419
g61
(dp420
g88
g89
ssg70
g409
sg63
(lp421
S':'
asbag56
(g77
g58
NtRp422
(dp423
g61
(dp424
sg70
g409
sg63
(lp425
g56
(g57
g58
NtRp426
(dp427
g61
(dp428
g69
I3
ssg70
g422
sg63
(lp429
S''
asbasbasbasbasbasbasbag56
(g72
g58
NtRp430
(dp431
g61
(dp432
sg70
g233
sg63
(lp433
g56
(g77
g58
NtRp434
(dp435
g61
(dp436
g81
g82
ssg70
g430
sg63
(lp437
S'session_id_welcome'
p438
asbag56
(g77
g58
NtRp439
(dp440
g61
(dp441
g88
g89
ssg70
g430
sg63
(lp442
S':'
asbag56
(g77
g58
NtRp443
(dp444
g61
(dp445
sg70
g430
sg63
(lp446
g56
(g57
g58
NtRp447
(dp448
g61
(dp449
g69
I4
ssg70
g443
sg63
(lp450
g56
(g65
g58
NtRp451
(dp452
g61
(dp453
g69
I3
ssg70
Nsg63
(lp454
g56
(g72
g58
NtRp455
(dp456
g61
(dp457
sg70
g451
sg63
(lp458
g56
(g77
g58
NtRp459
(dp460
g61
(dp461
g81
g82
ssg70
g455
sg63
(lp462
g270
asbag56
(g77
g58
NtRp463
(dp464
g61
(dp465
g88
g89
ssg70
g455
sg63
(lp466
S':'
asbag56
(g77
g58
NtRp467
(dp468
g61
(dp469
sg70
g455
sg63
(lp470
g56
(g57
g58
NtRp471
(dp472
g61
(dp473
g69
I3
ssg70
g467
sg63
(lp474
S''
asbasbasbag56
(g72
g58
NtRp475
(dp476
g61
(dp477
sg70
g451
sg63
(lp478
g56
(g77
g58
NtRp479
(dp480
g61
(dp481
g81
g82
ssg70
g475
sg63
(lp482
g291
asbag56
(g77
g58
NtRp483
(dp484
g61
(dp485
g88
g89
ssg70
g475
sg63
(lp486
S':'
asbag56
(g77
g58
NtRp487
(dp488
g61
(dp489
sg70
g475
sg63
(lp490
g56
(g57
g58
NtRp491
(dp492
g61
(dp493
g69
I3
ssg70
g487
sg63
(lp494
S''
asbasbasbag56
(g72
g58
NtRp495
(dp496
g61
(dp497
sg70
g451
sg63
(lp498
g56
(g77
g58
NtRp499
(dp500
g61
(dp501
g81
g82
ssg70
g495
sg63
(lp502
g312
asbag56
(g77
g58
NtRp503
(dp504
g61
(dp505
g88
g89
ssg70
g495
sg63
(lp506
S':'
asbag56
(g77
g58
NtRp507
(dp508
g61
(dp509
sg70
g495
sg63
(lp510
g56
(g57
g58
NtRp511
(dp512
g61
(dp513
g69
I3
ssg70
g507
sg63
(lp514
S''
asbasbasbag56
(g72
g58
NtRp515
(dp516
g61
(dp517
sg70
g451
sg63
(lp518
g56
(g77
g58
NtRp519
(dp520
g61
(dp521
g81
g82
ssg70
g515
sg63
(lp522
g333
asbag56
(g77
g58
NtRp523
(dp524
g61
(dp525
g88
g89
ssg70
g515
sg63
(lp526
S':'
asbag56
(g77
g58
NtRp527
(dp528
g61
(dp529
sg70
g515
sg63
(lp530
g56
(g57
g58
NtRp531
(dp532
g61
(dp533
g69
I3
ssg70
g527
sg63
(lp534
S''
asbasbasbag56
(g72
g58
NtRp535
(dp536
g61
(dp537
sg70
g451
sg63
(lp538
g56
(g77
g58
NtRp539
(dp540
g61
(dp541
g81
g82
ssg70
g535
sg63
(lp542
g354
asbag56
(g77
g58
NtRp543
(dp544
g61
(dp545
g88
g89
ssg70
g535
sg63
(lp546
S':'
asbag56
(g77
g58
NtRp547
(dp548
g61
(dp549
sg70
g535
sg63
(lp550
g56
(g57
g58
NtRp551
(dp552
g61
(dp553
g69
I3
ssg70
g547
sg63
(lp554
S''
asbasbasbag56
(g72
g58
NtRp555
(dp556
g61
(dp557
sg70
g451
sg63
(lp558
g56
(g77
g58
NtRp559
(dp560
g61
(dp561
g81
g82
ssg70
g555
sg63
(lp562
g375
asbag56
(g77
g58
NtRp563
(dp564
g61
(dp565
g88
g89
ssg70
g555
sg63
(lp566
S':'
asbag56
(g77
g58
NtRp567
(dp568
g61
(dp569
sg70
g555
sg63
(lp570
g56
(g57
g58
NtRp571
(dp572
g61
(dp573
g69
I3
ssg70
g567
sg63
(lp574
S''
asbasbasbag56
(g72
g58
NtRp575
(dp576
g61
(dp577
sg70
g451
sg63
(lp578
g56
(g77
g58
NtRp579
(dp580
g61
(dp581
g81
g82
ssg70
g575
sg63
(lp582
g396
asbag56
(g77
g58
NtRp583
(dp584
g61
(dp585
g88
g89
ssg70
g575
sg63
(lp586
S':'
asbag56
(g77
g58
NtRp587
(dp588
g61
(dp589
sg70
g575
sg63
(lp590
g56
(g57
g58
NtRp591
(dp592
g61
(dp593
g69
I3
ssg70
g587
sg63
(lp594
S''
asbasbasbag56
(g72
g58
NtRp595
(dp596
g61
(dp597
sg70
g451
sg63
(lp598
g56
(g77
g58
NtRp599
(dp600
g61
(dp601
g81
g82
ssg70
g595
sg63
(lp602
g417
asbag56
(g77
g58
NtRp603
(dp604
g61
(dp605
g88
g89
ssg70
g595
sg63
(lp606
S':'
asbag56
(g77
g58
NtRp607
(dp608
g61
(dp609
sg70
g595
sg63
(lp610
g56
(g57
g58
NtRp611
(dp612
g61
(dp613
g69
I3
ssg70
g607
sg63
(lp614
S''
asbasbasbasbasbasbasbag56
(g72
g58
NtRp615
(dp616
g61
(dp617
sg70
g233
sg63
(lp618
g56
(g77
g58
NtRp619
(dp620
g61
(dp621
g81
g82
ssg70
g615
sg63
(lp622
S'session_id_wp'
p623
asbag56
(g77
g58
NtRp624
(dp625
g61
(dp626
g88
g89
ssg70
g615
sg63
(lp627
S':'
asbag56
(g77
g58
NtRp628
(dp629
g61
(dp630
sg70
g615
sg63
(lp631
g56
(g57
g58
NtRp632
(dp633
g61
(dp634
g69
I4
ssg70
g628
sg63
(lp635
g56
(g65
g58
NtRp636
(dp637
g61
(dp638
g69
I3
ssg70
Nsg63
(lp639
g56
(g72
g58
NtRp640
(dp641
g61
(dp642
sg70
g636
sg63
(lp643
g56
(g77
g58
NtRp644
(dp645
g61
(dp646
g81
g82
ssg70
g640
sg63
(lp647
g270
asbag56
(g77
g58
NtRp648
(dp649
g61
(dp650
g88
g89
ssg70
g640
sg63
(lp651
S':'
asbag56
(g77
g58
NtRp652
(dp653
g61
(dp654
sg70
g640
sg63
(lp655
g56
(g57
g58
NtRp656
(dp657
g61
(dp658
g69
I3
ssg70
g652
sg63
(lp659
S''
asbasbasbag56
(g72
g58
NtRp660
(dp661
g61
(dp662
sg70
g636
sg63
(lp663
g56
(g77
g58
NtRp664
(dp665
g61
(dp666
g81
g82
ssg70
g660
sg63
(lp667
g291
asbag56
(g77
g58
NtRp668
(dp669
g61
(dp670
g88
g89
ssg70
g660
sg63
(lp671
S':'
asbag56
(g77
g58
NtRp672
(dp673
g61
(dp674
sg70
g660
sg63
(lp675
g56
(g57
g58
NtRp676
(dp677
g61
(dp678
g69
I3
ssg70
g672
sg63
(lp679
S''
asbasbasbag56
(g72
g58
NtRp680
(dp681
g61
(dp682
sg70
g636
sg63
(lp683
g56
(g77
g58
NtRp684
(dp685
g61
(dp686
g81
g82
ssg70
g680
sg63
(lp687
g312
asbag56
(g77
g58
NtRp688
(dp689
g61
(dp690
g88
g89
ssg70
g680
sg63
(lp691
S':'
asbag56
(g77
g58
NtRp692
(dp693
g61
(dp694
sg70
g680
sg63
(lp695
g56
(g57
g58
NtRp696
(dp697
g61
(dp698
g69
I3
ssg70
g692
sg63
(lp699
S''
asbasbasbag56
(g72
g58
NtRp700
(dp701
g61
(dp702
sg70
g636
sg63
(lp703
g56
(g77
g58
NtRp704
(dp705
g61
(dp706
g81
g82
ssg70
g700
sg63
(lp707
g333
asbag56
(g77
g58
NtRp708
(dp709
g61
(dp710
g88
g89
ssg70
g700
sg63
(lp711
S':'
asbag56
(g77
g58
NtRp712
(dp713
g61
(dp714
sg70
g700
sg63
(lp715
g56
(g57
g58
NtRp716
(dp717
g61
(dp718
g69
I3
ssg70
g712
sg63
(lp719
S''
asbasbasbag56
(g72
g58
NtRp720
(dp721
g61
(dp722
sg70
g636
sg63
(lp723
g56
(g77
g58
NtRp724
(dp725
g61
(dp726
g81
g82
ssg70
g720
sg63
(lp727
g354
asbag56
(g77
g58
NtRp728
(dp729
g61
(dp730
g88
g89
ssg70
g720
sg63
(lp731
S':'
asbag56
(g77
g58
NtRp732
(dp733
g61
(dp734
sg70
g720
sg63
(lp735
g56
(g57
g58
NtRp736
(dp737
g61
(dp738
g69
I3
ssg70
g732
sg63
(lp739
S''
asbasbasbag56
(g72
g58
NtRp740
(dp741
g61
(dp742
sg70
g636
sg63
(lp743
g56
(g77
g58
NtRp744
(dp745
g61
(dp746
g81
g82
ssg70
g740
sg63
(lp747
g375
asbag56
(g77
g58
NtRp748
(dp749
g61
(dp750
g88
g89
ssg70
g740
sg63
(lp751
S':'
asbag56
(g77
g58
NtRp752
(dp753
g61
(dp754
sg70
g740
sg63
(lp755
g56
(g57
g58
NtRp756
(dp757
g61
(dp758
g69
I3
ssg70
g752
sg63
(lp759
S''
asbasbasbag56
(g72
g58
NtRp760
(dp761
g61
(dp762
sg70
g636
sg63
(lp763
g56
(g77
g58
NtRp764
(dp765
g61
(dp766
g81
g82
ssg70
g760
sg63
(lp767
g396
asbag56
(g77
g58
NtRp768
(dp769
g61
(dp770
g88
g89
ssg70
g760
sg63
(lp771
S':'
asbag56
(g77
g58
NtRp772
(dp773
g61
(dp774
sg70
g760
sg63
(lp775
g56
(g57
g58
NtRp776
(dp777
g61
(dp778
g69
I3
ssg70
g772
sg63
(lp779
S''
asbasbasbag56
(g72
g58
NtRp780
(dp781
g61
(dp782
sg70
g636
sg63
(lp783
g56
(g77
g58
NtRp784
(dp785
g61
(dp786
g81
g82
ssg70
g780
sg63
(lp787
g417
asbag56
(g77
g58
NtRp788
(dp789
g61
(dp790
g88
g89
ssg70
g780
sg63
(lp791
S':'
asbag56
(g77
g58
NtRp792
(dp793
g61
(dp794
sg70
g780
sg63
(lp795
g56
(g57
g58
NtRp796
(dp797
g61
(dp798
g69
I3
ssg70
g792
sg63
(lp799
S''
asbasbasbasbasbasbasbasbasbasbasbag56
(g72
g58
NtRp800
(dp801
g61
(dp802
sg70
g66
sg63
(lp803
g56
(g77
g58
NtRp804
(dp805
g61
(dp806
g81
g82
ssg70
g800
sg63
(lp807
S'env'
p808
asbag56
(g77
g58
NtRp809
(dp810
g61
(dp811
g88
g89
ssg70
g800
sg63
(lp812
S':'
asbag56
(g77
g58
NtRp813
(dp814
g61
(dp815
sg70
g800
sg63
(lp816
g56
(g57
g58
NtRp817
(dp818
g61
(dp819
g69
I5
ssg70
g813
sg63
(lp820
g56
(g65
g58
NtRp821
(dp822
g61
(dp823
g69
I4
ssg70
Nsg63
(lp824
g56
(g72
g58
NtRp825
(dp826
g61
(dp827
sg70
g821
sg63
(lp828
g56
(g77
g58
NtRp829
(dp830
g61
(dp831
g81
g82
ssg70
g825
sg63
(lp832
S'app_folders'
p833
asbag56
(g77
g58
NtRp834
(dp835
g61
(dp836
g88
g89
ssg70
g825
sg63
(lp837
S':'
asbag56
(g77
g58
NtRp838
(dp839
g61
(dp840
sg70
g825
sg63
(lp841
g56
(g57
g58
NtRp842
(dp843
g61
(dp844
g69
I4
ssg70
g838
sg63
(lp845
S"set(['/Users/schultzc/workspace/wherespuppet/web2py/applications/wp/', '/Users/schultzc/workspace/wherespuppet/web2py/applications/welcome/', '/Users/schultzc/workspace/wherespuppet/web2py/applications/admin/'])"
p846
asbasbasbag56
(g72
g58
NtRp847
(dp848
g61
(dp849
sg70
g821
sg63
(lp850
g56
(g77
g58
NtRp851
(dp852
g61
(dp853
g81
g82
ssg70
g847
sg63
(lp854
S'applications_parent'
p855
asbag56
(g77
g58
NtRp856
(dp857
g61
(dp858
g88
g89
ssg70
g847
sg63
(lp859
S':'
asbag56
(g77
g58
NtRp860
(dp861
g61
(dp862
sg70
g847
sg63
(lp863
g56
(g57
g58
NtRp864
(dp865
g61
(dp866
g69
I4
ssg70
g860
sg63
(lp867
S'/Users/schultzc/workspace/wherespuppet/web2py'
p868
asbasbasbag56
(g72
g58
NtRp869
(dp870
g61
(dp871
sg70
g821
sg63
(lp872
g56
(g77
g58
NtRp873
(dp874
g61
(dp875
g81
g82
ssg70
g869
sg63
(lp876
S'cmd_args'
p877
asbag56
(g77
g58
NtRp878
(dp879
g61
(dp880
g88
g89
ssg70
g869
sg63
(lp881
S':'
asbag56
(g77
g58
NtRp882
(dp883
g61
(dp884
sg70
g869
sg63
(lp885
g56
(g57
g58
NtRp886
(dp887
g61
(dp888
g69
I4
ssg70
g882
sg63
(lp889
g56
(g65
g58
NtRp890
(dp891
g61
(dp892
g69
I3
ssg70
Nsg63
(lp893
sbasbasbasbag56
(g72
g58
NtRp894
(dp895
g61
(dp896
sg70
g821
sg63
(lp897
g56
(g77
g58
NtRp898
(dp899
g61
(dp900
g81
g82
ssg70
g894
sg63
(lp901
S'cmd_options'
p902
asbag56
(g77
g58
NtRp903
(dp904
g61
(dp905
g88
g89
ssg70
g894
sg63
(lp906
S':'
asbag56
(g77
g58
NtRp907
(dp908
g61
(dp909
sg70
g894
sg63
(lp910
g56
(g57
g58
NtRp911
(dp912
g61
(dp913
g69
I4
ssg70
g907
sg63
(lp914
S"<Values at 0x1018a1710: {'verbose': False, 'ip': '127.0.0.1', 'shutdown_timeout': 5, 'taskbar': False, 'port': 8000, 'maxthreads': None, 'softcron': False, 'server_name': 'Magnus-Specialis.local', 'bpython': False, 'nogui': False, 'nocron': False, 'extcron': False, 'debuglevel': 30, 'test': None, 'folder': '/Users/schultzc/workspace/wherespuppet/web2py', 'config': '', 'import_models': False, 'winservice': '', 'shell': None, 'run': '', 'log_filename': 'httpserver.log', 'args': [''], 'profiler_filename': None, 'ssl_private_key': '', 'password': '<ask>', 'request_queue_size': 5, 'ssl_certificate': '', 'cronjob': False, 'plain': False, 'quiet': False, 'interfaces': None, 'minthreads': None, 'timeout': 10, 'numthreads': None, 'nobanner': False, 'pid_filename': 'httpserver.pid'}>"
p915
asbasbasbag56
(g72
g58
NtRp916
(dp917
g61
(dp918
sg70
g821
sg63
(lp919
g56
(g77
g58
NtRp920
(dp921
g61
(dp922
g81
g82
ssg70
g916
sg63
(lp923
S'db_sessions'
p924
asbag56
(g77
g58
NtRp925
(dp926
g61
(dp927
g88
g89
ssg70
g916
sg63
(lp928
S':'
asbag56
(g77
g58
NtRp929
(dp930
g61
(dp931
sg70
g916
sg63
(lp932
g56
(g57
g58
NtRp933
(dp934
g61
(dp935
g69
I4
ssg70
g929
sg63
(lp936
S'set([])'
p937
asbasbasbag56
(g72
g58
NtRp938
(dp939
g61
(dp940
sg70
g821
sg63
(lp941
g56
(g77
g58
NtRp942
(dp943
g61
(dp944
g81
g82
ssg70
g938
sg63
(lp945
S'debugging'
p946
asbag56
(g77
g58
NtRp947
(dp948
g61
(dp949
g88
g89
ssg70
g938
sg63
(lp950
S':'
asbag56
(g77
g58
NtRp951
(dp952
g61
(dp953
sg70
g938
sg63
(lp954
g56
(g57
g58
NtRp955
(dp956
g61
(dp957
g69
I4
ssg70
g951
sg63
(lp958
g99
asbasbasbag56
(g72
g58
NtRp959
(dp960
g61
(dp961
sg70
g821
sg63
(lp962
g56
(g77
g58
NtRp963
(dp964
g61
(dp965
g81
g82
ssg70
g959
sg63
(lp966
S'gluon_parent'
p967
asbag56
(g77
g58
NtRp968
(dp969
g61
(dp970
g88
g89
ssg70
g959
sg63
(lp971
S':'
asbag56
(g77
g58
NtRp972
(dp973
g61
(dp974
sg70
g959
sg63
(lp975
g56
(g57
g58
NtRp976
(dp977
g61
(dp978
g69
I4
ssg70
g972
sg63
(lp979
S'/Users/schultzc/workspace/wherespuppet/web2py'
p980
asbasbasbag56
(g72
g58
NtRp981
(dp982
g61
(dp983
sg70
g821
sg63
(lp984
g56
(g77
g58
NtRp985
(dp986
g61
(dp987
g81
g82
ssg70
g981
sg63
(lp988
S'http_accept'
p989
asbag56
(g77
g58
NtRp990
(dp991
g61
(dp992
g88
g89
ssg70
g981
sg63
(lp993
S':'
asbag56
(g77
g58
NtRp994
(dp995
g61
(dp996
sg70
g981
sg63
(lp997
g56
(g57
g58
NtRp998
(dp999
g61
(dp1000
g69
I4
ssg70
g994
sg63
(lp1001
S'text/html,application/xhtml+xml,application/xml;q=0.9,*/*;q=0.8'
p1002
asbasbasbag56
(g72
g58
NtRp1003
(dp1004
g61
(dp1005
sg70
g821
sg63
(lp1006
g56
(g77
g58
NtRp1007
(dp1008
g61
(dp1009
g81
g82
ssg70
g1003
sg63
(lp1010
S'http_accept_charset'
p1011
asbag56
(g77
g58
NtRp1012
(dp1013
g61
(dp1014
g88
g89
ssg70
g1003
sg63
(lp1015
S':'
asbag56
(g77
g58
NtRp1016
(dp1017
g61
(dp1018
sg70
g1003
sg63
(lp1019
g56
(g57
g58
NtRp1020
(dp1021
g61
(dp1022
g69
I4
ssg70
g1016
sg63
(lp1023
S'ISO-8859-1,utf-8;q=0.7,*;q=0.3'
p1024
asbasbasbag56
(g72
g58
NtRp1025
(dp1026
g61
(dp1027
sg70
g821
sg63
(lp1028
g56
(g77
g58
NtRp1029
(dp1030
g61
(dp1031
g81
g82
ssg70
g1025
sg63
(lp1032
S'http_accept_encoding'
p1033
asbag56
(g77
g58
NtRp1034
(dp1035
g61
(dp1036
g88
g89
ssg70
g1025
sg63
(lp1037
S':'
asbag56
(g77
g58
NtRp1038
(dp1039
g61
(dp1040
sg70
g1025
sg63
(lp1041
g56
(g57
g58
NtRp1042
(dp1043
g61
(dp1044
g69
I4
ssg70
g1038
sg63
(lp1045
S'gzip,deflate,sdch'
p1046
asbasbasbag56
(g72
g58
NtRp1047
(dp1048
g61
(dp1049
sg70
g821
sg63
(lp1050
g56
(g77
g58
NtRp1051
(dp1052
g61
(dp1053
g81
g82
ssg70
g1047
sg63
(lp1054
S'http_accept_language'
p1055
asbag56
(g77
g58
NtRp1056
(dp1057
g61
(dp1058
g88
g89
ssg70
g1047
sg63
(lp1059
S':'
asbag56
(g77
g58
NtRp1060
(dp1061
g61
(dp1062
sg70
g1047
sg63
(lp1063
g56
(g57
g58
NtRp1064
(dp1065
g61
(dp1066
g69
I4
ssg70
g1060
sg63
(lp1067
S'en-US,en;q=0.8'
p1068
asbasbasbag56
(g72
g58
NtRp1069
(dp1070
g61
(dp1071
sg70
g821
sg63
(lp1072
g56
(g77
g58
NtRp1073
(dp1074
g61
(dp1075
g81
g82
ssg70
g1069
sg63
(lp1076
S'http_connection'
p1077
asbag56
(g77
g58
NtRp1078
(dp1079
g61
(dp1080
g88
g89
ssg70
g1069
sg63
(lp1081
S':'
asbag56
(g77
g58
NtRp1082
(dp1083
g61
(dp1084
sg70
g1069
sg63
(lp1085
g56
(g57
g58
NtRp1086
(dp1087
g61
(dp1088
g69
I4
ssg70
g1082
sg63
(lp1089
S'keep-alive'
p1090
asbasbasbag56
(g72
g58
NtRp1091
(dp1092
g61
(dp1093
sg70
g821
sg63
(lp1094
g56
(g77
g58
NtRp1095
(dp1096
g61
(dp1097
g81
g82
ssg70
g1091
sg63
(lp1098
S'http_cookie'
p1099
asbag56
(g77
g58
NtRp1100
(dp1101
g61
(dp1102
g88
g89
ssg70
g1091
sg63
(lp1103
S':'
asbag56
(g77
g58
NtRp1104
(dp1105
g61
(dp1106
sg70
g1091
sg63
(lp1107
g56
(g57
g58
NtRp1108
(dp1109
g61
(dp1110
g69
I4
ssg70
g1104
sg63
(lp1111
S'session_id_admin=127.0.0.1-96e3e985-1d75-494d-80d3-5d4de639a88c; session_id_wp=127.0.0.1-e6593033-928d-4684-9c9b-143a7e4c503a; session_id_welcome=127.0.0.1-a0cfb202-ecfd-4085-926b-c158c8a6e7a8'
p1112
asbasbasbag56
(g72
g58
NtRp1113
(dp1114
g61
(dp1115
sg70
g821
sg63
(lp1116
g56
(g77
g58
NtRp1117
(dp1118
g61
(dp1119
g81
g82
ssg70
g1113
sg63
(lp1120
S'http_host'
p1121
asbag56
(g77
g58
NtRp1122
(dp1123
g61
(dp1124
g88
g89
ssg70
g1113
sg63
(lp1125
S':'
asbag56
(g77
g58
NtRp1126
(dp1127
g61
(dp1128
sg70
g1113
sg63
(lp1129
g56
(g57
g58
NtRp1130
(dp1131
g61
(dp1132
g69
I4
ssg70
g1126
sg63
(lp1133
S'localhost:8000'
p1134
asbasbasbag56
(g72
g58
NtRp1135
(dp1136
g61
(dp1137
sg70
g821
sg63
(lp1138
g56
(g77
g58
NtRp1139
(dp1140
g61
(dp1141
g81
g82
ssg70
g1135
sg63
(lp1142
S'http_user_agent'
p1143
asbag56
(g77
g58
NtRp1144
(dp1145
g61
(dp1146
g88
g89
ssg70
g1135
sg63
(lp1147
S':'
asbag56
(g77
g58
NtRp1148
(dp1149
g61
(dp1150
sg70
g1135
sg63
(lp1151
g56
(g57
g58
NtRp1152
(dp1153
g61
(dp1154
g69
I4
ssg70
g1148
sg63
(lp1155
S'Mozilla/5.0 (Macintosh; Intel Mac OS X 10_7_2) AppleWebKit/535.7 (KHTML, like Gecko) Chrome/16.0.912.77 Safari/535.7'
p1156
asbasbasbag56
(g72
g58
NtRp1157
(dp1158
g61
(dp1159
sg70
g821
sg63
(lp1160
g56
(g77
g58
NtRp1161
(dp1162
g61
(dp1163
g81
g82
ssg70
g1157
sg63
(lp1164
S'path_info'
p1165
asbag56
(g77
g58
NtRp1166
(dp1167
g61
(dp1168
g88
g89
ssg70
g1157
sg63
(lp1169
S':'
asbag56
(g77
g58
NtRp1170
(dp1171
g61
(dp1172
sg70
g1157
sg63
(lp1173
g56
(g57
g58
NtRp1174
(dp1175
g61
(dp1176
g69
I4
ssg70
g1170
sg63
(lp1177
S'/wp'
p1178
asbasbasbag56
(g72
g58
NtRp1179
(dp1180
g61
(dp1181
sg70
g821
sg63
(lp1182
g56
(g77
g58
NtRp1183
(dp1184
g61
(dp1185
g81
g82
ssg70
g1179
sg63
(lp1186
S'query_string'
p1187
asbag56
(g77
g58
NtRp1188
(dp1189
g61
(dp1190
g88
g89
ssg70
g1179
sg63
(lp1191
S':'
asbag56
(g77
g58
NtRp1192
(dp1193
g61
(dp1194
sg70
g1179
sg63
(lp1195
g56
(g57
g58
NtRp1196
(dp1197
g61
(dp1198
g69
I4
ssg70
g1192
sg63
(lp1199
S''
asbasbasbag56
(g72
g58
NtRp1200
(dp1201
g61
(dp1202
sg70
g821
sg63
(lp1203
g56
(g77
g58
NtRp1204
(dp1205
g61
(dp1206
g81
g82
ssg70
g1200
sg63
(lp1207
S'remote_addr'
p1208
asbag56
(g77
g58
NtRp1209
(dp1210
g61
(dp1211
g88
g89
ssg70
g1200
sg63
(lp1212
S':'
asbag56
(g77
g58
NtRp1213
(dp1214
g61
(dp1215
sg70
g1200
sg63
(lp1216
g56
(g57
g58
NtRp1217
(dp1218
g61
(dp1219
g69
I4
ssg70
g1213
sg63
(lp1220
g189
asbasbasbag56
(g72
g58
NtRp1221
(dp1222
g61
(dp1223
sg70
g821
sg63
(lp1224
g56
(g77
g58
NtRp1225
(dp1226
g61
(dp1227
g81
g82
ssg70
g1221
sg63
(lp1228
S'remote_port'
p1229
asbag56
(g77
g58
NtRp1230
(dp1231
g61
(dp1232
g88
g89
ssg70
g1221
sg63
(lp1233
S':'
asbag56
(g77
g58
NtRp1234
(dp1235
g61
(dp1236
sg70
g1221
sg63
(lp1237
g56
(g57
g58
NtRp1238
(dp1239
g61
(dp1240
g69
I4
ssg70
g1234
sg63
(lp1241
S'49948'
p1242
asbasbasbag56
(g72
g58
NtRp1243
(dp1244
g61
(dp1245
sg70
g821
sg63
(lp1246
g56
(g77
g58
NtRp1247
(dp1248
g61
(dp1249
g81
g82
ssg70
g1243
sg63
(lp1250
S'request_method'
p1251
asbag56
(g77
g58
NtRp1252
(dp1253
g61
(dp1254
g88
g89
ssg70
g1243
sg63
(lp1255
S':'
asbag56
(g77
g58
NtRp1256
(dp1257
g61
(dp1258
sg70
g1243
sg63
(lp1259
g56
(g57
g58
NtRp1260
(dp1261
g61
(dp1262
g69
I4
ssg70
g1256
sg63
(lp1263
S'GET'
p1264
asbasbasbag56
(g72
g58
NtRp1265
(dp1266
g61
(dp1267
sg70
g821
sg63
(lp1268
g56
(g77
g58
NtRp1269
(dp1270
g61
(dp1271
g81
g82
ssg70
g1265
sg63
(lp1272
S'script_name'
p1273
asbag56
(g77
g58
NtRp1274
(dp1275
g61
(dp1276
g88
g89
ssg70
g1265
sg63
(lp1277
S':'
asbag56
(g77
g58
NtRp1278
(dp1279
g61
(dp1280
sg70
g1265
sg63
(lp1281
g56
(g57
g58
NtRp1282
(dp1283
g61
(dp1284
g69
I4
ssg70
g1278
sg63
(lp1285
S''
asbasbasbag56
(g72
g58
NtRp1286
(dp1287
g61
(dp1288
sg70
g821
sg63
(lp1289
g56
(g77
g58
NtRp1290
(dp1291
g61
(dp1292
g81
g82
ssg70
g1286
sg63
(lp1293
S'server_name'
p1294
asbag56
(g77
g58
NtRp1295
(dp1296
g61
(dp1297
g88
g89
ssg70
g1286
sg63
(lp1298
S':'
asbag56
(g77
g58
NtRp1299
(dp1300
g61
(dp1301
sg70
g1286
sg63
(lp1302
g56
(g57
g58
NtRp1303
(dp1304
g61
(dp1305
g69
I4
ssg70
g1299
sg63
(lp1306
S'Magnus-Specialis.local'
p1307
asbasbasbag56
(g72
g58
NtRp1308
(dp1309
g61
(dp1310
sg70
g821
sg63
(lp1311
g56
(g77
g58
NtRp1312
(dp1313
g61
(dp1314
g81
g82
ssg70
g1308
sg63
(lp1315
S'server_port'
p1316
asbag56
(g77
g58
NtRp1317
(dp1318
g61
(dp1319
g88
g89
ssg70
g1308
sg63
(lp1320
S':'
asbag56
(g77
g58
NtRp1321
(dp1322
g61
(dp1323
sg70
g1308
sg63
(lp1324
g56
(g57
g58
NtRp1325
(dp1326
g61
(dp1327
g69
I4
ssg70
g1321
sg63
(lp1328
S'8000'
p1329
asbasbasbag56
(g72
g58
NtRp1330
(dp1331
g61
(dp1332
sg70
g821
sg63
(lp1333
g56
(g77
g58
NtRp1334
(dp1335
g61
(dp1336
g81
g82
ssg70
g1330
sg63
(lp1337
S'server_protocol'
p1338
asbag56
(g77
g58
NtRp1339
(dp1340
g61
(dp1341
g88
g89
ssg70
g1330
sg63
(lp1342
S':'
asbag56
(g77
g58
NtRp1343
(dp1344
g61
(dp1345
sg70
g1330
sg63
(lp1346
g56
(g57
g58
NtRp1347
(dp1348
g61
(dp1349
g69
I4
ssg70
g1343
sg63
(lp1350
S'HTTP/1.1'
p1351
asbasbasbag56
(g72
g58
NtRp1352
(dp1353
g61
(dp1354
sg70
g821
sg63
(lp1355
g56
(g77
g58
NtRp1356
(dp1357
g61
(dp1358
g81
g82
ssg70
g1352
sg63
(lp1359
S'server_software'
p1360
asbag56
(g77
g58
NtRp1361
(dp1362
g61
(dp1363
g88
g89
ssg70
g1352
sg63
(lp1364
S':'
asbag56
(g77
g58
NtRp1365
(dp1366
g61
(dp1367
sg70
g1352
sg63
(lp1368
g56
(g57
g58
NtRp1369
(dp1370
g61
(dp1371
g69
I4
ssg70
g1365
sg63
(lp1372
S'Rocket 1.2.2'
p1373
asbasbasbag56
(g72
g58
NtRp1374
(dp1375
g61
(dp1376
sg70
g821
sg63
(lp1377
g56
(g77
g58
NtRp1378
(dp1379
g61
(dp1380
g81
g82
ssg70
g1374
sg63
(lp1381
S'web2py_crontype'
p1382
asbag56
(g77
g58
NtRp1383
(dp1384
g61
(dp1385
g88
g89
ssg70
g1374
sg63
(lp1386
S':'
asbag56
(g77
g58
NtRp1387
(dp1388
g61
(dp1389
sg70
g1374
sg63
(lp1390
g56
(g57
g58
NtRp1391
(dp1392
g61
(dp1393
g69
I4
ssg70
g1387
sg63
(lp1394
S'hard'
p1395
asbasbasbag56
(g72
g58
NtRp1396
(dp1397
g61
(dp1398
sg70
g821
sg63
(lp1399
g56
(g77
g58
NtRp1400
(dp1401
g61
(dp1402
g81
g82
ssg70
g1396
sg63
(lp1403
S'web2py_path'
p1404
asbag56
(g77
g58
NtRp1405
(dp1406
g61
(dp1407
g88
g89
ssg70
g1396
sg63
(lp1408
S':'
asbag56
(g77
g58
NtRp1409
(dp1410
g61
(dp1411
sg70
g1396
sg63
(lp1412
g56
(g57
g58
NtRp1413
(dp1414
g61
(dp1415
g69
I4
ssg70
g1409
sg63
(lp1416
g868
asbasbasbag56
(g72
g58
NtRp1417
(dp1418
g61
(dp1419
sg70
g821
sg63
(lp1420
g56
(g77
g58
NtRp1421
(dp1422
g61
(dp1423
g81
g82
ssg70
g1417
sg63
(lp1424
S'web2py_version'
p1425
asbag56
(g77
g58
NtRp1426
(dp1427
g61
(dp1428
g88
g89
ssg70
g1417
sg63
(lp1429
S':'
asbag56
(g77
g58
NtRp1430
(dp1431
g61
(dp1432
sg70
g1417
sg63
(lp1433
g56
(g57
g58
NtRp1434
(dp1435
g61
(dp1436
g69
I4
ssg70
g1430
sg63
(lp1437
S'Version 1.97.1 (2011-06-26 19:25:44)\n'
p1438
asbasbasbag56
(g72
g58
NtRp1439
(dp1440
g61
(dp1441
sg70
g821
sg63
(lp1442
g56
(g77
g58
NtRp1443
(dp1444
g61
(dp1445
g81
g82
ssg70
g1439
sg63
(lp1446
S'wsgi_errors'
p1447
asbag56
(g77
g58
NtRp1448
(dp1449
g61
(dp1450
g88
g89
ssg70
g1439
sg63
(lp1451
S':'
asbag56
(g77
g58
NtRp1452
(dp1453
g61
(dp1454
sg70
g1439
sg63
(lp1455
g56
(g57
g58
NtRp1456
(dp1457
g61
(dp1458
g69
I4
ssg70
g1452
sg63
(lp1459
S"<open file '<stderr>', mode 'w' at 0x100281270>"
p1460
asbasbasbag56
(g72
g58
NtRp1461
(dp1462
g61
(dp1463
sg70
g821
sg63
(lp1464
g56
(g77
g58
NtRp1465
(dp1466
g61
(dp1467
g81
g82
ssg70
g1461
sg63
(lp1468
S'wsgi_file_wrapper'
p1469
asbag56
(g77
g58
NtRp1470
(dp1471
g61
(dp1472
g88
g89
ssg70
g1461
sg63
(lp1473
S':'
asbag56
(g77
g58
NtRp1474
(dp1475
g61
(dp1476
sg70
g1461
sg63
(lp1477
g56
(g57
g58
NtRp1478
(dp1479
g61
(dp1480
g69
I4
ssg70
g1474
sg63
(lp1481
S'<class gluon.rocket.FileWrapper at 0x1016ba120>'
p1482
asbasbasbag56
(g72
g58
NtRp1483
(dp1484
g61
(dp1485
sg70
g821
sg63
(lp1486
g56
(g77
g58
NtRp1487
(dp1488
g61
(dp1489
g81
g82
ssg70
g1483
sg63
(lp1490
S'wsgi_input'
p1491
asbag56
(g77
g58
NtRp1492
(dp1493
g61
(dp1494
g88
g89
ssg70
g1483
sg63
(lp1495
S':'
asbag56
(g77
g58
NtRp1496
(dp1497
g61
(dp1498
sg70
g1483
sg63
(lp1499
g56
(g57
g58
NtRp1500
(dp1501
g61
(dp1502
g69
I4
ssg70
g1496
sg63
(lp1503
S'<socket._fileobject object at 0x1081152d0>'
p1504
asbasbasbag56
(g72
g58
NtRp1505
(dp1506
g61
(dp1507
sg70
g821
sg63
(lp1508
g56
(g77
g58
NtRp1509
(dp1510
g61
(dp1511
g81
g82
ssg70
g1505
sg63
(lp1512
S'wsgi_multiprocess'
p1513
asbag56
(g77
g58
NtRp1514
(dp1515
g61
(dp1516
g88
g89
ssg70
g1505
sg63
(lp1517
S':'
asbag56
(g77
g58
NtRp1518
(dp1519
g61
(dp1520
sg70
g1505
sg63
(lp1521
g56
(g57
g58
NtRp1522
(dp1523
g61
(dp1524
g69
I4
ssg70
g1518
sg63
(lp1525
g99
asbasbasbag56
(g72
g58
NtRp1526
(dp1527
g61
(dp1528
sg70
g821
sg63
(lp1529
g56
(g77
g58
NtRp1530
(dp1531
g61
(dp1532
g81
g82
ssg70
g1526
sg63
(lp1533
S'wsgi_multithread'
p1534
asbag56
(g77
g58
NtRp1535
(dp1536
g61
(dp1537
g88
g89
ssg70
g1526
sg63
(lp1538
S':'
asbag56
(g77
g58
NtRp1539
(dp1540
g61
(dp1541
sg70
g1526
sg63
(lp1542
g56
(g57
g58
NtRp1543
(dp1544
g61
(dp1545
g69
I4
ssg70
g1539
sg63
(lp1546
S'True'
p1547
asbasbasbag56
(g72
g58
NtRp1548
(dp1549
g61
(dp1550
sg70
g821
sg63
(lp1551
g56
(g77
g58
NtRp1552
(dp1553
g61
(dp1554
g81
g82
ssg70
g1548
sg63
(lp1555
S'wsgi_run_once'
p1556
asbag56
(g77
g58
NtRp1557
(dp1558
g61
(dp1559
g88
g89
ssg70
g1548
sg63
(lp1560
S':'
asbag56
(g77
g58
NtRp1561
(dp1562
g61
(dp1563
sg70
g1548
sg63
(lp1564
g56
(g57
g58
NtRp1565
(dp1566
g61
(dp1567
g69
I4
ssg70
g1561
sg63
(lp1568
g99
asbasbasbag56
(g72
g58
NtRp1569
(dp1570
g61
(dp1571
sg70
g821
sg63
(lp1572
g56
(g77
g58
NtRp1573
(dp1574
g61
(dp1575
g81
g82
ssg70
g1569
sg63
(lp1576
S'wsgi_url_scheme'
p1577
asbag56
(g77
g58
NtRp1578
(dp1579
g61
(dp1580
g88
g89
ssg70
g1569
sg63
(lp1581
S':'
asbag56
(g77
g58
NtRp1582
(dp1583
g61
(dp1584
sg70
g1569
sg63
(lp1585
g56
(g57
g58
NtRp1586
(dp1587
g61
(dp1588
g69
I4
ssg70
g1582
sg63
(lp1589
S'http'
p1590
asbasbasbag56
(g72
g58
NtRp1591
(dp1592
g61
(dp1593
sg70
g821
sg63
(lp1594
g56
(g77
g58
NtRp1595
(dp1596
g61
(dp1597
g81
g82
ssg70
g1591
sg63
(lp1598
S'wsgi_version'
p1599
asbag56
(g77
g58
NtRp1600
(dp1601
g61
(dp1602
g88
g89
ssg70
g1591
sg63
(lp1603
S':'
asbag56
(g77
g58
NtRp1604
(dp1605
g61
(dp1606
sg70
g1591
sg63
(lp1607
g56
(g57
g58
NtRp1608
(dp1609
g61
(dp1610
g69
I4
ssg70
g1604
sg63
(lp1611
g56
(g65
g58
NtRp1612
(dp1613
g61
(dp1614
g69
I3
ssg70
Nsg63
(lp1615
g56
(g72
g58
NtRp1616
(dp1617
g61
(dp1618
sg70
g1612
sg63
(lp1619
g56
(g77
g58
NtRp1620
(dp1621
g61
(dp1622
sg70
g1616
sg63
(lp1623
g56
(g57
g58
NtRp1624
(dp1625
g61
(dp1626
g69
I3
ssg70
g1620
sg63
(lp1627
S'1'
asbasbasbag56
(g72
g58
NtRp1628
(dp1629
g61
(dp1630
sg70
g1612
sg63
(lp1631
g56
(g77
g58
NtRp1632
(dp1633
g61
(dp1634
sg70
g1628
sg63
(lp1635
g56
(g57
g58
NtRp1636
(dp1637
g61
(dp1638
g69
I3
ssg70
g1632
sg63
(lp1639
S'0'
asbasbasbasbasbasbasbasbasbasbasbag56
(g72
g58
NtRp1640
(dp1641
g61
(dp1642
sg70
g66
sg63
(lp1643
g56
(g77
g58
NtRp1644
(dp1645
g61
(dp1646
g81
g82
ssg70
g1640
sg63
(lp1647
S'extension'
p1648
asbag56
(g77
g58
NtRp1649
(dp1650
g61
(dp1651
g88
g89
ssg70
g1640
sg63
(lp1652
S':'
asbag56
(g77
g58
NtRp1653
(dp1654
g61
(dp1655
sg70
g1640
sg63
(lp1656
g56
(g57
g58
NtRp1657
(dp1658
g61
(dp1659
g69
I5
ssg70
g1653
sg63
(lp1660
S'html'
p1661
asbasbasbag56
(g72
g58
NtRp1662
(dp1663
g61
(dp1664
sg70
g66
sg63
(lp1665
g56
(g77
g58
NtRp1666
(dp1667
g61
(dp1668
g81
g82
ssg70
g1662
sg63
(lp1669
S'folder'
p1670
asbag56
(g77
g58
NtRp1671
(dp1672
g61
(dp1673
g88
g89
ssg70
g1662
sg63
(lp1674
S':'
asbag56
(g77
g58
NtRp1675
(dp1676
g61
(dp1677
sg70
g1662
sg63
(lp1678
g56
(g57
g58
NtRp1679
(dp1680
g61
(dp1681
g69
I5
ssg70
g1675
sg63
(lp1682
S'/Users/schultzc/workspace/wherespuppet/web2py/applications/wp/'
p1683
asbasbasbag56
(g72
g58
NtRp1684
(dp1685
g61
(dp1686
sg70
g66
sg63
(lp1687
g56
(g77
g58
NtRp1688
(dp1689
g61
(dp1690
g81
g82
ssg70
g1684
sg63
(lp1691
S'function'
p1692
asbag56
(g77
g58
NtRp1693
(dp1694
g61
(dp1695
g88
g89
ssg70
g1684
sg63
(lp1696
S':'
asbag56
(g77
g58
NtRp1697
(dp1698
g61
(dp1699
sg70
g1684
sg63
(lp1700
g56
(g57
g58
NtRp1701
(dp1702
g61
(dp1703
g69
I5
ssg70
g1697
sg63
(lp1704
S'index'
p1705
asbasbasbag56
(g72
g58
NtRp1706
(dp1707
g61
(dp1708
sg70
g66
sg63
(lp1709
g56
(g77
g58
NtRp1710
(dp1711
g61
(dp1712
g81
g82
ssg70
g1706
sg63
(lp1713
S'get_vars'
p1714
asbag56
(g77
g58
NtRp1715
(dp1716
g61
(dp1717
g88
g89
ssg70
g1706
sg63
(lp1718
S':'
asbag56
(g77
g58
NtRp1719
(dp1720
g61
(dp1721
sg70
g1706
sg63
(lp1722
g56
(g57
g58
NtRp1723
(dp1724
g61
(dp1725
g69
I5
ssg70
g1719
sg63
(lp1726
g56
(g65
g58
NtRp1727
(dp1728
g61
(dp1729
g69
I4
ssg70
Nsg63
(lp1730
sbasbasbasbag56
(g72
g58
NtRp1731
(dp1732
g61
(dp1733
sg70
g66
sg63
(lp1734
g56
(g77
g58
NtRp1735
(dp1736
g61
(dp1737
g81
g82
ssg70
g1731
sg63
(lp1738
S'is_https'
p1739
asbag56
(g77
g58
NtRp1740
(dp1741
g61
(dp1742
g88
g89
ssg70
g1731
sg63
(lp1743
S':'
asbag56
(g77
g58
NtRp1744
(dp1745
g61
(dp1746
sg70
g1731
sg63
(lp1747
g56
(g57
g58
NtRp1748
(dp1749
g61
(dp1750
g69
I5
ssg70
g1744
sg63
(lp1751
g99
asbasbasbag56
(g72
g58
NtRp1752
(dp1753
g61
(dp1754
sg70
g66
sg63
(lp1755
g56
(g77
g58
NtRp1756
(dp1757
g61
(dp1758
g81
g82
ssg70
g1752
sg63
(lp1759
S'is_local'
p1760
asbag56
(g77
g58
NtRp1761
(dp1762
g61
(dp1763
g88
g89
ssg70
g1752
sg63
(lp1764
S':'
asbag56
(g77
g58
NtRp1765
(dp1766
g61
(dp1767
sg70
g1752
sg63
(lp1768
g56
(g57
g58
NtRp1769
(dp1770
g61
(dp1771
g69
I5
ssg70
g1765
sg63
(lp1772
g1547
asbasbasbag56
(g72
g58
NtRp1773
(dp1774
g61
(dp1775
sg70
g66
sg63
(lp1776
g56
(g77
g58
NtRp1777
(dp1778
g61
(dp1779
g81
g82
ssg70
g1773
sg63
(lp1780
S'is_restful'
p1781
asbag56
(g77
g58
NtRp1782
(dp1783
g61
(dp1784
g88
g89
ssg70
g1773
sg63
(lp1785
S':'
asbag56
(g77
g58
NtRp1786
(dp1787
g61
(dp1788
sg70
g1773
sg63
(lp1789
g56
(g57
g58
NtRp1790
(dp1791
g61
(dp1792
g69
I5
ssg70
g1786
sg63
(lp1793
g99
asbasbasbag56
(g72
g58
NtRp1794
(dp1795
g61
(dp1796
sg70
g66
sg63
(lp1797
g56
(g77
g58
NtRp1798
(dp1799
g61
(dp1800
g81
g82
ssg70
g1794
sg63
(lp1801
S'now'
p1802
asbag56
(g77
g58
NtRp1803
(dp1804
g61
(dp1805
g88
g89
ssg70
g1794
sg63
(lp1806
S':'
asbag56
(g77
g58
NtRp1807
(dp1808
g61
(dp1809
sg70
g1794
sg63
(lp1810
g56
(g57
g58
NtRp1811
(dp1812
g61
(dp1813
g69
I5
ssg70
g1807
sg63
(lp1814
S'datetime.datetime(2012, 2, 16, 23, 45, 49, 88107)'
p1815
asbasbasbag56
(g72
g58
NtRp1816
(dp1817
g61
(dp1818
sg70
g66
sg63
(lp1819
g56
(g77
g58
NtRp1820
(dp1821
g61
(dp1822
g81
g82
ssg70
g1816
sg63
(lp1823
S'post_vars'
p1824
asbag56
(g77
g58
NtRp1825
(dp1826
g61
(dp1827
g88
g89
ssg70
g1816
sg63
(lp1828
S':'
asbag56
(g77
g58
NtRp1829
(dp1830
g61
(dp1831
sg70
g1816
sg63
(lp1832
g56
(g57
g58
NtRp1833
(dp1834
g61
(dp1835
g69
I5
ssg70
g1829
sg63
(lp1836
g56
(g65
g58
NtRp1837
(dp1838
g61
(dp1839
g69
I4
ssg70
Nsg63
(lp1840
sbasbasbasbag56
(g72
g58
NtRp1841
(dp1842
g61
(dp1843
sg70
g66
sg63
(lp1844
g56
(g77
g58
NtRp1845
(dp1846
g61
(dp1847
g81
g82
ssg70
g1841
sg63
(lp1848
S'url'
p1849
asbag56
(g77
g58
NtRp1850
(dp1851
g61
(dp1852
g88
g89
ssg70
g1841
sg63
(lp1853
S':'
asbag56
(g77
g58
NtRp1854
(dp1855
g61
(dp1856
sg70
g1841
sg63
(lp1857
g56
(g57
g58
NtRp1858
(dp1859
g61
(dp1860
g69
I5
ssg70
g1854
sg63
(lp1861
S'/wp/default/index'
p1862
asbasbasbag56
(g72
g58
NtRp1863
(dp1864
g61
(dp1865
sg70
g66
sg63
(lp1866
g56
(g77
g58
NtRp1867
(dp1868
g61
(dp1869
g81
g82
ssg70
g1863
sg63
(lp1870
S'uuid'
p1871
asbag56
(g77
g58
NtRp1872
(dp1873
g61
(dp1874
g88
g89
ssg70
g1863
sg63
(lp1875
S':'
asbag56
(g77
g58
NtRp1876
(dp1877
g61
(dp1878
sg70
g1863
sg63
(lp1879
g56
(g57
g58
NtRp1880
(dp1881
g61
(dp1882
g69
I5
ssg70
g1876
sg63
(lp1883
S'wp/127.0.0.1.2012-02-16.23-45-49.a28d5b1b-2891-484f-ab2b-5f0404be3a3e'
p1884
asbasbasbag56
(g72
g58
NtRp1885
(dp1886
g61
(dp1887
sg70
g66
sg63
(lp1888
g56
(g77
g58
NtRp1889
(dp1890
g61
(dp1891
g81
g82
ssg70
g1885
sg63
(lp1892
S'vars'
p1893
asbag56
(g77
g58
NtRp1894
(dp1895
g61
(dp1896
g88
g89
ssg70
g1885
sg63
(lp1897
S':'
asbag56
(g77
g58
NtRp1898
(dp1899
g61
(dp1900
sg70
g1885
sg63
(lp1901
g56
(g57
g58
NtRp1902
(dp1903
g61
(dp1904
g69
I5
ssg70
g1898
sg63
(lp1905
g56
(g65
g58
NtRp1906
(dp1907
g61
(dp1908
g69
I4
ssg70
Nsg63
(lp1909
sbasbasbasbag56
(g72
g58
NtRp1910
(dp1911
g61
(dp1912
sg70
g66
sg63
(lp1913
g56
(g77
g58
NtRp1914
(dp1915
g61
(dp1916
g81
g82
ssg70
g1910
sg63
(lp1917
S'wsgi'
p1918
asbag56
(g77
g58
NtRp1919
(dp1920
g61
(dp1921
g88
g89
ssg70
g1910
sg63
(lp1922
S':'
asbag56
(g77
g58
NtRp1923
(dp1924
g61
(dp1925
sg70
g1910
sg63
(lp1926
g56
(g57
g58
NtRp1927
(dp1928
g61
(dp1929
g69
I5
ssg70
g1923
sg63
(lp1930
g56
(g65
g58
NtRp1931
(dp1932
g61
(dp1933
g69
I4
ssg70
Nsg63
(lp1934
g56
(g72
g58
NtRp1935
(dp1936
g61
(dp1937
sg70
g1931
sg63
(lp1938
g56
(g77
g58
NtRp1939
(dp1940
g61
(dp1941
g81
g82
ssg70
g1935
sg63
(lp1942
S'environ'
p1943
asbag56
(g77
g58
NtRp1944
(dp1945
g61
(dp1946
g88
g89
ssg70
g1935
sg63
(lp1947
S':'
asbag56
(g77
g58
NtRp1948
(dp1949
g61
(dp1950
sg70
g1935
sg63
(lp1951
g56
(g57
g58
NtRp1952
(dp1953
g61
(dp1954
g69
I4
ssg70
g1948
sg63
(lp1955
g56
(g65
g58
NtRp1956
(dp1957
g61
(dp1958
g69
I3
ssg70
Nsg63
(lp1959
g56
(g72
g58
NtRp1960
(dp1961
g61
(dp1962
sg70
g1956
sg63
(lp1963
g56
(g77
g58
NtRp1964
(dp1965
g61
(dp1966
g81
g82
ssg70
g1960
sg63
(lp1967
S'HTTP_ACCEPT'
p1968
asbag56
(g77
g58
NtRp1969
(dp1970
g61
(dp1971
g88
g89
ssg70
g1960
sg63
(lp1972
S':'
asbag56
(g77
g58
NtRp1973
(dp1974
g61
(dp1975
sg70
g1960
sg63
(lp1976
g56
(g57
g58
NtRp1977
(dp1978
g61
(dp1979
g69
I3
ssg70
g1973
sg63
(lp1980
g1002
asbasbasbag56
(g72
g58
NtRp1981
(dp1982
g61
(dp1983
sg70
g1956
sg63
(lp1984
g56
(g77
g58
NtRp1985
(dp1986
g61
(dp1987
g81
g82
ssg70
g1981
sg63
(lp1988
S'HTTP_ACCEPT_CHARSET'
p1989
asbag56
(g77
g58
NtRp1990
(dp1991
g61
(dp1992
g88
g89
ssg70
g1981
sg63
(lp1993
S':'
asbag56
(g77
g58
NtRp1994
(dp1995
g61
(dp1996
sg70
g1981
sg63
(lp1997
g56
(g57
g58
NtRp1998
(dp1999
g61
(dp2000
g69
I3
ssg70
g1994
sg63
(lp2001
g1024
asbasbasbag56
(g72
g58
NtRp2002
(dp2003
g61
(dp2004
sg70
g1956
sg63
(lp2005
g56
(g77
g58
NtRp2006
(dp2007
g61
(dp2008
g81
g82
ssg70
g2002
sg63
(lp2009
S'HTTP_ACCEPT_ENCODING'
p2010
asbag56
(g77
g58
NtRp2011
(dp2012
g61
(dp2013
g88
g89
ssg70
g2002
sg63
(lp2014
S':'
asbag56
(g77
g58
NtRp2015
(dp2016
g61
(dp2017
sg70
g2002
sg63
(lp2018
g56
(g57
g58
NtRp2019
(dp2020
g61
(dp2021
g69
I3
ssg70
g2015
sg63
(lp2022
g1046
asbasbasbag56
(g72
g58
NtRp2023
(dp2024
g61
(dp2025
sg70
g1956
sg63
(lp2026
g56
(g77
g58
NtRp2027
(dp2028
g61
(dp2029
g81
g82
ssg70
g2023
sg63
(lp2030
S'HTTP_ACCEPT_LANGUAGE'
p2031
asbag56
(g77
g58
NtRp2032
(dp2033
g61
(dp2034
g88
g89
ssg70
g2023
sg63
(lp2035
S':'
asbag56
(g77
g58
NtRp2036
(dp2037
g61
(dp2038
sg70
g2023
sg63
(lp2039
g56
(g57
g58
NtRp2040
(dp2041
g61
(dp2042
g69
I3
ssg70
g2036
sg63
(lp2043
g1068
asbasbasbag56
(g72
g58
NtRp2044
(dp2045
g61
(dp2046
sg70
g1956
sg63
(lp2047
g56
(g77
g58
NtRp2048
(dp2049
g61
(dp2050
g81
g82
ssg70
g2044
sg63
(lp2051
S'HTTP_CONNECTION'
p2052
asbag56
(g77
g58
NtRp2053
(dp2054
g61
(dp2055
g88
g89
ssg70
g2044
sg63
(lp2056
S':'
asbag56
(g77
g58
NtRp2057
(dp2058
g61
(dp2059
sg70
g2044
sg63
(lp2060
g56
(g57
g58
NtRp2061
(dp2062
g61
(dp2063
g69
I3
ssg70
g2057
sg63
(lp2064
g1090
asbasbasbag56
(g72
g58
NtRp2065
(dp2066
g61
(dp2067
sg70
g1956
sg63
(lp2068
g56
(g77
g58
NtRp2069
(dp2070
g61
(dp2071
g81
g82
ssg70
g2065
sg63
(lp2072
S'HTTP_COOKIE'
p2073
asbag56
(g77
g58
NtRp2074
(dp2075
g61
(dp2076
g88
g89
ssg70
g2065
sg63
(lp2077
S':'
asbag56
(g77
g58
NtRp2078
(dp2079
g61
(dp2080
sg70
g2065
sg63
(lp2081
g56
(g57
g58
NtRp2082
(dp2083
g61
(dp2084
g69
I3
ssg70
g2078
sg63
(lp2085
g1112
asbasbasbag56
(g72
g58
NtRp2086
(dp2087
g61
(dp2088
sg70
g1956
sg63
(lp2089
g56
(g77
g58
NtRp2090
(dp2091
g61
(dp2092
g81
g82
ssg70
g2086
sg63
(lp2093
S'HTTP_HOST'
p2094
asbag56
(g77
g58
NtRp2095
(dp2096
g61
(dp2097
g88
g89
ssg70
g2086
sg63
(lp2098
S':'
asbag56
(g77
g58
NtRp2099
(dp2100
g61
(dp2101
sg70
g2086
sg63
(lp2102
g56
(g57
g58
NtRp2103
(dp2104
g61
(dp2105
g69
I3
ssg70
g2099
sg63
(lp2106
g1134
asbasbasbag56
(g72
g58
NtRp2107
(dp2108
g61
(dp2109
sg70
g1956
sg63
(lp2110
g56
(g77
g58
NtRp2111
(dp2112
g61
(dp2113
g81
g82
ssg70
g2107
sg63
(lp2114
S'HTTP_USER_AGENT'
p2115
asbag56
(g77
g58
NtRp2116
(dp2117
g61
(dp2118
g88
g89
ssg70
g2107
sg63
(lp2119
S':'
asbag56
(g77
g58
NtRp2120
(dp2121
g61
(dp2122
sg70
g2107
sg63
(lp2123
g56
(g57
g58
NtRp2124
(dp2125
g61
(dp2126
g69
I3
ssg70
g2120
sg63
(lp2127
g1156
asbasbasbag56
(g72
g58
NtRp2128
(dp2129
g61
(dp2130
sg70
g1956
sg63
(lp2131
g56
(g77
g58
NtRp2132
(dp2133
g61
(dp2134
g81
g82
ssg70
g2128
sg63
(lp2135
S'PATH_INFO'
p2136
asbag56
(g77
g58
NtRp2137
(dp2138
g61
(dp2139
g88
g89
ssg70
g2128
sg63
(lp2140
S':'
asbag56
(g77
g58
NtRp2141
(dp2142
g61
(dp2143
sg70
g2128
sg63
(lp2144
g56
(g57
g58
NtRp2145
(dp2146
g61
(dp2147
g69
I3
ssg70
g2141
sg63
(lp2148
g1178
asbasbasbag56
(g72
g58
NtRp2149
(dp2150
g61
(dp2151
sg70
g1956
sg63
(lp2152
g56
(g77
g58
NtRp2153
(dp2154
g61
(dp2155
g81
g82
ssg70
g2149
sg63
(lp2156
S'QUERY_STRING'
p2157
asbag56
(g77
g58
NtRp2158
(dp2159
g61
(dp2160
g88
g89
ssg70
g2149
sg63
(lp2161
S':'
asbag56
(g77
g58
NtRp2162
(dp2163
g61
(dp2164
sg70
g2149
sg63
(lp2165
g56
(g57
g58
NtRp2166
(dp2167
g61
(dp2168
g69
I3
ssg70
g2162
sg63
(lp2169
S''
asbasbasbag56
(g72
g58
NtRp2170
(dp2171
g61
(dp2172
sg70
g1956
sg63
(lp2173
g56
(g77
g58
NtRp2174
(dp2175
g61
(dp2176
g81
g82
ssg70
g2170
sg63
(lp2177
S'REMOTE_ADDR'
p2178
asbag56
(g77
g58
NtRp2179
(dp2180
g61
(dp2181
g88
g89
ssg70
g2170
sg63
(lp2182
S':'
asbag56
(g77
g58
NtRp2183
(dp2184
g61
(dp2185
sg70
g2170
sg63
(lp2186
g56
(g57
g58
NtRp2187
(dp2188
g61
(dp2189
g69
I3
ssg70
g2183
sg63
(lp2190
g189
asbasbasbag56
(g72
g58
NtRp2191
(dp2192
g61
(dp2193
sg70
g1956
sg63
(lp2194
g56
(g77
g58
NtRp2195
(dp2196
g61
(dp2197
g81
g82
ssg70
g2191
sg63
(lp2198
S'REMOTE_PORT'
p2199
asbag56
(g77
g58
NtRp2200
(dp2201
g61
(dp2202
g88
g89
ssg70
g2191
sg63
(lp2203
S':'
asbag56
(g77
g58
NtRp2204
(dp2205
g61
(dp2206
sg70
g2191
sg63
(lp2207
g56
(g57
g58
NtRp2208
(dp2209
g61
(dp2210
g69
I3
ssg70
g2204
sg63
(lp2211
g1242
asbasbasbag56
(g72
g58
NtRp2212
(dp2213
g61
(dp2214
sg70
g1956
sg63
(lp2215
g56
(g77
g58
NtRp2216
(dp2217
g61
(dp2218
g81
g82
ssg70
g2212
sg63
(lp2219
S'REQUEST_METHOD'
p2220
asbag56
(g77
g58
NtRp2221
(dp2222
g61
(dp2223
g88
g89
ssg70
g2212
sg63
(lp2224
S':'
asbag56
(g77
g58
NtRp2225
(dp2226
g61
(dp2227
sg70
g2212
sg63
(lp2228
g56
(g57
g58
NtRp2229
(dp2230
g61
(dp2231
g69
I3
ssg70
g2225
sg63
(lp2232
g1264
asbasbasbag56
(g72
g58
NtRp2233
(dp2234
g61
(dp2235
sg70
g1956
sg63
(lp2236
g56
(g77
g58
NtRp2237
(dp2238
g61
(dp2239
g81
g82
ssg70
g2233
sg63
(lp2240
S'SCRIPT_NAME'
p2241
asbag56
(g77
g58
NtRp2242
(dp2243
g61
(dp2244
g88
g89
ssg70
g2233
sg63
(lp2245
S':'
asbag56
(g77
g58
NtRp2246
(dp2247
g61
(dp2248
sg70
g2233
sg63
(lp2249
g56
(g57
g58
NtRp2250
(dp2251
g61
(dp2252
g69
I3
ssg70
g2246
sg63
(lp2253
S''
asbasbasbag56
(g72
g58
NtRp2254
(dp2255
g61
(dp2256
sg70
g1956
sg63
(lp2257
g56
(g77
g58
NtRp2258
(dp2259
g61
(dp2260
g81
g82
ssg70
g2254
sg63
(lp2261
S'SERVER_NAME'
p2262
asbag56
(g77
g58
NtRp2263
(dp2264
g61
(dp2265
g88
g89
ssg70
g2254
sg63
(lp2266
S':'
asbag56
(g77
g58
NtRp2267
(dp2268
g61
(dp2269
sg70
g2254
sg63
(lp2270
g56
(g57
g58
NtRp2271
(dp2272
g61
(dp2273
g69
I3
ssg70
g2267
sg63
(lp2274
g1307
asbasbasbag56
(g72
g58
NtRp2275
(dp2276
g61
(dp2277
sg70
g1956
sg63
(lp2278
g56
(g77
g58
NtRp2279
(dp2280
g61
(dp2281
g81
g82
ssg70
g2275
sg63
(lp2282
S'SERVER_PORT'
p2283
asbag56
(g77
g58
NtRp2284
(dp2285
g61
(dp2286
g88
g89
ssg70
g2275
sg63
(lp2287
S':'
asbag56
(g77
g58
NtRp2288
(dp2289
g61
(dp2290
sg70
g2275
sg63
(lp2291
g56
(g57
g58
NtRp2292
(dp2293
g61
(dp2294
g69
I3
ssg70
g2288
sg63
(lp2295
g1329
asbasbasbag56
(g72
g58
NtRp2296
(dp2297
g61
(dp2298
sg70
g1956
sg63
(lp2299
g56
(g77
g58
NtRp2300
(dp2301
g61
(dp2302
g81
g82
ssg70
g2296
sg63
(lp2303
S'SERVER_PROTOCOL'
p2304
asbag56
(g77
g58
NtRp2305
(dp2306
g61
(dp2307
g88
g89
ssg70
g2296
sg63
(lp2308
S':'
asbag56
(g77
g58
NtRp2309
(dp2310
g61
(dp2311
sg70
g2296
sg63
(lp2312
g56
(g57
g58
NtRp2313
(dp2314
g61
(dp2315
g69
I3
ssg70
g2309
sg63
(lp2316
g1351
asbasbasbag56
(g72
g58
NtRp2317
(dp2318
g61
(dp2319
sg70
g1956
sg63
(lp2320
g56
(g77
g58
NtRp2321
(dp2322
g61
(dp2323
g81
g82
ssg70
g2317
sg63
(lp2324
S'SERVER_SOFTWARE'
p2325
asbag56
(g77
g58
NtRp2326
(dp2327
g61
(dp2328
g88
g89
ssg70
g2317
sg63
(lp2329
S':'
asbag56
(g77
g58
NtRp2330
(dp2331
g61
(dp2332
sg70
g2317
sg63
(lp2333
g56
(g57
g58
NtRp2334
(dp2335
g61
(dp2336
g69
I3
ssg70
g2330
sg63
(lp2337
g1373
asbasbasbag56
(g72
g58
NtRp2338
(dp2339
g61
(dp2340
sg70
g1956
sg63
(lp2341
g56
(g77
g58
NtRp2342
(dp2343
g61
(dp2344
g81
g82
ssg70
g2338
sg63
(lp2345
S'wsgi.errors'
p2346
asbag56
(g77
g58
NtRp2347
(dp2348
g61
(dp2349
g88
g89
ssg70
g2338
sg63
(lp2350
S':'
asbag56
(g77
g58
NtRp2351
(dp2352
g61
(dp2353
sg70
g2338
sg63
(lp2354
g56
(g57
g58
NtRp2355
(dp2356
g61
(dp2357
g69
I3
ssg70
g2351
sg63
(lp2358
S"<open file '<stderr>', mode 'w' at 0x100281270>"
p2359
asbasbasbag56
(g72
g58
NtRp2360
(dp2361
g61
(dp2362
sg70
g1956
sg63
(lp2363
g56
(g77
g58
NtRp2364
(dp2365
g61
(dp2366
g81
g82
ssg70
g2360
sg63
(lp2367
S'wsgi.file_wrapper'
p2368
asbag56
(g77
g58
NtRp2369
(dp2370
g61
(dp2371
g88
g89
ssg70
g2360
sg63
(lp2372
S':'
asbag56
(g77
g58
NtRp2373
(dp2374
g61
(dp2375
sg70
g2360
sg63
(lp2376
g56
(g57
g58
NtRp2377
(dp2378
g61
(dp2379
g69
I3
ssg70
g2373
sg63
(lp2380
S'<class gluon.rocket.FileWrapper at 0x1016ba120>'
p2381
asbasbasbag56
(g72
g58
NtRp2382
(dp2383
g61
(dp2384
sg70
g1956
sg63
(lp2385
g56
(g77
g58
NtRp2386
(dp2387
g61
(dp2388
g81
g82
ssg70
g2382
sg63
(lp2389
S'wsgi.input'
p2390
asbag56
(g77
g58
NtRp2391
(dp2392
g61
(dp2393
g88
g89
ssg70
g2382
sg63
(lp2394
S':'
asbag56
(g77
g58
NtRp2395
(dp2396
g61
(dp2397
sg70
g2382
sg63
(lp2398
g56
(g57
g58
NtRp2399
(dp2400
g61
(dp2401
g69
I3
ssg70
g2395
sg63
(lp2402
S'<cStringIO.StringO object at 0x1081d1e30>'
p2403
asbasbasbag56
(g72
g58
NtRp2404
(dp2405
g61
(dp2406
sg70
g1956
sg63
(lp2407
g56
(g77
g58
NtRp2408
(dp2409
g61
(dp2410
g81
g82
ssg70
g2404
sg63
(lp2411
S'wsgi.multiprocess'
p2412
asbag56
(g77
g58
NtRp2413
(dp2414
g61
(dp2415
g88
g89
ssg70
g2404
sg63
(lp2416
S':'
asbag56
(g77
g58
NtRp2417
(dp2418
g61
(dp2419
sg70
g2404
sg63
(lp2420
g56
(g57
g58
NtRp2421
(dp2422
g61
(dp2423
g69
I3
ssg70
g2417
sg63
(lp2424
g99
asbasbasbag56
(g72
g58
NtRp2425
(dp2426
g61
(dp2427
sg70
g1956
sg63
(lp2428
g56
(g77
g58
NtRp2429
(dp2430
g61
(dp2431
g81
g82
ssg70
g2425
sg63
(lp2432
S'wsgi.multithread'
p2433
asbag56
(g77
g58
NtRp2434
(dp2435
g61
(dp2436
g88
g89
ssg70
g2425
sg63
(lp2437
S':'
asbag56
(g77
g58
NtRp2438
(dp2439
g61
(dp2440
sg70
g2425
sg63
(lp2441
g56
(g57
g58
NtRp2442
(dp2443
g61
(dp2444
g69
I3
ssg70
g2438
sg63
(lp2445
g1547
asbasbasbag56
(g72
g58
NtRp2446
(dp2447
g61
(dp2448
sg70
g1956
sg63
(lp2449
g56
(g77
g58
NtRp2450
(dp2451
g61
(dp2452
g81
g82
ssg70
g2446
sg63
(lp2453
S'wsgi.run_once'
p2454
asbag56
(g77
g58
NtRp2455
(dp2456
g61
(dp2457
g88
g89
ssg70
g2446
sg63
(lp2458
S':'
asbag56
(g77
g58
NtRp2459
(dp2460
g61
(dp2461
sg70
g2446
sg63
(lp2462
g56
(g57
g58
NtRp2463
(dp2464
g61
(dp2465
g69
I3
ssg70
g2459
sg63
(lp2466
g99
asbasbasbag56
(g72
g58
NtRp2467
(dp2468
g61
(dp2469
sg70
g1956
sg63
(lp2470
g56
(g77
g58
NtRp2471
(dp2472
g61
(dp2473
g81
g82
ssg70
g2467
sg63
(lp2474
S'wsgi.url_scheme'
p2475
asbag56
(g77
g58
NtRp2476
(dp2477
g61
(dp2478
g88
g89
ssg70
g2467
sg63
(lp2479
S':'
asbag56
(g77
g58
NtRp2480
(dp2481
g61
(dp2482
sg70
g2467
sg63
(lp2483
g56
(g57
g58
NtRp2484
(dp2485
g61
(dp2486
g69
I3
ssg70
g2480
sg63
(lp2487
g1590
asbasbasbag56
(g72
g58
NtRp2488
(dp2489
g61
(dp2490
sg70
g1956
sg63
(lp2491
g56
(g77
g58
NtRp2492
(dp2493
g61
(dp2494
g81
g82
ssg70
g2488
sg63
(lp2495
S'wsgi.version'
p2496
asbag56
(g77
g58
NtRp2497
(dp2498
g61
(dp2499
g88
g89
ssg70
g2488
sg63
(lp2500
S':'
asbag56
(g77
g58
NtRp2501
(dp2502
g61
(dp2503
sg70
g2488
sg63
(lp2504
g56
(g57
g58
NtRp2505
(dp2506
g61
(dp2507
g69
I3
ssg70
g2501
sg63
(lp2508
S'1'
asbasbasbasbasbasbasbasbasbasbasbasbasbsS'frames'
p2509
(lp2510
(dp2511
S'file'
p2512
S'/Users/schultzc/workspace/wherespuppet/web2py/gluon/restricted.py'
p2513
sS'dump'
p2514
(dp2515
S'environment'
p2516
S"{'A': <class 'gluon.html.A'>, 'B': <class 'gluon.html.B'>, 'BEAUTIFY': <class 'gluon.html.BEAUTIFY'>, 'BODY': <class 'gluon.html.BODY'>, 'BR': <class 'gluon.html.BR'>, 'BUTTON': <class 'gluon.html.BUTTON'>, 'CENTER': <class 'gluon.html.CENTER'>, 'CLEANUP': <class 'gluon.validators.CLEANUP'>, 'CODE': <class 'gluon.html.CODE'>, 'CRYPT': <class 'gluon.validators.CRYPT'>, ...}"
p2517
sS'ccode'
p2518
S'<code object <module> at 0x1081bac30, file "/Use...pplications/wp/views/default/index.html", line 1>'
p2519
ssS'lnum'
p2520
I192
sS'lines'
p2521
(dp2522
I192
S'        exec ccode in environment'
p2523
sI193
S'    except HTTP:'
p2524
sI194
S'        raise'
p2525
sI195
S'    except Exception:'
p2526
sI196
S'        # XXX Show exception in Wing IDE if running in debugger'
p2527
sI187
S'    try:'
p2528
sI188
S'        if type(code) == types.CodeType:'
p2529
sI189
S'            ccode = code'
p2530
sI190
S'        else:'
p2531
sI191
S'            ccode = compile2(code,layer)'
p2532
ssS'call'
p2533
S'(code=\'response.write(\\\'<!DOCTYPE html>\\\\n<html lang="\\\', ...]-->\\\\n     \\\\n  </body>\\\\n</html>\\\\n\\\', escape=False)\', environment={\'A\': <class \'gluon.html.A\'>, \'B\': <class \'gluon.html.B\'>, \'BEAUTIFY\': <class \'gluon.html.BEAUTIFY\'>, \'BODY\': <class \'gluon.html.BODY\'>, \'BR\': <class \'gluon.html.BR\'>, \'BUTTON\': <class \'gluon.html.BUTTON\'>, \'CENTER\': <class \'gluon.html.CENTER\'>, \'CLEANUP\': <class \'gluon.validators.CLEANUP\'>, \'CODE\': <class \'gluon.html.CODE\'>, \'CRYPT\': <class \'gluon.validators.CRYPT\'>, ...}, layer=\'/Users/schultzc/workspace/wherespuppet/web2py/applications/wp/views/default/index.html\')'
p2534
sS'func'
p2535
S'restricted'
p2536
sa(dp2537
g2512
S'/Users/schultzc/workspace/wherespuppet/web2py/applications/wp/views/default/index.html'
p2538
sg2514
(dp2539
sg2520
I53
sg2521
(dp2540
I44
S'response.write(\'";\\n    var w2p_ajax_datetime_format = "\', escape=False)'
p2541
sI45
S"response.write(T('%Y-%m-%d %H:%M:%S'))"
p2542
sI46
S'response.write(\'";\\n    //--></script>\\n    <script src="\', escape=False)'
p2543
sI47
S"response.write(URL('static','js/web2py_ajax.js'))"
p2544
sI48
S'response.write(\'" type="text/javascript"></script>\\n\', escape=False)'
p2545
sI49
S'response.write(\'    \\n\\n    <script type="text/javascript">\\n    //run this script after jQuery loads, but before jQuery Mobile loads\\n\\n//customize jQuery Mobile to let IE7+ in (Mobile IE)                           \\n$(document).bind("mobileinit", function(){\\n  $.extend(  $.mobile , {\\n         \\n  //extend gradeA qualifier to include IE7+\\n    gradeA: function(){            \\n         //IE version check by James Padolsey, modified by jdalton - from http://gist.github.com/527683\\n                 var ie = (function() {\\n                     var v = 3, div = document.createElement(\\\'div\\\'), a = div.all || [];\\n                     while (div.innerHTML = \\\'<!--[if gt IE \\\'+(++v)+\\\']><br><![endif]-->\\\', a[0]); \\n                     return v > 4 ? v : !v;\\n                 }());\\n         \\n         //must either support media queries or be IE7+\\n         return $.support.mediaquery || (ie && ie >= 7);\\n    }\\n  });\\n});\\n    </script>\\n\\n    <link rel="stylesheet" href="http://code.jquery.com/mobile/1.0a4.1/jquery.mobile-1.0a4.1.min.css" />\\n    <script src="http://code.jquery.com/mobile/1.0a4.1/jquery.mobile-1.0a4.1.min.js"></script>\\n    <style>\\n      .error { color: red; }\\n    </style>\\n  </head>\\n  \\n  <!-- paulirish.com/2008/conditional-stylesheets-vs-css-hacks-answer-neither/ -->  \\n  <!--[if lt IE 7 ]> <body class="ie6"> <![endif]-->\\n  <!--[if IE 7 ]>    <body class="ie7"> <![endif]-->\\n  <!--[if IE 8 ]>    <body class="ie8"> <![endif]-->\\n  <!--[if IE 9 ]>    <body class="ie9"> <![endif]-->\\n  <!--[if (gt IE 9)|!(IE)]><!--> <body> <!--<![endif]-->\\n    \\n    <div data-role="page">\\n      <div data-role="header" data-fullscreen="true" data-position="fixed">\\n\\t<h1>\', escape=False)'
p2546
sI50
S'response.write(response.title)'
p2547
sI51
S"response.write('</h1>\\n\\t', escape=False)"
p2548
sI52
S"response.write('\\n\\t', escape=False)"
p2549
sI53
S'if not auth.user:'
p2550
sI54
S'    response.write(\'\\n\\t<a rel="external" href="\', escape=False)'
p2551
sI55
S"    response.write(URL('default','user',args='login'))"
p2552
sI56
S'    response.write(\'" data-icon="login" class="ui-btn-left">Login</a>\\n\\t\', escape=False)'
p2553
sI57
S'else:'
p2554
sI58
S'    response.write(\'\\n\\t<a rel="external" href="\', escape=False)'
p2555
sI59
S"    response.write(URL('default','user',args='logout'))"
p2556
sI60
S'    response.write(\'" data-icon="logout" class="ui-btn-left">Logout</a>\\n\\t\', escape=False)'
p2557
sI61
S'    pass'
p2558
sI62
S'response.write(\'\\n\\t<a rel="external" href="\', escape=False)'
p2559
sI63
S"response.write(URL('default','index'))"
p2560
ssg2533
S'()'
p2561
sg2535
S'<module>'
p2562
sasS'pyver'
p2563
S'Python 2.7.1: /Library/Frameworks/Python.framework/Versions/2.7/Resources/Python.app/Contents/MacOS/Python'
p2564
sS'session'
p2565
g56
(g57
g58
NtRp2566
(dp2567
g61
(dp2568
sg63
(lp2569
g56
(g65
g58
NtRp2570
(dp2571
g61
(dp2572
g69
I5
ssg70
Nsg63
(lp2573
sbasbsS'etype'
p2574
S"<type 'exceptions.NameError'>"
p2575
sS'date'
p2576
S'Thu Feb 16 23:45:49 2012'
p2577
sS'response'
p2578
g56
(g57
g58
NtRp2579
(dp2580
g61
(dp2581
sg63
(lp2582
g56
(g65
g58
NtRp2583
(dp2584
g61
(dp2585
g69
I5
ssg70
Nsg63
(lp2586
g56
(g72
g58
NtRp2587
(dp2588
g61
(dp2589
sg70
g2583
sg63
(lp2590
g56
(g77
g58
NtRp2591
(dp2592
g61
(dp2593
g81
g82
ssg70
g2587
sg63
(lp2594
g154
asbag56
(g77
g58
NtRp2595
(dp2596
g61
(dp2597
g88
g89
ssg70
g2587
sg63
(lp2598
S':'
asbag56
(g77
g58
NtRp2599
(dp2600
g61
(dp2601
sg70
g2587
sg63
(lp2602
g56
(g57
g58
NtRp2603
(dp2604
g61
(dp2605
g69
I5
ssg70
g2599
sg63
(lp2606
S'<cStringIO.StringO object at 0x1081d1d18>'
p2607
asbasbasbag56
(g72
g58
NtRp2608
(dp2609
g61
(dp2610
sg70
g2583
sg63
(lp2611
g56
(g77
g58
NtRp2612
(dp2613
g61
(dp2614
g81
g82
ssg70
g2608
sg63
(lp2615
g220
asbag56
(g77
g58
NtRp2616
(dp2617
g61
(dp2618
g88
g89
ssg70
g2608
sg63
(lp2619
S':'
asbag56
(g77
g58
NtRp2620
(dp2621
g61
(dp2622
sg70
g2608
sg63
(lp2623
g56
(g57
g58
NtRp2624
(dp2625
g61
(dp2626
g69
I5
ssg70
g2620
sg63
(lp2627
g56
(g65
g58
NtRp2628
(dp2629
g61
(dp2630
g69
I4
ssg70
Nsg63
(lp2631
g56
(g72
g58
NtRp2632
(dp2633
g61
(dp2634
sg70
g2628
sg63
(lp2635
g56
(g77
g58
NtRp2636
(dp2637
g61
(dp2638
g81
g82
ssg70
g2632
sg63
(lp2639
S'session_id_wp'
p2640
asbag56
(g77
g58
NtRp2641
(dp2642
g61
(dp2643
g88
g89
ssg70
g2632
sg63
(lp2644
S':'
asbag56
(g77
g58
NtRp2645
(dp2646
g61
(dp2647
sg70
g2632
sg63
(lp2648
g56
(g57
g58
NtRp2649
(dp2650
g61
(dp2651
g69
I4
ssg70
g2645
sg63
(lp2652
g56
(g65
g58
NtRp2653
(dp2654
g61
(dp2655
g69
I3
ssg70
Nsg63
(lp2656
g56
(g72
g58
NtRp2657
(dp2658
g61
(dp2659
sg70
g2653
sg63
(lp2660
g56
(g77
g58
NtRp2661
(dp2662
g61
(dp2663
g81
g82
ssg70
g2657
sg63
(lp2664
g270
asbag56
(g77
g58
NtRp2665
(dp2666
g61
(dp2667
g88
g89
ssg70
g2657
sg63
(lp2668
S':'
asbag56
(g77
g58
NtRp2669
(dp2670
g61
(dp2671
sg70
g2657
sg63
(lp2672
g56
(g57
g58
NtRp2673
(dp2674
g61
(dp2675
g69
I3
ssg70
g2669
sg63
(lp2676
S''
asbasbasbag56
(g72
g58
NtRp2677
(dp2678
g61
(dp2679
sg70
g2653
sg63
(lp2680
g56
(g77
g58
NtRp2681
(dp2682
g61
(dp2683
g81
g82
ssg70
g2677
sg63
(lp2684
g291
asbag56
(g77
g58
NtRp2685
(dp2686
g61
(dp2687
g88
g89
ssg70
g2677
sg63
(lp2688
S':'
asbag56
(g77
g58
NtRp2689
(dp2690
g61
(dp2691
sg70
g2677
sg63
(lp2692
g56
(g57
g58
NtRp2693
(dp2694
g61
(dp2695
g69
I3
ssg70
g2689
sg63
(lp2696
S''
asbasbasbag56
(g72
g58
NtRp2697
(dp2698
g61
(dp2699
sg70
g2653
sg63
(lp2700
g56
(g77
g58
NtRp2701
(dp2702
g61
(dp2703
g81
g82
ssg70
g2697
sg63
(lp2704
g312
asbag56
(g77
g58
NtRp2705
(dp2706
g61
(dp2707
g88
g89
ssg70
g2697
sg63
(lp2708
S':'
asbag56
(g77
g58
NtRp2709
(dp2710
g61
(dp2711
sg70
g2697
sg63
(lp2712
g56
(g57
g58
NtRp2713
(dp2714
g61
(dp2715
g69
I3
ssg70
g2709
sg63
(lp2716
S''
asbasbasbag56
(g72
g58
NtRp2717
(dp2718
g61
(dp2719
sg70
g2653
sg63
(lp2720
g56
(g77
g58
NtRp2721
(dp2722
g61
(dp2723
g81
g82
ssg70
g2717
sg63
(lp2724
g333
asbag56
(g77
g58
NtRp2725
(dp2726
g61
(dp2727
g88
g89
ssg70
g2717
sg63
(lp2728
S':'
asbag56
(g77
g58
NtRp2729
(dp2730
g61
(dp2731
sg70
g2717
sg63
(lp2732
g56
(g57
g58
NtRp2733
(dp2734
g61
(dp2735
g69
I3
ssg70
g2729
sg63
(lp2736
S''
asbasbasbag56
(g72
g58
NtRp2737
(dp2738
g61
(dp2739
sg70
g2653
sg63
(lp2740
g56
(g77
g58
NtRp2741
(dp2742
g61
(dp2743
g81
g82
ssg70
g2737
sg63
(lp2744
g354
asbag56
(g77
g58
NtRp2745
(dp2746
g61
(dp2747
g88
g89
ssg70
g2737
sg63
(lp2748
S':'
asbag56
(g77
g58
NtRp2749
(dp2750
g61
(dp2751
sg70
g2737
sg63
(lp2752
g56
(g57
g58
NtRp2753
(dp2754
g61
(dp2755
g69
I3
ssg70
g2749
sg63
(lp2756
S''
asbasbasbag56
(g72
g58
NtRp2757
(dp2758
g61
(dp2759
sg70
g2653
sg63
(lp2760
g56
(g77
g58
NtRp2761
(dp2762
g61
(dp2763
g81
g82
ssg70
g2757
sg63
(lp2764
g375
asbag56
(g77
g58
NtRp2765
(dp2766
g61
(dp2767
g88
g89
ssg70
g2757
sg63
(lp2768
S':'
asbag56
(g77
g58
NtRp2769
(dp2770
g61
(dp2771
sg70
g2757
sg63
(lp2772
g56
(g57
g58
NtRp2773
(dp2774
g61
(dp2775
g69
I3
ssg70
g2769
sg63
(lp2776
S'/'
asbasbasbag56
(g72
g58
NtRp2777
(dp2778
g61
(dp2779
sg70
g2653
sg63
(lp2780
g56
(g77
g58
NtRp2781
(dp2782
g61
(dp2783
g81
g82
ssg70
g2777
sg63
(lp2784
g396
asbag56
(g77
g58
NtRp2785
(dp2786
g61
(dp2787
g88
g89
ssg70
g2777
sg63
(lp2788
S':'
asbag56
(g77
g58
NtRp2789
(dp2790
g61
(dp2791
sg70
g2777
sg63
(lp2792
g56
(g57
g58
NtRp2793
(dp2794
g61
(dp2795
g69
I3
ssg70
g2789
sg63
(lp2796
S''
asbasbasbag56
(g72
g58
NtRp2797
(dp2798
g61
(dp2799
sg70
g2653
sg63
(lp2800
g56
(g77
g58
NtRp2801
(dp2802
g61
(dp2803
g81
g82
ssg70
g2797
sg63
(lp2804
g417
asbag56
(g77
g58
NtRp2805
(dp2806
g61
(dp2807
g88
g89
ssg70
g2797
sg63
(lp2808
S':'
asbag56
(g77
g58
NtRp2809
(dp2810
g61
(dp2811
sg70
g2797
sg63
(lp2812
g56
(g57
g58
NtRp2813
(dp2814
g61
(dp2815
g69
I3
ssg70
g2809
sg63
(lp2816
S''
asbasbasbasbasbasbasbasbasbasbasbag56
(g72
g58
NtRp2817
(dp2818
g61
(dp2819
sg70
g2583
sg63
(lp2820
g56
(g77
g58
NtRp2821
(dp2822
g61
(dp2823
g81
g82
ssg70
g2817
sg63
(lp2824
S'files'
p2825
asbag56
(g77
g58
NtRp2826
(dp2827
g61
(dp2828
g88
g89
ssg70
g2817
sg63
(lp2829
S':'
asbag56
(g77
g58
NtRp2830
(dp2831
g61
(dp2832
sg70
g2817
sg63
(lp2833
g56
(g57
g58
NtRp2834
(dp2835
g61
(dp2836
g69
I5
ssg70
g2830
sg63
(lp2837
g56
(g65
g58
NtRp2838
(dp2839
g61
(dp2840
g69
I4
ssg70
Nsg63
(lp2841
g56
(g72
g58
NtRp2842
(dp2843
g61
(dp2844
sg70
g2838
sg63
(lp2845
g56
(g77
g58
NtRp2846
(dp2847
g61
(dp2848
sg70
g2842
sg63
(lp2849
g56
(g57
g58
NtRp2850
(dp2851
g61
(dp2852
g69
I4
ssg70
g2846
sg63
(lp2853
S'/wp/static/js/jquery.js'
p2854
asbasbasbag56
(g72
g58
NtRp2855
(dp2856
g61
(dp2857
sg70
g2838
sg63
(lp2858
g56
(g77
g58
NtRp2859
(dp2860
g61
(dp2861
sg70
g2855
sg63
(lp2862
g56
(g57
g58
NtRp2863
(dp2864
g61
(dp2865
g69
I4
ssg70
g2859
sg63
(lp2866
S'/wp/static/css/calendar.css'
p2867
asbasbasbag56
(g72
g58
NtRp2868
(dp2869
g61
(dp2870
sg70
g2838
sg63
(lp2871
g56
(g77
g58
NtRp2872
(dp2873
g61
(dp2874
sg70
g2868
sg63
(lp2875
g56
(g57
g58
NtRp2876
(dp2877
g61
(dp2878
g69
I4
ssg70
g2872
sg63
(lp2879
S'/wp/static/js/calendar.js'
p2880
asbasbasbasbasbasbasbag56
(g72
g58
NtRp2881
(dp2882
g61
(dp2883
sg70
g2583
sg63
(lp2884
g56
(g77
g58
NtRp2885
(dp2886
g61
(dp2887
g81
g82
ssg70
g2881
sg63
(lp2888
S'flash'
p2889
asbag56
(g77
g58
NtRp2890
(dp2891
g61
(dp2892
g88
g89
ssg70
g2881
sg63
(lp2893
S':'
asbag56
(g77
g58
NtRp2894
(dp2895
g61
(dp2896
sg70
g2881
sg63
(lp2897
g56
(g57
g58
NtRp2898
(dp2899
g61
(dp2900
g69
I5
ssg70
g2894
sg63
(lp2901
S''
asbasbasbag56
(g72
g58
NtRp2902
(dp2903
g61
(dp2904
sg70
g2583
sg63
(lp2905
g56
(g77
g58
NtRp2906
(dp2907
g61
(dp2908
g81
g82
ssg70
g2902
sg63
(lp2909
S'headers'
p2910
asbag56
(g77
g58
NtRp2911
(dp2912
g61
(dp2913
g88
g89
ssg70
g2902
sg63
(lp2914
S':'
asbag56
(g77
g58
NtRp2915
(dp2916
g61
(dp2917
sg70
g2902
sg63
(lp2918
g56
(g57
g58
NtRp2919
(dp2920
g61
(dp2921
g69
I5
ssg70
g2915
sg63
(lp2922
g56
(g65
g58
NtRp2923
(dp2924
g61
(dp2925
g69
I4
ssg70
Nsg63
(lp2926
g56
(g72
g58
NtRp2927
(dp2928
g61
(dp2929
sg70
g2923
sg63
(lp2930
g56
(g77
g58
NtRp2931
(dp2932
g61
(dp2933
g81
g82
ssg70
g2927
sg63
(lp2934
S'Cache-Control'
p2935
asbag56
(g77
g58
NtRp2936
(dp2937
g61
(dp2938
g88
g89
ssg70
g2927
sg63
(lp2939
S':'
asbag56
(g77
g58
NtRp2940
(dp2941
g61
(dp2942
sg70
g2927
sg63
(lp2943
g56
(g57
g58
NtRp2944
(dp2945
g61
(dp2946
g69
I4
ssg70
g2940
sg63
(lp2947
S'no-store, no-cache, must-revalidate, post-check=0, pre-check=0'
p2948
asbasbasbag56
(g72
g58
NtRp2949
(dp2950
g61
(dp2951
sg70
g2923
sg63
(lp2952
g56
(g77
g58
NtRp2953
(dp2954
g61
(dp2955
g81
g82
ssg70
g2949
sg63
(lp2956
S'Content-Type'
p2957
asbag56
(g77
g58
NtRp2958
(dp2959
g61
(dp2960
g88
g89
ssg70
g2949
sg63
(lp2961
S':'
asbag56
(g77
g58
NtRp2962
(dp2963
g61
(dp2964
sg70
g2949
sg63
(lp2965
g56
(g57
g58
NtRp2966
(dp2967
g61
(dp2968
g69
I4
ssg70
g2962
sg63
(lp2969
S'text/html; charset=utf-8'
p2970
asbasbasbag56
(g72
g58
NtRp2971
(dp2972
g61
(dp2973
sg70
g2923
sg63
(lp2974
g56
(g77
g58
NtRp2975
(dp2976
g61
(dp2977
g81
g82
ssg70
g2971
sg63
(lp2978
S'Expires'
p2979
asbag56
(g77
g58
NtRp2980
(dp2981
g61
(dp2982
g88
g89
ssg70
g2971
sg63
(lp2983
S':'
asbag56
(g77
g58
NtRp2984
(dp2985
g61
(dp2986
sg70
g2971
sg63
(lp2987
g56
(g57
g58
NtRp2988
(dp2989
g61
(dp2990
g69
I4
ssg70
g2984
sg63
(lp2991
S'Fri, 17 Feb 2012 06:45:49 GMT'
p2992
asbasbasbag56
(g72
g58
NtRp2993
(dp2994
g61
(dp2995
sg70
g2923
sg63
(lp2996
g56
(g77
g58
NtRp2997
(dp2998
g61
(dp2999
g81
g82
ssg70
g2993
sg63
(lp3000
S'Pragma'
p3001
asbag56
(g77
g58
NtRp3002
(dp3003
g61
(dp3004
g88
g89
ssg70
g2993
sg63
(lp3005
S':'
asbag56
(g77
g58
NtRp3006
(dp3007
g61
(dp3008
sg70
g2993
sg63
(lp3009
g56
(g57
g58
NtRp3010
(dp3011
g61
(dp3012
g69
I4
ssg70
g3006
sg63
(lp3013
S'no-cache'
p3014
asbasbasbag56
(g72
g58
NtRp3015
(dp3016
g61
(dp3017
sg70
g2923
sg63
(lp3018
g56
(g77
g58
NtRp3019
(dp3020
g61
(dp3021
g81
g82
ssg70
g3015
sg63
(lp3022
S'X-Powered-By'
p3023
asbag56
(g77
g58
NtRp3024
(dp3025
g61
(dp3026
g88
g89
ssg70
g3015
sg63
(lp3027
S':'
asbag56
(g77
g58
NtRp3028
(dp3029
g61
(dp3030
sg70
g3015
sg63
(lp3031
g56
(g57
g58
NtRp3032
(dp3033
g61
(dp3034
g69
I4
ssg70
g3028
sg63
(lp3035
S'web2py'
p3036
asbasbasbasbasbasbasbag56
(g72
g58
NtRp3037
(dp3038
g61
(dp3039
sg70
g2583
sg63
(lp3040
g56
(g77
g58
NtRp3041
(dp3042
g61
(dp3043
g81
g82
ssg70
g3037
sg63
(lp3044
S'menu'
p3045
asbag56
(g77
g58
NtRp3046
(dp3047
g61
(dp3048
g88
g89
ssg70
g3037
sg63
(lp3049
S':'
asbag56
(g77
g58
NtRp3050
(dp3051
g61
(dp3052
sg70
g3037
sg63
(lp3053
g56
(g57
g58
NtRp3054
(dp3055
g61
(dp3056
g69
I5
ssg70
g3050
sg63
(lp3057
g56
(g65
g58
NtRp3058
(dp3059
g61
(dp3060
g69
I4
ssg70
Nsg63
(lp3061
g56
(g72
g58
NtRp3062
(dp3063
g61
(dp3064
sg70
g3058
sg63
(lp3065
g56
(g77
g58
NtRp3066
(dp3067
g61
(dp3068
sg70
g3062
sg63
(lp3069
g56
(g57
g58
NtRp3070
(dp3071
g61
(dp3072
g69
I4
ssg70
g3066
sg63
(lp3073
g56
(g65
g58
NtRp3074
(dp3075
g61
(dp3076
g69
I3
ssg70
Nsg63
(lp3077
g56
(g72
g58
NtRp3078
(dp3079
g61
(dp3080
sg70
g3074
sg63
(lp3081
g56
(g77
g58
NtRp3082
(dp3083
g61
(dp3084
sg70
g3078
sg63
(lp3085
g56
(g57
g58
NtRp3086
(dp3087
g61
(dp3088
g69
I3
ssg70
g3082
sg63
(lp3089
cgluon.languages
lazyT_unpickle
p3090
(S't\x04\x00\x00\x00Home'
tRp3091
asbasbasbag56
(g72
g58
NtRp3092
(dp3093
g61
(dp3094
sg70
g3074
sg63
(lp3095
g56
(g77
g58
NtRp3096
(dp3097
g61
(dp3098
sg70
g3092
sg63
(lp3099
g56
(g57
g58
NtRp3100
(dp3101
g61
(dp3102
g69
I3
ssg70
g3096
sg63
(lp3103
g99
asbasbasbag56
(g72
g58
NtRp3104
(dp3105
g61
(dp3106
sg70
g3074
sg63
(lp3107
g56
(g77
g58
NtRp3108
(dp3109
g61
(dp3110
sg70
g3104
sg63
(lp3111
g56
(g57
g58
NtRp3112
(dp3113
g61
(dp3114
g69
I3
ssg70
g3108
sg63
(lp3115
S'/wp/default/index'
p3116
asbasbasbag56
(g72
g58
NtRp3117
(dp3118
g61
(dp3119
sg70
g3074
sg63
(lp3120
g56
(g77
g58
NtRp3121
(dp3122
g61
(dp3123
sg70
g3117
sg63
(lp3124
g56
(g57
g58
NtRp3125
(dp3126
g61
(dp3127
g69
I3
ssg70
g3121
sg63
(lp3128
g56
(g65
g58
NtRp3129
(dp3130
g61
(dp3131
g69
I2
ssg70
Nsg63
(lp3132
sbasbasbasbasbasbasbasbag56
(g72
g58
NtRp3133
(dp3134
g61
(dp3135
sg70
g3058
sg63
(lp3136
g56
(g77
g58
NtRp3137
(dp3138
g61
(dp3139
sg70
g3133
sg63
(lp3140
g56
(g57
g58
NtRp3141
(dp3142
g61
(dp3143
g69
I4
ssg70
g3137
sg63
(lp3144
g56
(g65
g58
NtRp3145
(dp3146
g61
(dp3147
g69
I3
ssg70
Nsg63
(lp3148
g56
(g72
g58
NtRp3149
(dp3150
g61
(dp3151
sg70
g3145
sg63
(lp3152
g56
(g77
g58
NtRp3153
(dp3154
g61
(dp3155
sg70
g3149
sg63
(lp3156
g56
(g57
g58
NtRp3157
(dp3158
g61
(dp3159
g69
I3
ssg70
g3153
sg63
(lp3160
g3090
(S's\x08\x00\x00\x00This App'
tRp3161
asbasbasbag56
(g72
g58
NtRp3162
(dp3163
g61
(dp3164
sg70
g3145
sg63
(lp3165
g56
(g77
g58
NtRp3166
(dp3167
g61
(dp3168
sg70
g3162
sg63
(lp3169
g56
(g57
g58
NtRp3170
(dp3171
g61
(dp3172
g69
I3
ssg70
g3166
sg63
(lp3173
g99
asbasbasbag56
(g72
g58
NtRp3174
(dp3175
g61
(dp3176
sg70
g3145
sg63
(lp3177
g56
(g77
g58
NtRp3178
(dp3179
g61
(dp3180
sg70
g3174
sg63
(lp3181
g56
(g57
g58
NtRp3182
(dp3183
g61
(dp3184
g69
I3
ssg70
g3178
sg63
(lp3185
S'/admin/default/design/wp'
p3186
asbasbasbag56
(g72
g58
NtRp3187
(dp3188
g61
(dp3189
sg70
g3145
sg63
(lp3190
g56
(g77
g58
NtRp3191
(dp3192
g61
(dp3193
sg70
g3187
sg63
(lp3194
g56
(g57
g58
NtRp3195
(dp3196
g61
(dp3197
g69
I3
ssg70
g3191
sg63
(lp3198
g56
(g65
g58
NtRp3199
(dp3200
g61
(dp3201
g69
I2
ssg70
Nsg63
(lp3202
g56
(g72
g58
NtRp3203
(dp3204
g61
(dp3205
sg70
g3199
sg63
(lp3206
g56
(g77
g58
NtRp3207
(dp3208
g61
(dp3209
sg70
g3203
sg63
(lp3210
g56
(g57
g58
NtRp3211
(dp3212
g61
(dp3213
g69
I2
ssg70
g3207
sg63
(lp3214
g56
(g65
g58
NtRp3215
(dp3216
g61
(dp3217
g69
I1
ssg70
Nsg63
(lp3218
g56
(g72
g58
NtRp3219
(dp3220
g61
(dp3221
sg70
g3215
sg63
(lp3222
g56
(g77
g58
NtRp3223
(dp3224
g61
(dp3225
sg70
g3219
sg63
(lp3226
g56
(g57
g58
NtRp3227
(dp3228
g61
(dp3229
g69
I1
ssg70
g3223
sg63
(lp3230
g3090
(S't\n\x00\x00\x00Controller'
tRp3231
asbasbasbag56
(g72
g58
NtRp3232
(dp3233
g61
(dp3234
sg70
g3215
sg63
(lp3235
g56
(g77
g58
NtRp3236
(dp3237
g61
(dp3238
sg70
g3232
sg63
(lp3239
g56
(g57
g58
NtRp3240
(dp3241
g61
(dp3242
g69
I1
ssg70
g3236
sg63
(lp3243
I00
asbasbasbag56
(g72
g58
NtRp3244
(dp3245
g61
(dp3246
sg70
g3215
sg63
(lp3247
g56
(g77
g58
NtRp3248
(dp3249
g61
(dp3250
sg70
g3244
sg63
(lp3251
g56
(g57
g58
NtRp3252
(dp3253
g61
(dp3254
g69
I1
ssg70
g3248
sg63
(lp3255
S'/admin/default/edit/wp/controllers/default.py'
p3256
asbasbasbasbasbasbasbag56
(g72
g58
NtRp3257
(dp3258
g61
(dp3259
sg70
g3199
sg63
(lp3260
g56
(g77
g58
NtRp3261
(dp3262
g61
(dp3263
sg70
g3257
sg63
(lp3264
g56
(g57
g58
NtRp3265
(dp3266
g61
(dp3267
g69
I2
ssg70
g3261
sg63
(lp3268
g56
(g65
g58
NtRp3269
(dp3270
g61
(dp3271
g69
I1
ssg70
Nsg63
(lp3272
g56
(g72
g58
NtRp3273
(dp3274
g61
(dp3275
sg70
g3269
sg63
(lp3276
g56
(g77
g58
NtRp3277
(dp3278
g61
(dp3279
sg70
g3273
sg63
(lp3280
g56
(g57
g58
NtRp3281
(dp3282
g61
(dp3283
g69
I1
ssg70
g3277
sg63
(lp3284
g3090
(S't\x04\x00\x00\x00View'
tRp3285
asbasbasbag56
(g72
g58
NtRp3286
(dp3287
g61
(dp3288
sg70
g3269
sg63
(lp3289
g56
(g77
g58
NtRp3290
(dp3291
g61
(dp3292
sg70
g3286
sg63
(lp3293
g56
(g57
g58
NtRp3294
(dp3295
g61
(dp3296
g69
I1
ssg70
g3290
sg63
(lp3297
I00
asbasbasbag56
(g72
g58
NtRp3298
(dp3299
g61
(dp3300
sg70
g3269
sg63
(lp3301
g56
(g77
g58
NtRp3302
(dp3303
g61
(dp3304
sg70
g3298
sg63
(lp3305
g56
(g57
g58
NtRp3306
(dp3307
g61
(dp3308
g69
I1
ssg70
g3302
sg63
(lp3309
S'/admin/default/edit/wp/views/default/index.html'
p3310
asbasbasbasbasbasbasbag56
(g72
g58
NtRp3311
(dp3312
g61
(dp3313
sg70
g3199
sg63
(lp3314
g56
(g77
g58
NtRp3315
(dp3316
g61
(dp3317
sg70
g3311
sg63
(lp3318
g56
(g57
g58
NtRp3319
(dp3320
g61
(dp3321
g69
I2
ssg70
g3315
sg63
(lp3322
g56
(g65
g58
NtRp3323
(dp3324
g61
(dp3325
g69
I1
ssg70
Nsg63
(lp3326
g56
(g72
g58
NtRp3327
(dp3328
g61
(dp3329
sg70
g3323
sg63
(lp3330
g56
(g77
g58
NtRp3331
(dp3332
g61
(dp3333
sg70
g3327
sg63
(lp3334
g56
(g57
g58
NtRp3335
(dp3336
g61
(dp3337
g69
I1
ssg70
g3331
sg63
(lp3338
g3090
(S't\x06\x00\x00\x00Layout'
tRp3339
asbasbasbag56
(g72
g58
NtRp3340
(dp3341
g61
(dp3342
sg70
g3323
sg63
(lp3343
g56
(g77
g58
NtRp3344
(dp3345
g61
(dp3346
sg70
g3340
sg63
(lp3347
g56
(g57
g58
NtRp3348
(dp3349
g61
(dp3350
g69
I1
ssg70
g3344
sg63
(lp3351
I00
asbasbasbag56
(g72
g58
NtRp3352
(dp3353
g61
(dp3354
sg70
g3323
sg63
(lp3355
g56
(g77
g58
NtRp3356
(dp3357
g61
(dp3358
sg70
g3352
sg63
(lp3359
g56
(g57
g58
NtRp3360
(dp3361
g61
(dp3362
g69
I1
ssg70
g3356
sg63
(lp3363
S'/admin/default/edit/wp/views/layout.html'
p3364
asbasbasbasbasbasbasbag56
(g72
g58
NtRp3365
(dp3366
g61
(dp3367
sg70
g3199
sg63
(lp3368
g56
(g77
g58
NtRp3369
(dp3370
g61
(dp3371
sg70
g3365
sg63
(lp3372
g56
(g57
g58
NtRp3373
(dp3374
g61
(dp3375
g69
I2
ssg70
g3369
sg63
(lp3376
g56
(g65
g58
NtRp3377
(dp3378
g61
(dp3379
g69
I1
ssg70
Nsg63
(lp3380
g56
(g72
g58
NtRp3381
(dp3382
g61
(dp3383
sg70
g3377
sg63
(lp3384
g56
(g77
g58
NtRp3385
(dp3386
g61
(dp3387
sg70
g3381
sg63
(lp3388
g56
(g57
g58
NtRp3389
(dp3390
g61
(dp3391
g69
I1
ssg70
g3385
sg63
(lp3392
g3090
(S't\n\x00\x00\x00Stylesheet'
tRp3393
asbasbasbag56
(g72
g58
NtRp3394
(dp3395
g61
(dp3396
sg70
g3377
sg63
(lp3397
g56
(g77
g58
NtRp3398
(dp3399
g61
(dp3400
sg70
g3394
sg63
(lp3401
g56
(g57
g58
NtRp3402
(dp3403
g61
(dp3404
g69
I1
ssg70
g3398
sg63
(lp3405
I00
asbasbasbag56
(g72
g58
NtRp3406
(dp3407
g61
(dp3408
sg70
g3377
sg63
(lp3409
g56
(g77
g58
NtRp3410
(dp3411
g61
(dp3412
sg70
g3406
sg63
(lp3413
g56
(g57
g58
NtRp3414
(dp3415
g61
(dp3416
g69
I1
ssg70
g3410
sg63
(lp3417
S'/admin/default/edit/wp/static/base.css'
p3418
asbasbasbasbasbasbasbag56
(g72
g58
NtRp3419
(dp3420
g61
(dp3421
sg70
g3199
sg63
(lp3422
g56
(g77
g58
NtRp3423
(dp3424
g61
(dp3425
sg70
g3419
sg63
(lp3426
g56
(g57
g58
NtRp3427
(dp3428
g61
(dp3429
g69
I2
ssg70
g3423
sg63
(lp3430
g56
(g65
g58
NtRp3431
(dp3432
g61
(dp3433
g69
I1
ssg70
Nsg63
(lp3434
g56
(g72
g58
NtRp3435
(dp3436
g61
(dp3437
sg70
g3431
sg63
(lp3438
g56
(g77
g58
NtRp3439
(dp3440
g61
(dp3441
sg70
g3435
sg63
(lp3442
g56
(g57
g58
NtRp3443
(dp3444
g61
(dp3445
g69
I1
ssg70
g3439
sg63
(lp3446
g3090
(S's\x08\x00\x00\x00DB Model'
tRp3447
asbasbasbag56
(g72
g58
NtRp3448
(dp3449
g61
(dp3450
sg70
g3431
sg63
(lp3451
g56
(g77
g58
NtRp3452
(dp3453
g61
(dp3454
sg70
g3448
sg63
(lp3455
g56
(g57
g58
NtRp3456
(dp3457
g61
(dp3458
g69
I1
ssg70
g3452
sg63
(lp3459
I00
asbasbasbag56
(g72
g58
NtRp3460
(dp3461
g61
(dp3462
sg70
g3431
sg63
(lp3463
g56
(g77
g58
NtRp3464
(dp3465
g61
(dp3466
sg70
g3460
sg63
(lp3467
g56
(g57
g58
NtRp3468
(dp3469
g61
(dp3470
g69
I1
ssg70
g3464
sg63
(lp3471
S'/admin/default/edit/wp/models/db.py'
p3472
asbasbasbasbasbasbasbag56
(g72
g58
NtRp3473
(dp3474
g61
(dp3475
sg70
g3199
sg63
(lp3476
g56
(g77
g58
NtRp3477
(dp3478
g61
(dp3479
sg70
g3473
sg63
(lp3480
g56
(g57
g58
NtRp3481
(dp3482
g61
(dp3483
g69
I2
ssg70
g3477
sg63
(lp3484
g56
(g65
g58
NtRp3485
(dp3486
g61
(dp3487
g69
I1
ssg70
Nsg63
(lp3488
g56
(g72
g58
NtRp3489
(dp3490
g61
(dp3491
sg70
g3485
sg63
(lp3492
g56
(g77
g58
NtRp3493
(dp3494
g61
(dp3495
sg70
g3489
sg63
(lp3496
g56
(g57
g58
NtRp3497
(dp3498
g61
(dp3499
g69
I1
ssg70
g3493
sg63
(lp3500
g3090
(S's\n\x00\x00\x00Menu Model'
tRp3501
asbasbasbag56
(g72
g58
NtRp3502
(dp3503
g61
(dp3504
sg70
g3485
sg63
(lp3505
g56
(g77
g58
NtRp3506
(dp3507
g61
(dp3508
sg70
g3502
sg63
(lp3509
g56
(g57
g58
NtRp3510
(dp3511
g61
(dp3512
g69
I1
ssg70
g3506
sg63
(lp3513
I00
asbasbasbag56
(g72
g58
NtRp3514
(dp3515
g61
(dp3516
sg70
g3485
sg63
(lp3517
g56
(g77
g58
NtRp3518
(dp3519
g61
(dp3520
sg70
g3514
sg63
(lp3521
g56
(g57
g58
NtRp3522
(dp3523
g61
(dp3524
g69
I1
ssg70
g3518
sg63
(lp3525
S'/admin/default/edit/wp/models/menu.py'
p3526
asbasbasbasbasbasbasbag56
(g72
g58
NtRp3527
(dp3528
g61
(dp3529
sg70
g3199
sg63
(lp3530
g56
(g77
g58
NtRp3531
(dp3532
g61
(dp3533
sg70
g3527
sg63
(lp3534
g56
(g57
g58
NtRp3535
(dp3536
g61
(dp3537
g69
I2
ssg70
g3531
sg63
(lp3538
g56
(g65
g58
NtRp3539
(dp3540
g61
(dp3541
g69
I1
ssg70
Nsg63
(lp3542
g56
(g72
g58
NtRp3543
(dp3544
g61
(dp3545
sg70
g3539
sg63
(lp3546
g56
(g77
g58
NtRp3547
(dp3548
g61
(dp3549
sg70
g3543
sg63
(lp3550
g56
(g57
g58
NtRp3551
(dp3552
g61
(dp3553
g69
I1
ssg70
g3547
sg63
(lp3554
g3090
(S't\x08\x00\x00\x00Database'
tRp3555
asbasbasbag56
(g72
g58
NtRp3556
(dp3557
g61
(dp3558
sg70
g3539
sg63
(lp3559
g56
(g77
g58
NtRp3560
(dp3561
g61
(dp3562
sg70
g3556
sg63
(lp3563
g56
(g57
g58
NtRp3564
(dp3565
g61
(dp3566
g69
I1
ssg70
g3560
sg63
(lp3567
I00
asbasbasbag56
(g72
g58
NtRp3568
(dp3569
g61
(dp3570
sg70
g3539
sg63
(lp3571
g56
(g77
g58
NtRp3572
(dp3573
g61
(dp3574
sg70
g3568
sg63
(lp3575
g56
(g57
g58
NtRp3576
(dp3577
g61
(dp3578
g69
I1
ssg70
g3572
sg63
(lp3579
S'/wp/appadmin/index'
p3580
asbasbasbasbasbasbasbag56
(g72
g58
NtRp3581
(dp3582
g61
(dp3583
sg70
g3199
sg63
(lp3584
g56
(g77
g58
NtRp3585
(dp3586
g61
(dp3587
sg70
g3581
sg63
(lp3588
g56
(g57
g58
NtRp3589
(dp3590
g61
(dp3591
g69
I2
ssg70
g3585
sg63
(lp3592
g56
(g65
g58
NtRp3593
(dp3594
g61
(dp3595
g69
I1
ssg70
Nsg63
(lp3596
g56
(g72
g58
NtRp3597
(dp3598
g61
(dp3599
sg70
g3593
sg63
(lp3600
g56
(g77
g58
NtRp3601
(dp3602
g61
(dp3603
sg70
g3597
sg63
(lp3604
g56
(g57
g58
NtRp3605
(dp3606
g61
(dp3607
g69
I1
ssg70
g3601
sg63
(lp3608
g3090
(S't\x06\x00\x00\x00Errors'
tRp3609
asbasbasbag56
(g72
g58
NtRp3610
(dp3611
g61
(dp3612
sg70
g3593
sg63
(lp3613
g56
(g77
g58
NtRp3614
(dp3615
g61
(dp3616
sg70
g3610
sg63
(lp3617
g56
(g57
g58
NtRp3618
(dp3619
g61
(dp3620
g69
I1
ssg70
g3614
sg63
(lp3621
I00
asbasbasbag56
(g72
g58
NtRp3622
(dp3623
g61
(dp3624
sg70
g3593
sg63
(lp3625
g56
(g77
g58
NtRp3626
(dp3627
g61
(dp3628
sg70
g3622
sg63
(lp3629
g56
(g57
g58
NtRp3630
(dp3631
g61
(dp3632
g69
I1
ssg70
g3626
sg63
(lp3633
S'/admin/default/errors/wp'
p3634
asbasbasbasbasbasbasbag56
(g72
g58
NtRp3635
(dp3636
g61
(dp3637
sg70
g3199
sg63
(lp3638
g56
(g77
g58
NtRp3639
(dp3640
g61
(dp3641
sg70
g3635
sg63
(lp3642
g56
(g57
g58
NtRp3643
(dp3644
g61
(dp3645
g69
I2
ssg70
g3639
sg63
(lp3646
g56
(g65
g58
NtRp3647
(dp3648
g61
(dp3649
g69
I1
ssg70
Nsg63
(lp3650
g56
(g72
g58
NtRp3651
(dp3652
g61
(dp3653
sg70
g3647
sg63
(lp3654
g56
(g77
g58
NtRp3655
(dp3656
g61
(dp3657
sg70
g3651
sg63
(lp3658
g56
(g57
g58
NtRp3659
(dp3660
g61
(dp3661
g69
I1
ssg70
g3655
sg63
(lp3662
g3090
(S't\x05\x00\x00\x00About'
tRp3663
asbasbasbag56
(g72
g58
NtRp3664
(dp3665
g61
(dp3666
sg70
g3647
sg63
(lp3667
g56
(g77
g58
NtRp3668
(dp3669
g61
(dp3670
sg70
g3664
sg63
(lp3671
g56
(g57
g58
NtRp3672
(dp3673
g61
(dp3674
g69
I1
ssg70
g3668
sg63
(lp3675
I00
asbasbasbag56
(g72
g58
NtRp3676
(dp3677
g61
(dp3678
sg70
g3647
sg63
(lp3679
g56
(g77
g58
NtRp3680
(dp3681
g61
(dp3682
sg70
g3676
sg63
(lp3683
g56
(g57
g58
NtRp3684
(dp3685
g61
(dp3686
g69
I1
ssg70
g3680
sg63
(lp3687
S'/admin/default/about/wp'
p3688
asbasbasbasbasbasbasbasbasbasbasbasbasbasbasbag56
(g72
g58
NtRp3689
(dp3690
g61
(dp3691
sg70
g3058
sg63
(lp3692
g56
(g77
g58
NtRp3693
(dp3694
g61
(dp3695
sg70
g3689
sg63
(lp3696
g56
(g57
g58
NtRp3697
(dp3698
g61
(dp3699
g69
I4
ssg70
g3693
sg63
(lp3700
g56
(g65
g58
NtRp3701
(dp3702
g61
(dp3703
g69
I3
ssg70
Nsg63
(lp3704
g56
(g72
g58
NtRp3705
(dp3706
g61
(dp3707
sg70
g3701
sg63
(lp3708
g56
(g77
g58
NtRp3709
(dp3710
g61
(dp3711
sg70
g3705
sg63
(lp3712
g56
(g57
g58
NtRp3713
(dp3714
g61
(dp3715
g69
I3
ssg70
g3709
sg63
(lp3716
g3090
(S't\t\x00\x00\x00Resources'
tRp3717
asbasbasbag56
(g72
g58
NtRp3718
(dp3719
g61
(dp3720
sg70
g3701
sg63
(lp3721
g56
(g77
g58
NtRp3722
(dp3723
g61
(dp3724
sg70
g3718
sg63
(lp3725
g56
(g57
g58
NtRp3726
(dp3727
g61
(dp3728
g69
I3
ssg70
g3722
sg63
(lp3729
g99
asbasbasbag56
(g72
g58
NtRp3730
(dp3731
g61
(dp3732
sg70
g3701
sg63
(lp3733
g56
(g77
g58
NtRp3734
(dp3735
g61
(dp3736
sg70
g3730
sg63
(lp3737
g56
(g57
g58
NtRp3738
(dp3739
g61
(dp3740
g69
I3
ssg70
g3734
sg63
(lp3741
S'None'
p3742
asbasbasbag56
(g72
g58
NtRp3743
(dp3744
g61
(dp3745
sg70
g3701
sg63
(lp3746
g56
(g77
g58
NtRp3747
(dp3748
g61
(dp3749
sg70
g3743
sg63
(lp3750
g56
(g57
g58
NtRp3751
(dp3752
g61
(dp3753
g69
I3
ssg70
g3747
sg63
(lp3754
g56
(g65
g58
NtRp3755
(dp3756
g61
(dp3757
g69
I2
ssg70
Nsg63
(lp3758
g56
(g72
g58
NtRp3759
(dp3760
g61
(dp3761
sg70
g3755
sg63
(lp3762
g56
(g77
g58
NtRp3763
(dp3764
g61
(dp3765
sg70
g3759
sg63
(lp3766
g56
(g57
g58
NtRp3767
(dp3768
g61
(dp3769
g69
I2
ssg70
g3763
sg63
(lp3770
g56
(g65
g58
NtRp3771
(dp3772
g61
(dp3773
g69
I1
ssg70
Nsg63
(lp3774
g56
(g72
g58
NtRp3775
(dp3776
g61
(dp3777
sg70
g3771
sg63
(lp3778
g56
(g77
g58
NtRp3779
(dp3780
g61
(dp3781
sg70
g3775
sg63
(lp3782
g56
(g57
g58
NtRp3783
(dp3784
g61
(dp3785
g69
I1
ssg70
g3779
sg63
(lp3786
g3090
(S't\r\x00\x00\x00Documentation'
tRp3787
asbasbasbag56
(g72
g58
NtRp3788
(dp3789
g61
(dp3790
sg70
g3771
sg63
(lp3791
g56
(g77
g58
NtRp3792
(dp3793
g61
(dp3794
sg70
g3788
sg63
(lp3795
g56
(g57
g58
NtRp3796
(dp3797
g61
(dp3798
g69
I1
ssg70
g3792
sg63
(lp3799
I00
asbasbasbag56
(g72
g58
NtRp3800
(dp3801
g61
(dp3802
sg70
g3771
sg63
(lp3803
g56
(g77
g58
NtRp3804
(dp3805
g61
(dp3806
sg70
g3800
sg63
(lp3807
g56
(g57
g58
NtRp3808
(dp3809
g61
(dp3810
g69
I1
ssg70
g3804
sg63
(lp3811
S'http://www.web2py.com/book'
p3812
asbasbasbag56
(g72
g58
NtRp3813
(dp3814
g61
(dp3815
sg70
g3771
sg63
(lp3816
g56
(g77
g58
NtRp3817
(dp3818
g61
(dp3819
sg70
g3813
sg63
(lp3820
g56
(g57
g58
NtRp3821
(dp3822
g61
(dp3823
g69
I1
ssg70
g3817
sg63
(lp3824
(lp3825
(g3090
(S't\x07\x00\x00\x00Preface'
tRp3826
I00
S'http://www.web2py.com/book/default/chapter/00'
tp3827
a(g3090
(S't\x0c\x00\x00\x00Introduction'
tRp3828
I00
S'http://www.web2py.com/book/default/chapter/01'
tp3829
a(g3090
(S't\x06\x00\x00\x00Python'
tRp3830
I00
S'http://www.web2py.com/book/default/chapter/02'
tp3831
a(g3090
(S't\x08\x00\x00\x00Overview'
tRp3832
I00
S'http://www.web2py.com/book/default/chapter/03'
tp3833
a(g3090
(S's\x08\x00\x00\x00The Core'
tRp3834
I00
S'http://www.web2py.com/book/default/chapter/04'
tp3835
a(g3090
(S's\t\x00\x00\x00The Views'
tRp3836
I00
S'http://www.web2py.com/book/default/chapter/05'
tp3837
a(g3090
(S't\x08\x00\x00\x00Database'
tRp3838
I00
S'http://www.web2py.com/book/default/chapter/06'
tp3839
a(g3090
(S's\x14\x00\x00\x00Forms and Validators'
tRp3840
I00
S'http://www.web2py.com/book/default/chapter/07'
tp3841
a(g3090
(S's\x0e\x00\x00\x00Access Control'
tRp3842
I00
S'http://www.web2py.com/book/default/chapter/08'
tp3843
a(g3090
(S't\x08\x00\x00\x00Services'
tRp3844
I00
S'http://www.web2py.com/book/default/chapter/09'
tp3845
a(g3090
(S's\x0c\x00\x00\x00Ajax Recipes'
tRp3846
I00
S'http://www.web2py.com/book/default/chapter/10'
tp3847
a(g3090
(S's\x12\x00\x00\x00Deployment Recipes'
tRp3848
I00
S'http://www.web2py.com/book/default/chapter/11'
tp3849
a(g3090
(S's\r\x00\x00\x00Other Recipes'
tRp3850
I00
S'http://www.web2py.com/book/default/chapter/12'
tp3851
a(g3090
(S's\r\x00\x00\x00Buy this book'
tRp3852
I00
S'http://stores.lulu.com/web2py'
tp3853
aasbasbasbasbasbasbasbag56
(g72
g58
NtRp3854
(dp3855
g61
(dp3856
sg70
g3755
sg63
(lp3857
g56
(g77
g58
NtRp3858
(dp3859
g61
(dp3860
sg70
g3854
sg63
(lp3861
g56
(g57
g58
NtRp3862
(dp3863
g61
(dp3864
g69
I2
ssg70
g3858
sg63
(lp3865
g56
(g65
g58
NtRp3866
(dp3867
g61
(dp3868
g69
I1
ssg70
Nsg63
(lp3869
g56
(g72
g58
NtRp3870
(dp3871
g61
(dp3872
sg70
g3866
sg63
(lp3873
g56
(g77
g58
NtRp3874
(dp3875
g61
(dp3876
sg70
g3870
sg63
(lp3877
g56
(g57
g58
NtRp3878
(dp3879
g61
(dp3880
g69
I1
ssg70
g3874
sg63
(lp3881
g3090
(S't\t\x00\x00\x00Community'
tRp3882
asbasbasbag56
(g72
g58
NtRp3883
(dp3884
g61
(dp3885
sg70
g3866
sg63
(lp3886
g56
(g77
g58
NtRp3887
(dp3888
g61
(dp3889
sg70
g3883
sg63
(lp3890
g56
(g57
g58
NtRp3891
(dp3892
g61
(dp3893
g69
I1
ssg70
g3887
sg63
(lp3894
I00
asbasbasbag56
(g72
g58
NtRp3895
(dp3896
g61
(dp3897
sg70
g3866
sg63
(lp3898
g56
(g77
g58
NtRp3899
(dp3900
g61
(dp3901
sg70
g3895
sg63
(lp3902
g56
(g57
g58
NtRp3903
(dp3904
g61
(dp3905
g69
I1
ssg70
g3899
sg63
(lp3906
Nasbasbasbag56
(g72
g58
NtRp3907
(dp3908
g61
(dp3909
sg70
g3866
sg63
(lp3910
g56
(g77
g58
NtRp3911
(dp3912
g61
(dp3913
sg70
g3907
sg63
(lp3914
g56
(g57
g58
NtRp3915
(dp3916
g61
(dp3917
g69
I1
ssg70
g3911
sg63
(lp3918
(lp3919
(g3090
(S't\x06\x00\x00\x00Groups'
tRp3920
I00
S'http://www.web2py.com/examples/default/usergroups'
tp3921
a(g3090
(S't\x07\x00\x00\x00Twitter'
tRp3922
I00
S'http://twitter.com/web2py'
tp3923
a(g3090
(S's\t\x00\x00\x00Live chat'
tRp3924
I00
S'http://mibbit.com/?channel=%23web2py&server=irc.mibbit.net'
tp3925
a(g3090
(S's\n\x00\x00\x00User Voice'
tRp3926
I00
S'http://web2py.uservoice.com/'
tp3927
aasbasbasbasbasbasbasbag56
(g72
g58
NtRp3928
(dp3929
g61
(dp3930
sg70
g3755
sg63
(lp3931
g56
(g77
g58
NtRp3932
(dp3933
g61
(dp3934
sg70
g3928
sg63
(lp3935
g56
(g57
g58
NtRp3936
(dp3937
g61
(dp3938
g69
I2
ssg70
g3932
sg63
(lp3939
g56
(g65
g58
NtRp3940
(dp3941
g61
(dp3942
g69
I1
ssg70
Nsg63
(lp3943
g56
(g72
g58
NtRp3944
(dp3945
g61
(dp3946
sg70
g3940
sg63
(lp3947
g56
(g77
g58
NtRp3948
(dp3949
g61
(dp3950
sg70
g3944
sg63
(lp3951
g56
(g57
g58
NtRp3952
(dp3953
g61
(dp3954
g69
I1
ssg70
g3948
sg63
(lp3955
g3090
(S't\x06\x00\x00\x00Web2py'
tRp3956
asbasbasbag56
(g72
g58
NtRp3957
(dp3958
g61
(dp3959
sg70
g3940
sg63
(lp3960
g56
(g77
g58
NtRp3961
(dp3962
g61
(dp3963
sg70
g3957
sg63
(lp3964
g56
(g57
g58
NtRp3965
(dp3966
g61
(dp3967
g69
I1
ssg70
g3961
sg63
(lp3968
I00
asbasbasbag56
(g72
g58
NtRp3969
(dp3970
g61
(dp3971
sg70
g3940
sg63
(lp3972
g56
(g77
g58
NtRp3973
(dp3974
g61
(dp3975
sg70
g3969
sg63
(lp3976
g56
(g57
g58
NtRp3977
(dp3978
g61
(dp3979
g69
I1
ssg70
g3973
sg63
(lp3980
S'http://www.web2py.com'
p3981
asbasbasbag56
(g72
g58
NtRp3982
(dp3983
g61
(dp3984
sg70
g3940
sg63
(lp3985
g56
(g77
g58
NtRp3986
(dp3987
g61
(dp3988
sg70
g3982
sg63
(lp3989
g56
(g57
g58
NtRp3990
(dp3991
g61
(dp3992
g69
I1
ssg70
g3986
sg63
(lp3993
(lp3994
(g3090
(S't\x08\x00\x00\x00Download'
tRp3995
I00
S'http://www.web2py.com/examples/default/download'
tp3996
a(g3090
(S't\x07\x00\x00\x00Support'
tRp3997
I00
S'http://www.web2py.com/examples/default/support'
tp3998
a(g3090
(S's\x0e\x00\x00\x00Quick Examples'
tRp3999
I00
S'http://web2py.com/examples/default/examples'
tp4000
a(g3090
(S't\x03\x00\x00\x00FAQ'
tRp4001
I00
S'http://web2py.com/AlterEgo'
tp4002
a(g3090
(S's\x11\x00\x00\x00Free Applications'
tRp4003
I00
S'http://web2py.com/appliances'
tp4004
a(g3090
(S't\x07\x00\x00\x00Plugins'
tRp4005
I00
S'http://web2py.com/plugins'
tp4006
a(g3090
(S't\x07\x00\x00\x00Recipes'
tRp4007
I00
S'http://web2pyslices.com/'
tp4008
a(g3090
(S't\x04\x00\x00\x00Demo'
tRp4009
I00
S'http://web2py.com/demo_admin'
tp4010
a(g3090
(S't\x08\x00\x00\x00Semantic'
tRp4011
I00
S'http://web2py.com/semantic'
tp4012
a(g3090
(S't\x07\x00\x00\x00Layouts'
tRp4013
I00
S'http://web2py.com/layouts'
tp4014
a(g3090
(S't\x06\x00\x00\x00Videos'
tRp4015
I00
S'http://www.web2py.com/examples/default/videos/'
tp4016
aasbasbasbasbasbasbasbasbasbasbasbasbasbasbasbasbasbasbasbag56
(g72
g58
NtRp4017
(dp4018
g61
(dp4019
sg70
g2583
sg63
(lp4020
g56
(g77
g58
NtRp4021
(dp4022
g61
(dp4023
g81
g82
ssg70
g4017
sg63
(lp4024
S'meta'
p4025
asbag56
(g77
g58
NtRp4026
(dp4027
g61
(dp4028
g88
g89
ssg70
g4017
sg63
(lp4029
S':'
asbag56
(g77
g58
NtRp4030
(dp4031
g61
(dp4032
sg70
g4017
sg63
(lp4033
g56
(g57
g58
NtRp4034
(dp4035
g61
(dp4036
g69
I5
ssg70
g4030
sg63
(lp4037
g56
(g65
g58
NtRp4038
(dp4039
g61
(dp4040
g69
I4
ssg70
Nsg63
(lp4041
g56
(g72
g58
NtRp4042
(dp4043
g61
(dp4044
sg70
g4038
sg63
(lp4045
g56
(g77
g58
NtRp4046
(dp4047
g61
(dp4048
g81
g82
ssg70
g4042
sg63
(lp4049
S'author'
p4050
asbag56
(g77
g58
NtRp4051
(dp4052
g61
(dp4053
g88
g89
ssg70
g4042
sg63
(lp4054
S':'
asbag56
(g77
g58
NtRp4055
(dp4056
g61
(dp4057
sg70
g4042
sg63
(lp4058
g56
(g57
g58
NtRp4059
(dp4060
g61
(dp4061
g69
I4
ssg70
g4055
sg63
(lp4062
S'you'
p4063
asbasbasbag56
(g72
g58
NtRp4064
(dp4065
g61
(dp4066
sg70
g4038
sg63
(lp4067
g56
(g77
g58
NtRp4068
(dp4069
g61
(dp4070
g81
g82
ssg70
g4064
sg63
(lp4071
S'copyright'
p4072
asbag56
(g77
g58
NtRp4073
(dp4074
g61
(dp4075
g88
g89
ssg70
g4064
sg63
(lp4076
S':'
asbag56
(g77
g58
NtRp4077
(dp4078
g61
(dp4079
sg70
g4064
sg63
(lp4080
g56
(g57
g58
NtRp4081
(dp4082
g61
(dp4083
g69
I4
ssg70
g4077
sg63
(lp4084
S'Copyright 2007-2010'
p4085
asbasbasbag56
(g72
g58
NtRp4086
(dp4087
g61
(dp4088
sg70
g4038
sg63
(lp4089
g56
(g77
g58
NtRp4090
(dp4091
g61
(dp4092
g81
g82
ssg70
g4086
sg63
(lp4093
S'description'
p4094
asbag56
(g77
g58
NtRp4095
(dp4096
g61
(dp4097
g88
g89
ssg70
g4086
sg63
(lp4098
S':'
asbag56
(g77
g58
NtRp4099
(dp4100
g61
(dp4101
sg70
g4086
sg63
(lp4102
g56
(g57
g58
NtRp4103
(dp4104
g61
(dp4105
g69
I4
ssg70
g4099
sg63
(lp4106
S'Free and open source full-stack enterprise framework for agile development of fast, scalable, secure and portable database-driven web-based applications. Written and programmable in Python'
p4107
asbasbasbag56
(g72
g58
NtRp4108
(dp4109
g61
(dp4110
sg70
g4038
sg63
(lp4111
g56
(g77
g58
NtRp4112
(dp4113
g61
(dp4114
g81
g82
ssg70
g4108
sg63
(lp4115
S'generator'
p4116
asbag56
(g77
g58
NtRp4117
(dp4118
g61
(dp4119
g88
g89
ssg70
g4108
sg63
(lp4120
S':'
asbag56
(g77
g58
NtRp4121
(dp4122
g61
(dp4123
sg70
g4108
sg63
(lp4124
g56
(g57
g58
NtRp4125
(dp4126
g61
(dp4127
g69
I4
ssg70
g4121
sg63
(lp4128
S'Web2py Enterprise Framework'
p4129
asbasbasbag56
(g72
g58
NtRp4130
(dp4131
g61
(dp4132
sg70
g4038
sg63
(lp4133
g56
(g77
g58
NtRp4134
(dp4135
g61
(dp4136
g81
g82
ssg70
g4130
sg63
(lp4137
S'keywords'
p4138
asbag56
(g77
g58
NtRp4139
(dp4140
g61
(dp4141
g88
g89
ssg70
g4130
sg63
(lp4142
S':'
asbag56
(g77
g58
NtRp4143
(dp4144
g61
(dp4145
sg70
g4130
sg63
(lp4146
g56
(g57
g58
NtRp4147
(dp4148
g61
(dp4149
g69
I4
ssg70
g4143
sg63
(lp4150
S'web2py, python, framework'
p4151
asbasbasbasbasbasbasbag56
(g72
g58
NtRp4152
(dp4153
g61
(dp4154
sg70
g2583
sg63
(lp4155
g56
(g77
g58
NtRp4156
(dp4157
g61
(dp4158
g81
g82
ssg70
g4152
sg63
(lp4159
S'postprocessing'
p4160
asbag56
(g77
g58
NtRp4161
(dp4162
g61
(dp4163
g88
g89
ssg70
g4152
sg63
(lp4164
S':'
asbag56
(g77
g58
NtRp4165
(dp4166
g61
(dp4167
sg70
g4152
sg63
(lp4168
g56
(g57
g58
NtRp4169
(dp4170
g61
(dp4171
g69
I5
ssg70
g4165
sg63
(lp4172
g56
(g65
g58
NtRp4173
(dp4174
g61
(dp4175
g69
I4
ssg70
Nsg63
(lp4176
sbasbasbasbag56
(g72
g58
NtRp4177
(dp4178
g61
(dp4179
sg70
g2583
sg63
(lp4180
g56
(g77
g58
NtRp4181
(dp4182
g61
(dp4183
g81
g82
ssg70
g4177
sg63
(lp4184
S'session_file'
p4185
asbag56
(g77
g58
NtRp4186
(dp4187
g61
(dp4188
g88
g89
ssg70
g4177
sg63
(lp4189
S':'
asbag56
(g77
g58
NtRp4190
(dp4191
g61
(dp4192
sg70
g4177
sg63
(lp4193
g56
(g57
g58
NtRp4194
(dp4195
g61
(dp4196
g69
I5
ssg70
g4190
sg63
(lp4197
S"<open file '/Users/schultzc/workspace/wherespuppet/web2py/applications/wp/sessions/127.0.0.1-e6593033-928d-4684-9c9b-143a7e4c503a', mode 'rb+' at 0x1018bd1e0>"
p4198
asbasbasbag56
(g72
g58
NtRp4199
(dp4200
g61
(dp4201
sg70
g2583
sg63
(lp4202
g56
(g77
g58
NtRp4203
(dp4204
g61
(dp4205
g81
g82
ssg70
g4199
sg63
(lp4206
S'session_filename'
p4207
asbag56
(g77
g58
NtRp4208
(dp4209
g61
(dp4210
g88
g89
ssg70
g4199
sg63
(lp4211
S':'
asbag56
(g77
g58
NtRp4212
(dp4213
g61
(dp4214
sg70
g4199
sg63
(lp4215
g56
(g57
g58
NtRp4216
(dp4217
g61
(dp4218
g69
I5
ssg70
g4212
sg63
(lp4219
S'/Users/schultzc/workspace/wherespuppet/web2py/applications/wp/sessions/127.0.0.1-e6593033-928d-4684-9c9b-143a7e4c503a'
p4220
asbasbasbag56
(g72
g58
NtRp4221
(dp4222
g61
(dp4223
sg70
g2583
sg63
(lp4224
g56
(g77
g58
NtRp4225
(dp4226
g61
(dp4227
g81
g82
ssg70
g4221
sg63
(lp4228
S'session_id'
p4229
asbag56
(g77
g58
NtRp4230
(dp4231
g61
(dp4232
g88
g89
ssg70
g4221
sg63
(lp4233
S':'
asbag56
(g77
g58
NtRp4234
(dp4235
g61
(dp4236
sg70
g4221
sg63
(lp4237
g56
(g57
g58
NtRp4238
(dp4239
g61
(dp4240
g69
I5
ssg70
g4234
sg63
(lp4241
S'127.0.0.1-e6593033-928d-4684-9c9b-143a7e4c503a'
p4242
asbasbasbag56
(g72
g58
NtRp4243
(dp4244
g61
(dp4245
sg70
g2583
sg63
(lp4246
g56
(g77
g58
NtRp4247
(dp4248
g61
(dp4249
g81
g82
ssg70
g4243
sg63
(lp4250
S'session_id_name'
p4251
asbag56
(g77
g58
NtRp4252
(dp4253
g61
(dp4254
g88
g89
ssg70
g4243
sg63
(lp4255
S':'
asbag56
(g77
g58
NtRp4256
(dp4257
g61
(dp4258
sg70
g4243
sg63
(lp4259
g56
(g57
g58
NtRp4260
(dp4261
g61
(dp4262
g69
I5
ssg70
g4256
sg63
(lp4263
g2640
asbasbasbag56
(g72
g58
NtRp4264
(dp4265
g61
(dp4266
sg70
g2583
sg63
(lp4267
g56
(g77
g58
NtRp4268
(dp4269
g61
(dp4270
g81
g82
ssg70
g4264
sg63
(lp4271
S'session_locked'
p4272
asbag56
(g77
g58
NtRp4273
(dp4274
g61
(dp4275
g88
g89
ssg70
g4264
sg63
(lp4276
S':'
asbag56
(g77
g58
NtRp4277
(dp4278
g61
(dp4279
sg70
g4264
sg63
(lp4280
g56
(g57
g58
NtRp4281
(dp4282
g61
(dp4283
g69
I5
ssg70
g4277
sg63
(lp4284
g1547
asbasbasbag56
(g72
g58
NtRp4285
(dp4286
g61
(dp4287
sg70
g2583
sg63
(lp4288
g56
(g77
g58
NtRp4289
(dp4290
g61
(dp4291
g81
g82
ssg70
g4285
sg63
(lp4292
S'session_new'
p4293
asbag56
(g77
g58
NtRp4294
(dp4295
g61
(dp4296
g88
g89
ssg70
g4285
sg63
(lp4297
S':'
asbag56
(g77
g58
NtRp4298
(dp4299
g61
(dp4300
sg70
g4285
sg63
(lp4301
g56
(g57
g58
NtRp4302
(dp4303
g61
(dp4304
g69
I5
ssg70
g4298
sg63
(lp4305
g99
asbasbasbag56
(g72
g58
NtRp4306
(dp4307
g61
(dp4308
sg70
g2583
sg63
(lp4309
g56
(g77
g58
NtRp4310
(dp4311
g61
(dp4312
g81
g82
ssg70
g4306
sg63
(lp4313
S'status'
p4314
asbag56
(g77
g58
NtRp4315
(dp4316
g61
(dp4317
g88
g89
ssg70
g4306
sg63
(lp4318
S':'
asbag56
(g77
g58
NtRp4319
(dp4320
g61
(dp4321
sg70
g4306
sg63
(lp4322
g56
(g57
g58
NtRp4323
(dp4324
g61
(dp4325
g69
I5
ssg70
g4319
sg63
(lp4326
S'200'
p4327
asbasbasbag56
(g72
g58
NtRp4328
(dp4329
g61
(dp4330
sg70
g2583
sg63
(lp4331
g56
(g77
g58
NtRp4332
(dp4333
g61
(dp4334
g81
g82
ssg70
g4328
sg63
(lp4335
S'subtitle'
p4336
asbag56
(g77
g58
NtRp4337
(dp4338
g61
(dp4339
g88
g89
ssg70
g4328
sg63
(lp4340
S':'
asbag56
(g77
g58
NtRp4341
(dp4342
g61
(dp4343
sg70
g4328
sg63
(lp4344
g56
(g57
g58
NtRp4345
(dp4346
g61
(dp4347
g69
I5
ssg70
g4341
sg63
(lp4348
g3090
(S's\r\x00\x00\x00customize me!'
tRp4349
asbasbasbag56
(g72
g58
NtRp4350
(dp4351
g61
(dp4352
sg70
g2583
sg63
(lp4353
g56
(g77
g58
NtRp4354
(dp4355
g61
(dp4356
g81
g82
ssg70
g4350
sg63
(lp4357
S'title'
p4358
asbag56
(g77
g58
NtRp4359
(dp4360
g61
(dp4361
g88
g89
ssg70
g4350
sg63
(lp4362
S':'
asbag56
(g77
g58
NtRp4363
(dp4364
g61
(dp4365
sg70
g4350
sg63
(lp4366
g56
(g57
g58
NtRp4367
(dp4368
g61
(dp4369
g69
I5
ssg70
g4363
sg63
(lp4370
g121
asbasbasbag56
(g72
g58
NtRp4371
(dp4372
g61
(dp4373
sg70
g2583
sg63
(lp4374
g56
(g77
g58
NtRp4375
(dp4376
g61
(dp4377
g81
g82
ssg70
g4371
sg63
(lp4378
g1871
asbag56
(g77
g58
NtRp4379
(dp4380
g61
(dp4381
g88
g89
ssg70
g4371
sg63
(lp4382
S':'
asbag56
(g77
g58
NtRp4383
(dp4384
g61
(dp4385
sg70
g4371
sg63
(lp4386
g56
(g57
g58
NtRp4387
(dp4388
g61
(dp4389
g69
I5
ssg70
g4383
sg63
(lp4390
g1884
asbasbasbag56
(g72
g58
NtRp4391
(dp4392
g61
(dp4393
sg70
g2583
sg63
(lp4394
g56
(g77
g58
NtRp4395
(dp4396
g61
(dp4397
g81
g82
ssg70
g4391
sg63
(lp4398
S'view'
p4399
asbag56
(g77
g58
NtRp4400
(dp4401
g61
(dp4402
g88
g89
ssg70
g4391
sg63
(lp4403
S':'
asbag56
(g77
g58
NtRp4404
(dp4405
g61
(dp4406
sg70
g4391
sg63
(lp4407
g56
(g57
g58
NtRp4408
(dp4409
g61
(dp4410
g69
I5
ssg70
g4404
sg63
(lp4411
S'default/index.html'
p4412
asbasbasbasbasbsS'locals'
p4413
(dp4414
S'OBJECT'
p4415
S"<class 'gluon.html.OBJECT'>"
p4416
sS'_file'
p4417
S"'/wp/static/js/calendar.js'"
p4418
sS'SQLDB'
p4419
S"<class 'gluon.dal.DAL'>"
p4420
sg2565
S"<Storage {'_formkey[comment/create]': '62aa20ef-... '\\xb5\\xaeex\\x80i\\xc7\\x06\\xe1Y\\xd4\\xc4\\x03%<\\n'}>"
p4421
sS'LINK'
p4422
S"<class 'gluon.html.LINK'>"
p4423
sS'BR'
p4424
S"<class 'gluon.html.BR'>"
p4425
sS'local_import'
p4426
S'<function <lambda>>'
p4427
sS'OPTGROUP'
p4428
S"<class 'gluon.html.OPTGROUP'>"
p4429
sS'PRE'
p4430
S"<class 'gluon.html.PRE'>"
p4431
sS'IS_INT_IN_RANGE'
p4432
S"<class 'gluon.validators.IS_INT_IN_RANGE'>"
p4433
sS'IS_LOWER'
p4434
S"<class 'gluon.validators.IS_LOWER'>"
p4435
sS'IS_STRONG'
p4436
S"<class 'gluon.validators.IS_STRONG'>"
p4437
sS'cache'
p4438
S'<gluon.cache.Cache object>'
p4439
sS'IS_IN_DB'
p4440
S"<class 'gluon.validators.IS_IN_DB'>"
p4441
sS'TAG'
p4442
S'<gluon.html.__TAG__ object>'
p4443
sS'_k'
p4444
S'2'
sS'SQLField'
p4445
S"<class 'gluon.dal.Field'>"
p4446
sS'BODY'
p4447
S"<class 'gluon.html.BODY'>"
p4448
sS'IS_DATE_IN_RANGE'
p4449
S"<class 'gluon.validators.IS_DATE_IN_RANGE'>"
p4450
sS'TH'
p4451
S"<class 'gluon.html.TH'>"
p4452
sS'URL'
p4453
S'<function URL>'
p4454
sS'__file__'
p4455
S"'/Users/schultzc/workspace/wherespuppet/web2py/applications/wp/views/default/index.html'"
p4456
sS'db'
p4457
S"<DAL {'_migrate_enabled': True, '_lastsql': 'SEL...'_uri_hash': 'fb87181b96a99be45f5a23f4277867ce'}>"
p4458
sS'P'
S"<class 'gluon.html.P'>"
p4459
sS'TFOOT'
p4460
S"<class 'gluon.html.TFOOT'>"
p4461
sS'XHTML'
p4462
S"<class 'gluon.html.XHTML'>"
p4463
sS'ON'
p4464
g1547
sS'OL'
p4465
S"<class 'gluon.html.OL'>"
p4466
sS'TEXTAREA'
p4467
S"<class 'gluon.html.TEXTAREA'>"
p4468
sS'MENU'
p4469
S"<class 'gluon.html.MENU'>"
p4470
sS'_file0'
p4471
S"'/wp/static/js/calendar.js'"
p4472
sS'LOAD'
p4473
S'<gluon.compileapp.LoadFactory object>'
p4474
sS'CODE'
p4475
S"<class 'gluon.html.CODE'>"
p4476
sS'HTTP'
p4477
S"<class 'gluon.http.HTTP'>"
p4478
sS'HR'
p4479
S"<class 'gluon.html.HR'>"
p4480
sS'IS_DATETIME'
p4481
S"<class 'gluon.validators.IS_DATETIME'>"
p4482
sS'HEAD'
p4483
S"<class 'gluon.html.HEAD'>"
p4484
sS'LABEL'
p4485
S"<class 'gluon.html.LABEL'>"
p4486
sS'CLEANUP'
p4487
S"<class 'gluon.validators.CLEANUP'>"
p4488
sS'images'
p4489
S'<gluon.dal.Rows object>'
p4490
sS'SELECT'
p4491
S"<class 'gluon.html.SELECT'>"
p4492
sS'CENTER'
p4493
S"<class 'gluon.html.CENTER'>"
p4494
sS'__builtins__'
p4495
S"{'ArithmeticError': <type 'exceptions.ArithmeticError'>, 'AssertionError': <type 'exceptions.AssertionError'>, 'AttributeError': <type 'exceptions.AttributeError'>, 'BaseException': <type 'exceptions.BaseException'>, 'BufferError': <type 'exceptions.BufferError'>, 'BytesWarning': <type 'exceptions.BytesWarning'>, 'DeprecationWarning': <type 'exceptions.DeprecationWarning'>, 'EOFError': <type 'exceptions.EOFError'>, 'Ellipsis': Ellipsis, 'EnvironmentError': <type 'exceptions.EnvironmentError'>, ...}"
p4496
sS'IS_LIST_OF'
p4497
S"<class 'gluon.validators.IS_LIST_OF'>"
p4498
sS'SQLFORM'
p4499
S"<class 'gluon.sqlhtml.SQLFORM'>"
p4500
sS'_item'
p4501
S"'author'"
p4502
sS'EM'
p4503
S"<class 'gluon.html.EM'>"
p4504
sS'redirect'
p4505
S'<function redirect>'
p4506
sS'FIELDSET'
p4507
S"<class 'gluon.html.FIELDSET'>"
p4508
sS'IS_EQUAL_TO'
p4509
S"<class 'gluon.validators.IS_EQUAL_TO'>"
p4510
sS'embed64'
p4511
S'<function embed64>'
p4512
sS'INPUT'
p4513
S"<class 'gluon.html.INPUT'>"
p4514
sS'EMBED'
p4515
S"<class 'gluon.html.EMBED'>"
p4516
sS'FORM'
p4517
S"<class 'gluon.html.FORM'>"
p4518
sS'H2'
p4519
S"<class 'gluon.html.H2'>"
p4520
sS'H3'
p4521
S"<class 'gluon.html.H3'>"
p4522
sS'BUTTON'
p4523
S"<class 'gluon.html.BUTTON'>"
p4524
sS'H1'
p4525
S"<class 'gluon.html.H1'>"
p4526
sS'H6'
p4527
S"<class 'gluon.html.H6'>"
p4528
sS'H4'
p4529
S"<class 'gluon.html.H4'>"
p4530
sS'H5'
p4531
S"<class 'gluon.html.H5'>"
p4532
sS'UL'
p4533
S"<class 'gluon.html.UL'>"
p4534
sS'IS_UPPER'
p4535
S"<class 'gluon.validators.IS_UPPER'>"
p4536
sS'xmlescape'
p4537
S'<function xmlescape>'
p4538
sS'IS_TIME'
p4539
S"<class 'gluon.validators.IS_TIME'>"
p4540
sS'OPTION'
p4541
S"<class 'gluon.html.OPTION'>"
p4542
sS'TITLE'
p4543
S"<class 'gluon.html.TITLE'>"
p4544
sS'CRYPT'
p4545
S"<class 'gluon.validators.CRYPT'>"
p4546
sS'IS_EMPTY_OR'
p4547
S"<class 'gluon.validators.IS_EMPTY_OR'>"
p4548
sS'MARKMIN'
p4549
S"<class 'gluon.html.MARKMIN'>"
p4550
sS'SCRIPT'
p4551
S"<class 'gluon.html.SCRIPT'>"
p4552
sS'TABLE'
p4553
S"<class 'gluon.html.TABLE'>"
p4554
sS'IS_IPV4'
p4555
S"<class 'gluon.validators.IS_IPV4'>"
p4556
sS'IS_LENGTH'
p4557
S"<class 'gluon.validators.IS_LENGTH'>"
p4558
sS'XML'
p4559
S"<class 'gluon.html.XML'>"
p4560
sS'B'
S"<class 'gluon.html.B'>"
p4561
sS'IMG'
p4562
S"<class 'gluon.html.IMG'>"
p4563
sS'SQLTABLE'
p4564
S"<class 'gluon.sqlhtml.SQLTABLE'>"
p4565
sS'IS_MATCH'
p4566
S"<class 'gluon.validators.IS_MATCH'>"
p4567
sS'IS_ALPHANUMERIC'
p4568
S"<class 'gluon.validators.IS_ALPHANUMERIC'>"
p4569
sS'SPAN'
p4570
S"<class 'gluon.html.SPAN'>"
p4571
sS'IS_SLUG'
p4572
S"<class 'gluon.validators.IS_SLUG'>"
p4573
sS'BEAUTIFY'
p4574
S"<class 'gluon.html.BEAUTIFY'>"
p4575
sS'META'
p4576
S"<class 'gluon.html.META'>"
p4577
sS'IS_DATE'
p4578
S"<class 'gluon.validators.IS_DATE'>"
p4579
sS'IS_EMAIL'
p4580
S"<class 'gluon.validators.IS_EMAIL'>"
p4581
sS'IS_NOT_EMPTY'
p4582
S"<class 'gluon.validators.IS_NOT_EMPTY'>"
p4583
sg55
S"<Storage {'is_local': True, 'function': 'index',....23-45-49.a28d5b1b-2891-484f-ab2b-5f0404be3a3e'}>"
p4584
sS'TBODY'
p4585
S"<class 'gluon.html.TBODY'>"
p4586
sS'Field'
p4587
S"<class 'gluon.dal.Field'>"
p4588
sS'DIV'
p4589
S"<class 'gluon.html.DIV'>"
p4590
sS'LEGEND'
p4591
S"<class 'gluon.html.LEGEND'>"
p4592
sS'DAL'
p4593
S"<class 'gluon.dal.DAL'>"
p4594
sS'TT'
p4595
S"<class 'gluon.html.TT'>"
p4596
sS'TR'
p4597
S"<class 'gluon.html.TR'>"
p4598
sS'LI'
p4599
S"<class 'gluon.html.LI'>"
p4600
sS'IFRAME'
p4601
S"<class 'gluon.html.IFRAME'>"
p4602
sS'TD'
p4603
S"<class 'gluon.html.TD'>"
p4604
sS'IS_URL'
p4605
S"<class 'gluon.validators.IS_URL'>"
p4606
sS'A'
S"<class 'gluon.html.A'>"
p4607
sS'STYLE'
p4608
S"<class 'gluon.html.STYLE'>"
p4609
sS'IS_DATETIME_IN_RANGE'
p4610
S"<class 'gluon.validators.IS_DATETIME_IN_RANGE'>"
p4611
sS'HTML'
p4612
S"<class 'gluon.html.HTML'>"
p4613
sS'IS_IMAGE'
p4614
S"<class 'gluon.validators.IS_IMAGE'>"
p4615
sS'I'
S"<class 'gluon.html.I'>"
p4616
sS'IS_NOT_IN_DB'
p4617
S"<class 'gluon.validators.IS_NOT_IN_DB'>"
p4618
sg2578
S"<Storage {'body': <cStringIO.StringO object at 0...> at 0x108045c08>, 'view': 'default/index.html'}>"
p4619
sS'THEAD'
p4620
S"<class 'gluon.html.THEAD'>"
p4621
sS'IS_NULL_OR'
p4622
S"<class 'gluon.validators.IS_EMPTY_OR'>"
p4623
sS'IS_FLOAT_IN_RANGE'
p4624
S"<class 'gluon.validators.IS_FLOAT_IN_RANGE'>"
p4625
sS'IS_EXPR'
p4626
S"<class 'gluon.validators.IS_EXPR'>"
p4627
sS'T'
S'<gluon.languages.translator object>'
p4628
sS'IS_IN_SET'
p4629
S"<class 'gluon.validators.IS_IN_SET'>"
p4630
sS'IS_UPLOAD_FILENAME'
p4631
S"<class 'gluon.validators.IS_UPLOAD_FILENAME'>"
p4632
sS'IS_DECIMAL_IN_RANGE'
p4633
S"<class 'gluon.validators.IS_DECIMAL_IN_RANGE'>"
p4634
sssS'traceback'
p4635
S'Traceback (most recent call last):\n  File "/Users/schultzc/workspace/wherespuppet/web2py/gluon/restricted.py", line 192, in restricted\n    exec ccode in environment\n  File "/Users/schultzc/workspace/wherespuppet/web2py/applications/wp/views/default/index.html", line 53, in <module>\nNameError: name \'auth\' is not defined\n'
p4636
s.