(dp1
S'output'
p2
S''
sS'layer'
p3
S'/Users/schultzc/workspace/wherespuppet/web2py/applications/wp/controllers/default.py'
p4
sS'code'
p5
S'# -*- coding: utf-8 -*-\n# this file is released under public domain and you can use without limitations\n\n#########################################################################\n## This is a samples controller\n## - index is the default action of any application\n## - user is required for authentication and authorization\n## - download is for downloading files uploaded in the db (does streaming)\n## - call exposes all registered services (none by default)\n#########################################################################\nimport datetime\n\n\ndef index():\n    images = db().select(db.image.ALL, orderby=db.image.title)\n    return dict(images=images)\n    \ndef submit():\n    form = SQLFORM(db.image, submit_button=\'Submit Puppet\', _id = "submission",formstyle="divs")\n    if request.cookies[\'posLat\'].value:\n        latitude = request.cookies[\'posLat\'].value    \n    if form.accepts(request.vars, session):\n        response.flash = \'form accepted\'\n    elif form.errors:\n        response.flash = \'form has errors\'\n    else:\n        response.flash = \'please fill out the form\'\n        \n    if latitude != None:\n        dict(form=form, latitude=latitude)\n    else:    \n        return dict(form=form)\n    \n   \ndef show():\n    image = db(db.image.id==request.args(0)).select().first()\n    form = SQLFORM(db.comment)\n    form.vars.image_id = image.id\n    if form.accepts(request.vars, session):\n        response.flash = \'your comment is posted\'\n    comments = db(db.comment.image_id==image.id).select()\n    return dict(image=image, comments=comments, form=form)\n\ndef user():\n    """\n    exposes:\n    http://..../[app]/default/user/login\n    http://..../[app]/default/user/logout\n    http://..../[app]/default/user/register\n    http://..../[app]/default/user/profile\n    http://..../[app]/default/user/retrieve_password\n    http://..../[app]/default/user/change_password\n    use @auth.requires_login()\n        @auth.requires_membership(\'group name\')\n        @auth.requires_permission(\'read\',\'table name\',record_id)\n    to decorate functions that need access control\n    """\n    return dict(form=auth())\n\n\ndef download():\n    """\n    allows downloading of uploaded files\n    http://..../[app]/default/download/[filename]\n    """\n    return response.download(request,db)\n\n\ndef call():\n    """\n    exposes services. for example:\n    http://..../[app]/default/call/jsonrpc\n    decorate with @services.jsonrpc the functions to expose\n    supports xml, json, xmlrpc, jsonrpc, amfrpc, rss, csv\n    """\n    return service()\n\n\'\'\'\n@auth.requires_signature()\ndef data():\n    """\n    http://..../[app]/default/data/tables\n    http://..../[app]/default/data/create/[table]\n    http://..../[app]/default/data/read/[table]/[id]\n    http://..../[app]/default/data/update/[table]/[id]\n    http://..../[app]/default/data/delete/[table]/[id[\n    http://..../[app]/default/data/select/[table]\n    http://..../[app]/default/data/search/[table]\n    but URLs bust be signed, i.e. linked with\n      A(\'table\',_href=URL(\'data/tables\',user_signature=True))\n    or with the signed load operator\n      LOAD(\'default\',\'data.load\',args=\'tables\',ajax=True,user_signature=True)\n    """\n    return dict(form=crud())\n\'\'\'\n\nresponse._vars=response._caller(submit)\n'
p6
sS'snapshot'
p7
(dp8
S'exception'
p9
(dp10
S'__hash__'
p11
S"<method-wrapper '__hash__' of exceptions.KeyError object>"
p12
sS'__setattr__'
p13
S"<method-wrapper '__setattr__' of exceptions.KeyError object>"
p14
sS'__reduce_ex__'
p15
S'<built-in method __reduce_ex__ of exceptions.KeyError object>'
p16
sS'__getslice__'
p17
S"<method-wrapper '__getslice__' of exceptions.KeyError object>"
p18
sS'__getitem__'
p19
S"<method-wrapper '__getitem__' of exceptions.KeyError object>"
p20
sS'__setstate__'
p21
S'<built-in method __setstate__ of exceptions.KeyError object>'
p22
sS'args'
p23
S"('posLat',)"
p24
sS'__reduce__'
p25
S'<built-in method __reduce__ of exceptions.KeyError object>'
p26
sS'__str__'
p27
S"<method-wrapper '__str__' of exceptions.KeyError object>"
p28
sS'__format__'
p29
S'<built-in method __format__ of exceptions.KeyError object>'
p30
sS'__getattribute__'
p31
S"<method-wrapper '__getattribute__' of exceptions.KeyError object>"
p32
sS'__class__'
p33
S"<type 'exceptions.KeyError'>"
p34
sS'__unicode__'
p35
S'<built-in method __unicode__ of exceptions.KeyError object>'
p36
sS'__delattr__'
p37
S"<method-wrapper '__delattr__' of exceptions.KeyError object>"
p38
sS'__subclasshook__'
p39
S'<built-in method __subclasshook__ of type object>'
p40
sS'__repr__'
p41
S"<method-wrapper '__repr__' of exceptions.KeyError object>"
p42
sS'__dict__'
p43
S'{}'
p44
sS'__sizeof__'
p45
S'<built-in method __sizeof__ of exceptions.KeyError object>'
p46
sS'__doc__'
p47
S"'Mapping key not found.'"
p48
sS'__init__'
p49
S"<method-wrapper '__init__' of exceptions.KeyError object>"
p50
sS'__new__'
p51
S'<built-in method __new__ of type object>'
p52
ssS'evalue'
p53
S"'posLat'"
p54
sS'request'
p55
ccopy_reg
_reconstructor
p56
(cgluon.html
BEAUTIFY
p57
c__builtin__
object
p58
NtRp59
(dp60
S'attributes'
p61
(dp62
sS'components'
p63
(lp64
g56
(cgluon.html
TABLE
p65
g58
NtRp66
(dp67
g61
(dp68
S'level'
p69
I5
ssS'parent'
p70
Nsg63
(lp71
g56
(cgluon.html
TR
p72
g58
NtRp73
(dp74
g61
(dp75
sg70
g66
sg63
(lp76
g56
(cgluon.html
TD
p77
g58
NtRp78
(dp79
g61
(dp80
S'_style'
p81
S'font-weight:bold;'
p82
ssg70
g73
sg63
(lp83
S'ajax'
p84
asbag56
(g77
g58
NtRp85
(dp86
g61
(dp87
S'_valign'
p88
S'top'
p89
ssg70
g73
sg63
(lp90
S':'
asbag56
(g77
g58
NtRp91
(dp92
g61
(dp93
sg70
g73
sg63
(lp94
g56
(g57
g58
NtRp95
(dp96
g61
(dp97
g69
I5
ssg70
g91
sg63
(lp98
S'False'
p99
asbasbasbag56
(g72
g58
NtRp100
(dp101
g61
(dp102
sg70
g66
sg63
(lp103
g56
(g77
g58
NtRp104
(dp105
g61
(dp106
g81
g82
ssg70
g100
sg63
(lp107
S'application'
p108
asbag56
(g77
g58
NtRp109
(dp110
g61
(dp111
g88
g89
ssg70
g100
sg63
(lp112
S':'
asbag56
(g77
g58
NtRp113
(dp114
g61
(dp115
sg70
g100
sg63
(lp116
g56
(g57
g58
NtRp117
(dp118
g61
(dp119
g69
I5
ssg70
g113
sg63
(lp120
S'wp'
p121
asbasbasbag56
(g72
g58
NtRp122
(dp123
g61
(dp124
sg70
g66
sg63
(lp125
g56
(g77
g58
NtRp126
(dp127
g61
(dp128
g81
g82
ssg70
g122
sg63
(lp129
g23
asbag56
(g77
g58
NtRp130
(dp131
g61
(dp132
g88
g89
ssg70
g122
sg63
(lp133
S':'
asbag56
(g77
g58
NtRp134
(dp135
g61
(dp136
sg70
g122
sg63
(lp137
g56
(g57
g58
NtRp138
(dp139
g61
(dp140
g69
I5
ssg70
g134
sg63
(lp141
g56
(g65
g58
NtRp142
(dp143
g61
(dp144
g69
I4
ssg70
Nsg63
(lp145
sbasbasbasbag56
(g72
g58
NtRp146
(dp147
g61
(dp148
sg70
g66
sg63
(lp149
g56
(g77
g58
NtRp150
(dp151
g61
(dp152
g81
g82
ssg70
g146
sg63
(lp153
S'body'
p154
asbag56
(g77
g58
NtRp155
(dp156
g61
(dp157
g88
g89
ssg70
g146
sg63
(lp158
S':'
asbag56
(g77
g58
NtRp159
(dp160
g61
(dp161
sg70
g146
sg63
(lp162
g56
(g57
g58
NtRp163
(dp164
g61
(dp165
g69
I5
ssg70
g159
sg63
(lp166
S'<cStringIO.StringO object at 0x105f0ea08>'
p167
asbasbasbag56
(g72
g58
NtRp168
(dp169
g61
(dp170
sg70
g66
sg63
(lp171
g56
(g77
g58
NtRp172
(dp173
g61
(dp174
g81
g82
ssg70
g168
sg63
(lp175
S'client'
p176
asbag56
(g77
g58
NtRp177
(dp178
g61
(dp179
g88
g89
ssg70
g168
sg63
(lp180
S':'
asbag56
(g77
g58
NtRp181
(dp182
g61
(dp183
sg70
g168
sg63
(lp184
g56
(g57
g58
NtRp185
(dp186
g61
(dp187
g69
I5
ssg70
g181
sg63
(lp188
S'127.0.0.1'
p189
asbasbasbag56
(g72
g58
NtRp190
(dp191
g61
(dp192
sg70
g66
sg63
(lp193
g56
(g77
g58
NtRp194
(dp195
g61
(dp196
g81
g82
ssg70
g190
sg63
(lp197
S'controller'
p198
asbag56
(g77
g58
NtRp199
(dp200
g61
(dp201
g88
g89
ssg70
g190
sg63
(lp202
S':'
asbag56
(g77
g58
NtRp203
(dp204
g61
(dp205
sg70
g190
sg63
(lp206
g56
(g57
g58
NtRp207
(dp208
g61
(dp209
g69
I5
ssg70
g203
sg63
(lp210
S'default'
p211
asbasbasbag56
(g72
g58
NtRp212
(dp213
g61
(dp214
sg70
g66
sg63
(lp215
g56
(g77
g58
NtRp216
(dp217
g61
(dp218
g81
g82
ssg70
g212
sg63
(lp219
S'cookies'
p220
asbag56
(g77
g58
NtRp221
(dp222
g61
(dp223
g88
g89
ssg70
g212
sg63
(lp224
S':'
asbag56
(g77
g58
NtRp225
(dp226
g61
(dp227
sg70
g212
sg63
(lp228
g56
(g57
g58
NtRp229
(dp230
g61
(dp231
g69
I5
ssg70
g225
sg63
(lp232
g56
(g65
g58
NtRp233
(dp234
g61
(dp235
g69
I4
ssg70
Nsg63
(lp236
g56
(g72
g58
NtRp237
(dp238
g61
(dp239
sg70
g233
sg63
(lp240
g56
(g77
g58
NtRp241
(dp242
g61
(dp243
g81
g82
ssg70
g237
sg63
(lp244
S'session_id_admin'
p245
asbag56
(g77
g58
NtRp246
(dp247
g61
(dp248
g88
g89
ssg70
g237
sg63
(lp249
S':'
asbag56
(g77
g58
NtRp250
(dp251
g61
(dp252
sg70
g237
sg63
(lp253
g56
(g57
g58
NtRp254
(dp255
g61
(dp256
g69
I4
ssg70
g250
sg63
(lp257
g56
(g65
g58
NtRp258
(dp259
g61
(dp260
g69
I3
ssg70
Nsg63
(lp261
g56
(g72
g58
NtRp262
(dp263
g61
(dp264
sg70
g258
sg63
(lp265
g56
(g77
g58
NtRp266
(dp267
g61
(dp268
g81
g82
ssg70
g262
sg63
(lp269
S'comment'
p270
asbag56
(g77
g58
NtRp271
(dp272
g61
(dp273
g88
g89
ssg70
g262
sg63
(lp274
S':'
asbag56
(g77
g58
NtRp275
(dp276
g61
(dp277
sg70
g262
sg63
(lp278
g56
(g57
g58
NtRp279
(dp280
g61
(dp281
g69
I3
ssg70
g275
sg63
(lp282
S''
asbasbasbag56
(g72
g58
NtRp283
(dp284
g61
(dp285
sg70
g258
sg63
(lp286
g56
(g77
g58
NtRp287
(dp288
g61
(dp289
g81
g82
ssg70
g283
sg63
(lp290
S'domain'
p291
asbag56
(g77
g58
NtRp292
(dp293
g61
(dp294
g88
g89
ssg70
g283
sg63
(lp295
S':'
asbag56
(g77
g58
NtRp296
(dp297
g61
(dp298
sg70
g283
sg63
(lp299
g56
(g57
g58
NtRp300
(dp301
g61
(dp302
g69
I3
ssg70
g296
sg63
(lp303
S''
asbasbasbag56
(g72
g58
NtRp304
(dp305
g61
(dp306
sg70
g258
sg63
(lp307
g56
(g77
g58
NtRp308
(dp309
g61
(dp310
g81
g82
ssg70
g304
sg63
(lp311
S'expires'
p312
asbag56
(g77
g58
NtRp313
(dp314
g61
(dp315
g88
g89
ssg70
g304
sg63
(lp316
S':'
asbag56
(g77
g58
NtRp317
(dp318
g61
(dp319
sg70
g304
sg63
(lp320
g56
(g57
g58
NtRp321
(dp322
g61
(dp323
g69
I3
ssg70
g317
sg63
(lp324
S''
asbasbasbag56
(g72
g58
NtRp325
(dp326
g61
(dp327
sg70
g258
sg63
(lp328
g56
(g77
g58
NtRp329
(dp330
g61
(dp331
g81
g82
ssg70
g325
sg63
(lp332
S'httponly'
p333
asbag56
(g77
g58
NtRp334
(dp335
g61
(dp336
g88
g89
ssg70
g325
sg63
(lp337
S':'
asbag56
(g77
g58
NtRp338
(dp339
g61
(dp340
sg70
g325
sg63
(lp341
g56
(g57
g58
NtRp342
(dp343
g61
(dp344
g69
I3
ssg70
g338
sg63
(lp345
S''
asbasbasbag56
(g72
g58
NtRp346
(dp347
g61
(dp348
sg70
g258
sg63
(lp349
g56
(g77
g58
NtRp350
(dp351
g61
(dp352
g81
g82
ssg70
g346
sg63
(lp353
S'max-age'
p354
asbag56
(g77
g58
NtRp355
(dp356
g61
(dp357
g88
g89
ssg70
g346
sg63
(lp358
S':'
asbag56
(g77
g58
NtRp359
(dp360
g61
(dp361
sg70
g346
sg63
(lp362
g56
(g57
g58
NtRp363
(dp364
g61
(dp365
g69
I3
ssg70
g359
sg63
(lp366
S''
asbasbasbag56
(g72
g58
NtRp367
(dp368
g61
(dp369
sg70
g258
sg63
(lp370
g56
(g77
g58
NtRp371
(dp372
g61
(dp373
g81
g82
ssg70
g367
sg63
(lp374
S'path'
p375
asbag56
(g77
g58
NtRp376
(dp377
g61
(dp378
g88
g89
ssg70
g367
sg63
(lp379
S':'
asbag56
(g77
g58
NtRp380
(dp381
g61
(dp382
sg70
g367
sg63
(lp383
g56
(g57
g58
NtRp384
(dp385
g61
(dp386
g69
I3
ssg70
g380
sg63
(lp387
S''
asbasbasbag56
(g72
g58
NtRp388
(dp389
g61
(dp390
sg70
g258
sg63
(lp391
g56
(g77
g58
NtRp392
(dp393
g61
(dp394
g81
g82
ssg70
g388
sg63
(lp395
S'secure'
p396
asbag56
(g77
g58
NtRp397
(dp398
g61
(dp399
g88
g89
ssg70
g388
sg63
(lp400
S':'
asbag56
(g77
g58
NtRp401
(dp402
g61
(dp403
sg70
g388
sg63
(lp404
g56
(g57
g58
NtRp405
(dp406
g61
(dp407
g69
I3
ssg70
g401
sg63
(lp408
S''
asbasbasbag56
(g72
g58
NtRp409
(dp410
g61
(dp411
sg70
g258
sg63
(lp412
g56
(g77
g58
NtRp413
(dp414
g61
(dp415
g81
g82
ssg70
g409
sg63
(lp416
S'version'
p417
asbag56
(g77
g58
NtRp418
(dp419
g61
(dp420
g88
g89
ssg70
g409
sg63
(lp421
S':'
asbag56
(g77
g58
NtRp422
(dp423
g61
(dp424
sg70
g409
sg63
(lp425
g56
(g57
g58
NtRp426
(dp427
g61
(dp428
g69
I3
ssg70
g422
sg63
(lp429
S''
asbasbasbasbasbasbasbasbasbasbasbag56
(g72
g58
NtRp430
(dp431
g61
(dp432
sg70
g66
sg63
(lp433
g56
(g77
g58
NtRp434
(dp435
g61
(dp436
g81
g82
ssg70
g430
sg63
(lp437
S'env'
p438
asbag56
(g77
g58
NtRp439
(dp440
g61
(dp441
g88
g89
ssg70
g430
sg63
(lp442
S':'
asbag56
(g77
g58
NtRp443
(dp444
g61
(dp445
sg70
g430
sg63
(lp446
g56
(g57
g58
NtRp447
(dp448
g61
(dp449
g69
I5
ssg70
g443
sg63
(lp450
g56
(g65
g58
NtRp451
(dp452
g61
(dp453
g69
I4
ssg70
Nsg63
(lp454
g56
(g72
g58
NtRp455
(dp456
g61
(dp457
sg70
g451
sg63
(lp458
g56
(g77
g58
NtRp459
(dp460
g61
(dp461
g81
g82
ssg70
g455
sg63
(lp462
S'app_folders'
p463
asbag56
(g77
g58
NtRp464
(dp465
g61
(dp466
g88
g89
ssg70
g455
sg63
(lp467
S':'
asbag56
(g77
g58
NtRp468
(dp469
g61
(dp470
sg70
g455
sg63
(lp471
g56
(g57
g58
NtRp472
(dp473
g61
(dp474
g69
I4
ssg70
g468
sg63
(lp475
S"set(['/Users/schultzc/workspace/wherespuppet/web2py/applications/wp/', '/Users/schultzc/workspace/wherespuppet/web2py/applications/admin/'])"
p476
asbasbasbag56
(g72
g58
NtRp477
(dp478
g61
(dp479
sg70
g451
sg63
(lp480
g56
(g77
g58
NtRp481
(dp482
g61
(dp483
g81
g82
ssg70
g477
sg63
(lp484
S'applications_parent'
p485
asbag56
(g77
g58
NtRp486
(dp487
g61
(dp488
g88
g89
ssg70
g477
sg63
(lp489
S':'
asbag56
(g77
g58
NtRp490
(dp491
g61
(dp492
sg70
g477
sg63
(lp493
g56
(g57
g58
NtRp494
(dp495
g61
(dp496
g69
I4
ssg70
g490
sg63
(lp497
S'/Users/schultzc/workspace/wherespuppet/web2py'
p498
asbasbasbag56
(g72
g58
NtRp499
(dp500
g61
(dp501
sg70
g451
sg63
(lp502
g56
(g77
g58
NtRp503
(dp504
g61
(dp505
g81
g82
ssg70
g499
sg63
(lp506
S'cmd_args'
p507
asbag56
(g77
g58
NtRp508
(dp509
g61
(dp510
g88
g89
ssg70
g499
sg63
(lp511
S':'
asbag56
(g77
g58
NtRp512
(dp513
g61
(dp514
sg70
g499
sg63
(lp515
g56
(g57
g58
NtRp516
(dp517
g61
(dp518
g69
I4
ssg70
g512
sg63
(lp519
g56
(g65
g58
NtRp520
(dp521
g61
(dp522
g69
I3
ssg70
Nsg63
(lp523
sbasbasbasbag56
(g72
g58
NtRp524
(dp525
g61
(dp526
sg70
g451
sg63
(lp527
g56
(g77
g58
NtRp528
(dp529
g61
(dp530
g81
g82
ssg70
g524
sg63
(lp531
S'cmd_options'
p532
asbag56
(g77
g58
NtRp533
(dp534
g61
(dp535
g88
g89
ssg70
g524
sg63
(lp536
S':'
asbag56
(g77
g58
NtRp537
(dp538
g61
(dp539
sg70
g524
sg63
(lp540
g56
(g57
g58
NtRp541
(dp542
g61
(dp543
g69
I4
ssg70
g537
sg63
(lp544
S"<Values at 0x101b19ab8: {'verbose': False, 'ip': '127.0.0.1', 'shutdown_timeout': 5, 'taskbar': False, 'port': 8000, 'maxthreads': None, 'softcron': False, 'server_name': 'Magnus-Specialis.local', 'bpython': False, 'nogui': False, 'nocron': False, 'extcron': False, 'debuglevel': 30, 'test': None, 'folder': '/Users/schultzc/workspace/wherespuppet/web2py', 'config': '', 'import_models': False, 'winservice': '', 'shell': None, 'run': '', 'log_filename': 'httpserver.log', 'args': [''], 'profiler_filename': None, 'ssl_private_key': '', 'password': 'hello', 'request_queue_size': 5, 'ssl_certificate': '', 'cronjob': False, 'plain': False, 'quiet': False, 'interfaces': None, 'minthreads': None, 'timeout': 10, 'numthreads': None, 'nobanner': False, 'pid_filename': 'httpserver.pid'}>"
p545
asbasbasbag56
(g72
g58
NtRp546
(dp547
g61
(dp548
sg70
g451
sg63
(lp549
g56
(g77
g58
NtRp550
(dp551
g61
(dp552
g81
g82
ssg70
g546
sg63
(lp553
S'db_sessions'
p554
asbag56
(g77
g58
NtRp555
(dp556
g61
(dp557
g88
g89
ssg70
g546
sg63
(lp558
S':'
asbag56
(g77
g58
NtRp559
(dp560
g61
(dp561
sg70
g546
sg63
(lp562
g56
(g57
g58
NtRp563
(dp564
g61
(dp565
g69
I4
ssg70
g559
sg63
(lp566
S'set([])'
p567
asbasbasbag56
(g72
g58
NtRp568
(dp569
g61
(dp570
sg70
g451
sg63
(lp571
g56
(g77
g58
NtRp572
(dp573
g61
(dp574
g81
g82
ssg70
g568
sg63
(lp575
S'debugging'
p576
asbag56
(g77
g58
NtRp577
(dp578
g61
(dp579
g88
g89
ssg70
g568
sg63
(lp580
S':'
asbag56
(g77
g58
NtRp581
(dp582
g61
(dp583
sg70
g568
sg63
(lp584
g56
(g57
g58
NtRp585
(dp586
g61
(dp587
g69
I4
ssg70
g581
sg63
(lp588
g99
asbasbasbag56
(g72
g58
NtRp589
(dp590
g61
(dp591
sg70
g451
sg63
(lp592
g56
(g77
g58
NtRp593
(dp594
g61
(dp595
g81
g82
ssg70
g589
sg63
(lp596
S'gluon_parent'
p597
asbag56
(g77
g58
NtRp598
(dp599
g61
(dp600
g88
g89
ssg70
g589
sg63
(lp601
S':'
asbag56
(g77
g58
NtRp602
(dp603
g61
(dp604
sg70
g589
sg63
(lp605
g56
(g57
g58
NtRp606
(dp607
g61
(dp608
g69
I4
ssg70
g602
sg63
(lp609
S'/Users/schultzc/workspace/wherespuppet/web2py'
p610
asbasbasbag56
(g72
g58
NtRp611
(dp612
g61
(dp613
sg70
g451
sg63
(lp614
g56
(g77
g58
NtRp615
(dp616
g61
(dp617
g81
g82
ssg70
g611
sg63
(lp618
S'http_accept'
p619
asbag56
(g77
g58
NtRp620
(dp621
g61
(dp622
g88
g89
ssg70
g611
sg63
(lp623
S':'
asbag56
(g77
g58
NtRp624
(dp625
g61
(dp626
sg70
g611
sg63
(lp627
g56
(g57
g58
NtRp628
(dp629
g61
(dp630
g69
I4
ssg70
g624
sg63
(lp631
S'text/html,application/xhtml+xml,application/xml;q=0.9,*/*;q=0.8'
p632
asbasbasbag56
(g72
g58
NtRp633
(dp634
g61
(dp635
sg70
g451
sg63
(lp636
g56
(g77
g58
NtRp637
(dp638
g61
(dp639
g81
g82
ssg70
g633
sg63
(lp640
S'http_accept_charset'
p641
asbag56
(g77
g58
NtRp642
(dp643
g61
(dp644
g88
g89
ssg70
g633
sg63
(lp645
S':'
asbag56
(g77
g58
NtRp646
(dp647
g61
(dp648
sg70
g633
sg63
(lp649
g56
(g57
g58
NtRp650
(dp651
g61
(dp652
g69
I4
ssg70
g646
sg63
(lp653
S'ISO-8859-1,utf-8;q=0.7,*;q=0.3'
p654
asbasbasbag56
(g72
g58
NtRp655
(dp656
g61
(dp657
sg70
g451
sg63
(lp658
g56
(g77
g58
NtRp659
(dp660
g61
(dp661
g81
g82
ssg70
g655
sg63
(lp662
S'http_accept_encoding'
p663
asbag56
(g77
g58
NtRp664
(dp665
g61
(dp666
g88
g89
ssg70
g655
sg63
(lp667
S':'
asbag56
(g77
g58
NtRp668
(dp669
g61
(dp670
sg70
g655
sg63
(lp671
g56
(g57
g58
NtRp672
(dp673
g61
(dp674
g69
I4
ssg70
g668
sg63
(lp675
S'gzip,deflate,sdch'
p676
asbasbasbag56
(g72
g58
NtRp677
(dp678
g61
(dp679
sg70
g451
sg63
(lp680
g56
(g77
g58
NtRp681
(dp682
g61
(dp683
g81
g82
ssg70
g677
sg63
(lp684
S'http_accept_language'
p685
asbag56
(g77
g58
NtRp686
(dp687
g61
(dp688
g88
g89
ssg70
g677
sg63
(lp689
S':'
asbag56
(g77
g58
NtRp690
(dp691
g61
(dp692
sg70
g677
sg63
(lp693
g56
(g57
g58
NtRp694
(dp695
g61
(dp696
g69
I4
ssg70
g690
sg63
(lp697
S'en-US,en;q=0.8'
p698
asbasbasbag56
(g72
g58
NtRp699
(dp700
g61
(dp701
sg70
g451
sg63
(lp702
g56
(g77
g58
NtRp703
(dp704
g61
(dp705
g81
g82
ssg70
g699
sg63
(lp706
S'http_cache_control'
p707
asbag56
(g77
g58
NtRp708
(dp709
g61
(dp710
g88
g89
ssg70
g699
sg63
(lp711
S':'
asbag56
(g77
g58
NtRp712
(dp713
g61
(dp714
sg70
g699
sg63
(lp715
g56
(g57
g58
NtRp716
(dp717
g61
(dp718
g69
I4
ssg70
g712
sg63
(lp719
S'max-age=0'
p720
asbasbasbag56
(g72
g58
NtRp721
(dp722
g61
(dp723
sg70
g451
sg63
(lp724
g56
(g77
g58
NtRp725
(dp726
g61
(dp727
g81
g82
ssg70
g721
sg63
(lp728
S'http_connection'
p729
asbag56
(g77
g58
NtRp730
(dp731
g61
(dp732
g88
g89
ssg70
g721
sg63
(lp733
S':'
asbag56
(g77
g58
NtRp734
(dp735
g61
(dp736
sg70
g721
sg63
(lp737
g56
(g57
g58
NtRp738
(dp739
g61
(dp740
g69
I4
ssg70
g734
sg63
(lp741
S'keep-alive'
p742
asbasbasbag56
(g72
g58
NtRp743
(dp744
g61
(dp745
sg70
g451
sg63
(lp746
g56
(g77
g58
NtRp747
(dp748
g61
(dp749
g81
g82
ssg70
g743
sg63
(lp750
S'http_cookie'
p751
asbag56
(g77
g58
NtRp752
(dp753
g61
(dp754
g88
g89
ssg70
g743
sg63
(lp755
S':'
asbag56
(g77
g58
NtRp756
(dp757
g61
(dp758
sg70
g743
sg63
(lp759
g56
(g57
g58
NtRp760
(dp761
g61
(dp762
g69
I4
ssg70
g756
sg63
(lp763
S'session_id_admin=127.0.0.1-3e3fe103-b184-49b1-800c-35f788f78918'
p764
asbasbasbag56
(g72
g58
NtRp765
(dp766
g61
(dp767
sg70
g451
sg63
(lp768
g56
(g77
g58
NtRp769
(dp770
g61
(dp771
g81
g82
ssg70
g765
sg63
(lp772
S'http_host'
p773
asbag56
(g77
g58
NtRp774
(dp775
g61
(dp776
g88
g89
ssg70
g765
sg63
(lp777
S':'
asbag56
(g77
g58
NtRp778
(dp779
g61
(dp780
sg70
g765
sg63
(lp781
g56
(g57
g58
NtRp782
(dp783
g61
(dp784
g69
I4
ssg70
g778
sg63
(lp785
S'localhost:8000'
p786
asbasbasbag56
(g72
g58
NtRp787
(dp788
g61
(dp789
sg70
g451
sg63
(lp790
g56
(g77
g58
NtRp791
(dp792
g61
(dp793
g81
g82
ssg70
g787
sg63
(lp794
S'http_user_agent'
p795
asbag56
(g77
g58
NtRp796
(dp797
g61
(dp798
g88
g89
ssg70
g787
sg63
(lp799
S':'
asbag56
(g77
g58
NtRp800
(dp801
g61
(dp802
sg70
g787
sg63
(lp803
g56
(g57
g58
NtRp804
(dp805
g61
(dp806
g69
I4
ssg70
g800
sg63
(lp807
S'Mozilla/5.0 (Macintosh; Intel Mac OS X 10_6_8) AppleWebKit/534.30 (KHTML, like Gecko) Chrome/12.0.742.122 Safari/534.30'
p808
asbasbasbag56
(g72
g58
NtRp809
(dp810
g61
(dp811
sg70
g451
sg63
(lp812
g56
(g77
g58
NtRp813
(dp814
g61
(dp815
g81
g82
ssg70
g809
sg63
(lp816
S'path_info'
p817
asbag56
(g77
g58
NtRp818
(dp819
g61
(dp820
g88
g89
ssg70
g809
sg63
(lp821
S':'
asbag56
(g77
g58
NtRp822
(dp823
g61
(dp824
sg70
g809
sg63
(lp825
g56
(g57
g58
NtRp826
(dp827
g61
(dp828
g69
I4
ssg70
g822
sg63
(lp829
S'/wp/default/submit'
p830
asbasbasbag56
(g72
g58
NtRp831
(dp832
g61
(dp833
sg70
g451
sg63
(lp834
g56
(g77
g58
NtRp835
(dp836
g61
(dp837
g81
g82
ssg70
g831
sg63
(lp838
S'query_string'
p839
asbag56
(g77
g58
NtRp840
(dp841
g61
(dp842
g88
g89
ssg70
g831
sg63
(lp843
S':'
asbag56
(g77
g58
NtRp844
(dp845
g61
(dp846
sg70
g831
sg63
(lp847
g56
(g57
g58
NtRp848
(dp849
g61
(dp850
g69
I4
ssg70
g844
sg63
(lp851
S''
asbasbasbag56
(g72
g58
NtRp852
(dp853
g61
(dp854
sg70
g451
sg63
(lp855
g56
(g77
g58
NtRp856
(dp857
g61
(dp858
g81
g82
ssg70
g852
sg63
(lp859
S'remote_addr'
p860
asbag56
(g77
g58
NtRp861
(dp862
g61
(dp863
g88
g89
ssg70
g852
sg63
(lp864
S':'
asbag56
(g77
g58
NtRp865
(dp866
g61
(dp867
sg70
g852
sg63
(lp868
g56
(g57
g58
NtRp869
(dp870
g61
(dp871
g69
I4
ssg70
g865
sg63
(lp872
g189
asbasbasbag56
(g72
g58
NtRp873
(dp874
g61
(dp875
sg70
g451
sg63
(lp876
g56
(g77
g58
NtRp877
(dp878
g61
(dp879
g81
g82
ssg70
g873
sg63
(lp880
S'remote_port'
p881
asbag56
(g77
g58
NtRp882
(dp883
g61
(dp884
g88
g89
ssg70
g873
sg63
(lp885
S':'
asbag56
(g77
g58
NtRp886
(dp887
g61
(dp888
sg70
g873
sg63
(lp889
g56
(g57
g58
NtRp890
(dp891
g61
(dp892
g69
I4
ssg70
g886
sg63
(lp893
S'55431'
p894
asbasbasbag56
(g72
g58
NtRp895
(dp896
g61
(dp897
sg70
g451
sg63
(lp898
g56
(g77
g58
NtRp899
(dp900
g61
(dp901
g81
g82
ssg70
g895
sg63
(lp902
S'request_method'
p903
asbag56
(g77
g58
NtRp904
(dp905
g61
(dp906
g88
g89
ssg70
g895
sg63
(lp907
S':'
asbag56
(g77
g58
NtRp908
(dp909
g61
(dp910
sg70
g895
sg63
(lp911
g56
(g57
g58
NtRp912
(dp913
g61
(dp914
g69
I4
ssg70
g908
sg63
(lp915
S'GET'
p916
asbasbasbag56
(g72
g58
NtRp917
(dp918
g61
(dp919
sg70
g451
sg63
(lp920
g56
(g77
g58
NtRp921
(dp922
g61
(dp923
g81
g82
ssg70
g917
sg63
(lp924
S'script_name'
p925
asbag56
(g77
g58
NtRp926
(dp927
g61
(dp928
g88
g89
ssg70
g917
sg63
(lp929
S':'
asbag56
(g77
g58
NtRp930
(dp931
g61
(dp932
sg70
g917
sg63
(lp933
g56
(g57
g58
NtRp934
(dp935
g61
(dp936
g69
I4
ssg70
g930
sg63
(lp937
S''
asbasbasbag56
(g72
g58
NtRp938
(dp939
g61
(dp940
sg70
g451
sg63
(lp941
g56
(g77
g58
NtRp942
(dp943
g61
(dp944
g81
g82
ssg70
g938
sg63
(lp945
S'server_name'
p946
asbag56
(g77
g58
NtRp947
(dp948
g61
(dp949
g88
g89
ssg70
g938
sg63
(lp950
S':'
asbag56
(g77
g58
NtRp951
(dp952
g61
(dp953
sg70
g938
sg63
(lp954
g56
(g57
g58
NtRp955
(dp956
g61
(dp957
g69
I4
ssg70
g951
sg63
(lp958
S'Magnus-Specialis.local'
p959
asbasbasbag56
(g72
g58
NtRp960
(dp961
g61
(dp962
sg70
g451
sg63
(lp963
g56
(g77
g58
NtRp964
(dp965
g61
(dp966
g81
g82
ssg70
g960
sg63
(lp967
S'server_port'
p968
asbag56
(g77
g58
NtRp969
(dp970
g61
(dp971
g88
g89
ssg70
g960
sg63
(lp972
S':'
asbag56
(g77
g58
NtRp973
(dp974
g61
(dp975
sg70
g960
sg63
(lp976
g56
(g57
g58
NtRp977
(dp978
g61
(dp979
g69
I4
ssg70
g973
sg63
(lp980
S'8000'
p981
asbasbasbag56
(g72
g58
NtRp982
(dp983
g61
(dp984
sg70
g451
sg63
(lp985
g56
(g77
g58
NtRp986
(dp987
g61
(dp988
g81
g82
ssg70
g982
sg63
(lp989
S'server_protocol'
p990
asbag56
(g77
g58
NtRp991
(dp992
g61
(dp993
g88
g89
ssg70
g982
sg63
(lp994
S':'
asbag56
(g77
g58
NtRp995
(dp996
g61
(dp997
sg70
g982
sg63
(lp998
g56
(g57
g58
NtRp999
(dp1000
g61
(dp1001
g69
I4
ssg70
g995
sg63
(lp1002
S'HTTP/1.1'
p1003
asbasbasbag56
(g72
g58
NtRp1004
(dp1005
g61
(dp1006
sg70
g451
sg63
(lp1007
g56
(g77
g58
NtRp1008
(dp1009
g61
(dp1010
g81
g82
ssg70
g1004
sg63
(lp1011
S'server_software'
p1012
asbag56
(g77
g58
NtRp1013
(dp1014
g61
(dp1015
g88
g89
ssg70
g1004
sg63
(lp1016
S':'
asbag56
(g77
g58
NtRp1017
(dp1018
g61
(dp1019
sg70
g1004
sg63
(lp1020
g56
(g57
g58
NtRp1021
(dp1022
g61
(dp1023
g69
I4
ssg70
g1017
sg63
(lp1024
S'Rocket 1.2.2'
p1025
asbasbasbag56
(g72
g58
NtRp1026
(dp1027
g61
(dp1028
sg70
g451
sg63
(lp1029
g56
(g77
g58
NtRp1030
(dp1031
g61
(dp1032
g81
g82
ssg70
g1026
sg63
(lp1033
S'web2py_crontype'
p1034
asbag56
(g77
g58
NtRp1035
(dp1036
g61
(dp1037
g88
g89
ssg70
g1026
sg63
(lp1038
S':'
asbag56
(g77
g58
NtRp1039
(dp1040
g61
(dp1041
sg70
g1026
sg63
(lp1042
g56
(g57
g58
NtRp1043
(dp1044
g61
(dp1045
g69
I4
ssg70
g1039
sg63
(lp1046
S'hard'
p1047
asbasbasbag56
(g72
g58
NtRp1048
(dp1049
g61
(dp1050
sg70
g451
sg63
(lp1051
g56
(g77
g58
NtRp1052
(dp1053
g61
(dp1054
g81
g82
ssg70
g1048
sg63
(lp1055
S'web2py_path'
p1056
asbag56
(g77
g58
NtRp1057
(dp1058
g61
(dp1059
g88
g89
ssg70
g1048
sg63
(lp1060
S':'
asbag56
(g77
g58
NtRp1061
(dp1062
g61
(dp1063
sg70
g1048
sg63
(lp1064
g56
(g57
g58
NtRp1065
(dp1066
g61
(dp1067
g69
I4
ssg70
g1061
sg63
(lp1068
g498
asbasbasbag56
(g72
g58
NtRp1069
(dp1070
g61
(dp1071
sg70
g451
sg63
(lp1072
g56
(g77
g58
NtRp1073
(dp1074
g61
(dp1075
g81
g82
ssg70
g1069
sg63
(lp1076
S'web2py_version'
p1077
asbag56
(g77
g58
NtRp1078
(dp1079
g61
(dp1080
g88
g89
ssg70
g1069
sg63
(lp1081
S':'
asbag56
(g77
g58
NtRp1082
(dp1083
g61
(dp1084
sg70
g1069
sg63
(lp1085
g56
(g57
g58
NtRp1086
(dp1087
g61
(dp1088
g69
I4
ssg70
g1082
sg63
(lp1089
S'Version 1.97.1 (2011-06-26 19:25:44)\n'
p1090
asbasbasbag56
(g72
g58
NtRp1091
(dp1092
g61
(dp1093
sg70
g451
sg63
(lp1094
g56
(g77
g58
NtRp1095
(dp1096
g61
(dp1097
g81
g82
ssg70
g1091
sg63
(lp1098
S'wsgi_errors'
p1099
asbag56
(g77
g58
NtRp1100
(dp1101
g61
(dp1102
g88
g89
ssg70
g1091
sg63
(lp1103
S':'
asbag56
(g77
g58
NtRp1104
(dp1105
g61
(dp1106
sg70
g1091
sg63
(lp1107
g56
(g57
g58
NtRp1108
(dp1109
g61
(dp1110
g69
I4
ssg70
g1104
sg63
(lp1111
S"<open file '<stderr>', mode 'w' at 0x100283270>"
p1112
asbasbasbag56
(g72
g58
NtRp1113
(dp1114
g61
(dp1115
sg70
g451
sg63
(lp1116
g56
(g77
g58
NtRp1117
(dp1118
g61
(dp1119
g81
g82
ssg70
g1113
sg63
(lp1120
S'wsgi_file_wrapper'
p1121
asbag56
(g77
g58
NtRp1122
(dp1123
g61
(dp1124
g88
g89
ssg70
g1113
sg63
(lp1125
S':'
asbag56
(g77
g58
NtRp1126
(dp1127
g61
(dp1128
sg70
g1113
sg63
(lp1129
g56
(g57
g58
NtRp1130
(dp1131
g61
(dp1132
g69
I4
ssg70
g1126
sg63
(lp1133
S'<class gluon.rocket.FileWrapper at 0x101976ef0>'
p1134
asbasbasbag56
(g72
g58
NtRp1135
(dp1136
g61
(dp1137
sg70
g451
sg63
(lp1138
g56
(g77
g58
NtRp1139
(dp1140
g61
(dp1141
g81
g82
ssg70
g1135
sg63
(lp1142
S'wsgi_input'
p1143
asbag56
(g77
g58
NtRp1144
(dp1145
g61
(dp1146
g88
g89
ssg70
g1135
sg63
(lp1147
S':'
asbag56
(g77
g58
NtRp1148
(dp1149
g61
(dp1150
sg70
g1135
sg63
(lp1151
g56
(g57
g58
NtRp1152
(dp1153
g61
(dp1154
g69
I4
ssg70
g1148
sg63
(lp1155
S'<socket._fileobject object at 0x105fcc0d0>'
p1156
asbasbasbag56
(g72
g58
NtRp1157
(dp1158
g61
(dp1159
sg70
g451
sg63
(lp1160
g56
(g77
g58
NtRp1161
(dp1162
g61
(dp1163
g81
g82
ssg70
g1157
sg63
(lp1164
S'wsgi_multiprocess'
p1165
asbag56
(g77
g58
NtRp1166
(dp1167
g61
(dp1168
g88
g89
ssg70
g1157
sg63
(lp1169
S':'
asbag56
(g77
g58
NtRp1170
(dp1171
g61
(dp1172
sg70
g1157
sg63
(lp1173
g56
(g57
g58
NtRp1174
(dp1175
g61
(dp1176
g69
I4
ssg70
g1170
sg63
(lp1177
g99
asbasbasbag56
(g72
g58
NtRp1178
(dp1179
g61
(dp1180
sg70
g451
sg63
(lp1181
g56
(g77
g58
NtRp1182
(dp1183
g61
(dp1184
g81
g82
ssg70
g1178
sg63
(lp1185
S'wsgi_multithread'
p1186
asbag56
(g77
g58
NtRp1187
(dp1188
g61
(dp1189
g88
g89
ssg70
g1178
sg63
(lp1190
S':'
asbag56
(g77
g58
NtRp1191
(dp1192
g61
(dp1193
sg70
g1178
sg63
(lp1194
g56
(g57
g58
NtRp1195
(dp1196
g61
(dp1197
g69
I4
ssg70
g1191
sg63
(lp1198
S'True'
p1199
asbasbasbag56
(g72
g58
NtRp1200
(dp1201
g61
(dp1202
sg70
g451
sg63
(lp1203
g56
(g77
g58
NtRp1204
(dp1205
g61
(dp1206
g81
g82
ssg70
g1200
sg63
(lp1207
S'wsgi_run_once'
p1208
asbag56
(g77
g58
NtRp1209
(dp1210
g61
(dp1211
g88
g89
ssg70
g1200
sg63
(lp1212
S':'
asbag56
(g77
g58
NtRp1213
(dp1214
g61
(dp1215
sg70
g1200
sg63
(lp1216
g56
(g57
g58
NtRp1217
(dp1218
g61
(dp1219
g69
I4
ssg70
g1213
sg63
(lp1220
g99
asbasbasbag56
(g72
g58
NtRp1221
(dp1222
g61
(dp1223
sg70
g451
sg63
(lp1224
g56
(g77
g58
NtRp1225
(dp1226
g61
(dp1227
g81
g82
ssg70
g1221
sg63
(lp1228
S'wsgi_url_scheme'
p1229
asbag56
(g77
g58
NtRp1230
(dp1231
g61
(dp1232
g88
g89
ssg70
g1221
sg63
(lp1233
S':'
asbag56
(g77
g58
NtRp1234
(dp1235
g61
(dp1236
sg70
g1221
sg63
(lp1237
g56
(g57
g58
NtRp1238
(dp1239
g61
(dp1240
g69
I4
ssg70
g1234
sg63
(lp1241
S'http'
p1242
asbasbasbag56
(g72
g58
NtRp1243
(dp1244
g61
(dp1245
sg70
g451
sg63
(lp1246
g56
(g77
g58
NtRp1247
(dp1248
g61
(dp1249
g81
g82
ssg70
g1243
sg63
(lp1250
S'wsgi_version'
p1251
asbag56
(g77
g58
NtRp1252
(dp1253
g61
(dp1254
g88
g89
ssg70
g1243
sg63
(lp1255
S':'
asbag56
(g77
g58
NtRp1256
(dp1257
g61
(dp1258
sg70
g1243
sg63
(lp1259
g56
(g57
g58
NtRp1260
(dp1261
g61
(dp1262
g69
I4
ssg70
g1256
sg63
(lp1263
g56
(g65
g58
NtRp1264
(dp1265
g61
(dp1266
g69
I3
ssg70
Nsg63
(lp1267
g56
(g72
g58
NtRp1268
(dp1269
g61
(dp1270
sg70
g1264
sg63
(lp1271
g56
(g77
g58
NtRp1272
(dp1273
g61
(dp1274
sg70
g1268
sg63
(lp1275
g56
(g57
g58
NtRp1276
(dp1277
g61
(dp1278
g69
I3
ssg70
g1272
sg63
(lp1279
S'1'
asbasbasbag56
(g72
g58
NtRp1280
(dp1281
g61
(dp1282
sg70
g1264
sg63
(lp1283
g56
(g77
g58
NtRp1284
(dp1285
g61
(dp1286
sg70
g1280
sg63
(lp1287
g56
(g57
g58
NtRp1288
(dp1289
g61
(dp1290
g69
I3
ssg70
g1284
sg63
(lp1291
S'0'
asbasbasbasbasbasbasbasbasbasbasbag56
(g72
g58
NtRp1292
(dp1293
g61
(dp1294
sg70
g66
sg63
(lp1295
g56
(g77
g58
NtRp1296
(dp1297
g61
(dp1298
g81
g82
ssg70
g1292
sg63
(lp1299
S'extension'
p1300
asbag56
(g77
g58
NtRp1301
(dp1302
g61
(dp1303
g88
g89
ssg70
g1292
sg63
(lp1304
S':'
asbag56
(g77
g58
NtRp1305
(dp1306
g61
(dp1307
sg70
g1292
sg63
(lp1308
g56
(g57
g58
NtRp1309
(dp1310
g61
(dp1311
g69
I5
ssg70
g1305
sg63
(lp1312
S'html'
p1313
asbasbasbag56
(g72
g58
NtRp1314
(dp1315
g61
(dp1316
sg70
g66
sg63
(lp1317
g56
(g77
g58
NtRp1318
(dp1319
g61
(dp1320
g81
g82
ssg70
g1314
sg63
(lp1321
S'folder'
p1322
asbag56
(g77
g58
NtRp1323
(dp1324
g61
(dp1325
g88
g89
ssg70
g1314
sg63
(lp1326
S':'
asbag56
(g77
g58
NtRp1327
(dp1328
g61
(dp1329
sg70
g1314
sg63
(lp1330
g56
(g57
g58
NtRp1331
(dp1332
g61
(dp1333
g69
I5
ssg70
g1327
sg63
(lp1334
S'/Users/schultzc/workspace/wherespuppet/web2py/applications/wp/'
p1335
asbasbasbag56
(g72
g58
NtRp1336
(dp1337
g61
(dp1338
sg70
g66
sg63
(lp1339
g56
(g77
g58
NtRp1340
(dp1341
g61
(dp1342
g81
g82
ssg70
g1336
sg63
(lp1343
S'function'
p1344
asbag56
(g77
g58
NtRp1345
(dp1346
g61
(dp1347
g88
g89
ssg70
g1336
sg63
(lp1348
S':'
asbag56
(g77
g58
NtRp1349
(dp1350
g61
(dp1351
sg70
g1336
sg63
(lp1352
g56
(g57
g58
NtRp1353
(dp1354
g61
(dp1355
g69
I5
ssg70
g1349
sg63
(lp1356
S'submit'
p1357
asbasbasbag56
(g72
g58
NtRp1358
(dp1359
g61
(dp1360
sg70
g66
sg63
(lp1361
g56
(g77
g58
NtRp1362
(dp1363
g61
(dp1364
g81
g82
ssg70
g1358
sg63
(lp1365
S'get_vars'
p1366
asbag56
(g77
g58
NtRp1367
(dp1368
g61
(dp1369
g88
g89
ssg70
g1358
sg63
(lp1370
S':'
asbag56
(g77
g58
NtRp1371
(dp1372
g61
(dp1373
sg70
g1358
sg63
(lp1374
g56
(g57
g58
NtRp1375
(dp1376
g61
(dp1377
g69
I5
ssg70
g1371
sg63
(lp1378
g56
(g65
g58
NtRp1379
(dp1380
g61
(dp1381
g69
I4
ssg70
Nsg63
(lp1382
sbasbasbasbag56
(g72
g58
NtRp1383
(dp1384
g61
(dp1385
sg70
g66
sg63
(lp1386
g56
(g77
g58
NtRp1387
(dp1388
g61
(dp1389
g81
g82
ssg70
g1383
sg63
(lp1390
S'is_https'
p1391
asbag56
(g77
g58
NtRp1392
(dp1393
g61
(dp1394
g88
g89
ssg70
g1383
sg63
(lp1395
S':'
asbag56
(g77
g58
NtRp1396
(dp1397
g61
(dp1398
sg70
g1383
sg63
(lp1399
g56
(g57
g58
NtRp1400
(dp1401
g61
(dp1402
g69
I5
ssg70
g1396
sg63
(lp1403
g99
asbasbasbag56
(g72
g58
NtRp1404
(dp1405
g61
(dp1406
sg70
g66
sg63
(lp1407
g56
(g77
g58
NtRp1408
(dp1409
g61
(dp1410
g81
g82
ssg70
g1404
sg63
(lp1411
S'is_local'
p1412
asbag56
(g77
g58
NtRp1413
(dp1414
g61
(dp1415
g88
g89
ssg70
g1404
sg63
(lp1416
S':'
asbag56
(g77
g58
NtRp1417
(dp1418
g61
(dp1419
sg70
g1404
sg63
(lp1420
g56
(g57
g58
NtRp1421
(dp1422
g61
(dp1423
g69
I5
ssg70
g1417
sg63
(lp1424
g1199
asbasbasbag56
(g72
g58
NtRp1425
(dp1426
g61
(dp1427
sg70
g66
sg63
(lp1428
g56
(g77
g58
NtRp1429
(dp1430
g61
(dp1431
g81
g82
ssg70
g1425
sg63
(lp1432
S'is_restful'
p1433
asbag56
(g77
g58
NtRp1434
(dp1435
g61
(dp1436
g88
g89
ssg70
g1425
sg63
(lp1437
S':'
asbag56
(g77
g58
NtRp1438
(dp1439
g61
(dp1440
sg70
g1425
sg63
(lp1441
g56
(g57
g58
NtRp1442
(dp1443
g61
(dp1444
g69
I5
ssg70
g1438
sg63
(lp1445
g99
asbasbasbag56
(g72
g58
NtRp1446
(dp1447
g61
(dp1448
sg70
g66
sg63
(lp1449
g56
(g77
g58
NtRp1450
(dp1451
g61
(dp1452
g81
g82
ssg70
g1446
sg63
(lp1453
S'now'
p1454
asbag56
(g77
g58
NtRp1455
(dp1456
g61
(dp1457
g88
g89
ssg70
g1446
sg63
(lp1458
S':'
asbag56
(g77
g58
NtRp1459
(dp1460
g61
(dp1461
sg70
g1446
sg63
(lp1462
g56
(g57
g58
NtRp1463
(dp1464
g61
(dp1465
g69
I5
ssg70
g1459
sg63
(lp1466
S'datetime.datetime(2011, 7, 25, 12, 26, 17, 247140)'
p1467
asbasbasbag56
(g72
g58
NtRp1468
(dp1469
g61
(dp1470
sg70
g66
sg63
(lp1471
g56
(g77
g58
NtRp1472
(dp1473
g61
(dp1474
g81
g82
ssg70
g1468
sg63
(lp1475
S'post_vars'
p1476
asbag56
(g77
g58
NtRp1477
(dp1478
g61
(dp1479
g88
g89
ssg70
g1468
sg63
(lp1480
S':'
asbag56
(g77
g58
NtRp1481
(dp1482
g61
(dp1483
sg70
g1468
sg63
(lp1484
g56
(g57
g58
NtRp1485
(dp1486
g61
(dp1487
g69
I5
ssg70
g1481
sg63
(lp1488
g56
(g65
g58
NtRp1489
(dp1490
g61
(dp1491
g69
I4
ssg70
Nsg63
(lp1492
sbasbasbasbag56
(g72
g58
NtRp1493
(dp1494
g61
(dp1495
sg70
g66
sg63
(lp1496
g56
(g77
g58
NtRp1497
(dp1498
g61
(dp1499
g81
g82
ssg70
g1493
sg63
(lp1500
S'url'
p1501
asbag56
(g77
g58
NtRp1502
(dp1503
g61
(dp1504
g88
g89
ssg70
g1493
sg63
(lp1505
S':'
asbag56
(g77
g58
NtRp1506
(dp1507
g61
(dp1508
sg70
g1493
sg63
(lp1509
g56
(g57
g58
NtRp1510
(dp1511
g61
(dp1512
g69
I5
ssg70
g1506
sg63
(lp1513
S'/wp/default/submit'
p1514
asbasbasbag56
(g72
g58
NtRp1515
(dp1516
g61
(dp1517
sg70
g66
sg63
(lp1518
g56
(g77
g58
NtRp1519
(dp1520
g61
(dp1521
g81
g82
ssg70
g1515
sg63
(lp1522
S'uuid'
p1523
asbag56
(g77
g58
NtRp1524
(dp1525
g61
(dp1526
g88
g89
ssg70
g1515
sg63
(lp1527
S':'
asbag56
(g77
g58
NtRp1528
(dp1529
g61
(dp1530
sg70
g1515
sg63
(lp1531
g56
(g57
g58
NtRp1532
(dp1533
g61
(dp1534
g69
I5
ssg70
g1528
sg63
(lp1535
S'wp/127.0.0.1.2011-07-25.12-26-17.ade6860c-b24f-4e56-acca-3e7e4b519882'
p1536
asbasbasbag56
(g72
g58
NtRp1537
(dp1538
g61
(dp1539
sg70
g66
sg63
(lp1540
g56
(g77
g58
NtRp1541
(dp1542
g61
(dp1543
g81
g82
ssg70
g1537
sg63
(lp1544
S'vars'
p1545
asbag56
(g77
g58
NtRp1546
(dp1547
g61
(dp1548
g88
g89
ssg70
g1537
sg63
(lp1549
S':'
asbag56
(g77
g58
NtRp1550
(dp1551
g61
(dp1552
sg70
g1537
sg63
(lp1553
g56
(g57
g58
NtRp1554
(dp1555
g61
(dp1556
g69
I5
ssg70
g1550
sg63
(lp1557
g56
(g65
g58
NtRp1558
(dp1559
g61
(dp1560
g69
I4
ssg70
Nsg63
(lp1561
sbasbasbasbag56
(g72
g58
NtRp1562
(dp1563
g61
(dp1564
sg70
g66
sg63
(lp1565
g56
(g77
g58
NtRp1566
(dp1567
g61
(dp1568
g81
g82
ssg70
g1562
sg63
(lp1569
S'wsgi'
p1570
asbag56
(g77
g58
NtRp1571
(dp1572
g61
(dp1573
g88
g89
ssg70
g1562
sg63
(lp1574
S':'
asbag56
(g77
g58
NtRp1575
(dp1576
g61
(dp1577
sg70
g1562
sg63
(lp1578
g56
(g57
g58
NtRp1579
(dp1580
g61
(dp1581
g69
I5
ssg70
g1575
sg63
(lp1582
g56
(g65
g58
NtRp1583
(dp1584
g61
(dp1585
g69
I4
ssg70
Nsg63
(lp1586
g56
(g72
g58
NtRp1587
(dp1588
g61
(dp1589
sg70
g1583
sg63
(lp1590
g56
(g77
g58
NtRp1591
(dp1592
g61
(dp1593
g81
g82
ssg70
g1587
sg63
(lp1594
S'environ'
p1595
asbag56
(g77
g58
NtRp1596
(dp1597
g61
(dp1598
g88
g89
ssg70
g1587
sg63
(lp1599
S':'
asbag56
(g77
g58
NtRp1600
(dp1601
g61
(dp1602
sg70
g1587
sg63
(lp1603
g56
(g57
g58
NtRp1604
(dp1605
g61
(dp1606
g69
I4
ssg70
g1600
sg63
(lp1607
g56
(g65
g58
NtRp1608
(dp1609
g61
(dp1610
g69
I3
ssg70
Nsg63
(lp1611
g56
(g72
g58
NtRp1612
(dp1613
g61
(dp1614
sg70
g1608
sg63
(lp1615
g56
(g77
g58
NtRp1616
(dp1617
g61
(dp1618
g81
g82
ssg70
g1612
sg63
(lp1619
S'HTTP_ACCEPT'
p1620
asbag56
(g77
g58
NtRp1621
(dp1622
g61
(dp1623
g88
g89
ssg70
g1612
sg63
(lp1624
S':'
asbag56
(g77
g58
NtRp1625
(dp1626
g61
(dp1627
sg70
g1612
sg63
(lp1628
g56
(g57
g58
NtRp1629
(dp1630
g61
(dp1631
g69
I3
ssg70
g1625
sg63
(lp1632
g632
asbasbasbag56
(g72
g58
NtRp1633
(dp1634
g61
(dp1635
sg70
g1608
sg63
(lp1636
g56
(g77
g58
NtRp1637
(dp1638
g61
(dp1639
g81
g82
ssg70
g1633
sg63
(lp1640
S'HTTP_ACCEPT_CHARSET'
p1641
asbag56
(g77
g58
NtRp1642
(dp1643
g61
(dp1644
g88
g89
ssg70
g1633
sg63
(lp1645
S':'
asbag56
(g77
g58
NtRp1646
(dp1647
g61
(dp1648
sg70
g1633
sg63
(lp1649
g56
(g57
g58
NtRp1650
(dp1651
g61
(dp1652
g69
I3
ssg70
g1646
sg63
(lp1653
g654
asbasbasbag56
(g72
g58
NtRp1654
(dp1655
g61
(dp1656
sg70
g1608
sg63
(lp1657
g56
(g77
g58
NtRp1658
(dp1659
g61
(dp1660
g81
g82
ssg70
g1654
sg63
(lp1661
S'HTTP_ACCEPT_ENCODING'
p1662
asbag56
(g77
g58
NtRp1663
(dp1664
g61
(dp1665
g88
g89
ssg70
g1654
sg63
(lp1666
S':'
asbag56
(g77
g58
NtRp1667
(dp1668
g61
(dp1669
sg70
g1654
sg63
(lp1670
g56
(g57
g58
NtRp1671
(dp1672
g61
(dp1673
g69
I3
ssg70
g1667
sg63
(lp1674
g676
asbasbasbag56
(g72
g58
NtRp1675
(dp1676
g61
(dp1677
sg70
g1608
sg63
(lp1678
g56
(g77
g58
NtRp1679
(dp1680
g61
(dp1681
g81
g82
ssg70
g1675
sg63
(lp1682
S'HTTP_ACCEPT_LANGUAGE'
p1683
asbag56
(g77
g58
NtRp1684
(dp1685
g61
(dp1686
g88
g89
ssg70
g1675
sg63
(lp1687
S':'
asbag56
(g77
g58
NtRp1688
(dp1689
g61
(dp1690
sg70
g1675
sg63
(lp1691
g56
(g57
g58
NtRp1692
(dp1693
g61
(dp1694
g69
I3
ssg70
g1688
sg63
(lp1695
g698
asbasbasbag56
(g72
g58
NtRp1696
(dp1697
g61
(dp1698
sg70
g1608
sg63
(lp1699
g56
(g77
g58
NtRp1700
(dp1701
g61
(dp1702
g81
g82
ssg70
g1696
sg63
(lp1703
S'HTTP_CACHE_CONTROL'
p1704
asbag56
(g77
g58
NtRp1705
(dp1706
g61
(dp1707
g88
g89
ssg70
g1696
sg63
(lp1708
S':'
asbag56
(g77
g58
NtRp1709
(dp1710
g61
(dp1711
sg70
g1696
sg63
(lp1712
g56
(g57
g58
NtRp1713
(dp1714
g61
(dp1715
g69
I3
ssg70
g1709
sg63
(lp1716
g720
asbasbasbag56
(g72
g58
NtRp1717
(dp1718
g61
(dp1719
sg70
g1608
sg63
(lp1720
g56
(g77
g58
NtRp1721
(dp1722
g61
(dp1723
g81
g82
ssg70
g1717
sg63
(lp1724
S'HTTP_CONNECTION'
p1725
asbag56
(g77
g58
NtRp1726
(dp1727
g61
(dp1728
g88
g89
ssg70
g1717
sg63
(lp1729
S':'
asbag56
(g77
g58
NtRp1730
(dp1731
g61
(dp1732
sg70
g1717
sg63
(lp1733
g56
(g57
g58
NtRp1734
(dp1735
g61
(dp1736
g69
I3
ssg70
g1730
sg63
(lp1737
g742
asbasbasbag56
(g72
g58
NtRp1738
(dp1739
g61
(dp1740
sg70
g1608
sg63
(lp1741
g56
(g77
g58
NtRp1742
(dp1743
g61
(dp1744
g81
g82
ssg70
g1738
sg63
(lp1745
S'HTTP_COOKIE'
p1746
asbag56
(g77
g58
NtRp1747
(dp1748
g61
(dp1749
g88
g89
ssg70
g1738
sg63
(lp1750
S':'
asbag56
(g77
g58
NtRp1751
(dp1752
g61
(dp1753
sg70
g1738
sg63
(lp1754
g56
(g57
g58
NtRp1755
(dp1756
g61
(dp1757
g69
I3
ssg70
g1751
sg63
(lp1758
g764
asbasbasbag56
(g72
g58
NtRp1759
(dp1760
g61
(dp1761
sg70
g1608
sg63
(lp1762
g56
(g77
g58
NtRp1763
(dp1764
g61
(dp1765
g81
g82
ssg70
g1759
sg63
(lp1766
S'HTTP_HOST'
p1767
asbag56
(g77
g58
NtRp1768
(dp1769
g61
(dp1770
g88
g89
ssg70
g1759
sg63
(lp1771
S':'
asbag56
(g77
g58
NtRp1772
(dp1773
g61
(dp1774
sg70
g1759
sg63
(lp1775
g56
(g57
g58
NtRp1776
(dp1777
g61
(dp1778
g69
I3
ssg70
g1772
sg63
(lp1779
g786
asbasbasbag56
(g72
g58
NtRp1780
(dp1781
g61
(dp1782
sg70
g1608
sg63
(lp1783
g56
(g77
g58
NtRp1784
(dp1785
g61
(dp1786
g81
g82
ssg70
g1780
sg63
(lp1787
S'HTTP_USER_AGENT'
p1788
asbag56
(g77
g58
NtRp1789
(dp1790
g61
(dp1791
g88
g89
ssg70
g1780
sg63
(lp1792
S':'
asbag56
(g77
g58
NtRp1793
(dp1794
g61
(dp1795
sg70
g1780
sg63
(lp1796
g56
(g57
g58
NtRp1797
(dp1798
g61
(dp1799
g69
I3
ssg70
g1793
sg63
(lp1800
g808
asbasbasbag56
(g72
g58
NtRp1801
(dp1802
g61
(dp1803
sg70
g1608
sg63
(lp1804
g56
(g77
g58
NtRp1805
(dp1806
g61
(dp1807
g81
g82
ssg70
g1801
sg63
(lp1808
S'PATH_INFO'
p1809
asbag56
(g77
g58
NtRp1810
(dp1811
g61
(dp1812
g88
g89
ssg70
g1801
sg63
(lp1813
S':'
asbag56
(g77
g58
NtRp1814
(dp1815
g61
(dp1816
sg70
g1801
sg63
(lp1817
g56
(g57
g58
NtRp1818
(dp1819
g61
(dp1820
g69
I3
ssg70
g1814
sg63
(lp1821
g830
asbasbasbag56
(g72
g58
NtRp1822
(dp1823
g61
(dp1824
sg70
g1608
sg63
(lp1825
g56
(g77
g58
NtRp1826
(dp1827
g61
(dp1828
g81
g82
ssg70
g1822
sg63
(lp1829
S'QUERY_STRING'
p1830
asbag56
(g77
g58
NtRp1831
(dp1832
g61
(dp1833
g88
g89
ssg70
g1822
sg63
(lp1834
S':'
asbag56
(g77
g58
NtRp1835
(dp1836
g61
(dp1837
sg70
g1822
sg63
(lp1838
g56
(g57
g58
NtRp1839
(dp1840
g61
(dp1841
g69
I3
ssg70
g1835
sg63
(lp1842
S''
asbasbasbag56
(g72
g58
NtRp1843
(dp1844
g61
(dp1845
sg70
g1608
sg63
(lp1846
g56
(g77
g58
NtRp1847
(dp1848
g61
(dp1849
g81
g82
ssg70
g1843
sg63
(lp1850
S'REMOTE_ADDR'
p1851
asbag56
(g77
g58
NtRp1852
(dp1853
g61
(dp1854
g88
g89
ssg70
g1843
sg63
(lp1855
S':'
asbag56
(g77
g58
NtRp1856
(dp1857
g61
(dp1858
sg70
g1843
sg63
(lp1859
g56
(g57
g58
NtRp1860
(dp1861
g61
(dp1862
g69
I3
ssg70
g1856
sg63
(lp1863
g189
asbasbasbag56
(g72
g58
NtRp1864
(dp1865
g61
(dp1866
sg70
g1608
sg63
(lp1867
g56
(g77
g58
NtRp1868
(dp1869
g61
(dp1870
g81
g82
ssg70
g1864
sg63
(lp1871
S'REMOTE_PORT'
p1872
asbag56
(g77
g58
NtRp1873
(dp1874
g61
(dp1875
g88
g89
ssg70
g1864
sg63
(lp1876
S':'
asbag56
(g77
g58
NtRp1877
(dp1878
g61
(dp1879
sg70
g1864
sg63
(lp1880
g56
(g57
g58
NtRp1881
(dp1882
g61
(dp1883
g69
I3
ssg70
g1877
sg63
(lp1884
g894
asbasbasbag56
(g72
g58
NtRp1885
(dp1886
g61
(dp1887
sg70
g1608
sg63
(lp1888
g56
(g77
g58
NtRp1889
(dp1890
g61
(dp1891
g81
g82
ssg70
g1885
sg63
(lp1892
S'REQUEST_METHOD'
p1893
asbag56
(g77
g58
NtRp1894
(dp1895
g61
(dp1896
g88
g89
ssg70
g1885
sg63
(lp1897
S':'
asbag56
(g77
g58
NtRp1898
(dp1899
g61
(dp1900
sg70
g1885
sg63
(lp1901
g56
(g57
g58
NtRp1902
(dp1903
g61
(dp1904
g69
I3
ssg70
g1898
sg63
(lp1905
g916
asbasbasbag56
(g72
g58
NtRp1906
(dp1907
g61
(dp1908
sg70
g1608
sg63
(lp1909
g56
(g77
g58
NtRp1910
(dp1911
g61
(dp1912
g81
g82
ssg70
g1906
sg63
(lp1913
S'SCRIPT_NAME'
p1914
asbag56
(g77
g58
NtRp1915
(dp1916
g61
(dp1917
g88
g89
ssg70
g1906
sg63
(lp1918
S':'
asbag56
(g77
g58
NtRp1919
(dp1920
g61
(dp1921
sg70
g1906
sg63
(lp1922
g56
(g57
g58
NtRp1923
(dp1924
g61
(dp1925
g69
I3
ssg70
g1919
sg63
(lp1926
S''
asbasbasbag56
(g72
g58
NtRp1927
(dp1928
g61
(dp1929
sg70
g1608
sg63
(lp1930
g56
(g77
g58
NtRp1931
(dp1932
g61
(dp1933
g81
g82
ssg70
g1927
sg63
(lp1934
S'SERVER_NAME'
p1935
asbag56
(g77
g58
NtRp1936
(dp1937
g61
(dp1938
g88
g89
ssg70
g1927
sg63
(lp1939
S':'
asbag56
(g77
g58
NtRp1940
(dp1941
g61
(dp1942
sg70
g1927
sg63
(lp1943
g56
(g57
g58
NtRp1944
(dp1945
g61
(dp1946
g69
I3
ssg70
g1940
sg63
(lp1947
g959
asbasbasbag56
(g72
g58
NtRp1948
(dp1949
g61
(dp1950
sg70
g1608
sg63
(lp1951
g56
(g77
g58
NtRp1952
(dp1953
g61
(dp1954
g81
g82
ssg70
g1948
sg63
(lp1955
S'SERVER_PORT'
p1956
asbag56
(g77
g58
NtRp1957
(dp1958
g61
(dp1959
g88
g89
ssg70
g1948
sg63
(lp1960
S':'
asbag56
(g77
g58
NtRp1961
(dp1962
g61
(dp1963
sg70
g1948
sg63
(lp1964
g56
(g57
g58
NtRp1965
(dp1966
g61
(dp1967
g69
I3
ssg70
g1961
sg63
(lp1968
g981
asbasbasbag56
(g72
g58
NtRp1969
(dp1970
g61
(dp1971
sg70
g1608
sg63
(lp1972
g56
(g77
g58
NtRp1973
(dp1974
g61
(dp1975
g81
g82
ssg70
g1969
sg63
(lp1976
S'SERVER_PROTOCOL'
p1977
asbag56
(g77
g58
NtRp1978
(dp1979
g61
(dp1980
g88
g89
ssg70
g1969
sg63
(lp1981
S':'
asbag56
(g77
g58
NtRp1982
(dp1983
g61
(dp1984
sg70
g1969
sg63
(lp1985
g56
(g57
g58
NtRp1986
(dp1987
g61
(dp1988
g69
I3
ssg70
g1982
sg63
(lp1989
g1003
asbasbasbag56
(g72
g58
NtRp1990
(dp1991
g61
(dp1992
sg70
g1608
sg63
(lp1993
g56
(g77
g58
NtRp1994
(dp1995
g61
(dp1996
g81
g82
ssg70
g1990
sg63
(lp1997
S'SERVER_SOFTWARE'
p1998
asbag56
(g77
g58
NtRp1999
(dp2000
g61
(dp2001
g88
g89
ssg70
g1990
sg63
(lp2002
S':'
asbag56
(g77
g58
NtRp2003
(dp2004
g61
(dp2005
sg70
g1990
sg63
(lp2006
g56
(g57
g58
NtRp2007
(dp2008
g61
(dp2009
g69
I3
ssg70
g2003
sg63
(lp2010
g1025
asbasbasbag56
(g72
g58
NtRp2011
(dp2012
g61
(dp2013
sg70
g1608
sg63
(lp2014
g56
(g77
g58
NtRp2015
(dp2016
g61
(dp2017
g81
g82
ssg70
g2011
sg63
(lp2018
S'wsgi.errors'
p2019
asbag56
(g77
g58
NtRp2020
(dp2021
g61
(dp2022
g88
g89
ssg70
g2011
sg63
(lp2023
S':'
asbag56
(g77
g58
NtRp2024
(dp2025
g61
(dp2026
sg70
g2011
sg63
(lp2027
g56
(g57
g58
NtRp2028
(dp2029
g61
(dp2030
g69
I3
ssg70
g2024
sg63
(lp2031
S"<open file '<stderr>', mode 'w' at 0x100283270>"
p2032
asbasbasbag56
(g72
g58
NtRp2033
(dp2034
g61
(dp2035
sg70
g1608
sg63
(lp2036
g56
(g77
g58
NtRp2037
(dp2038
g61
(dp2039
g81
g82
ssg70
g2033
sg63
(lp2040
S'wsgi.file_wrapper'
p2041
asbag56
(g77
g58
NtRp2042
(dp2043
g61
(dp2044
g88
g89
ssg70
g2033
sg63
(lp2045
S':'
asbag56
(g77
g58
NtRp2046
(dp2047
g61
(dp2048
sg70
g2033
sg63
(lp2049
g56
(g57
g58
NtRp2050
(dp2051
g61
(dp2052
g69
I3
ssg70
g2046
sg63
(lp2053
S'<class gluon.rocket.FileWrapper at 0x101976ef0>'
p2054
asbasbasbag56
(g72
g58
NtRp2055
(dp2056
g61
(dp2057
sg70
g1608
sg63
(lp2058
g56
(g77
g58
NtRp2059
(dp2060
g61
(dp2061
g81
g82
ssg70
g2055
sg63
(lp2062
S'wsgi.input'
p2063
asbag56
(g77
g58
NtRp2064
(dp2065
g61
(dp2066
g88
g89
ssg70
g2055
sg63
(lp2067
S':'
asbag56
(g77
g58
NtRp2068
(dp2069
g61
(dp2070
sg70
g2055
sg63
(lp2071
g56
(g57
g58
NtRp2072
(dp2073
g61
(dp2074
g69
I3
ssg70
g2068
sg63
(lp2075
S'<cStringIO.StringO object at 0x105f0ea08>'
p2076
asbasbasbag56
(g72
g58
NtRp2077
(dp2078
g61
(dp2079
sg70
g1608
sg63
(lp2080
g56
(g77
g58
NtRp2081
(dp2082
g61
(dp2083
g81
g82
ssg70
g2077
sg63
(lp2084
S'wsgi.multiprocess'
p2085
asbag56
(g77
g58
NtRp2086
(dp2087
g61
(dp2088
g88
g89
ssg70
g2077
sg63
(lp2089
S':'
asbag56
(g77
g58
NtRp2090
(dp2091
g61
(dp2092
sg70
g2077
sg63
(lp2093
g56
(g57
g58
NtRp2094
(dp2095
g61
(dp2096
g69
I3
ssg70
g2090
sg63
(lp2097
g99
asbasbasbag56
(g72
g58
NtRp2098
(dp2099
g61
(dp2100
sg70
g1608
sg63
(lp2101
g56
(g77
g58
NtRp2102
(dp2103
g61
(dp2104
g81
g82
ssg70
g2098
sg63
(lp2105
S'wsgi.multithread'
p2106
asbag56
(g77
g58
NtRp2107
(dp2108
g61
(dp2109
g88
g89
ssg70
g2098
sg63
(lp2110
S':'
asbag56
(g77
g58
NtRp2111
(dp2112
g61
(dp2113
sg70
g2098
sg63
(lp2114
g56
(g57
g58
NtRp2115
(dp2116
g61
(dp2117
g69
I3
ssg70
g2111
sg63
(lp2118
g1199
asbasbasbag56
(g72
g58
NtRp2119
(dp2120
g61
(dp2121
sg70
g1608
sg63
(lp2122
g56
(g77
g58
NtRp2123
(dp2124
g61
(dp2125
g81
g82
ssg70
g2119
sg63
(lp2126
S'wsgi.run_once'
p2127
asbag56
(g77
g58
NtRp2128
(dp2129
g61
(dp2130
g88
g89
ssg70
g2119
sg63
(lp2131
S':'
asbag56
(g77
g58
NtRp2132
(dp2133
g61
(dp2134
sg70
g2119
sg63
(lp2135
g56
(g57
g58
NtRp2136
(dp2137
g61
(dp2138
g69
I3
ssg70
g2132
sg63
(lp2139
g99
asbasbasbag56
(g72
g58
NtRp2140
(dp2141
g61
(dp2142
sg70
g1608
sg63
(lp2143
g56
(g77
g58
NtRp2144
(dp2145
g61
(dp2146
g81
g82
ssg70
g2140
sg63
(lp2147
S'wsgi.url_scheme'
p2148
asbag56
(g77
g58
NtRp2149
(dp2150
g61
(dp2151
g88
g89
ssg70
g2140
sg63
(lp2152
S':'
asbag56
(g77
g58
NtRp2153
(dp2154
g61
(dp2155
sg70
g2140
sg63
(lp2156
g56
(g57
g58
NtRp2157
(dp2158
g61
(dp2159
g69
I3
ssg70
g2153
sg63
(lp2160
g1242
asbasbasbag56
(g72
g58
NtRp2161
(dp2162
g61
(dp2163
sg70
g1608
sg63
(lp2164
g56
(g77
g58
NtRp2165
(dp2166
g61
(dp2167
g81
g82
ssg70
g2161
sg63
(lp2168
S'wsgi.version'
p2169
asbag56
(g77
g58
NtRp2170
(dp2171
g61
(dp2172
g88
g89
ssg70
g2161
sg63
(lp2173
S':'
asbag56
(g77
g58
NtRp2174
(dp2175
g61
(dp2176
sg70
g2161
sg63
(lp2177
g56
(g57
g58
NtRp2178
(dp2179
g61
(dp2180
g69
I3
ssg70
g2174
sg63
(lp2181
S'1'
asbasbasbasbasbasbasbasbasbasbasbasbasbsS'frames'
p2182
(lp2183
(dp2184
S'file'
p2185
S'/Users/schultzc/workspace/wherespuppet/web2py/gluon/restricted.py'
p2186
sS'dump'
p2187
(dp2188
S'environment'
p2189
S"{'A': <class 'gluon.html.A'>, 'B': <class 'gluon.html.B'>, 'BEAUTIFY': <class 'gluon.html.BEAUTIFY'>, 'BODY': <class 'gluon.html.BODY'>, 'BR': <class 'gluon.html.BR'>, 'BUTTON': <class 'gluon.html.BUTTON'>, 'CENTER': <class 'gluon.html.CENTER'>, 'CLEANUP': <class 'gluon.validators.CLEANUP'>, 'CODE': <class 'gluon.html.CODE'>, 'CRYPT': <class 'gluon.validators.CRYPT'>, ...}"
p2190
sS'ccode'
p2191
S'<code object <module> at 0x105fcc9b0, file "/Use...applications/wp/controllers/default.py", line 11>'
p2192
ssS'lnum'
p2193
I192
sS'lines'
p2194
(dp2195
I192
S'        exec ccode in environment'
p2196
sI193
S'    except HTTP:'
p2197
sI194
S'        raise'
p2198
sI195
S'    except Exception:'
p2199
sI196
S'        # XXX Show exception in Wing IDE if running in debugger'
p2200
sI187
S'    try:'
p2201
sI188
S'        if type(code) == types.CodeType:'
p2202
sI189
S'            ccode = code'
p2203
sI190
S'        else:'
p2204
sI191
S'            ccode = compile2(code,layer)'
p2205
ssS'call'
p2206
S'(code="# -*- coding: utf-8 -*-\\n# this file is released ...())\\n\'\'\'\\n\\nresponse._vars=response._caller(submit)\\n", environment={\'A\': <class \'gluon.html.A\'>, \'B\': <class \'gluon.html.B\'>, \'BEAUTIFY\': <class \'gluon.html.BEAUTIFY\'>, \'BODY\': <class \'gluon.html.BODY\'>, \'BR\': <class \'gluon.html.BR\'>, \'BUTTON\': <class \'gluon.html.BUTTON\'>, \'CENTER\': <class \'gluon.html.CENTER\'>, \'CLEANUP\': <class \'gluon.validators.CLEANUP\'>, \'CODE\': <class \'gluon.html.CODE\'>, \'CRYPT\': <class \'gluon.validators.CRYPT\'>, ...}, layer=\'/Users/schultzc/workspace/wherespuppet/web2py/applications/wp/controllers/default.py\')'
p2207
sS'func'
p2208
S'restricted'
p2209
sa(dp2210
g2185
S'/Users/schultzc/workspace/wherespuppet/web2py/applications/wp/controllers/default.py'
p2211
sg2187
(dp2212
sg2193
I97
sg2194
(dp2213
I86
S'    http://..../[app]/default/data/delete/[table]/[id['
p2214
sI87
S'    http://..../[app]/default/data/select/[table]'
p2215
sI88
S'    http://..../[app]/default/data/search/[table]'
p2216
sI89
S'    but URLs bust be signed, i.e. linked with'
p2217
sI90
S"      A('table',_href=URL('data/tables',user_signature=True))"
p2218
sI91
S'    or with the signed load operator'
p2219
sI92
S"      LOAD('default','data.load',args='tables',ajax=True,user_signature=True)"
p2220
sI93
S'    """'
p2221
sI94
S'    return dict(form=crud())'
p2222
sI95
S"'''"
p2223
ssg2206
S'()'
p2224
sg2208
S'<module>'
p2225
sa(dp2226
g2185
S'/Users/schultzc/workspace/wherespuppet/web2py/gluon/globals.py'
p2227
sg2187
(dp2228
S'self'
p2229
S'undefined'
p2230
sS'f'
S'<function submit>'
p2231
ssg2193
I137
sg2194
(dp2232
I132
S"        self.flash = ''           # used by the default view layout"
p2233
sI133
S'        self.meta = Storage()     # used by web2py_ajax.html'
p2234
sI134
S'        self.menu = []            # used by the default view layout'
p2235
sI135
S'        self.files = []           # used by web2py_ajax.html'
p2236
sI136
S'        self._vars = None'
p2237
sI137
S'        self._caller = lambda f: f()'
p2238
sI138
S'        self._view_environment = None'
p2239
sI139
S'        self._custom_commit = None'
p2240
sI140
S'        self._custom_rollback = None'
p2241
sI141
S''
ssg2206
S'(f=<function submit>)'
p2242
sg2208
S'<lambda>'
p2243
sa(dp2244
g2185
S'/Users/schultzc/workspace/wherespuppet/web2py/applications/wp/controllers/default.py'
p2245
sg2187
(dp2246
S'global request'
p2247
S"<Storage {'is_local': True, 'function': 'submit'....12-26-17.ade6860c-b24f-4e56-acca-3e7e4b519882'}>"
p2248
sS'request.cookies'
p2249
S"<SimpleCookie: session_id_admin='127.0.0.1-3e3fe103-b184-49b1-800c-35f788f78918'>"
p2250
sS'].value'
p2251
g2230
ssg2193
I20
sg2194
(dp2252
I15
S'    images = db().select(db.image.ALL, orderby=db.image.title)'
p2253
sI16
S'    return dict(images=images)'
p2254
sI17
S''
sI18
S'def submit():'
p2255
sI19
S'    form = SQLFORM(db.image, submit_button=\'Submit Puppet\', _id = "submission",formstyle="divs")'
p2256
sI20
S"    if request.cookies['posLat'].value:"
p2257
sI21
S"        latitude = request.cookies['posLat'].value"
p2258
sI22
S'    if form.accepts(request.vars, session):'
p2259
sI23
S"        response.flash = 'form accepted'"
p2260
sI24
S'    elif form.errors:'
p2261
ssg2206
S'()'
p2262
sg2208
S'submit'
p2263
sasS'pyver'
p2264
S'Python 2.7.2: /opt/local/Library/Frameworks/Python.framework/Versions/2.7/Resources/Python.app/Contents/MacOS/Python'
p2265
sS'session'
p2266
g56
(g57
g58
NtRp2267
(dp2268
g61
(dp2269
sg63
(lp2270
g56
(g65
g58
NtRp2271
(dp2272
g61
(dp2273
g69
I5
ssg70
Nsg63
(lp2274
sbasbsS'etype'
p2275
S"<type 'exceptions.KeyError'>"
p2276
sS'date'
p2277
S'Mon Jul 25 12:26:17 2011'
p2278
sS'response'
p2279
g56
(g57
g58
NtRp2280
(dp2281
g61
(dp2282
sg63
(lp2283
g56
(g65
g58
NtRp2284
(dp2285
g61
(dp2286
g69
I5
ssg70
Nsg63
(lp2287
g56
(g72
g58
NtRp2288
(dp2289
g61
(dp2290
sg70
g2284
sg63
(lp2291
g56
(g77
g58
NtRp2292
(dp2293
g61
(dp2294
g81
g82
ssg70
g2288
sg63
(lp2295
g154
asbag56
(g77
g58
NtRp2296
(dp2297
g61
(dp2298
g88
g89
ssg70
g2288
sg63
(lp2299
S':'
asbag56
(g77
g58
NtRp2300
(dp2301
g61
(dp2302
sg70
g2288
sg63
(lp2303
g56
(g57
g58
NtRp2304
(dp2305
g61
(dp2306
g69
I5
ssg70
g2300
sg63
(lp2307
S'<cStringIO.StringO object at 0x1025b5570>'
p2308
asbasbasbag56
(g72
g58
NtRp2309
(dp2310
g61
(dp2311
sg70
g2284
sg63
(lp2312
g56
(g77
g58
NtRp2313
(dp2314
g61
(dp2315
g81
g82
ssg70
g2309
sg63
(lp2316
g220
asbag56
(g77
g58
NtRp2317
(dp2318
g61
(dp2319
g88
g89
ssg70
g2309
sg63
(lp2320
S':'
asbag56
(g77
g58
NtRp2321
(dp2322
g61
(dp2323
sg70
g2309
sg63
(lp2324
g56
(g57
g58
NtRp2325
(dp2326
g61
(dp2327
g69
I5
ssg70
g2321
sg63
(lp2328
g56
(g65
g58
NtRp2329
(dp2330
g61
(dp2331
g69
I4
ssg70
Nsg63
(lp2332
g56
(g72
g58
NtRp2333
(dp2334
g61
(dp2335
sg70
g2329
sg63
(lp2336
g56
(g77
g58
NtRp2337
(dp2338
g61
(dp2339
g81
g82
ssg70
g2333
sg63
(lp2340
S'session_id_wp'
p2341
asbag56
(g77
g58
NtRp2342
(dp2343
g61
(dp2344
g88
g89
ssg70
g2333
sg63
(lp2345
S':'
asbag56
(g77
g58
NtRp2346
(dp2347
g61
(dp2348
sg70
g2333
sg63
(lp2349
g56
(g57
g58
NtRp2350
(dp2351
g61
(dp2352
g69
I4
ssg70
g2346
sg63
(lp2353
g56
(g65
g58
NtRp2354
(dp2355
g61
(dp2356
g69
I3
ssg70
Nsg63
(lp2357
g56
(g72
g58
NtRp2358
(dp2359
g61
(dp2360
sg70
g2354
sg63
(lp2361
g56
(g77
g58
NtRp2362
(dp2363
g61
(dp2364
g81
g82
ssg70
g2358
sg63
(lp2365
g270
asbag56
(g77
g58
NtRp2366
(dp2367
g61
(dp2368
g88
g89
ssg70
g2358
sg63
(lp2369
S':'
asbag56
(g77
g58
NtRp2370
(dp2371
g61
(dp2372
sg70
g2358
sg63
(lp2373
g56
(g57
g58
NtRp2374
(dp2375
g61
(dp2376
g69
I3
ssg70
g2370
sg63
(lp2377
S''
asbasbasbag56
(g72
g58
NtRp2378
(dp2379
g61
(dp2380
sg70
g2354
sg63
(lp2381
g56
(g77
g58
NtRp2382
(dp2383
g61
(dp2384
g81
g82
ssg70
g2378
sg63
(lp2385
g291
asbag56
(g77
g58
NtRp2386
(dp2387
g61
(dp2388
g88
g89
ssg70
g2378
sg63
(lp2389
S':'
asbag56
(g77
g58
NtRp2390
(dp2391
g61
(dp2392
sg70
g2378
sg63
(lp2393
g56
(g57
g58
NtRp2394
(dp2395
g61
(dp2396
g69
I3
ssg70
g2390
sg63
(lp2397
S''
asbasbasbag56
(g72
g58
NtRp2398
(dp2399
g61
(dp2400
sg70
g2354
sg63
(lp2401
g56
(g77
g58
NtRp2402
(dp2403
g61
(dp2404
g81
g82
ssg70
g2398
sg63
(lp2405
g312
asbag56
(g77
g58
NtRp2406
(dp2407
g61
(dp2408
g88
g89
ssg70
g2398
sg63
(lp2409
S':'
asbag56
(g77
g58
NtRp2410
(dp2411
g61
(dp2412
sg70
g2398
sg63
(lp2413
g56
(g57
g58
NtRp2414
(dp2415
g61
(dp2416
g69
I3
ssg70
g2410
sg63
(lp2417
S''
asbasbasbag56
(g72
g58
NtRp2418
(dp2419
g61
(dp2420
sg70
g2354
sg63
(lp2421
g56
(g77
g58
NtRp2422
(dp2423
g61
(dp2424
g81
g82
ssg70
g2418
sg63
(lp2425
g333
asbag56
(g77
g58
NtRp2426
(dp2427
g61
(dp2428
g88
g89
ssg70
g2418
sg63
(lp2429
S':'
asbag56
(g77
g58
NtRp2430
(dp2431
g61
(dp2432
sg70
g2418
sg63
(lp2433
g56
(g57
g58
NtRp2434
(dp2435
g61
(dp2436
g69
I3
ssg70
g2430
sg63
(lp2437
S''
asbasbasbag56
(g72
g58
NtRp2438
(dp2439
g61
(dp2440
sg70
g2354
sg63
(lp2441
g56
(g77
g58
NtRp2442
(dp2443
g61
(dp2444
g81
g82
ssg70
g2438
sg63
(lp2445
g354
asbag56
(g77
g58
NtRp2446
(dp2447
g61
(dp2448
g88
g89
ssg70
g2438
sg63
(lp2449
S':'
asbag56
(g77
g58
NtRp2450
(dp2451
g61
(dp2452
sg70
g2438
sg63
(lp2453
g56
(g57
g58
NtRp2454
(dp2455
g61
(dp2456
g69
I3
ssg70
g2450
sg63
(lp2457
S''
asbasbasbag56
(g72
g58
NtRp2458
(dp2459
g61
(dp2460
sg70
g2354
sg63
(lp2461
g56
(g77
g58
NtRp2462
(dp2463
g61
(dp2464
g81
g82
ssg70
g2458
sg63
(lp2465
g375
asbag56
(g77
g58
NtRp2466
(dp2467
g61
(dp2468
g88
g89
ssg70
g2458
sg63
(lp2469
S':'
asbag56
(g77
g58
NtRp2470
(dp2471
g61
(dp2472
sg70
g2458
sg63
(lp2473
g56
(g57
g58
NtRp2474
(dp2475
g61
(dp2476
g69
I3
ssg70
g2470
sg63
(lp2477
S'/'
asbasbasbag56
(g72
g58
NtRp2478
(dp2479
g61
(dp2480
sg70
g2354
sg63
(lp2481
g56
(g77
g58
NtRp2482
(dp2483
g61
(dp2484
g81
g82
ssg70
g2478
sg63
(lp2485
g396
asbag56
(g77
g58
NtRp2486
(dp2487
g61
(dp2488
g88
g89
ssg70
g2478
sg63
(lp2489
S':'
asbag56
(g77
g58
NtRp2490
(dp2491
g61
(dp2492
sg70
g2478
sg63
(lp2493
g56
(g57
g58
NtRp2494
(dp2495
g61
(dp2496
g69
I3
ssg70
g2490
sg63
(lp2497
S''
asbasbasbag56
(g72
g58
NtRp2498
(dp2499
g61
(dp2500
sg70
g2354
sg63
(lp2501
g56
(g77
g58
NtRp2502
(dp2503
g61
(dp2504
g81
g82
ssg70
g2498
sg63
(lp2505
g417
asbag56
(g77
g58
NtRp2506
(dp2507
g61
(dp2508
g88
g89
ssg70
g2498
sg63
(lp2509
S':'
asbag56
(g77
g58
NtRp2510
(dp2511
g61
(dp2512
sg70
g2498
sg63
(lp2513
g56
(g57
g58
NtRp2514
(dp2515
g61
(dp2516
g69
I3
ssg70
g2510
sg63
(lp2517
S''
asbasbasbasbasbasbasbasbasbasbasbag56
(g72
g58
NtRp2518
(dp2519
g61
(dp2520
sg70
g2284
sg63
(lp2521
g56
(g77
g58
NtRp2522
(dp2523
g61
(dp2524
g81
g82
ssg70
g2518
sg63
(lp2525
S'files'
p2526
asbag56
(g77
g58
NtRp2527
(dp2528
g61
(dp2529
g88
g89
ssg70
g2518
sg63
(lp2530
S':'
asbag56
(g77
g58
NtRp2531
(dp2532
g61
(dp2533
sg70
g2518
sg63
(lp2534
g56
(g57
g58
NtRp2535
(dp2536
g61
(dp2537
g69
I5
ssg70
g2531
sg63
(lp2538
g56
(g65
g58
NtRp2539
(dp2540
g61
(dp2541
g69
I4
ssg70
Nsg63
(lp2542
sbasbasbasbag56
(g72
g58
NtRp2543
(dp2544
g61
(dp2545
sg70
g2284
sg63
(lp2546
g56
(g77
g58
NtRp2547
(dp2548
g61
(dp2549
g81
g82
ssg70
g2543
sg63
(lp2550
S'flash'
p2551
asbag56
(g77
g58
NtRp2552
(dp2553
g61
(dp2554
g88
g89
ssg70
g2543
sg63
(lp2555
S':'
asbag56
(g77
g58
NtRp2556
(dp2557
g61
(dp2558
sg70
g2543
sg63
(lp2559
g56
(g57
g58
NtRp2560
(dp2561
g61
(dp2562
g69
I5
ssg70
g2556
sg63
(lp2563
S''
asbasbasbag56
(g72
g58
NtRp2564
(dp2565
g61
(dp2566
sg70
g2284
sg63
(lp2567
g56
(g77
g58
NtRp2568
(dp2569
g61
(dp2570
g81
g82
ssg70
g2564
sg63
(lp2571
S'headers'
p2572
asbag56
(g77
g58
NtRp2573
(dp2574
g61
(dp2575
g88
g89
ssg70
g2564
sg63
(lp2576
S':'
asbag56
(g77
g58
NtRp2577
(dp2578
g61
(dp2579
sg70
g2564
sg63
(lp2580
g56
(g57
g58
NtRp2581
(dp2582
g61
(dp2583
g69
I5
ssg70
g2577
sg63
(lp2584
g56
(g65
g58
NtRp2585
(dp2586
g61
(dp2587
g69
I4
ssg70
Nsg63
(lp2588
g56
(g72
g58
NtRp2589
(dp2590
g61
(dp2591
sg70
g2585
sg63
(lp2592
g56
(g77
g58
NtRp2593
(dp2594
g61
(dp2595
g81
g82
ssg70
g2589
sg63
(lp2596
S'Cache-Control'
p2597
asbag56
(g77
g58
NtRp2598
(dp2599
g61
(dp2600
g88
g89
ssg70
g2589
sg63
(lp2601
S':'
asbag56
(g77
g58
NtRp2602
(dp2603
g61
(dp2604
sg70
g2589
sg63
(lp2605
g56
(g57
g58
NtRp2606
(dp2607
g61
(dp2608
g69
I4
ssg70
g2602
sg63
(lp2609
S'no-store, no-cache, must-revalidate, post-check=0, pre-check=0'
p2610
asbasbasbag56
(g72
g58
NtRp2611
(dp2612
g61
(dp2613
sg70
g2585
sg63
(lp2614
g56
(g77
g58
NtRp2615
(dp2616
g61
(dp2617
g81
g82
ssg70
g2611
sg63
(lp2618
S'Content-Type'
p2619
asbag56
(g77
g58
NtRp2620
(dp2621
g61
(dp2622
g88
g89
ssg70
g2611
sg63
(lp2623
S':'
asbag56
(g77
g58
NtRp2624
(dp2625
g61
(dp2626
sg70
g2611
sg63
(lp2627
g56
(g57
g58
NtRp2628
(dp2629
g61
(dp2630
g69
I4
ssg70
g2624
sg63
(lp2631
S'text/html; charset=utf-8'
p2632
asbasbasbag56
(g72
g58
NtRp2633
(dp2634
g61
(dp2635
sg70
g2585
sg63
(lp2636
g56
(g77
g58
NtRp2637
(dp2638
g61
(dp2639
g81
g82
ssg70
g2633
sg63
(lp2640
S'Expires'
p2641
asbag56
(g77
g58
NtRp2642
(dp2643
g61
(dp2644
g88
g89
ssg70
g2633
sg63
(lp2645
S':'
asbag56
(g77
g58
NtRp2646
(dp2647
g61
(dp2648
sg70
g2633
sg63
(lp2649
g56
(g57
g58
NtRp2650
(dp2651
g61
(dp2652
g69
I4
ssg70
g2646
sg63
(lp2653
S'Mon, 25 Jul 2011 19:26:17 GMT'
p2654
asbasbasbag56
(g72
g58
NtRp2655
(dp2656
g61
(dp2657
sg70
g2585
sg63
(lp2658
g56
(g77
g58
NtRp2659
(dp2660
g61
(dp2661
g81
g82
ssg70
g2655
sg63
(lp2662
S'Pragma'
p2663
asbag56
(g77
g58
NtRp2664
(dp2665
g61
(dp2666
g88
g89
ssg70
g2655
sg63
(lp2667
S':'
asbag56
(g77
g58
NtRp2668
(dp2669
g61
(dp2670
sg70
g2655
sg63
(lp2671
g56
(g57
g58
NtRp2672
(dp2673
g61
(dp2674
g69
I4
ssg70
g2668
sg63
(lp2675
S'no-cache'
p2676
asbasbasbag56
(g72
g58
NtRp2677
(dp2678
g61
(dp2679
sg70
g2585
sg63
(lp2680
g56
(g77
g58
NtRp2681
(dp2682
g61
(dp2683
g81
g82
ssg70
g2677
sg63
(lp2684
S'X-Powered-By'
p2685
asbag56
(g77
g58
NtRp2686
(dp2687
g61
(dp2688
g88
g89
ssg70
g2677
sg63
(lp2689
S':'
asbag56
(g77
g58
NtRp2690
(dp2691
g61
(dp2692
sg70
g2677
sg63
(lp2693
g56
(g57
g58
NtRp2694
(dp2695
g61
(dp2696
g69
I4
ssg70
g2690
sg63
(lp2697
S'web2py'
p2698
asbasbasbasbasbasbasbag56
(g72
g58
NtRp2699
(dp2700
g61
(dp2701
sg70
g2284
sg63
(lp2702
g56
(g77
g58
NtRp2703
(dp2704
g61
(dp2705
g81
g82
ssg70
g2699
sg63
(lp2706
S'menu'
p2707
asbag56
(g77
g58
NtRp2708
(dp2709
g61
(dp2710
g88
g89
ssg70
g2699
sg63
(lp2711
S':'
asbag56
(g77
g58
NtRp2712
(dp2713
g61
(dp2714
sg70
g2699
sg63
(lp2715
g56
(g57
g58
NtRp2716
(dp2717
g61
(dp2718
g69
I5
ssg70
g2712
sg63
(lp2719
g56
(g65
g58
NtRp2720
(dp2721
g61
(dp2722
g69
I4
ssg70
Nsg63
(lp2723
g56
(g72
g58
NtRp2724
(dp2725
g61
(dp2726
sg70
g2720
sg63
(lp2727
g56
(g77
g58
NtRp2728
(dp2729
g61
(dp2730
sg70
g2724
sg63
(lp2731
g56
(g57
g58
NtRp2732
(dp2733
g61
(dp2734
g69
I4
ssg70
g2728
sg63
(lp2735
g56
(g65
g58
NtRp2736
(dp2737
g61
(dp2738
g69
I3
ssg70
Nsg63
(lp2739
g56
(g72
g58
NtRp2740
(dp2741
g61
(dp2742
sg70
g2736
sg63
(lp2743
g56
(g77
g58
NtRp2744
(dp2745
g61
(dp2746
sg70
g2740
sg63
(lp2747
g56
(g57
g58
NtRp2748
(dp2749
g61
(dp2750
g69
I3
ssg70
g2744
sg63
(lp2751
cgluon.languages
lazyT_unpickle
p2752
(S't\x04\x00\x00\x00Home'
tRp2753
asbasbasbag56
(g72
g58
NtRp2754
(dp2755
g61
(dp2756
sg70
g2736
sg63
(lp2757
g56
(g77
g58
NtRp2758
(dp2759
g61
(dp2760
sg70
g2754
sg63
(lp2761
g56
(g57
g58
NtRp2762
(dp2763
g61
(dp2764
g69
I3
ssg70
g2758
sg63
(lp2765
g99
asbasbasbag56
(g72
g58
NtRp2766
(dp2767
g61
(dp2768
sg70
g2736
sg63
(lp2769
g56
(g77
g58
NtRp2770
(dp2771
g61
(dp2772
sg70
g2766
sg63
(lp2773
g56
(g57
g58
NtRp2774
(dp2775
g61
(dp2776
g69
I3
ssg70
g2770
sg63
(lp2777
S'/wp/default/index'
p2778
asbasbasbag56
(g72
g58
NtRp2779
(dp2780
g61
(dp2781
sg70
g2736
sg63
(lp2782
g56
(g77
g58
NtRp2783
(dp2784
g61
(dp2785
sg70
g2779
sg63
(lp2786
g56
(g57
g58
NtRp2787
(dp2788
g61
(dp2789
g69
I3
ssg70
g2783
sg63
(lp2790
g56
(g65
g58
NtRp2791
(dp2792
g61
(dp2793
g69
I2
ssg70
Nsg63
(lp2794
sbasbasbasbasbasbasbasbag56
(g72
g58
NtRp2795
(dp2796
g61
(dp2797
sg70
g2720
sg63
(lp2798
g56
(g77
g58
NtRp2799
(dp2800
g61
(dp2801
sg70
g2795
sg63
(lp2802
g56
(g57
g58
NtRp2803
(dp2804
g61
(dp2805
g69
I4
ssg70
g2799
sg63
(lp2806
g56
(g65
g58
NtRp2807
(dp2808
g61
(dp2809
g69
I3
ssg70
Nsg63
(lp2810
g56
(g72
g58
NtRp2811
(dp2812
g61
(dp2813
sg70
g2807
sg63
(lp2814
g56
(g77
g58
NtRp2815
(dp2816
g61
(dp2817
sg70
g2811
sg63
(lp2818
g56
(g57
g58
NtRp2819
(dp2820
g61
(dp2821
g69
I3
ssg70
g2815
sg63
(lp2822
g2752
(S's\x08\x00\x00\x00This App'
tRp2823
asbasbasbag56
(g72
g58
NtRp2824
(dp2825
g61
(dp2826
sg70
g2807
sg63
(lp2827
g56
(g77
g58
NtRp2828
(dp2829
g61
(dp2830
sg70
g2824
sg63
(lp2831
g56
(g57
g58
NtRp2832
(dp2833
g61
(dp2834
g69
I3
ssg70
g2828
sg63
(lp2835
g99
asbasbasbag56
(g72
g58
NtRp2836
(dp2837
g61
(dp2838
sg70
g2807
sg63
(lp2839
g56
(g77
g58
NtRp2840
(dp2841
g61
(dp2842
sg70
g2836
sg63
(lp2843
g56
(g57
g58
NtRp2844
(dp2845
g61
(dp2846
g69
I3
ssg70
g2840
sg63
(lp2847
S'/admin/default/design/wp'
p2848
asbasbasbag56
(g72
g58
NtRp2849
(dp2850
g61
(dp2851
sg70
g2807
sg63
(lp2852
g56
(g77
g58
NtRp2853
(dp2854
g61
(dp2855
sg70
g2849
sg63
(lp2856
g56
(g57
g58
NtRp2857
(dp2858
g61
(dp2859
g69
I3
ssg70
g2853
sg63
(lp2860
g56
(g65
g58
NtRp2861
(dp2862
g61
(dp2863
g69
I2
ssg70
Nsg63
(lp2864
g56
(g72
g58
NtRp2865
(dp2866
g61
(dp2867
sg70
g2861
sg63
(lp2868
g56
(g77
g58
NtRp2869
(dp2870
g61
(dp2871
sg70
g2865
sg63
(lp2872
g56
(g57
g58
NtRp2873
(dp2874
g61
(dp2875
g69
I2
ssg70
g2869
sg63
(lp2876
g56
(g65
g58
NtRp2877
(dp2878
g61
(dp2879
g69
I1
ssg70
Nsg63
(lp2880
g56
(g72
g58
NtRp2881
(dp2882
g61
(dp2883
sg70
g2877
sg63
(lp2884
g56
(g77
g58
NtRp2885
(dp2886
g61
(dp2887
sg70
g2881
sg63
(lp2888
g56
(g57
g58
NtRp2889
(dp2890
g61
(dp2891
g69
I1
ssg70
g2885
sg63
(lp2892
g2752
(S't\n\x00\x00\x00Controller'
tRp2893
asbasbasbag56
(g72
g58
NtRp2894
(dp2895
g61
(dp2896
sg70
g2877
sg63
(lp2897
g56
(g77
g58
NtRp2898
(dp2899
g61
(dp2900
sg70
g2894
sg63
(lp2901
g56
(g57
g58
NtRp2902
(dp2903
g61
(dp2904
g69
I1
ssg70
g2898
sg63
(lp2905
I00
asbasbasbag56
(g72
g58
NtRp2906
(dp2907
g61
(dp2908
sg70
g2877
sg63
(lp2909
g56
(g77
g58
NtRp2910
(dp2911
g61
(dp2912
sg70
g2906
sg63
(lp2913
g56
(g57
g58
NtRp2914
(dp2915
g61
(dp2916
g69
I1
ssg70
g2910
sg63
(lp2917
S'/admin/default/edit/wp/controllers/default.py'
p2918
asbasbasbasbasbasbasbag56
(g72
g58
NtRp2919
(dp2920
g61
(dp2921
sg70
g2861
sg63
(lp2922
g56
(g77
g58
NtRp2923
(dp2924
g61
(dp2925
sg70
g2919
sg63
(lp2926
g56
(g57
g58
NtRp2927
(dp2928
g61
(dp2929
g69
I2
ssg70
g2923
sg63
(lp2930
g56
(g65
g58
NtRp2931
(dp2932
g61
(dp2933
g69
I1
ssg70
Nsg63
(lp2934
g56
(g72
g58
NtRp2935
(dp2936
g61
(dp2937
sg70
g2931
sg63
(lp2938
g56
(g77
g58
NtRp2939
(dp2940
g61
(dp2941
sg70
g2935
sg63
(lp2942
g56
(g57
g58
NtRp2943
(dp2944
g61
(dp2945
g69
I1
ssg70
g2939
sg63
(lp2946
g2752
(S't\x04\x00\x00\x00View'
tRp2947
asbasbasbag56
(g72
g58
NtRp2948
(dp2949
g61
(dp2950
sg70
g2931
sg63
(lp2951
g56
(g77
g58
NtRp2952
(dp2953
g61
(dp2954
sg70
g2948
sg63
(lp2955
g56
(g57
g58
NtRp2956
(dp2957
g61
(dp2958
g69
I1
ssg70
g2952
sg63
(lp2959
I00
asbasbasbag56
(g72
g58
NtRp2960
(dp2961
g61
(dp2962
sg70
g2931
sg63
(lp2963
g56
(g77
g58
NtRp2964
(dp2965
g61
(dp2966
sg70
g2960
sg63
(lp2967
g56
(g57
g58
NtRp2968
(dp2969
g61
(dp2970
g69
I1
ssg70
g2964
sg63
(lp2971
S'/admin/default/edit/wp/views/default/submit.html'
p2972
asbasbasbasbasbasbasbag56
(g72
g58
NtRp2973
(dp2974
g61
(dp2975
sg70
g2861
sg63
(lp2976
g56
(g77
g58
NtRp2977
(dp2978
g61
(dp2979
sg70
g2973
sg63
(lp2980
g56
(g57
g58
NtRp2981
(dp2982
g61
(dp2983
g69
I2
ssg70
g2977
sg63
(lp2984
g56
(g65
g58
NtRp2985
(dp2986
g61
(dp2987
g69
I1
ssg70
Nsg63
(lp2988
g56
(g72
g58
NtRp2989
(dp2990
g61
(dp2991
sg70
g2985
sg63
(lp2992
g56
(g77
g58
NtRp2993
(dp2994
g61
(dp2995
sg70
g2989
sg63
(lp2996
g56
(g57
g58
NtRp2997
(dp2998
g61
(dp2999
g69
I1
ssg70
g2993
sg63
(lp3000
g2752
(S't\x06\x00\x00\x00Layout'
tRp3001
asbasbasbag56
(g72
g58
NtRp3002
(dp3003
g61
(dp3004
sg70
g2985
sg63
(lp3005
g56
(g77
g58
NtRp3006
(dp3007
g61
(dp3008
sg70
g3002
sg63
(lp3009
g56
(g57
g58
NtRp3010
(dp3011
g61
(dp3012
g69
I1
ssg70
g3006
sg63
(lp3013
I00
asbasbasbag56
(g72
g58
NtRp3014
(dp3015
g61
(dp3016
sg70
g2985
sg63
(lp3017
g56
(g77
g58
NtRp3018
(dp3019
g61
(dp3020
sg70
g3014
sg63
(lp3021
g56
(g57
g58
NtRp3022
(dp3023
g61
(dp3024
g69
I1
ssg70
g3018
sg63
(lp3025
S'/admin/default/edit/wp/views/layout.html'
p3026
asbasbasbasbasbasbasbag56
(g72
g58
NtRp3027
(dp3028
g61
(dp3029
sg70
g2861
sg63
(lp3030
g56
(g77
g58
NtRp3031
(dp3032
g61
(dp3033
sg70
g3027
sg63
(lp3034
g56
(g57
g58
NtRp3035
(dp3036
g61
(dp3037
g69
I2
ssg70
g3031
sg63
(lp3038
g56
(g65
g58
NtRp3039
(dp3040
g61
(dp3041
g69
I1
ssg70
Nsg63
(lp3042
g56
(g72
g58
NtRp3043
(dp3044
g61
(dp3045
sg70
g3039
sg63
(lp3046
g56
(g77
g58
NtRp3047
(dp3048
g61
(dp3049
sg70
g3043
sg63
(lp3050
g56
(g57
g58
NtRp3051
(dp3052
g61
(dp3053
g69
I1
ssg70
g3047
sg63
(lp3054
g2752
(S't\n\x00\x00\x00Stylesheet'
tRp3055
asbasbasbag56
(g72
g58
NtRp3056
(dp3057
g61
(dp3058
sg70
g3039
sg63
(lp3059
g56
(g77
g58
NtRp3060
(dp3061
g61
(dp3062
sg70
g3056
sg63
(lp3063
g56
(g57
g58
NtRp3064
(dp3065
g61
(dp3066
g69
I1
ssg70
g3060
sg63
(lp3067
I00
asbasbasbag56
(g72
g58
NtRp3068
(dp3069
g61
(dp3070
sg70
g3039
sg63
(lp3071
g56
(g77
g58
NtRp3072
(dp3073
g61
(dp3074
sg70
g3068
sg63
(lp3075
g56
(g57
g58
NtRp3076
(dp3077
g61
(dp3078
g69
I1
ssg70
g3072
sg63
(lp3079
S'/admin/default/edit/wp/static/base.css'
p3080
asbasbasbasbasbasbasbag56
(g72
g58
NtRp3081
(dp3082
g61
(dp3083
sg70
g2861
sg63
(lp3084
g56
(g77
g58
NtRp3085
(dp3086
g61
(dp3087
sg70
g3081
sg63
(lp3088
g56
(g57
g58
NtRp3089
(dp3090
g61
(dp3091
g69
I2
ssg70
g3085
sg63
(lp3092
g56
(g65
g58
NtRp3093
(dp3094
g61
(dp3095
g69
I1
ssg70
Nsg63
(lp3096
g56
(g72
g58
NtRp3097
(dp3098
g61
(dp3099
sg70
g3093
sg63
(lp3100
g56
(g77
g58
NtRp3101
(dp3102
g61
(dp3103
sg70
g3097
sg63
(lp3104
g56
(g57
g58
NtRp3105
(dp3106
g61
(dp3107
g69
I1
ssg70
g3101
sg63
(lp3108
g2752
(S's\x08\x00\x00\x00DB Model'
tRp3109
asbasbasbag56
(g72
g58
NtRp3110
(dp3111
g61
(dp3112
sg70
g3093
sg63
(lp3113
g56
(g77
g58
NtRp3114
(dp3115
g61
(dp3116
sg70
g3110
sg63
(lp3117
g56
(g57
g58
NtRp3118
(dp3119
g61
(dp3120
g69
I1
ssg70
g3114
sg63
(lp3121
I00
asbasbasbag56
(g72
g58
NtRp3122
(dp3123
g61
(dp3124
sg70
g3093
sg63
(lp3125
g56
(g77
g58
NtRp3126
(dp3127
g61
(dp3128
sg70
g3122
sg63
(lp3129
g56
(g57
g58
NtRp3130
(dp3131
g61
(dp3132
g69
I1
ssg70
g3126
sg63
(lp3133
S'/admin/default/edit/wp/models/db.py'
p3134
asbasbasbasbasbasbasbag56
(g72
g58
NtRp3135
(dp3136
g61
(dp3137
sg70
g2861
sg63
(lp3138
g56
(g77
g58
NtRp3139
(dp3140
g61
(dp3141
sg70
g3135
sg63
(lp3142
g56
(g57
g58
NtRp3143
(dp3144
g61
(dp3145
g69
I2
ssg70
g3139
sg63
(lp3146
g56
(g65
g58
NtRp3147
(dp3148
g61
(dp3149
g69
I1
ssg70
Nsg63
(lp3150
g56
(g72
g58
NtRp3151
(dp3152
g61
(dp3153
sg70
g3147
sg63
(lp3154
g56
(g77
g58
NtRp3155
(dp3156
g61
(dp3157
sg70
g3151
sg63
(lp3158
g56
(g57
g58
NtRp3159
(dp3160
g61
(dp3161
g69
I1
ssg70
g3155
sg63
(lp3162
g2752
(S's\n\x00\x00\x00Menu Model'
tRp3163
asbasbasbag56
(g72
g58
NtRp3164
(dp3165
g61
(dp3166
sg70
g3147
sg63
(lp3167
g56
(g77
g58
NtRp3168
(dp3169
g61
(dp3170
sg70
g3164
sg63
(lp3171
g56
(g57
g58
NtRp3172
(dp3173
g61
(dp3174
g69
I1
ssg70
g3168
sg63
(lp3175
I00
asbasbasbag56
(g72
g58
NtRp3176
(dp3177
g61
(dp3178
sg70
g3147
sg63
(lp3179
g56
(g77
g58
NtRp3180
(dp3181
g61
(dp3182
sg70
g3176
sg63
(lp3183
g56
(g57
g58
NtRp3184
(dp3185
g61
(dp3186
g69
I1
ssg70
g3180
sg63
(lp3187
S'/admin/default/edit/wp/models/menu.py'
p3188
asbasbasbasbasbasbasbag56
(g72
g58
NtRp3189
(dp3190
g61
(dp3191
sg70
g2861
sg63
(lp3192
g56
(g77
g58
NtRp3193
(dp3194
g61
(dp3195
sg70
g3189
sg63
(lp3196
g56
(g57
g58
NtRp3197
(dp3198
g61
(dp3199
g69
I2
ssg70
g3193
sg63
(lp3200
g56
(g65
g58
NtRp3201
(dp3202
g61
(dp3203
g69
I1
ssg70
Nsg63
(lp3204
g56
(g72
g58
NtRp3205
(dp3206
g61
(dp3207
sg70
g3201
sg63
(lp3208
g56
(g77
g58
NtRp3209
(dp3210
g61
(dp3211
sg70
g3205
sg63
(lp3212
g56
(g57
g58
NtRp3213
(dp3214
g61
(dp3215
g69
I1
ssg70
g3209
sg63
(lp3216
g2752
(S't\x08\x00\x00\x00Database'
tRp3217
asbasbasbag56
(g72
g58
NtRp3218
(dp3219
g61
(dp3220
sg70
g3201
sg63
(lp3221
g56
(g77
g58
NtRp3222
(dp3223
g61
(dp3224
sg70
g3218
sg63
(lp3225
g56
(g57
g58
NtRp3226
(dp3227
g61
(dp3228
g69
I1
ssg70
g3222
sg63
(lp3229
I00
asbasbasbag56
(g72
g58
NtRp3230
(dp3231
g61
(dp3232
sg70
g3201
sg63
(lp3233
g56
(g77
g58
NtRp3234
(dp3235
g61
(dp3236
sg70
g3230
sg63
(lp3237
g56
(g57
g58
NtRp3238
(dp3239
g61
(dp3240
g69
I1
ssg70
g3234
sg63
(lp3241
S'/wp/appadmin/index'
p3242
asbasbasbasbasbasbasbag56
(g72
g58
NtRp3243
(dp3244
g61
(dp3245
sg70
g2861
sg63
(lp3246
g56
(g77
g58
NtRp3247
(dp3248
g61
(dp3249
sg70
g3243
sg63
(lp3250
g56
(g57
g58
NtRp3251
(dp3252
g61
(dp3253
g69
I2
ssg70
g3247
sg63
(lp3254
g56
(g65
g58
NtRp3255
(dp3256
g61
(dp3257
g69
I1
ssg70
Nsg63
(lp3258
g56
(g72
g58
NtRp3259
(dp3260
g61
(dp3261
sg70
g3255
sg63
(lp3262
g56
(g77
g58
NtRp3263
(dp3264
g61
(dp3265
sg70
g3259
sg63
(lp3266
g56
(g57
g58
NtRp3267
(dp3268
g61
(dp3269
g69
I1
ssg70
g3263
sg63
(lp3270
g2752
(S't\x06\x00\x00\x00Errors'
tRp3271
asbasbasbag56
(g72
g58
NtRp3272
(dp3273
g61
(dp3274
sg70
g3255
sg63
(lp3275
g56
(g77
g58
NtRp3276
(dp3277
g61
(dp3278
sg70
g3272
sg63
(lp3279
g56
(g57
g58
NtRp3280
(dp3281
g61
(dp3282
g69
I1
ssg70
g3276
sg63
(lp3283
I00
asbasbasbag56
(g72
g58
NtRp3284
(dp3285
g61
(dp3286
sg70
g3255
sg63
(lp3287
g56
(g77
g58
NtRp3288
(dp3289
g61
(dp3290
sg70
g3284
sg63
(lp3291
g56
(g57
g58
NtRp3292
(dp3293
g61
(dp3294
g69
I1
ssg70
g3288
sg63
(lp3295
S'/admin/default/errors/wp'
p3296
asbasbasbasbasbasbasbag56
(g72
g58
NtRp3297
(dp3298
g61
(dp3299
sg70
g2861
sg63
(lp3300
g56
(g77
g58
NtRp3301
(dp3302
g61
(dp3303
sg70
g3297
sg63
(lp3304
g56
(g57
g58
NtRp3305
(dp3306
g61
(dp3307
g69
I2
ssg70
g3301
sg63
(lp3308
g56
(g65
g58
NtRp3309
(dp3310
g61
(dp3311
g69
I1
ssg70
Nsg63
(lp3312
g56
(g72
g58
NtRp3313
(dp3314
g61
(dp3315
sg70
g3309
sg63
(lp3316
g56
(g77
g58
NtRp3317
(dp3318
g61
(dp3319
sg70
g3313
sg63
(lp3320
g56
(g57
g58
NtRp3321
(dp3322
g61
(dp3323
g69
I1
ssg70
g3317
sg63
(lp3324
g2752
(S't\x05\x00\x00\x00About'
tRp3325
asbasbasbag56
(g72
g58
NtRp3326
(dp3327
g61
(dp3328
sg70
g3309
sg63
(lp3329
g56
(g77
g58
NtRp3330
(dp3331
g61
(dp3332
sg70
g3326
sg63
(lp3333
g56
(g57
g58
NtRp3334
(dp3335
g61
(dp3336
g69
I1
ssg70
g3330
sg63
(lp3337
I00
asbasbasbag56
(g72
g58
NtRp3338
(dp3339
g61
(dp3340
sg70
g3309
sg63
(lp3341
g56
(g77
g58
NtRp3342
(dp3343
g61
(dp3344
sg70
g3338
sg63
(lp3345
g56
(g57
g58
NtRp3346
(dp3347
g61
(dp3348
g69
I1
ssg70
g3342
sg63
(lp3349
S'/admin/default/about/wp'
p3350
asbasbasbasbasbasbasbasbasbasbasbasbasbasbasbag56
(g72
g58
NtRp3351
(dp3352
g61
(dp3353
sg70
g2720
sg63
(lp3354
g56
(g77
g58
NtRp3355
(dp3356
g61
(dp3357
sg70
g3351
sg63
(lp3358
g56
(g57
g58
NtRp3359
(dp3360
g61
(dp3361
g69
I4
ssg70
g3355
sg63
(lp3362
g56
(g65
g58
NtRp3363
(dp3364
g61
(dp3365
g69
I3
ssg70
Nsg63
(lp3366
g56
(g72
g58
NtRp3367
(dp3368
g61
(dp3369
sg70
g3363
sg63
(lp3370
g56
(g77
g58
NtRp3371
(dp3372
g61
(dp3373
sg70
g3367
sg63
(lp3374
g56
(g57
g58
NtRp3375
(dp3376
g61
(dp3377
g69
I3
ssg70
g3371
sg63
(lp3378
g2752
(S't\t\x00\x00\x00Resources'
tRp3379
asbasbasbag56
(g72
g58
NtRp3380
(dp3381
g61
(dp3382
sg70
g3363
sg63
(lp3383
g56
(g77
g58
NtRp3384
(dp3385
g61
(dp3386
sg70
g3380
sg63
(lp3387
g56
(g57
g58
NtRp3388
(dp3389
g61
(dp3390
g69
I3
ssg70
g3384
sg63
(lp3391
g99
asbasbasbag56
(g72
g58
NtRp3392
(dp3393
g61
(dp3394
sg70
g3363
sg63
(lp3395
g56
(g77
g58
NtRp3396
(dp3397
g61
(dp3398
sg70
g3392
sg63
(lp3399
g56
(g57
g58
NtRp3400
(dp3401
g61
(dp3402
g69
I3
ssg70
g3396
sg63
(lp3403
S'None'
p3404
asbasbasbag56
(g72
g58
NtRp3405
(dp3406
g61
(dp3407
sg70
g3363
sg63
(lp3408
g56
(g77
g58
NtRp3409
(dp3410
g61
(dp3411
sg70
g3405
sg63
(lp3412
g56
(g57
g58
NtRp3413
(dp3414
g61
(dp3415
g69
I3
ssg70
g3409
sg63
(lp3416
g56
(g65
g58
NtRp3417
(dp3418
g61
(dp3419
g69
I2
ssg70
Nsg63
(lp3420
g56
(g72
g58
NtRp3421
(dp3422
g61
(dp3423
sg70
g3417
sg63
(lp3424
g56
(g77
g58
NtRp3425
(dp3426
g61
(dp3427
sg70
g3421
sg63
(lp3428
g56
(g57
g58
NtRp3429
(dp3430
g61
(dp3431
g69
I2
ssg70
g3425
sg63
(lp3432
g56
(g65
g58
NtRp3433
(dp3434
g61
(dp3435
g69
I1
ssg70
Nsg63
(lp3436
g56
(g72
g58
NtRp3437
(dp3438
g61
(dp3439
sg70
g3433
sg63
(lp3440
g56
(g77
g58
NtRp3441
(dp3442
g61
(dp3443
sg70
g3437
sg63
(lp3444
g56
(g57
g58
NtRp3445
(dp3446
g61
(dp3447
g69
I1
ssg70
g3441
sg63
(lp3448
g2752
(S't\r\x00\x00\x00Documentation'
tRp3449
asbasbasbag56
(g72
g58
NtRp3450
(dp3451
g61
(dp3452
sg70
g3433
sg63
(lp3453
g56
(g77
g58
NtRp3454
(dp3455
g61
(dp3456
sg70
g3450
sg63
(lp3457
g56
(g57
g58
NtRp3458
(dp3459
g61
(dp3460
g69
I1
ssg70
g3454
sg63
(lp3461
I00
asbasbasbag56
(g72
g58
NtRp3462
(dp3463
g61
(dp3464
sg70
g3433
sg63
(lp3465
g56
(g77
g58
NtRp3466
(dp3467
g61
(dp3468
sg70
g3462
sg63
(lp3469
g56
(g57
g58
NtRp3470
(dp3471
g61
(dp3472
g69
I1
ssg70
g3466
sg63
(lp3473
S'http://www.web2py.com/book'
p3474
asbasbasbag56
(g72
g58
NtRp3475
(dp3476
g61
(dp3477
sg70
g3433
sg63
(lp3478
g56
(g77
g58
NtRp3479
(dp3480
g61
(dp3481
sg70
g3475
sg63
(lp3482
g56
(g57
g58
NtRp3483
(dp3484
g61
(dp3485
g69
I1
ssg70
g3479
sg63
(lp3486
(lp3487
(g2752
(S't\x07\x00\x00\x00Preface'
tRp3488
I00
S'http://www.web2py.com/book/default/chapter/00'
tp3489
a(g2752
(S't\x0c\x00\x00\x00Introduction'
tRp3490
I00
S'http://www.web2py.com/book/default/chapter/01'
tp3491
a(g2752
(S't\x06\x00\x00\x00Python'
tRp3492
I00
S'http://www.web2py.com/book/default/chapter/02'
tp3493
a(g2752
(S't\x08\x00\x00\x00Overview'
tRp3494
I00
S'http://www.web2py.com/book/default/chapter/03'
tp3495
a(g2752
(S's\x08\x00\x00\x00The Core'
tRp3496
I00
S'http://www.web2py.com/book/default/chapter/04'
tp3497
a(g2752
(S's\t\x00\x00\x00The Views'
tRp3498
I00
S'http://www.web2py.com/book/default/chapter/05'
tp3499
a(g2752
(S't\x08\x00\x00\x00Database'
tRp3500
I00
S'http://www.web2py.com/book/default/chapter/06'
tp3501
a(g2752
(S's\x14\x00\x00\x00Forms and Validators'
tRp3502
I00
S'http://www.web2py.com/book/default/chapter/07'
tp3503
a(g2752
(S's\x0e\x00\x00\x00Access Control'
tRp3504
I00
S'http://www.web2py.com/book/default/chapter/08'
tp3505
a(g2752
(S't\x08\x00\x00\x00Services'
tRp3506
I00
S'http://www.web2py.com/book/default/chapter/09'
tp3507
a(g2752
(S's\x0c\x00\x00\x00Ajax Recipes'
tRp3508
I00
S'http://www.web2py.com/book/default/chapter/10'
tp3509
a(g2752
(S's\x12\x00\x00\x00Deployment Recipes'
tRp3510
I00
S'http://www.web2py.com/book/default/chapter/11'
tp3511
a(g2752
(S's\r\x00\x00\x00Other Recipes'
tRp3512
I00
S'http://www.web2py.com/book/default/chapter/12'
tp3513
a(g2752
(S's\r\x00\x00\x00Buy this book'
tRp3514
I00
S'http://stores.lulu.com/web2py'
tp3515
aasbasbasbasbasbasbasbag56
(g72
g58
NtRp3516
(dp3517
g61
(dp3518
sg70
g3417
sg63
(lp3519
g56
(g77
g58
NtRp3520
(dp3521
g61
(dp3522
sg70
g3516
sg63
(lp3523
g56
(g57
g58
NtRp3524
(dp3525
g61
(dp3526
g69
I2
ssg70
g3520
sg63
(lp3527
g56
(g65
g58
NtRp3528
(dp3529
g61
(dp3530
g69
I1
ssg70
Nsg63
(lp3531
g56
(g72
g58
NtRp3532
(dp3533
g61
(dp3534
sg70
g3528
sg63
(lp3535
g56
(g77
g58
NtRp3536
(dp3537
g61
(dp3538
sg70
g3532
sg63
(lp3539
g56
(g57
g58
NtRp3540
(dp3541
g61
(dp3542
g69
I1
ssg70
g3536
sg63
(lp3543
g2752
(S't\t\x00\x00\x00Community'
tRp3544
asbasbasbag56
(g72
g58
NtRp3545
(dp3546
g61
(dp3547
sg70
g3528
sg63
(lp3548
g56
(g77
g58
NtRp3549
(dp3550
g61
(dp3551
sg70
g3545
sg63
(lp3552
g56
(g57
g58
NtRp3553
(dp3554
g61
(dp3555
g69
I1
ssg70
g3549
sg63
(lp3556
I00
asbasbasbag56
(g72
g58
NtRp3557
(dp3558
g61
(dp3559
sg70
g3528
sg63
(lp3560
g56
(g77
g58
NtRp3561
(dp3562
g61
(dp3563
sg70
g3557
sg63
(lp3564
g56
(g57
g58
NtRp3565
(dp3566
g61
(dp3567
g69
I1
ssg70
g3561
sg63
(lp3568
Nasbasbasbag56
(g72
g58
NtRp3569
(dp3570
g61
(dp3571
sg70
g3528
sg63
(lp3572
g56
(g77
g58
NtRp3573
(dp3574
g61
(dp3575
sg70
g3569
sg63
(lp3576
g56
(g57
g58
NtRp3577
(dp3578
g61
(dp3579
g69
I1
ssg70
g3573
sg63
(lp3580
(lp3581
(g2752
(S't\x06\x00\x00\x00Groups'
tRp3582
I00
S'http://www.web2py.com/examples/default/usergroups'
tp3583
a(g2752
(S't\x07\x00\x00\x00Twitter'
tRp3584
I00
S'http://twitter.com/web2py'
tp3585
a(g2752
(S's\t\x00\x00\x00Live chat'
tRp3586
I00
S'http://mibbit.com/?channel=%23web2py&server=irc.mibbit.net'
tp3587
a(g2752
(S's\n\x00\x00\x00User Voice'
tRp3588
I00
S'http://web2py.uservoice.com/'
tp3589
aasbasbasbasbasbasbasbag56
(g72
g58
NtRp3590
(dp3591
g61
(dp3592
sg70
g3417
sg63
(lp3593
g56
(g77
g58
NtRp3594
(dp3595
g61
(dp3596
sg70
g3590
sg63
(lp3597
g56
(g57
g58
NtRp3598
(dp3599
g61
(dp3600
g69
I2
ssg70
g3594
sg63
(lp3601
g56
(g65
g58
NtRp3602
(dp3603
g61
(dp3604
g69
I1
ssg70
Nsg63
(lp3605
g56
(g72
g58
NtRp3606
(dp3607
g61
(dp3608
sg70
g3602
sg63
(lp3609
g56
(g77
g58
NtRp3610
(dp3611
g61
(dp3612
sg70
g3606
sg63
(lp3613
g56
(g57
g58
NtRp3614
(dp3615
g61
(dp3616
g69
I1
ssg70
g3610
sg63
(lp3617
g2752
(S't\x06\x00\x00\x00Web2py'
tRp3618
asbasbasbag56
(g72
g58
NtRp3619
(dp3620
g61
(dp3621
sg70
g3602
sg63
(lp3622
g56
(g77
g58
NtRp3623
(dp3624
g61
(dp3625
sg70
g3619
sg63
(lp3626
g56
(g57
g58
NtRp3627
(dp3628
g61
(dp3629
g69
I1
ssg70
g3623
sg63
(lp3630
I00
asbasbasbag56
(g72
g58
NtRp3631
(dp3632
g61
(dp3633
sg70
g3602
sg63
(lp3634
g56
(g77
g58
NtRp3635
(dp3636
g61
(dp3637
sg70
g3631
sg63
(lp3638
g56
(g57
g58
NtRp3639
(dp3640
g61
(dp3641
g69
I1
ssg70
g3635
sg63
(lp3642
S'http://www.web2py.com'
p3643
asbasbasbag56
(g72
g58
NtRp3644
(dp3645
g61
(dp3646
sg70
g3602
sg63
(lp3647
g56
(g77
g58
NtRp3648
(dp3649
g61
(dp3650
sg70
g3644
sg63
(lp3651
g56
(g57
g58
NtRp3652
(dp3653
g61
(dp3654
g69
I1
ssg70
g3648
sg63
(lp3655
(lp3656
(g2752
(S't\x08\x00\x00\x00Download'
tRp3657
I00
S'http://www.web2py.com/examples/default/download'
tp3658
a(g2752
(S't\x07\x00\x00\x00Support'
tRp3659
I00
S'http://www.web2py.com/examples/default/support'
tp3660
a(g2752
(S's\x0e\x00\x00\x00Quick Examples'
tRp3661
I00
S'http://web2py.com/examples/default/examples'
tp3662
a(g2752
(S't\x03\x00\x00\x00FAQ'
tRp3663
I00
S'http://web2py.com/AlterEgo'
tp3664
a(g2752
(S's\x11\x00\x00\x00Free Applications'
tRp3665
I00
S'http://web2py.com/appliances'
tp3666
a(g2752
(S't\x07\x00\x00\x00Plugins'
tRp3667
I00
S'http://web2py.com/plugins'
tp3668
a(g2752
(S't\x07\x00\x00\x00Recipes'
tRp3669
I00
S'http://web2pyslices.com/'
tp3670
a(g2752
(S't\x04\x00\x00\x00Demo'
tRp3671
I00
S'http://web2py.com/demo_admin'
tp3672
a(g2752
(S't\x08\x00\x00\x00Semantic'
tRp3673
I00
S'http://web2py.com/semantic'
tp3674
a(g2752
(S't\x07\x00\x00\x00Layouts'
tRp3675
I00
S'http://web2py.com/layouts'
tp3676
a(g2752
(S't\x06\x00\x00\x00Videos'
tRp3677
I00
S'http://www.web2py.com/examples/default/videos/'
tp3678
aasbasbasbasbasbasbasbasbasbasbasbasbasbasbasbasbasbasbasbag56
(g72
g58
NtRp3679
(dp3680
g61
(dp3681
sg70
g2284
sg63
(lp3682
g56
(g77
g58
NtRp3683
(dp3684
g61
(dp3685
g81
g82
ssg70
g3679
sg63
(lp3686
S'meta'
p3687
asbag56
(g77
g58
NtRp3688
(dp3689
g61
(dp3690
g88
g89
ssg70
g3679
sg63
(lp3691
S':'
asbag56
(g77
g58
NtRp3692
(dp3693
g61
(dp3694
sg70
g3679
sg63
(lp3695
g56
(g57
g58
NtRp3696
(dp3697
g61
(dp3698
g69
I5
ssg70
g3692
sg63
(lp3699
g56
(g65
g58
NtRp3700
(dp3701
g61
(dp3702
g69
I4
ssg70
Nsg63
(lp3703
g56
(g72
g58
NtRp3704
(dp3705
g61
(dp3706
sg70
g3700
sg63
(lp3707
g56
(g77
g58
NtRp3708
(dp3709
g61
(dp3710
g81
g82
ssg70
g3704
sg63
(lp3711
S'author'
p3712
asbag56
(g77
g58
NtRp3713
(dp3714
g61
(dp3715
g88
g89
ssg70
g3704
sg63
(lp3716
S':'
asbag56
(g77
g58
NtRp3717
(dp3718
g61
(dp3719
sg70
g3704
sg63
(lp3720
g56
(g57
g58
NtRp3721
(dp3722
g61
(dp3723
g69
I4
ssg70
g3717
sg63
(lp3724
S'you'
p3725
asbasbasbag56
(g72
g58
NtRp3726
(dp3727
g61
(dp3728
sg70
g3700
sg63
(lp3729
g56
(g77
g58
NtRp3730
(dp3731
g61
(dp3732
g81
g82
ssg70
g3726
sg63
(lp3733
S'copyright'
p3734
asbag56
(g77
g58
NtRp3735
(dp3736
g61
(dp3737
g88
g89
ssg70
g3726
sg63
(lp3738
S':'
asbag56
(g77
g58
NtRp3739
(dp3740
g61
(dp3741
sg70
g3726
sg63
(lp3742
g56
(g57
g58
NtRp3743
(dp3744
g61
(dp3745
g69
I4
ssg70
g3739
sg63
(lp3746
S'Copyright 2007-2010'
p3747
asbasbasbag56
(g72
g58
NtRp3748
(dp3749
g61
(dp3750
sg70
g3700
sg63
(lp3751
g56
(g77
g58
NtRp3752
(dp3753
g61
(dp3754
g81
g82
ssg70
g3748
sg63
(lp3755
S'description'
p3756
asbag56
(g77
g58
NtRp3757
(dp3758
g61
(dp3759
g88
g89
ssg70
g3748
sg63
(lp3760
S':'
asbag56
(g77
g58
NtRp3761
(dp3762
g61
(dp3763
sg70
g3748
sg63
(lp3764
g56
(g57
g58
NtRp3765
(dp3766
g61
(dp3767
g69
I4
ssg70
g3761
sg63
(lp3768
S'Free and open source full-stack enterprise framework for agile development of fast, scalable, secure and portable database-driven web-based applications. Written and programmable in Python'
p3769
asbasbasbag56
(g72
g58
NtRp3770
(dp3771
g61
(dp3772
sg70
g3700
sg63
(lp3773
g56
(g77
g58
NtRp3774
(dp3775
g61
(dp3776
g81
g82
ssg70
g3770
sg63
(lp3777
S'generator'
p3778
asbag56
(g77
g58
NtRp3779
(dp3780
g61
(dp3781
g88
g89
ssg70
g3770
sg63
(lp3782
S':'
asbag56
(g77
g58
NtRp3783
(dp3784
g61
(dp3785
sg70
g3770
sg63
(lp3786
g56
(g57
g58
NtRp3787
(dp3788
g61
(dp3789
g69
I4
ssg70
g3783
sg63
(lp3790
S'Web2py Enterprise Framework'
p3791
asbasbasbag56
(g72
g58
NtRp3792
(dp3793
g61
(dp3794
sg70
g3700
sg63
(lp3795
g56
(g77
g58
NtRp3796
(dp3797
g61
(dp3798
g81
g82
ssg70
g3792
sg63
(lp3799
S'keywords'
p3800
asbag56
(g77
g58
NtRp3801
(dp3802
g61
(dp3803
g88
g89
ssg70
g3792
sg63
(lp3804
S':'
asbag56
(g77
g58
NtRp3805
(dp3806
g61
(dp3807
sg70
g3792
sg63
(lp3808
g56
(g57
g58
NtRp3809
(dp3810
g61
(dp3811
g69
I4
ssg70
g3805
sg63
(lp3812
S'web2py, python, framework'
p3813
asbasbasbasbasbasbasbag56
(g72
g58
NtRp3814
(dp3815
g61
(dp3816
sg70
g2284
sg63
(lp3817
g56
(g77
g58
NtRp3818
(dp3819
g61
(dp3820
g81
g82
ssg70
g3814
sg63
(lp3821
S'postprocessing'
p3822
asbag56
(g77
g58
NtRp3823
(dp3824
g61
(dp3825
g88
g89
ssg70
g3814
sg63
(lp3826
S':'
asbag56
(g77
g58
NtRp3827
(dp3828
g61
(dp3829
sg70
g3814
sg63
(lp3830
g56
(g57
g58
NtRp3831
(dp3832
g61
(dp3833
g69
I5
ssg70
g3827
sg63
(lp3834
g56
(g65
g58
NtRp3835
(dp3836
g61
(dp3837
g69
I4
ssg70
Nsg63
(lp3838
sbasbasbasbag56
(g72
g58
NtRp3839
(dp3840
g61
(dp3841
sg70
g2284
sg63
(lp3842
g56
(g77
g58
NtRp3843
(dp3844
g61
(dp3845
g81
g82
ssg70
g3839
sg63
(lp3846
S'session_filename'
p3847
asbag56
(g77
g58
NtRp3848
(dp3849
g61
(dp3850
g88
g89
ssg70
g3839
sg63
(lp3851
S':'
asbag56
(g77
g58
NtRp3852
(dp3853
g61
(dp3854
sg70
g3839
sg63
(lp3855
g56
(g57
g58
NtRp3856
(dp3857
g61
(dp3858
g69
I5
ssg70
g3852
sg63
(lp3859
S'/Users/schultzc/workspace/wherespuppet/web2py/applications/wp/sessions/127.0.0.1-54bcf0b0-e434-4e31-9ef4-bacda95268c4'
p3860
asbasbasbag56
(g72
g58
NtRp3861
(dp3862
g61
(dp3863
sg70
g2284
sg63
(lp3864
g56
(g77
g58
NtRp3865
(dp3866
g61
(dp3867
g81
g82
ssg70
g3861
sg63
(lp3868
S'session_id'
p3869
asbag56
(g77
g58
NtRp3870
(dp3871
g61
(dp3872
g88
g89
ssg70
g3861
sg63
(lp3873
S':'
asbag56
(g77
g58
NtRp3874
(dp3875
g61
(dp3876
sg70
g3861
sg63
(lp3877
g56
(g57
g58
NtRp3878
(dp3879
g61
(dp3880
g69
I5
ssg70
g3874
sg63
(lp3881
S'127.0.0.1-54bcf0b0-e434-4e31-9ef4-bacda95268c4'
p3882
asbasbasbag56
(g72
g58
NtRp3883
(dp3884
g61
(dp3885
sg70
g2284
sg63
(lp3886
g56
(g77
g58
NtRp3887
(dp3888
g61
(dp3889
g81
g82
ssg70
g3883
sg63
(lp3890
S'session_id_name'
p3891
asbag56
(g77
g58
NtRp3892
(dp3893
g61
(dp3894
g88
g89
ssg70
g3883
sg63
(lp3895
S':'
asbag56
(g77
g58
NtRp3896
(dp3897
g61
(dp3898
sg70
g3883
sg63
(lp3899
g56
(g57
g58
NtRp3900
(dp3901
g61
(dp3902
g69
I5
ssg70
g3896
sg63
(lp3903
g2341
asbasbasbag56
(g72
g58
NtRp3904
(dp3905
g61
(dp3906
sg70
g2284
sg63
(lp3907
g56
(g77
g58
NtRp3908
(dp3909
g61
(dp3910
g81
g82
ssg70
g3904
sg63
(lp3911
S'session_new'
p3912
asbag56
(g77
g58
NtRp3913
(dp3914
g61
(dp3915
g88
g89
ssg70
g3904
sg63
(lp3916
S':'
asbag56
(g77
g58
NtRp3917
(dp3918
g61
(dp3919
sg70
g3904
sg63
(lp3920
g56
(g57
g58
NtRp3921
(dp3922
g61
(dp3923
g69
I5
ssg70
g3917
sg63
(lp3924
g1199
asbasbasbag56
(g72
g58
NtRp3925
(dp3926
g61
(dp3927
sg70
g2284
sg63
(lp3928
g56
(g77
g58
NtRp3929
(dp3930
g61
(dp3931
g81
g82
ssg70
g3925
sg63
(lp3932
S'status'
p3933
asbag56
(g77
g58
NtRp3934
(dp3935
g61
(dp3936
g88
g89
ssg70
g3925
sg63
(lp3937
S':'
asbag56
(g77
g58
NtRp3938
(dp3939
g61
(dp3940
sg70
g3925
sg63
(lp3941
g56
(g57
g58
NtRp3942
(dp3943
g61
(dp3944
g69
I5
ssg70
g3938
sg63
(lp3945
S'200'
p3946
asbasbasbag56
(g72
g58
NtRp3947
(dp3948
g61
(dp3949
sg70
g2284
sg63
(lp3950
g56
(g77
g58
NtRp3951
(dp3952
g61
(dp3953
g81
g82
ssg70
g3947
sg63
(lp3954
S'subtitle'
p3955
asbag56
(g77
g58
NtRp3956
(dp3957
g61
(dp3958
g88
g89
ssg70
g3947
sg63
(lp3959
S':'
asbag56
(g77
g58
NtRp3960
(dp3961
g61
(dp3962
sg70
g3947
sg63
(lp3963
g56
(g57
g58
NtRp3964
(dp3965
g61
(dp3966
g69
I5
ssg70
g3960
sg63
(lp3967
g2752
(S's\r\x00\x00\x00customize me!'
tRp3968
asbasbasbag56
(g72
g58
NtRp3969
(dp3970
g61
(dp3971
sg70
g2284
sg63
(lp3972
g56
(g77
g58
NtRp3973
(dp3974
g61
(dp3975
g81
g82
ssg70
g3969
sg63
(lp3976
S'title'
p3977
asbag56
(g77
g58
NtRp3978
(dp3979
g61
(dp3980
g88
g89
ssg70
g3969
sg63
(lp3981
S':'
asbag56
(g77
g58
NtRp3982
(dp3983
g61
(dp3984
sg70
g3969
sg63
(lp3985
g56
(g57
g58
NtRp3986
(dp3987
g61
(dp3988
g69
I5
ssg70
g3982
sg63
(lp3989
g121
asbasbasbag56
(g72
g58
NtRp3990
(dp3991
g61
(dp3992
sg70
g2284
sg63
(lp3993
g56
(g77
g58
NtRp3994
(dp3995
g61
(dp3996
g81
g82
ssg70
g3990
sg63
(lp3997
g1523
asbag56
(g77
g58
NtRp3998
(dp3999
g61
(dp4000
g88
g89
ssg70
g3990
sg63
(lp4001
S':'
asbag56
(g77
g58
NtRp4002
(dp4003
g61
(dp4004
sg70
g3990
sg63
(lp4005
g56
(g57
g58
NtRp4006
(dp4007
g61
(dp4008
g69
I5
ssg70
g4002
sg63
(lp4009
g1536
asbasbasbag56
(g72
g58
NtRp4010
(dp4011
g61
(dp4012
sg70
g2284
sg63
(lp4013
g56
(g77
g58
NtRp4014
(dp4015
g61
(dp4016
g81
g82
ssg70
g4010
sg63
(lp4017
S'view'
p4018
asbag56
(g77
g58
NtRp4019
(dp4020
g61
(dp4021
g88
g89
ssg70
g4010
sg63
(lp4022
S':'
asbag56
(g77
g58
NtRp4023
(dp4024
g61
(dp4025
sg70
g4010
sg63
(lp4026
g56
(g57
g58
NtRp4027
(dp4028
g61
(dp4029
g69
I5
ssg70
g4023
sg63
(lp4030
S'default/submit.html'
p4031
asbasbasbasbasbsS'locals'
p4032
(dp4033
S'form'
p4034
S'<gluon.sqlhtml.SQLFORM object>'
p4035
sssS'traceback'
p4036
S'Traceback (most recent call last):\n  File "/Users/schultzc/workspace/wherespuppet/web2py/gluon/restricted.py", line 192, in restricted\n    exec ccode in environment\n  File "/Users/schultzc/workspace/wherespuppet/web2py/applications/wp/controllers/default.py", line 97, in <module>\n  File "/Users/schultzc/workspace/wherespuppet/web2py/gluon/globals.py", line 137, in <lambda>\n    self._caller = lambda f: f()\n  File "/Users/schultzc/workspace/wherespuppet/web2py/applications/wp/controllers/default.py", line 20, in submit\n    if request.cookies[\'posLat\'].value:\nKeyError: \'posLat\'\n'
p4037
s.