(dp1
S'output'
p2
S''
sS'layer'
p3
S'/Users/schultzc/workspace/wherespuppet/web2py/applications/wp/controllers/default.py'
p4
sS'code'
p5
S'# -*- coding: utf-8 -*-\n# this file is released under public domain and you can use without limitations\n\n#########################################################################\n## This is a samples controller\n## - index is the default action of any application\n## - user is required for authentication and authorization\n## - download is for downloading files uploaded in the db (does streaming)\n## - call exposes all registered services (none by default)\n#########################################################################\nimport datetime\n\n\ndef index():\n    images = db().select(db.image.ALL, orderby=db.image.title)\n    return dict(images=images)\n    \ndef submit():\n    form = SQLFORM(db.image, submit_button=\'Submit Puppet\', _id = "submission",formstyle="divs")\n    latitude = response.cookies.posLat\n    if form.accepts(request.vars, session):\n        response.flash = \'form accepted\'\n    elif form.errors:\n        response.flash = \'form has errors\'\n    else:\n        response.flash = \'please fill out the form\'\n    return dict(form=form,latitude=latitude)\n   \ndef show():\n    image = db(db.image.id==request.args(0)).select().first()\n    form = SQLFORM(db.comment)\n    form.vars.image_id = image.id\n    if form.accepts(request.vars, session):\n        response.flash = \'your comment is posted\'\n    comments = db(db.comment.image_id==image.id).select()\n    return dict(image=image, comments=comments, form=form)\n\ndef user():\n    """\n    exposes:\n    http://..../[app]/default/user/login\n    http://..../[app]/default/user/logout\n    http://..../[app]/default/user/register\n    http://..../[app]/default/user/profile\n    http://..../[app]/default/user/retrieve_password\n    http://..../[app]/default/user/change_password\n    use @auth.requires_login()\n        @auth.requires_membership(\'group name\')\n        @auth.requires_permission(\'read\',\'table name\',record_id)\n    to decorate functions that need access control\n    """\n    return dict(form=auth())\n\n\ndef download():\n    """\n    allows downloading of uploaded files\n    http://..../[app]/default/download/[filename]\n    """\n    return response.download(request,db)\n\n\ndef call():\n    """\n    exposes services. for example:\n    http://..../[app]/default/call/jsonrpc\n    decorate with @services.jsonrpc the functions to expose\n    supports xml, json, xmlrpc, jsonrpc, amfrpc, rss, csv\n    """\n    return service()\n\n\'\'\'\n@auth.requires_signature()\ndef data():\n    """\n    http://..../[app]/default/data/tables\n    http://..../[app]/default/data/create/[table]\n    http://..../[app]/default/data/read/[table]/[id]\n    http://..../[app]/default/data/update/[table]/[id]\n    http://..../[app]/default/data/delete/[table]/[id[\n    http://..../[app]/default/data/select/[table]\n    http://..../[app]/default/data/search/[table]\n    but URLs bust be signed, i.e. linked with\n      A(\'table\',_href=URL(\'data/tables\',user_signature=True))\n    or with the signed load operator\n      LOAD(\'default\',\'data.load\',args=\'tables\',ajax=True,user_signature=True)\n    """\n    return dict(form=crud())\n\'\'\'\n\nresponse._vars=response._caller(submit)\n'
p6
sS'snapshot'
p7
(dp8
S'exception'
p9
(dp10
S'__hash__'
p11
S"<method-wrapper '__hash__' of exceptions.AttributeError object>"
p12
sS'__setattr__'
p13
S"<method-wrapper '__setattr__' of exceptions.AttributeError object>"
p14
sS'__reduce_ex__'
p15
S'<built-in method __reduce_ex__ of exceptions.AttributeError object>'
p16
sS'__getslice__'
p17
S"<method-wrapper '__getslice__' of exceptions.AttributeError object>"
p18
sS'__getitem__'
p19
S"<method-wrapper '__getitem__' of exceptions.AttributeError object>"
p20
sS'__setstate__'
p21
S'<built-in method __setstate__ of exceptions.AttributeError object>'
p22
sS'args'
p23
S'("\'SimpleCookie\' object has no attribute \'posLat\'",)'
p24
sS'__reduce__'
p25
S'<built-in method __reduce__ of exceptions.AttributeError object>'
p26
sS'__str__'
p27
S"<method-wrapper '__str__' of exceptions.AttributeError object>"
p28
sS'__format__'
p29
S'<built-in method __format__ of exceptions.AttributeError object>'
p30
sS'__getattribute__'
p31
S"<method-wrapper '__getattribute__' of exceptions.AttributeError object>"
p32
sS'__class__'
p33
S"<type 'exceptions.AttributeError'>"
p34
sS'__unicode__'
p35
S'<built-in method __unicode__ of exceptions.AttributeError object>'
p36
sS'__delattr__'
p37
S"<method-wrapper '__delattr__' of exceptions.AttributeError object>"
p38
sS'__subclasshook__'
p39
S'<built-in method __subclasshook__ of type object>'
p40
sS'__repr__'
p41
S"<method-wrapper '__repr__' of exceptions.AttributeError object>"
p42
sS'__dict__'
p43
S'{}'
p44
sS'__sizeof__'
p45
S'<built-in method __sizeof__ of exceptions.AttributeError object>'
p46
sS'__doc__'
p47
S"'Attribute not found.'"
p48
sS'__init__'
p49
S"<method-wrapper '__init__' of exceptions.AttributeError object>"
p50
sS'__new__'
p51
S'<built-in method __new__ of type object>'
p52
ssS'evalue'
p53
S"'SimpleCookie' object has no attribute 'posLat'"
p54
sS'request'
p55
ccopy_reg
_reconstructor
p56
(cgluon.html
BEAUTIFY
p57
c__builtin__
object
p58
NtRp59
(dp60
S'attributes'
p61
(dp62
sS'components'
p63
(lp64
g56
(cgluon.html
TABLE
p65
g58
NtRp66
(dp67
g61
(dp68
S'level'
p69
I5
ssS'parent'
p70
Nsg63
(lp71
g56
(cgluon.html
TR
p72
g58
NtRp73
(dp74
g61
(dp75
sg70
g66
sg63
(lp76
g56
(cgluon.html
TD
p77
g58
NtRp78
(dp79
g61
(dp80
S'_style'
p81
S'font-weight:bold;'
p82
ssg70
g73
sg63
(lp83
S'ajax'
p84
asbag56
(g77
g58
NtRp85
(dp86
g61
(dp87
S'_valign'
p88
S'top'
p89
ssg70
g73
sg63
(lp90
S':'
asbag56
(g77
g58
NtRp91
(dp92
g61
(dp93
sg70
g73
sg63
(lp94
g56
(g57
g58
NtRp95
(dp96
g61
(dp97
g69
I5
ssg70
g91
sg63
(lp98
S'False'
p99
asbasbasbag56
(g72
g58
NtRp100
(dp101
g61
(dp102
sg70
g66
sg63
(lp103
g56
(g77
g58
NtRp104
(dp105
g61
(dp106
g81
g82
ssg70
g100
sg63
(lp107
S'application'
p108
asbag56
(g77
g58
NtRp109
(dp110
g61
(dp111
g88
g89
ssg70
g100
sg63
(lp112
S':'
asbag56
(g77
g58
NtRp113
(dp114
g61
(dp115
sg70
g100
sg63
(lp116
g56
(g57
g58
NtRp117
(dp118
g61
(dp119
g69
I5
ssg70
g113
sg63
(lp120
S'wp'
p121
asbasbasbag56
(g72
g58
NtRp122
(dp123
g61
(dp124
sg70
g66
sg63
(lp125
g56
(g77
g58
NtRp126
(dp127
g61
(dp128
g81
g82
ssg70
g122
sg63
(lp129
g23
asbag56
(g77
g58
NtRp130
(dp131
g61
(dp132
g88
g89
ssg70
g122
sg63
(lp133
S':'
asbag56
(g77
g58
NtRp134
(dp135
g61
(dp136
sg70
g122
sg63
(lp137
g56
(g57
g58
NtRp138
(dp139
g61
(dp140
g69
I5
ssg70
g134
sg63
(lp141
g56
(g65
g58
NtRp142
(dp143
g61
(dp144
g69
I4
ssg70
Nsg63
(lp145
sbasbasbasbag56
(g72
g58
NtRp146
(dp147
g61
(dp148
sg70
g66
sg63
(lp149
g56
(g77
g58
NtRp150
(dp151
g61
(dp152
g81
g82
ssg70
g146
sg63
(lp153
S'body'
p154
asbag56
(g77
g58
NtRp155
(dp156
g61
(dp157
g88
g89
ssg70
g146
sg63
(lp158
S':'
asbag56
(g77
g58
NtRp159
(dp160
g61
(dp161
sg70
g146
sg63
(lp162
g56
(g57
g58
NtRp163
(dp164
g61
(dp165
g69
I5
ssg70
g159
sg63
(lp166
S'<cStringIO.StringO object at 0x107213538>'
p167
asbasbasbag56
(g72
g58
NtRp168
(dp169
g61
(dp170
sg70
g66
sg63
(lp171
g56
(g77
g58
NtRp172
(dp173
g61
(dp174
g81
g82
ssg70
g168
sg63
(lp175
S'client'
p176
asbag56
(g77
g58
NtRp177
(dp178
g61
(dp179
g88
g89
ssg70
g168
sg63
(lp180
S':'
asbag56
(g77
g58
NtRp181
(dp182
g61
(dp183
sg70
g168
sg63
(lp184
g56
(g57
g58
NtRp185
(dp186
g61
(dp187
g69
I5
ssg70
g181
sg63
(lp188
S'127.0.0.1'
p189
asbasbasbag56
(g72
g58
NtRp190
(dp191
g61
(dp192
sg70
g66
sg63
(lp193
g56
(g77
g58
NtRp194
(dp195
g61
(dp196
g81
g82
ssg70
g190
sg63
(lp197
S'controller'
p198
asbag56
(g77
g58
NtRp199
(dp200
g61
(dp201
g88
g89
ssg70
g190
sg63
(lp202
S':'
asbag56
(g77
g58
NtRp203
(dp204
g61
(dp205
sg70
g190
sg63
(lp206
g56
(g57
g58
NtRp207
(dp208
g61
(dp209
g69
I5
ssg70
g203
sg63
(lp210
S'default'
p211
asbasbasbag56
(g72
g58
NtRp212
(dp213
g61
(dp214
sg70
g66
sg63
(lp215
g56
(g77
g58
NtRp216
(dp217
g61
(dp218
g81
g82
ssg70
g212
sg63
(lp219
S'cookies'
p220
asbag56
(g77
g58
NtRp221
(dp222
g61
(dp223
g88
g89
ssg70
g212
sg63
(lp224
S':'
asbag56
(g77
g58
NtRp225
(dp226
g61
(dp227
sg70
g212
sg63
(lp228
g56
(g57
g58
NtRp229
(dp230
g61
(dp231
g69
I5
ssg70
g225
sg63
(lp232
g56
(g65
g58
NtRp233
(dp234
g61
(dp235
g69
I4
ssg70
Nsg63
(lp236
g56
(g72
g58
NtRp237
(dp238
g61
(dp239
sg70
g233
sg63
(lp240
g56
(g77
g58
NtRp241
(dp242
g61
(dp243
g81
g82
ssg70
g237
sg63
(lp244
S'posAccuracy'
p245
asbag56
(g77
g58
NtRp246
(dp247
g61
(dp248
g88
g89
ssg70
g237
sg63
(lp249
S':'
asbag56
(g77
g58
NtRp250
(dp251
g61
(dp252
sg70
g237
sg63
(lp253
g56
(g57
g58
NtRp254
(dp255
g61
(dp256
g69
I4
ssg70
g250
sg63
(lp257
g56
(g65
g58
NtRp258
(dp259
g61
(dp260
g69
I3
ssg70
Nsg63
(lp261
g56
(g72
g58
NtRp262
(dp263
g61
(dp264
sg70
g258
sg63
(lp265
g56
(g77
g58
NtRp266
(dp267
g61
(dp268
g81
g82
ssg70
g262
sg63
(lp269
S'comment'
p270
asbag56
(g77
g58
NtRp271
(dp272
g61
(dp273
g88
g89
ssg70
g262
sg63
(lp274
S':'
asbag56
(g77
g58
NtRp275
(dp276
g61
(dp277
sg70
g262
sg63
(lp278
g56
(g57
g58
NtRp279
(dp280
g61
(dp281
g69
I3
ssg70
g275
sg63
(lp282
S''
asbasbasbag56
(g72
g58
NtRp283
(dp284
g61
(dp285
sg70
g258
sg63
(lp286
g56
(g77
g58
NtRp287
(dp288
g61
(dp289
g81
g82
ssg70
g283
sg63
(lp290
S'domain'
p291
asbag56
(g77
g58
NtRp292
(dp293
g61
(dp294
g88
g89
ssg70
g283
sg63
(lp295
S':'
asbag56
(g77
g58
NtRp296
(dp297
g61
(dp298
sg70
g283
sg63
(lp299
g56
(g57
g58
NtRp300
(dp301
g61
(dp302
g69
I3
ssg70
g296
sg63
(lp303
S''
asbasbasbag56
(g72
g58
NtRp304
(dp305
g61
(dp306
sg70
g258
sg63
(lp307
g56
(g77
g58
NtRp308
(dp309
g61
(dp310
g81
g82
ssg70
g304
sg63
(lp311
S'expires'
p312
asbag56
(g77
g58
NtRp313
(dp314
g61
(dp315
g88
g89
ssg70
g304
sg63
(lp316
S':'
asbag56
(g77
g58
NtRp317
(dp318
g61
(dp319
sg70
g304
sg63
(lp320
g56
(g57
g58
NtRp321
(dp322
g61
(dp323
g69
I3
ssg70
g317
sg63
(lp324
S''
asbasbasbag56
(g72
g58
NtRp325
(dp326
g61
(dp327
sg70
g258
sg63
(lp328
g56
(g77
g58
NtRp329
(dp330
g61
(dp331
g81
g82
ssg70
g325
sg63
(lp332
S'httponly'
p333
asbag56
(g77
g58
NtRp334
(dp335
g61
(dp336
g88
g89
ssg70
g325
sg63
(lp337
S':'
asbag56
(g77
g58
NtRp338
(dp339
g61
(dp340
sg70
g325
sg63
(lp341
g56
(g57
g58
NtRp342
(dp343
g61
(dp344
g69
I3
ssg70
g338
sg63
(lp345
S''
asbasbasbag56
(g72
g58
NtRp346
(dp347
g61
(dp348
sg70
g258
sg63
(lp349
g56
(g77
g58
NtRp350
(dp351
g61
(dp352
g81
g82
ssg70
g346
sg63
(lp353
S'max-age'
p354
asbag56
(g77
g58
NtRp355
(dp356
g61
(dp357
g88
g89
ssg70
g346
sg63
(lp358
S':'
asbag56
(g77
g58
NtRp359
(dp360
g61
(dp361
sg70
g346
sg63
(lp362
g56
(g57
g58
NtRp363
(dp364
g61
(dp365
g69
I3
ssg70
g359
sg63
(lp366
S''
asbasbasbag56
(g72
g58
NtRp367
(dp368
g61
(dp369
sg70
g258
sg63
(lp370
g56
(g77
g58
NtRp371
(dp372
g61
(dp373
g81
g82
ssg70
g367
sg63
(lp374
S'path'
p375
asbag56
(g77
g58
NtRp376
(dp377
g61
(dp378
g88
g89
ssg70
g367
sg63
(lp379
S':'
asbag56
(g77
g58
NtRp380
(dp381
g61
(dp382
sg70
g367
sg63
(lp383
g56
(g57
g58
NtRp384
(dp385
g61
(dp386
g69
I3
ssg70
g380
sg63
(lp387
S''
asbasbasbag56
(g72
g58
NtRp388
(dp389
g61
(dp390
sg70
g258
sg63
(lp391
g56
(g77
g58
NtRp392
(dp393
g61
(dp394
g81
g82
ssg70
g388
sg63
(lp395
S'secure'
p396
asbag56
(g77
g58
NtRp397
(dp398
g61
(dp399
g88
g89
ssg70
g388
sg63
(lp400
S':'
asbag56
(g77
g58
NtRp401
(dp402
g61
(dp403
sg70
g388
sg63
(lp404
g56
(g57
g58
NtRp405
(dp406
g61
(dp407
g69
I3
ssg70
g401
sg63
(lp408
S''
asbasbasbag56
(g72
g58
NtRp409
(dp410
g61
(dp411
sg70
g258
sg63
(lp412
g56
(g77
g58
NtRp413
(dp414
g61
(dp415
g81
g82
ssg70
g409
sg63
(lp416
S'version'
p417
asbag56
(g77
g58
NtRp418
(dp419
g61
(dp420
g88
g89
ssg70
g409
sg63
(lp421
S':'
asbag56
(g77
g58
NtRp422
(dp423
g61
(dp424
sg70
g409
sg63
(lp425
g56
(g57
g58
NtRp426
(dp427
g61
(dp428
g69
I3
ssg70
g422
sg63
(lp429
S''
asbasbasbasbasbasbasbag56
(g72
g58
NtRp430
(dp431
g61
(dp432
sg70
g233
sg63
(lp433
g56
(g77
g58
NtRp434
(dp435
g61
(dp436
g81
g82
ssg70
g430
sg63
(lp437
S'posLat'
p438
asbag56
(g77
g58
NtRp439
(dp440
g61
(dp441
g88
g89
ssg70
g430
sg63
(lp442
S':'
asbag56
(g77
g58
NtRp443
(dp444
g61
(dp445
sg70
g430
sg63
(lp446
g56
(g57
g58
NtRp447
(dp448
g61
(dp449
g69
I4
ssg70
g443
sg63
(lp450
g56
(g65
g58
NtRp451
(dp452
g61
(dp453
g69
I3
ssg70
Nsg63
(lp454
g56
(g72
g58
NtRp455
(dp456
g61
(dp457
sg70
g451
sg63
(lp458
g56
(g77
g58
NtRp459
(dp460
g61
(dp461
g81
g82
ssg70
g455
sg63
(lp462
g270
asbag56
(g77
g58
NtRp463
(dp464
g61
(dp465
g88
g89
ssg70
g455
sg63
(lp466
S':'
asbag56
(g77
g58
NtRp467
(dp468
g61
(dp469
sg70
g455
sg63
(lp470
g56
(g57
g58
NtRp471
(dp472
g61
(dp473
g69
I3
ssg70
g467
sg63
(lp474
S''
asbasbasbag56
(g72
g58
NtRp475
(dp476
g61
(dp477
sg70
g451
sg63
(lp478
g56
(g77
g58
NtRp479
(dp480
g61
(dp481
g81
g82
ssg70
g475
sg63
(lp482
g291
asbag56
(g77
g58
NtRp483
(dp484
g61
(dp485
g88
g89
ssg70
g475
sg63
(lp486
S':'
asbag56
(g77
g58
NtRp487
(dp488
g61
(dp489
sg70
g475
sg63
(lp490
g56
(g57
g58
NtRp491
(dp492
g61
(dp493
g69
I3
ssg70
g487
sg63
(lp494
S''
asbasbasbag56
(g72
g58
NtRp495
(dp496
g61
(dp497
sg70
g451
sg63
(lp498
g56
(g77
g58
NtRp499
(dp500
g61
(dp501
g81
g82
ssg70
g495
sg63
(lp502
g312
asbag56
(g77
g58
NtRp503
(dp504
g61
(dp505
g88
g89
ssg70
g495
sg63
(lp506
S':'
asbag56
(g77
g58
NtRp507
(dp508
g61
(dp509
sg70
g495
sg63
(lp510
g56
(g57
g58
NtRp511
(dp512
g61
(dp513
g69
I3
ssg70
g507
sg63
(lp514
S''
asbasbasbag56
(g72
g58
NtRp515
(dp516
g61
(dp517
sg70
g451
sg63
(lp518
g56
(g77
g58
NtRp519
(dp520
g61
(dp521
g81
g82
ssg70
g515
sg63
(lp522
g333
asbag56
(g77
g58
NtRp523
(dp524
g61
(dp525
g88
g89
ssg70
g515
sg63
(lp526
S':'
asbag56
(g77
g58
NtRp527
(dp528
g61
(dp529
sg70
g515
sg63
(lp530
g56
(g57
g58
NtRp531
(dp532
g61
(dp533
g69
I3
ssg70
g527
sg63
(lp534
S''
asbasbasbag56
(g72
g58
NtRp535
(dp536
g61
(dp537
sg70
g451
sg63
(lp538
g56
(g77
g58
NtRp539
(dp540
g61
(dp541
g81
g82
ssg70
g535
sg63
(lp542
g354
asbag56
(g77
g58
NtRp543
(dp544
g61
(dp545
g88
g89
ssg70
g535
sg63
(lp546
S':'
asbag56
(g77
g58
NtRp547
(dp548
g61
(dp549
sg70
g535
sg63
(lp550
g56
(g57
g58
NtRp551
(dp552
g61
(dp553
g69
I3
ssg70
g547
sg63
(lp554
S''
asbasbasbag56
(g72
g58
NtRp555
(dp556
g61
(dp557
sg70
g451
sg63
(lp558
g56
(g77
g58
NtRp559
(dp560
g61
(dp561
g81
g82
ssg70
g555
sg63
(lp562
g375
asbag56
(g77
g58
NtRp563
(dp564
g61
(dp565
g88
g89
ssg70
g555
sg63
(lp566
S':'
asbag56
(g77
g58
NtRp567
(dp568
g61
(dp569
sg70
g555
sg63
(lp570
g56
(g57
g58
NtRp571
(dp572
g61
(dp573
g69
I3
ssg70
g567
sg63
(lp574
S''
asbasbasbag56
(g72
g58
NtRp575
(dp576
g61
(dp577
sg70
g451
sg63
(lp578
g56
(g77
g58
NtRp579
(dp580
g61
(dp581
g81
g82
ssg70
g575
sg63
(lp582
g396
asbag56
(g77
g58
NtRp583
(dp584
g61
(dp585
g88
g89
ssg70
g575
sg63
(lp586
S':'
asbag56
(g77
g58
NtRp587
(dp588
g61
(dp589
sg70
g575
sg63
(lp590
g56
(g57
g58
NtRp591
(dp592
g61
(dp593
g69
I3
ssg70
g587
sg63
(lp594
S''
asbasbasbag56
(g72
g58
NtRp595
(dp596
g61
(dp597
sg70
g451
sg63
(lp598
g56
(g77
g58
NtRp599
(dp600
g61
(dp601
g81
g82
ssg70
g595
sg63
(lp602
g417
asbag56
(g77
g58
NtRp603
(dp604
g61
(dp605
g88
g89
ssg70
g595
sg63
(lp606
S':'
asbag56
(g77
g58
NtRp607
(dp608
g61
(dp609
sg70
g595
sg63
(lp610
g56
(g57
g58
NtRp611
(dp612
g61
(dp613
g69
I3
ssg70
g607
sg63
(lp614
S''
asbasbasbasbasbasbasbag56
(g72
g58
NtRp615
(dp616
g61
(dp617
sg70
g233
sg63
(lp618
g56
(g77
g58
NtRp619
(dp620
g61
(dp621
g81
g82
ssg70
g615
sg63
(lp622
S'posLon'
p623
asbag56
(g77
g58
NtRp624
(dp625
g61
(dp626
g88
g89
ssg70
g615
sg63
(lp627
S':'
asbag56
(g77
g58
NtRp628
(dp629
g61
(dp630
sg70
g615
sg63
(lp631
g56
(g57
g58
NtRp632
(dp633
g61
(dp634
g69
I4
ssg70
g628
sg63
(lp635
g56
(g65
g58
NtRp636
(dp637
g61
(dp638
g69
I3
ssg70
Nsg63
(lp639
g56
(g72
g58
NtRp640
(dp641
g61
(dp642
sg70
g636
sg63
(lp643
g56
(g77
g58
NtRp644
(dp645
g61
(dp646
g81
g82
ssg70
g640
sg63
(lp647
g270
asbag56
(g77
g58
NtRp648
(dp649
g61
(dp650
g88
g89
ssg70
g640
sg63
(lp651
S':'
asbag56
(g77
g58
NtRp652
(dp653
g61
(dp654
sg70
g640
sg63
(lp655
g56
(g57
g58
NtRp656
(dp657
g61
(dp658
g69
I3
ssg70
g652
sg63
(lp659
S''
asbasbasbag56
(g72
g58
NtRp660
(dp661
g61
(dp662
sg70
g636
sg63
(lp663
g56
(g77
g58
NtRp664
(dp665
g61
(dp666
g81
g82
ssg70
g660
sg63
(lp667
g291
asbag56
(g77
g58
NtRp668
(dp669
g61
(dp670
g88
g89
ssg70
g660
sg63
(lp671
S':'
asbag56
(g77
g58
NtRp672
(dp673
g61
(dp674
sg70
g660
sg63
(lp675
g56
(g57
g58
NtRp676
(dp677
g61
(dp678
g69
I3
ssg70
g672
sg63
(lp679
S''
asbasbasbag56
(g72
g58
NtRp680
(dp681
g61
(dp682
sg70
g636
sg63
(lp683
g56
(g77
g58
NtRp684
(dp685
g61
(dp686
g81
g82
ssg70
g680
sg63
(lp687
g312
asbag56
(g77
g58
NtRp688
(dp689
g61
(dp690
g88
g89
ssg70
g680
sg63
(lp691
S':'
asbag56
(g77
g58
NtRp692
(dp693
g61
(dp694
sg70
g680
sg63
(lp695
g56
(g57
g58
NtRp696
(dp697
g61
(dp698
g69
I3
ssg70
g692
sg63
(lp699
S''
asbasbasbag56
(g72
g58
NtRp700
(dp701
g61
(dp702
sg70
g636
sg63
(lp703
g56
(g77
g58
NtRp704
(dp705
g61
(dp706
g81
g82
ssg70
g700
sg63
(lp707
g333
asbag56
(g77
g58
NtRp708
(dp709
g61
(dp710
g88
g89
ssg70
g700
sg63
(lp711
S':'
asbag56
(g77
g58
NtRp712
(dp713
g61
(dp714
sg70
g700
sg63
(lp715
g56
(g57
g58
NtRp716
(dp717
g61
(dp718
g69
I3
ssg70
g712
sg63
(lp719
S''
asbasbasbag56
(g72
g58
NtRp720
(dp721
g61
(dp722
sg70
g636
sg63
(lp723
g56
(g77
g58
NtRp724
(dp725
g61
(dp726
g81
g82
ssg70
g720
sg63
(lp727
g354
asbag56
(g77
g58
NtRp728
(dp729
g61
(dp730
g88
g89
ssg70
g720
sg63
(lp731
S':'
asbag56
(g77
g58
NtRp732
(dp733
g61
(dp734
sg70
g720
sg63
(lp735
g56
(g57
g58
NtRp736
(dp737
g61
(dp738
g69
I3
ssg70
g732
sg63
(lp739
S''
asbasbasbag56
(g72
g58
NtRp740
(dp741
g61
(dp742
sg70
g636
sg63
(lp743
g56
(g77
g58
NtRp744
(dp745
g61
(dp746
g81
g82
ssg70
g740
sg63
(lp747
g375
asbag56
(g77
g58
NtRp748
(dp749
g61
(dp750
g88
g89
ssg70
g740
sg63
(lp751
S':'
asbag56
(g77
g58
NtRp752
(dp753
g61
(dp754
sg70
g740
sg63
(lp755
g56
(g57
g58
NtRp756
(dp757
g61
(dp758
g69
I3
ssg70
g752
sg63
(lp759
S''
asbasbasbag56
(g72
g58
NtRp760
(dp761
g61
(dp762
sg70
g636
sg63
(lp763
g56
(g77
g58
NtRp764
(dp765
g61
(dp766
g81
g82
ssg70
g760
sg63
(lp767
g396
asbag56
(g77
g58
NtRp768
(dp769
g61
(dp770
g88
g89
ssg70
g760
sg63
(lp771
S':'
asbag56
(g77
g58
NtRp772
(dp773
g61
(dp774
sg70
g760
sg63
(lp775
g56
(g57
g58
NtRp776
(dp777
g61
(dp778
g69
I3
ssg70
g772
sg63
(lp779
S''
asbasbasbag56
(g72
g58
NtRp780
(dp781
g61
(dp782
sg70
g636
sg63
(lp783
g56
(g77
g58
NtRp784
(dp785
g61
(dp786
g81
g82
ssg70
g780
sg63
(lp787
g417
asbag56
(g77
g58
NtRp788
(dp789
g61
(dp790
g88
g89
ssg70
g780
sg63
(lp791
S':'
asbag56
(g77
g58
NtRp792
(dp793
g61
(dp794
sg70
g780
sg63
(lp795
g56
(g57
g58
NtRp796
(dp797
g61
(dp798
g69
I3
ssg70
g792
sg63
(lp799
S''
asbasbasbasbasbasbasbag56
(g72
g58
NtRp800
(dp801
g61
(dp802
sg70
g233
sg63
(lp803
g56
(g77
g58
NtRp804
(dp805
g61
(dp806
g81
g82
ssg70
g800
sg63
(lp807
S'session_id_admin'
p808
asbag56
(g77
g58
NtRp809
(dp810
g61
(dp811
g88
g89
ssg70
g800
sg63
(lp812
S':'
asbag56
(g77
g58
NtRp813
(dp814
g61
(dp815
sg70
g800
sg63
(lp816
g56
(g57
g58
NtRp817
(dp818
g61
(dp819
g69
I4
ssg70
g813
sg63
(lp820
g56
(g65
g58
NtRp821
(dp822
g61
(dp823
g69
I3
ssg70
Nsg63
(lp824
g56
(g72
g58
NtRp825
(dp826
g61
(dp827
sg70
g821
sg63
(lp828
g56
(g77
g58
NtRp829
(dp830
g61
(dp831
g81
g82
ssg70
g825
sg63
(lp832
g270
asbag56
(g77
g58
NtRp833
(dp834
g61
(dp835
g88
g89
ssg70
g825
sg63
(lp836
S':'
asbag56
(g77
g58
NtRp837
(dp838
g61
(dp839
sg70
g825
sg63
(lp840
g56
(g57
g58
NtRp841
(dp842
g61
(dp843
g69
I3
ssg70
g837
sg63
(lp844
S''
asbasbasbag56
(g72
g58
NtRp845
(dp846
g61
(dp847
sg70
g821
sg63
(lp848
g56
(g77
g58
NtRp849
(dp850
g61
(dp851
g81
g82
ssg70
g845
sg63
(lp852
g291
asbag56
(g77
g58
NtRp853
(dp854
g61
(dp855
g88
g89
ssg70
g845
sg63
(lp856
S':'
asbag56
(g77
g58
NtRp857
(dp858
g61
(dp859
sg70
g845
sg63
(lp860
g56
(g57
g58
NtRp861
(dp862
g61
(dp863
g69
I3
ssg70
g857
sg63
(lp864
S''
asbasbasbag56
(g72
g58
NtRp865
(dp866
g61
(dp867
sg70
g821
sg63
(lp868
g56
(g77
g58
NtRp869
(dp870
g61
(dp871
g81
g82
ssg70
g865
sg63
(lp872
g312
asbag56
(g77
g58
NtRp873
(dp874
g61
(dp875
g88
g89
ssg70
g865
sg63
(lp876
S':'
asbag56
(g77
g58
NtRp877
(dp878
g61
(dp879
sg70
g865
sg63
(lp880
g56
(g57
g58
NtRp881
(dp882
g61
(dp883
g69
I3
ssg70
g877
sg63
(lp884
S''
asbasbasbag56
(g72
g58
NtRp885
(dp886
g61
(dp887
sg70
g821
sg63
(lp888
g56
(g77
g58
NtRp889
(dp890
g61
(dp891
g81
g82
ssg70
g885
sg63
(lp892
g333
asbag56
(g77
g58
NtRp893
(dp894
g61
(dp895
g88
g89
ssg70
g885
sg63
(lp896
S':'
asbag56
(g77
g58
NtRp897
(dp898
g61
(dp899
sg70
g885
sg63
(lp900
g56
(g57
g58
NtRp901
(dp902
g61
(dp903
g69
I3
ssg70
g897
sg63
(lp904
S''
asbasbasbag56
(g72
g58
NtRp905
(dp906
g61
(dp907
sg70
g821
sg63
(lp908
g56
(g77
g58
NtRp909
(dp910
g61
(dp911
g81
g82
ssg70
g905
sg63
(lp912
g354
asbag56
(g77
g58
NtRp913
(dp914
g61
(dp915
g88
g89
ssg70
g905
sg63
(lp916
S':'
asbag56
(g77
g58
NtRp917
(dp918
g61
(dp919
sg70
g905
sg63
(lp920
g56
(g57
g58
NtRp921
(dp922
g61
(dp923
g69
I3
ssg70
g917
sg63
(lp924
S''
asbasbasbag56
(g72
g58
NtRp925
(dp926
g61
(dp927
sg70
g821
sg63
(lp928
g56
(g77
g58
NtRp929
(dp930
g61
(dp931
g81
g82
ssg70
g925
sg63
(lp932
g375
asbag56
(g77
g58
NtRp933
(dp934
g61
(dp935
g88
g89
ssg70
g925
sg63
(lp936
S':'
asbag56
(g77
g58
NtRp937
(dp938
g61
(dp939
sg70
g925
sg63
(lp940
g56
(g57
g58
NtRp941
(dp942
g61
(dp943
g69
I3
ssg70
g937
sg63
(lp944
S''
asbasbasbag56
(g72
g58
NtRp945
(dp946
g61
(dp947
sg70
g821
sg63
(lp948
g56
(g77
g58
NtRp949
(dp950
g61
(dp951
g81
g82
ssg70
g945
sg63
(lp952
g396
asbag56
(g77
g58
NtRp953
(dp954
g61
(dp955
g88
g89
ssg70
g945
sg63
(lp956
S':'
asbag56
(g77
g58
NtRp957
(dp958
g61
(dp959
sg70
g945
sg63
(lp960
g56
(g57
g58
NtRp961
(dp962
g61
(dp963
g69
I3
ssg70
g957
sg63
(lp964
S''
asbasbasbag56
(g72
g58
NtRp965
(dp966
g61
(dp967
sg70
g821
sg63
(lp968
g56
(g77
g58
NtRp969
(dp970
g61
(dp971
g81
g82
ssg70
g965
sg63
(lp972
g417
asbag56
(g77
g58
NtRp973
(dp974
g61
(dp975
g88
g89
ssg70
g965
sg63
(lp976
S':'
asbag56
(g77
g58
NtRp977
(dp978
g61
(dp979
sg70
g965
sg63
(lp980
g56
(g57
g58
NtRp981
(dp982
g61
(dp983
g69
I3
ssg70
g977
sg63
(lp984
S''
asbasbasbasbasbasbasbag56
(g72
g58
NtRp985
(dp986
g61
(dp987
sg70
g233
sg63
(lp988
g56
(g77
g58
NtRp989
(dp990
g61
(dp991
g81
g82
ssg70
g985
sg63
(lp992
S'session_id_wp'
p993
asbag56
(g77
g58
NtRp994
(dp995
g61
(dp996
g88
g89
ssg70
g985
sg63
(lp997
S':'
asbag56
(g77
g58
NtRp998
(dp999
g61
(dp1000
sg70
g985
sg63
(lp1001
g56
(g57
g58
NtRp1002
(dp1003
g61
(dp1004
g69
I4
ssg70
g998
sg63
(lp1005
g56
(g65
g58
NtRp1006
(dp1007
g61
(dp1008
g69
I3
ssg70
Nsg63
(lp1009
g56
(g72
g58
NtRp1010
(dp1011
g61
(dp1012
sg70
g1006
sg63
(lp1013
g56
(g77
g58
NtRp1014
(dp1015
g61
(dp1016
g81
g82
ssg70
g1010
sg63
(lp1017
g270
asbag56
(g77
g58
NtRp1018
(dp1019
g61
(dp1020
g88
g89
ssg70
g1010
sg63
(lp1021
S':'
asbag56
(g77
g58
NtRp1022
(dp1023
g61
(dp1024
sg70
g1010
sg63
(lp1025
g56
(g57
g58
NtRp1026
(dp1027
g61
(dp1028
g69
I3
ssg70
g1022
sg63
(lp1029
S''
asbasbasbag56
(g72
g58
NtRp1030
(dp1031
g61
(dp1032
sg70
g1006
sg63
(lp1033
g56
(g77
g58
NtRp1034
(dp1035
g61
(dp1036
g81
g82
ssg70
g1030
sg63
(lp1037
g291
asbag56
(g77
g58
NtRp1038
(dp1039
g61
(dp1040
g88
g89
ssg70
g1030
sg63
(lp1041
S':'
asbag56
(g77
g58
NtRp1042
(dp1043
g61
(dp1044
sg70
g1030
sg63
(lp1045
g56
(g57
g58
NtRp1046
(dp1047
g61
(dp1048
g69
I3
ssg70
g1042
sg63
(lp1049
S''
asbasbasbag56
(g72
g58
NtRp1050
(dp1051
g61
(dp1052
sg70
g1006
sg63
(lp1053
g56
(g77
g58
NtRp1054
(dp1055
g61
(dp1056
g81
g82
ssg70
g1050
sg63
(lp1057
g312
asbag56
(g77
g58
NtRp1058
(dp1059
g61
(dp1060
g88
g89
ssg70
g1050
sg63
(lp1061
S':'
asbag56
(g77
g58
NtRp1062
(dp1063
g61
(dp1064
sg70
g1050
sg63
(lp1065
g56
(g57
g58
NtRp1066
(dp1067
g61
(dp1068
g69
I3
ssg70
g1062
sg63
(lp1069
S''
asbasbasbag56
(g72
g58
NtRp1070
(dp1071
g61
(dp1072
sg70
g1006
sg63
(lp1073
g56
(g77
g58
NtRp1074
(dp1075
g61
(dp1076
g81
g82
ssg70
g1070
sg63
(lp1077
g333
asbag56
(g77
g58
NtRp1078
(dp1079
g61
(dp1080
g88
g89
ssg70
g1070
sg63
(lp1081
S':'
asbag56
(g77
g58
NtRp1082
(dp1083
g61
(dp1084
sg70
g1070
sg63
(lp1085
g56
(g57
g58
NtRp1086
(dp1087
g61
(dp1088
g69
I3
ssg70
g1082
sg63
(lp1089
S''
asbasbasbag56
(g72
g58
NtRp1090
(dp1091
g61
(dp1092
sg70
g1006
sg63
(lp1093
g56
(g77
g58
NtRp1094
(dp1095
g61
(dp1096
g81
g82
ssg70
g1090
sg63
(lp1097
g354
asbag56
(g77
g58
NtRp1098
(dp1099
g61
(dp1100
g88
g89
ssg70
g1090
sg63
(lp1101
S':'
asbag56
(g77
g58
NtRp1102
(dp1103
g61
(dp1104
sg70
g1090
sg63
(lp1105
g56
(g57
g58
NtRp1106
(dp1107
g61
(dp1108
g69
I3
ssg70
g1102
sg63
(lp1109
S''
asbasbasbag56
(g72
g58
NtRp1110
(dp1111
g61
(dp1112
sg70
g1006
sg63
(lp1113
g56
(g77
g58
NtRp1114
(dp1115
g61
(dp1116
g81
g82
ssg70
g1110
sg63
(lp1117
g375
asbag56
(g77
g58
NtRp1118
(dp1119
g61
(dp1120
g88
g89
ssg70
g1110
sg63
(lp1121
S':'
asbag56
(g77
g58
NtRp1122
(dp1123
g61
(dp1124
sg70
g1110
sg63
(lp1125
g56
(g57
g58
NtRp1126
(dp1127
g61
(dp1128
g69
I3
ssg70
g1122
sg63
(lp1129
S''
asbasbasbag56
(g72
g58
NtRp1130
(dp1131
g61
(dp1132
sg70
g1006
sg63
(lp1133
g56
(g77
g58
NtRp1134
(dp1135
g61
(dp1136
g81
g82
ssg70
g1130
sg63
(lp1137
g396
asbag56
(g77
g58
NtRp1138
(dp1139
g61
(dp1140
g88
g89
ssg70
g1130
sg63
(lp1141
S':'
asbag56
(g77
g58
NtRp1142
(dp1143
g61
(dp1144
sg70
g1130
sg63
(lp1145
g56
(g57
g58
NtRp1146
(dp1147
g61
(dp1148
g69
I3
ssg70
g1142
sg63
(lp1149
S''
asbasbasbag56
(g72
g58
NtRp1150
(dp1151
g61
(dp1152
sg70
g1006
sg63
(lp1153
g56
(g77
g58
NtRp1154
(dp1155
g61
(dp1156
g81
g82
ssg70
g1150
sg63
(lp1157
g417
asbag56
(g77
g58
NtRp1158
(dp1159
g61
(dp1160
g88
g89
ssg70
g1150
sg63
(lp1161
S':'
asbag56
(g77
g58
NtRp1162
(dp1163
g61
(dp1164
sg70
g1150
sg63
(lp1165
g56
(g57
g58
NtRp1166
(dp1167
g61
(dp1168
g69
I3
ssg70
g1162
sg63
(lp1169
S''
asbasbasbasbasbasbasbasbasbasbasbag56
(g72
g58
NtRp1170
(dp1171
g61
(dp1172
sg70
g66
sg63
(lp1173
g56
(g77
g58
NtRp1174
(dp1175
g61
(dp1176
g81
g82
ssg70
g1170
sg63
(lp1177
S'env'
p1178
asbag56
(g77
g58
NtRp1179
(dp1180
g61
(dp1181
g88
g89
ssg70
g1170
sg63
(lp1182
S':'
asbag56
(g77
g58
NtRp1183
(dp1184
g61
(dp1185
sg70
g1170
sg63
(lp1186
g56
(g57
g58
NtRp1187
(dp1188
g61
(dp1189
g69
I5
ssg70
g1183
sg63
(lp1190
g56
(g65
g58
NtRp1191
(dp1192
g61
(dp1193
g69
I4
ssg70
Nsg63
(lp1194
g56
(g72
g58
NtRp1195
(dp1196
g61
(dp1197
sg70
g1191
sg63
(lp1198
g56
(g77
g58
NtRp1199
(dp1200
g61
(dp1201
g81
g82
ssg70
g1195
sg63
(lp1202
S'app_folders'
p1203
asbag56
(g77
g58
NtRp1204
(dp1205
g61
(dp1206
g88
g89
ssg70
g1195
sg63
(lp1207
S':'
asbag56
(g77
g58
NtRp1208
(dp1209
g61
(dp1210
sg70
g1195
sg63
(lp1211
g56
(g57
g58
NtRp1212
(dp1213
g61
(dp1214
g69
I4
ssg70
g1208
sg63
(lp1215
S"set(['/Users/schultzc/workspace/wherespuppet/web2py/applications/wp/', '/Users/schultzc/workspace/wherespuppet/web2py/applications/welcome/', '/Users/schultzc/workspace/wherespuppet/web2py/applications/admin/'])"
p1216
asbasbasbag56
(g72
g58
NtRp1217
(dp1218
g61
(dp1219
sg70
g1191
sg63
(lp1220
g56
(g77
g58
NtRp1221
(dp1222
g61
(dp1223
g81
g82
ssg70
g1217
sg63
(lp1224
S'applications_parent'
p1225
asbag56
(g77
g58
NtRp1226
(dp1227
g61
(dp1228
g88
g89
ssg70
g1217
sg63
(lp1229
S':'
asbag56
(g77
g58
NtRp1230
(dp1231
g61
(dp1232
sg70
g1217
sg63
(lp1233
g56
(g57
g58
NtRp1234
(dp1235
g61
(dp1236
g69
I4
ssg70
g1230
sg63
(lp1237
S'/Users/schultzc/workspace/wherespuppet/web2py'
p1238
asbasbasbag56
(g72
g58
NtRp1239
(dp1240
g61
(dp1241
sg70
g1191
sg63
(lp1242
g56
(g77
g58
NtRp1243
(dp1244
g61
(dp1245
g81
g82
ssg70
g1239
sg63
(lp1246
S'cmd_args'
p1247
asbag56
(g77
g58
NtRp1248
(dp1249
g61
(dp1250
g88
g89
ssg70
g1239
sg63
(lp1251
S':'
asbag56
(g77
g58
NtRp1252
(dp1253
g61
(dp1254
sg70
g1239
sg63
(lp1255
g56
(g57
g58
NtRp1256
(dp1257
g61
(dp1258
g69
I4
ssg70
g1252
sg63
(lp1259
g56
(g65
g58
NtRp1260
(dp1261
g61
(dp1262
g69
I3
ssg70
Nsg63
(lp1263
sbasbasbasbag56
(g72
g58
NtRp1264
(dp1265
g61
(dp1266
sg70
g1191
sg63
(lp1267
g56
(g77
g58
NtRp1268
(dp1269
g61
(dp1270
g81
g82
ssg70
g1264
sg63
(lp1271
S'cmd_options'
p1272
asbag56
(g77
g58
NtRp1273
(dp1274
g61
(dp1275
g88
g89
ssg70
g1264
sg63
(lp1276
S':'
asbag56
(g77
g58
NtRp1277
(dp1278
g61
(dp1279
sg70
g1264
sg63
(lp1280
g56
(g57
g58
NtRp1281
(dp1282
g61
(dp1283
g69
I4
ssg70
g1277
sg63
(lp1284
S"<Values at 0x101b19ab8: {'verbose': False, 'ip': '127.0.0.1', 'shutdown_timeout': 5, 'taskbar': False, 'port': 8000, 'maxthreads': None, 'softcron': False, 'server_name': 'Magnus-Specialis.local', 'bpython': False, 'nogui': False, 'nocron': False, 'extcron': False, 'debuglevel': 30, 'test': None, 'folder': '/Users/schultzc/workspace/wherespuppet/web2py', 'config': '', 'import_models': False, 'winservice': '', 'shell': None, 'run': '', 'log_filename': 'httpserver.log', 'args': [''], 'profiler_filename': None, 'ssl_private_key': '', 'password': 'hello', 'request_queue_size': 5, 'ssl_certificate': '', 'cronjob': False, 'plain': False, 'quiet': False, 'interfaces': None, 'minthreads': None, 'timeout': 10, 'numthreads': None, 'nobanner': False, 'pid_filename': 'httpserver.pid'}>"
p1285
asbasbasbag56
(g72
g58
NtRp1286
(dp1287
g61
(dp1288
sg70
g1191
sg63
(lp1289
g56
(g77
g58
NtRp1290
(dp1291
g61
(dp1292
g81
g82
ssg70
g1286
sg63
(lp1293
S'db_sessions'
p1294
asbag56
(g77
g58
NtRp1295
(dp1296
g61
(dp1297
g88
g89
ssg70
g1286
sg63
(lp1298
S':'
asbag56
(g77
g58
NtRp1299
(dp1300
g61
(dp1301
sg70
g1286
sg63
(lp1302
g56
(g57
g58
NtRp1303
(dp1304
g61
(dp1305
g69
I4
ssg70
g1299
sg63
(lp1306
S'set([])'
p1307
asbasbasbag56
(g72
g58
NtRp1308
(dp1309
g61
(dp1310
sg70
g1191
sg63
(lp1311
g56
(g77
g58
NtRp1312
(dp1313
g61
(dp1314
g81
g82
ssg70
g1308
sg63
(lp1315
S'debugging'
p1316
asbag56
(g77
g58
NtRp1317
(dp1318
g61
(dp1319
g88
g89
ssg70
g1308
sg63
(lp1320
S':'
asbag56
(g77
g58
NtRp1321
(dp1322
g61
(dp1323
sg70
g1308
sg63
(lp1324
g56
(g57
g58
NtRp1325
(dp1326
g61
(dp1327
g69
I4
ssg70
g1321
sg63
(lp1328
g99
asbasbasbag56
(g72
g58
NtRp1329
(dp1330
g61
(dp1331
sg70
g1191
sg63
(lp1332
g56
(g77
g58
NtRp1333
(dp1334
g61
(dp1335
g81
g82
ssg70
g1329
sg63
(lp1336
S'gluon_parent'
p1337
asbag56
(g77
g58
NtRp1338
(dp1339
g61
(dp1340
g88
g89
ssg70
g1329
sg63
(lp1341
S':'
asbag56
(g77
g58
NtRp1342
(dp1343
g61
(dp1344
sg70
g1329
sg63
(lp1345
g56
(g57
g58
NtRp1346
(dp1347
g61
(dp1348
g69
I4
ssg70
g1342
sg63
(lp1349
S'/Users/schultzc/workspace/wherespuppet/web2py'
p1350
asbasbasbag56
(g72
g58
NtRp1351
(dp1352
g61
(dp1353
sg70
g1191
sg63
(lp1354
g56
(g77
g58
NtRp1355
(dp1356
g61
(dp1357
g81
g82
ssg70
g1351
sg63
(lp1358
S'http_accept'
p1359
asbag56
(g77
g58
NtRp1360
(dp1361
g61
(dp1362
g88
g89
ssg70
g1351
sg63
(lp1363
S':'
asbag56
(g77
g58
NtRp1364
(dp1365
g61
(dp1366
sg70
g1351
sg63
(lp1367
g56
(g57
g58
NtRp1368
(dp1369
g61
(dp1370
g69
I4
ssg70
g1364
sg63
(lp1371
S'text/html,application/xhtml+xml,application/xml;q=0.9,*/*;q=0.8'
p1372
asbasbasbag56
(g72
g58
NtRp1373
(dp1374
g61
(dp1375
sg70
g1191
sg63
(lp1376
g56
(g77
g58
NtRp1377
(dp1378
g61
(dp1379
g81
g82
ssg70
g1373
sg63
(lp1380
S'http_accept_charset'
p1381
asbag56
(g77
g58
NtRp1382
(dp1383
g61
(dp1384
g88
g89
ssg70
g1373
sg63
(lp1385
S':'
asbag56
(g77
g58
NtRp1386
(dp1387
g61
(dp1388
sg70
g1373
sg63
(lp1389
g56
(g57
g58
NtRp1390
(dp1391
g61
(dp1392
g69
I4
ssg70
g1386
sg63
(lp1393
S'ISO-8859-1,utf-8;q=0.7,*;q=0.3'
p1394
asbasbasbag56
(g72
g58
NtRp1395
(dp1396
g61
(dp1397
sg70
g1191
sg63
(lp1398
g56
(g77
g58
NtRp1399
(dp1400
g61
(dp1401
g81
g82
ssg70
g1395
sg63
(lp1402
S'http_accept_encoding'
p1403
asbag56
(g77
g58
NtRp1404
(dp1405
g61
(dp1406
g88
g89
ssg70
g1395
sg63
(lp1407
S':'
asbag56
(g77
g58
NtRp1408
(dp1409
g61
(dp1410
sg70
g1395
sg63
(lp1411
g56
(g57
g58
NtRp1412
(dp1413
g61
(dp1414
g69
I4
ssg70
g1408
sg63
(lp1415
S'gzip,deflate,sdch'
p1416
asbasbasbag56
(g72
g58
NtRp1417
(dp1418
g61
(dp1419
sg70
g1191
sg63
(lp1420
g56
(g77
g58
NtRp1421
(dp1422
g61
(dp1423
g81
g82
ssg70
g1417
sg63
(lp1424
S'http_accept_language'
p1425
asbag56
(g77
g58
NtRp1426
(dp1427
g61
(dp1428
g88
g89
ssg70
g1417
sg63
(lp1429
S':'
asbag56
(g77
g58
NtRp1430
(dp1431
g61
(dp1432
sg70
g1417
sg63
(lp1433
g56
(g57
g58
NtRp1434
(dp1435
g61
(dp1436
g69
I4
ssg70
g1430
sg63
(lp1437
S'en-US,en;q=0.8'
p1438
asbasbasbag56
(g72
g58
NtRp1439
(dp1440
g61
(dp1441
sg70
g1191
sg63
(lp1442
g56
(g77
g58
NtRp1443
(dp1444
g61
(dp1445
g81
g82
ssg70
g1439
sg63
(lp1446
S'http_cache_control'
p1447
asbag56
(g77
g58
NtRp1448
(dp1449
g61
(dp1450
g88
g89
ssg70
g1439
sg63
(lp1451
S':'
asbag56
(g77
g58
NtRp1452
(dp1453
g61
(dp1454
sg70
g1439
sg63
(lp1455
g56
(g57
g58
NtRp1456
(dp1457
g61
(dp1458
g69
I4
ssg70
g1452
sg63
(lp1459
S'max-age=0'
p1460
asbasbasbag56
(g72
g58
NtRp1461
(dp1462
g61
(dp1463
sg70
g1191
sg63
(lp1464
g56
(g77
g58
NtRp1465
(dp1466
g61
(dp1467
g81
g82
ssg70
g1461
sg63
(lp1468
S'http_connection'
p1469
asbag56
(g77
g58
NtRp1470
(dp1471
g61
(dp1472
g88
g89
ssg70
g1461
sg63
(lp1473
S':'
asbag56
(g77
g58
NtRp1474
(dp1475
g61
(dp1476
sg70
g1461
sg63
(lp1477
g56
(g57
g58
NtRp1478
(dp1479
g61
(dp1480
g69
I4
ssg70
g1474
sg63
(lp1481
S'keep-alive'
p1482
asbasbasbag56
(g72
g58
NtRp1483
(dp1484
g61
(dp1485
sg70
g1191
sg63
(lp1486
g56
(g77
g58
NtRp1487
(dp1488
g61
(dp1489
g81
g82
ssg70
g1483
sg63
(lp1490
S'http_cookie'
p1491
asbag56
(g77
g58
NtRp1492
(dp1493
g61
(dp1494
g88
g89
ssg70
g1483
sg63
(lp1495
S':'
asbag56
(g77
g58
NtRp1496
(dp1497
g61
(dp1498
sg70
g1483
sg63
(lp1499
g56
(g57
g58
NtRp1500
(dp1501
g61
(dp1502
g69
I4
ssg70
g1496
sg63
(lp1503
S'posLat=33.414768; posLon=-111.909309; posAccuracy=24000; session_id_wp=127.0.0.1-292b6699-2c9a-4c11-9dfc-e30d08cf9f9a; session_id_admin=127.0.0.1-0b04e422-abc5-489b-8ca5-8d12fbed04fb'
p1504
asbasbasbag56
(g72
g58
NtRp1505
(dp1506
g61
(dp1507
sg70
g1191
sg63
(lp1508
g56
(g77
g58
NtRp1509
(dp1510
g61
(dp1511
g81
g82
ssg70
g1505
sg63
(lp1512
S'http_host'
p1513
asbag56
(g77
g58
NtRp1514
(dp1515
g61
(dp1516
g88
g89
ssg70
g1505
sg63
(lp1517
S':'
asbag56
(g77
g58
NtRp1518
(dp1519
g61
(dp1520
sg70
g1505
sg63
(lp1521
g56
(g57
g58
NtRp1522
(dp1523
g61
(dp1524
g69
I4
ssg70
g1518
sg63
(lp1525
S'localhost:8000'
p1526
asbasbasbag56
(g72
g58
NtRp1527
(dp1528
g61
(dp1529
sg70
g1191
sg63
(lp1530
g56
(g77
g58
NtRp1531
(dp1532
g61
(dp1533
g81
g82
ssg70
g1527
sg63
(lp1534
S'http_user_agent'
p1535
asbag56
(g77
g58
NtRp1536
(dp1537
g61
(dp1538
g88
g89
ssg70
g1527
sg63
(lp1539
S':'
asbag56
(g77
g58
NtRp1540
(dp1541
g61
(dp1542
sg70
g1527
sg63
(lp1543
g56
(g57
g58
NtRp1544
(dp1545
g61
(dp1546
g69
I4
ssg70
g1540
sg63
(lp1547
S'Mozilla/5.0 (Macintosh; Intel Mac OS X 10_6_8) AppleWebKit/534.30 (KHTML, like Gecko) Chrome/12.0.742.122 Safari/534.30'
p1548
asbasbasbag56
(g72
g58
NtRp1549
(dp1550
g61
(dp1551
sg70
g1191
sg63
(lp1552
g56
(g77
g58
NtRp1553
(dp1554
g61
(dp1555
g81
g82
ssg70
g1549
sg63
(lp1556
S'path_info'
p1557
asbag56
(g77
g58
NtRp1558
(dp1559
g61
(dp1560
g88
g89
ssg70
g1549
sg63
(lp1561
S':'
asbag56
(g77
g58
NtRp1562
(dp1563
g61
(dp1564
sg70
g1549
sg63
(lp1565
g56
(g57
g58
NtRp1566
(dp1567
g61
(dp1568
g69
I4
ssg70
g1562
sg63
(lp1569
S'/wp/default/submit'
p1570
asbasbasbag56
(g72
g58
NtRp1571
(dp1572
g61
(dp1573
sg70
g1191
sg63
(lp1574
g56
(g77
g58
NtRp1575
(dp1576
g61
(dp1577
g81
g82
ssg70
g1571
sg63
(lp1578
S'query_string'
p1579
asbag56
(g77
g58
NtRp1580
(dp1581
g61
(dp1582
g88
g89
ssg70
g1571
sg63
(lp1583
S':'
asbag56
(g77
g58
NtRp1584
(dp1585
g61
(dp1586
sg70
g1571
sg63
(lp1587
g56
(g57
g58
NtRp1588
(dp1589
g61
(dp1590
g69
I4
ssg70
g1584
sg63
(lp1591
S''
asbasbasbag56
(g72
g58
NtRp1592
(dp1593
g61
(dp1594
sg70
g1191
sg63
(lp1595
g56
(g77
g58
NtRp1596
(dp1597
g61
(dp1598
g81
g82
ssg70
g1592
sg63
(lp1599
S'remote_addr'
p1600
asbag56
(g77
g58
NtRp1601
(dp1602
g61
(dp1603
g88
g89
ssg70
g1592
sg63
(lp1604
S':'
asbag56
(g77
g58
NtRp1605
(dp1606
g61
(dp1607
sg70
g1592
sg63
(lp1608
g56
(g57
g58
NtRp1609
(dp1610
g61
(dp1611
g69
I4
ssg70
g1605
sg63
(lp1612
g189
asbasbasbag56
(g72
g58
NtRp1613
(dp1614
g61
(dp1615
sg70
g1191
sg63
(lp1616
g56
(g77
g58
NtRp1617
(dp1618
g61
(dp1619
g81
g82
ssg70
g1613
sg63
(lp1620
S'remote_port'
p1621
asbag56
(g77
g58
NtRp1622
(dp1623
g61
(dp1624
g88
g89
ssg70
g1613
sg63
(lp1625
S':'
asbag56
(g77
g58
NtRp1626
(dp1627
g61
(dp1628
sg70
g1613
sg63
(lp1629
g56
(g57
g58
NtRp1630
(dp1631
g61
(dp1632
g69
I4
ssg70
g1626
sg63
(lp1633
S'58555'
p1634
asbasbasbag56
(g72
g58
NtRp1635
(dp1636
g61
(dp1637
sg70
g1191
sg63
(lp1638
g56
(g77
g58
NtRp1639
(dp1640
g61
(dp1641
g81
g82
ssg70
g1635
sg63
(lp1642
S'request_method'
p1643
asbag56
(g77
g58
NtRp1644
(dp1645
g61
(dp1646
g88
g89
ssg70
g1635
sg63
(lp1647
S':'
asbag56
(g77
g58
NtRp1648
(dp1649
g61
(dp1650
sg70
g1635
sg63
(lp1651
g56
(g57
g58
NtRp1652
(dp1653
g61
(dp1654
g69
I4
ssg70
g1648
sg63
(lp1655
S'GET'
p1656
asbasbasbag56
(g72
g58
NtRp1657
(dp1658
g61
(dp1659
sg70
g1191
sg63
(lp1660
g56
(g77
g58
NtRp1661
(dp1662
g61
(dp1663
g81
g82
ssg70
g1657
sg63
(lp1664
S'script_name'
p1665
asbag56
(g77
g58
NtRp1666
(dp1667
g61
(dp1668
g88
g89
ssg70
g1657
sg63
(lp1669
S':'
asbag56
(g77
g58
NtRp1670
(dp1671
g61
(dp1672
sg70
g1657
sg63
(lp1673
g56
(g57
g58
NtRp1674
(dp1675
g61
(dp1676
g69
I4
ssg70
g1670
sg63
(lp1677
S''
asbasbasbag56
(g72
g58
NtRp1678
(dp1679
g61
(dp1680
sg70
g1191
sg63
(lp1681
g56
(g77
g58
NtRp1682
(dp1683
g61
(dp1684
g81
g82
ssg70
g1678
sg63
(lp1685
S'server_name'
p1686
asbag56
(g77
g58
NtRp1687
(dp1688
g61
(dp1689
g88
g89
ssg70
g1678
sg63
(lp1690
S':'
asbag56
(g77
g58
NtRp1691
(dp1692
g61
(dp1693
sg70
g1678
sg63
(lp1694
g56
(g57
g58
NtRp1695
(dp1696
g61
(dp1697
g69
I4
ssg70
g1691
sg63
(lp1698
S'Magnus-Specialis.local'
p1699
asbasbasbag56
(g72
g58
NtRp1700
(dp1701
g61
(dp1702
sg70
g1191
sg63
(lp1703
g56
(g77
g58
NtRp1704
(dp1705
g61
(dp1706
g81
g82
ssg70
g1700
sg63
(lp1707
S'server_port'
p1708
asbag56
(g77
g58
NtRp1709
(dp1710
g61
(dp1711
g88
g89
ssg70
g1700
sg63
(lp1712
S':'
asbag56
(g77
g58
NtRp1713
(dp1714
g61
(dp1715
sg70
g1700
sg63
(lp1716
g56
(g57
g58
NtRp1717
(dp1718
g61
(dp1719
g69
I4
ssg70
g1713
sg63
(lp1720
S'8000'
p1721
asbasbasbag56
(g72
g58
NtRp1722
(dp1723
g61
(dp1724
sg70
g1191
sg63
(lp1725
g56
(g77
g58
NtRp1726
(dp1727
g61
(dp1728
g81
g82
ssg70
g1722
sg63
(lp1729
S'server_protocol'
p1730
asbag56
(g77
g58
NtRp1731
(dp1732
g61
(dp1733
g88
g89
ssg70
g1722
sg63
(lp1734
S':'
asbag56
(g77
g58
NtRp1735
(dp1736
g61
(dp1737
sg70
g1722
sg63
(lp1738
g56
(g57
g58
NtRp1739
(dp1740
g61
(dp1741
g69
I4
ssg70
g1735
sg63
(lp1742
S'HTTP/1.1'
p1743
asbasbasbag56
(g72
g58
NtRp1744
(dp1745
g61
(dp1746
sg70
g1191
sg63
(lp1747
g56
(g77
g58
NtRp1748
(dp1749
g61
(dp1750
g81
g82
ssg70
g1744
sg63
(lp1751
S'server_software'
p1752
asbag56
(g77
g58
NtRp1753
(dp1754
g61
(dp1755
g88
g89
ssg70
g1744
sg63
(lp1756
S':'
asbag56
(g77
g58
NtRp1757
(dp1758
g61
(dp1759
sg70
g1744
sg63
(lp1760
g56
(g57
g58
NtRp1761
(dp1762
g61
(dp1763
g69
I4
ssg70
g1757
sg63
(lp1764
S'Rocket 1.2.2'
p1765
asbasbasbag56
(g72
g58
NtRp1766
(dp1767
g61
(dp1768
sg70
g1191
sg63
(lp1769
g56
(g77
g58
NtRp1770
(dp1771
g61
(dp1772
g81
g82
ssg70
g1766
sg63
(lp1773
S'web2py_crontype'
p1774
asbag56
(g77
g58
NtRp1775
(dp1776
g61
(dp1777
g88
g89
ssg70
g1766
sg63
(lp1778
S':'
asbag56
(g77
g58
NtRp1779
(dp1780
g61
(dp1781
sg70
g1766
sg63
(lp1782
g56
(g57
g58
NtRp1783
(dp1784
g61
(dp1785
g69
I4
ssg70
g1779
sg63
(lp1786
S'hard'
p1787
asbasbasbag56
(g72
g58
NtRp1788
(dp1789
g61
(dp1790
sg70
g1191
sg63
(lp1791
g56
(g77
g58
NtRp1792
(dp1793
g61
(dp1794
g81
g82
ssg70
g1788
sg63
(lp1795
S'web2py_path'
p1796
asbag56
(g77
g58
NtRp1797
(dp1798
g61
(dp1799
g88
g89
ssg70
g1788
sg63
(lp1800
S':'
asbag56
(g77
g58
NtRp1801
(dp1802
g61
(dp1803
sg70
g1788
sg63
(lp1804
g56
(g57
g58
NtRp1805
(dp1806
g61
(dp1807
g69
I4
ssg70
g1801
sg63
(lp1808
g1238
asbasbasbag56
(g72
g58
NtRp1809
(dp1810
g61
(dp1811
sg70
g1191
sg63
(lp1812
g56
(g77
g58
NtRp1813
(dp1814
g61
(dp1815
g81
g82
ssg70
g1809
sg63
(lp1816
S'web2py_version'
p1817
asbag56
(g77
g58
NtRp1818
(dp1819
g61
(dp1820
g88
g89
ssg70
g1809
sg63
(lp1821
S':'
asbag56
(g77
g58
NtRp1822
(dp1823
g61
(dp1824
sg70
g1809
sg63
(lp1825
g56
(g57
g58
NtRp1826
(dp1827
g61
(dp1828
g69
I4
ssg70
g1822
sg63
(lp1829
S'Version 1.97.1 (2011-06-26 19:25:44)\n'
p1830
asbasbasbag56
(g72
g58
NtRp1831
(dp1832
g61
(dp1833
sg70
g1191
sg63
(lp1834
g56
(g77
g58
NtRp1835
(dp1836
g61
(dp1837
g81
g82
ssg70
g1831
sg63
(lp1838
S'wsgi_errors'
p1839
asbag56
(g77
g58
NtRp1840
(dp1841
g61
(dp1842
g88
g89
ssg70
g1831
sg63
(lp1843
S':'
asbag56
(g77
g58
NtRp1844
(dp1845
g61
(dp1846
sg70
g1831
sg63
(lp1847
g56
(g57
g58
NtRp1848
(dp1849
g61
(dp1850
g69
I4
ssg70
g1844
sg63
(lp1851
S"<open file '<stderr>', mode 'w' at 0x100283270>"
p1852
asbasbasbag56
(g72
g58
NtRp1853
(dp1854
g61
(dp1855
sg70
g1191
sg63
(lp1856
g56
(g77
g58
NtRp1857
(dp1858
g61
(dp1859
g81
g82
ssg70
g1853
sg63
(lp1860
S'wsgi_file_wrapper'
p1861
asbag56
(g77
g58
NtRp1862
(dp1863
g61
(dp1864
g88
g89
ssg70
g1853
sg63
(lp1865
S':'
asbag56
(g77
g58
NtRp1866
(dp1867
g61
(dp1868
sg70
g1853
sg63
(lp1869
g56
(g57
g58
NtRp1870
(dp1871
g61
(dp1872
g69
I4
ssg70
g1866
sg63
(lp1873
S'<class gluon.rocket.FileWrapper at 0x101976ef0>'
p1874
asbasbasbag56
(g72
g58
NtRp1875
(dp1876
g61
(dp1877
sg70
g1191
sg63
(lp1878
g56
(g77
g58
NtRp1879
(dp1880
g61
(dp1881
g81
g82
ssg70
g1875
sg63
(lp1882
S'wsgi_input'
p1883
asbag56
(g77
g58
NtRp1884
(dp1885
g61
(dp1886
g88
g89
ssg70
g1875
sg63
(lp1887
S':'
asbag56
(g77
g58
NtRp1888
(dp1889
g61
(dp1890
sg70
g1875
sg63
(lp1891
g56
(g57
g58
NtRp1892
(dp1893
g61
(dp1894
g69
I4
ssg70
g1888
sg63
(lp1895
S'<socket._fileobject object at 0x10750c2d0>'
p1896
asbasbasbag56
(g72
g58
NtRp1897
(dp1898
g61
(dp1899
sg70
g1191
sg63
(lp1900
g56
(g77
g58
NtRp1901
(dp1902
g61
(dp1903
g81
g82
ssg70
g1897
sg63
(lp1904
S'wsgi_multiprocess'
p1905
asbag56
(g77
g58
NtRp1906
(dp1907
g61
(dp1908
g88
g89
ssg70
g1897
sg63
(lp1909
S':'
asbag56
(g77
g58
NtRp1910
(dp1911
g61
(dp1912
sg70
g1897
sg63
(lp1913
g56
(g57
g58
NtRp1914
(dp1915
g61
(dp1916
g69
I4
ssg70
g1910
sg63
(lp1917
g99
asbasbasbag56
(g72
g58
NtRp1918
(dp1919
g61
(dp1920
sg70
g1191
sg63
(lp1921
g56
(g77
g58
NtRp1922
(dp1923
g61
(dp1924
g81
g82
ssg70
g1918
sg63
(lp1925
S'wsgi_multithread'
p1926
asbag56
(g77
g58
NtRp1927
(dp1928
g61
(dp1929
g88
g89
ssg70
g1918
sg63
(lp1930
S':'
asbag56
(g77
g58
NtRp1931
(dp1932
g61
(dp1933
sg70
g1918
sg63
(lp1934
g56
(g57
g58
NtRp1935
(dp1936
g61
(dp1937
g69
I4
ssg70
g1931
sg63
(lp1938
S'True'
p1939
asbasbasbag56
(g72
g58
NtRp1940
(dp1941
g61
(dp1942
sg70
g1191
sg63
(lp1943
g56
(g77
g58
NtRp1944
(dp1945
g61
(dp1946
g81
g82
ssg70
g1940
sg63
(lp1947
S'wsgi_run_once'
p1948
asbag56
(g77
g58
NtRp1949
(dp1950
g61
(dp1951
g88
g89
ssg70
g1940
sg63
(lp1952
S':'
asbag56
(g77
g58
NtRp1953
(dp1954
g61
(dp1955
sg70
g1940
sg63
(lp1956
g56
(g57
g58
NtRp1957
(dp1958
g61
(dp1959
g69
I4
ssg70
g1953
sg63
(lp1960
g99
asbasbasbag56
(g72
g58
NtRp1961
(dp1962
g61
(dp1963
sg70
g1191
sg63
(lp1964
g56
(g77
g58
NtRp1965
(dp1966
g61
(dp1967
g81
g82
ssg70
g1961
sg63
(lp1968
S'wsgi_url_scheme'
p1969
asbag56
(g77
g58
NtRp1970
(dp1971
g61
(dp1972
g88
g89
ssg70
g1961
sg63
(lp1973
S':'
asbag56
(g77
g58
NtRp1974
(dp1975
g61
(dp1976
sg70
g1961
sg63
(lp1977
g56
(g57
g58
NtRp1978
(dp1979
g61
(dp1980
g69
I4
ssg70
g1974
sg63
(lp1981
S'http'
p1982
asbasbasbag56
(g72
g58
NtRp1983
(dp1984
g61
(dp1985
sg70
g1191
sg63
(lp1986
g56
(g77
g58
NtRp1987
(dp1988
g61
(dp1989
g81
g82
ssg70
g1983
sg63
(lp1990
S'wsgi_version'
p1991
asbag56
(g77
g58
NtRp1992
(dp1993
g61
(dp1994
g88
g89
ssg70
g1983
sg63
(lp1995
S':'
asbag56
(g77
g58
NtRp1996
(dp1997
g61
(dp1998
sg70
g1983
sg63
(lp1999
g56
(g57
g58
NtRp2000
(dp2001
g61
(dp2002
g69
I4
ssg70
g1996
sg63
(lp2003
g56
(g65
g58
NtRp2004
(dp2005
g61
(dp2006
g69
I3
ssg70
Nsg63
(lp2007
g56
(g72
g58
NtRp2008
(dp2009
g61
(dp2010
sg70
g2004
sg63
(lp2011
g56
(g77
g58
NtRp2012
(dp2013
g61
(dp2014
sg70
g2008
sg63
(lp2015
g56
(g57
g58
NtRp2016
(dp2017
g61
(dp2018
g69
I3
ssg70
g2012
sg63
(lp2019
S'1'
asbasbasbag56
(g72
g58
NtRp2020
(dp2021
g61
(dp2022
sg70
g2004
sg63
(lp2023
g56
(g77
g58
NtRp2024
(dp2025
g61
(dp2026
sg70
g2020
sg63
(lp2027
g56
(g57
g58
NtRp2028
(dp2029
g61
(dp2030
g69
I3
ssg70
g2024
sg63
(lp2031
S'0'
asbasbasbasbasbasbasbasbasbasbasbag56
(g72
g58
NtRp2032
(dp2033
g61
(dp2034
sg70
g66
sg63
(lp2035
g56
(g77
g58
NtRp2036
(dp2037
g61
(dp2038
g81
g82
ssg70
g2032
sg63
(lp2039
S'extension'
p2040
asbag56
(g77
g58
NtRp2041
(dp2042
g61
(dp2043
g88
g89
ssg70
g2032
sg63
(lp2044
S':'
asbag56
(g77
g58
NtRp2045
(dp2046
g61
(dp2047
sg70
g2032
sg63
(lp2048
g56
(g57
g58
NtRp2049
(dp2050
g61
(dp2051
g69
I5
ssg70
g2045
sg63
(lp2052
S'html'
p2053
asbasbasbag56
(g72
g58
NtRp2054
(dp2055
g61
(dp2056
sg70
g66
sg63
(lp2057
g56
(g77
g58
NtRp2058
(dp2059
g61
(dp2060
g81
g82
ssg70
g2054
sg63
(lp2061
S'folder'
p2062
asbag56
(g77
g58
NtRp2063
(dp2064
g61
(dp2065
g88
g89
ssg70
g2054
sg63
(lp2066
S':'
asbag56
(g77
g58
NtRp2067
(dp2068
g61
(dp2069
sg70
g2054
sg63
(lp2070
g56
(g57
g58
NtRp2071
(dp2072
g61
(dp2073
g69
I5
ssg70
g2067
sg63
(lp2074
S'/Users/schultzc/workspace/wherespuppet/web2py/applications/wp/'
p2075
asbasbasbag56
(g72
g58
NtRp2076
(dp2077
g61
(dp2078
sg70
g66
sg63
(lp2079
g56
(g77
g58
NtRp2080
(dp2081
g61
(dp2082
g81
g82
ssg70
g2076
sg63
(lp2083
S'function'
p2084
asbag56
(g77
g58
NtRp2085
(dp2086
g61
(dp2087
g88
g89
ssg70
g2076
sg63
(lp2088
S':'
asbag56
(g77
g58
NtRp2089
(dp2090
g61
(dp2091
sg70
g2076
sg63
(lp2092
g56
(g57
g58
NtRp2093
(dp2094
g61
(dp2095
g69
I5
ssg70
g2089
sg63
(lp2096
S'submit'
p2097
asbasbasbag56
(g72
g58
NtRp2098
(dp2099
g61
(dp2100
sg70
g66
sg63
(lp2101
g56
(g77
g58
NtRp2102
(dp2103
g61
(dp2104
g81
g82
ssg70
g2098
sg63
(lp2105
S'get_vars'
p2106
asbag56
(g77
g58
NtRp2107
(dp2108
g61
(dp2109
g88
g89
ssg70
g2098
sg63
(lp2110
S':'
asbag56
(g77
g58
NtRp2111
(dp2112
g61
(dp2113
sg70
g2098
sg63
(lp2114
g56
(g57
g58
NtRp2115
(dp2116
g61
(dp2117
g69
I5
ssg70
g2111
sg63
(lp2118
g56
(g65
g58
NtRp2119
(dp2120
g61
(dp2121
g69
I4
ssg70
Nsg63
(lp2122
sbasbasbasbag56
(g72
g58
NtRp2123
(dp2124
g61
(dp2125
sg70
g66
sg63
(lp2126
g56
(g77
g58
NtRp2127
(dp2128
g61
(dp2129
g81
g82
ssg70
g2123
sg63
(lp2130
S'is_https'
p2131
asbag56
(g77
g58
NtRp2132
(dp2133
g61
(dp2134
g88
g89
ssg70
g2123
sg63
(lp2135
S':'
asbag56
(g77
g58
NtRp2136
(dp2137
g61
(dp2138
sg70
g2123
sg63
(lp2139
g56
(g57
g58
NtRp2140
(dp2141
g61
(dp2142
g69
I5
ssg70
g2136
sg63
(lp2143
g99
asbasbasbag56
(g72
g58
NtRp2144
(dp2145
g61
(dp2146
sg70
g66
sg63
(lp2147
g56
(g77
g58
NtRp2148
(dp2149
g61
(dp2150
g81
g82
ssg70
g2144
sg63
(lp2151
S'is_local'
p2152
asbag56
(g77
g58
NtRp2153
(dp2154
g61
(dp2155
g88
g89
ssg70
g2144
sg63
(lp2156
S':'
asbag56
(g77
g58
NtRp2157
(dp2158
g61
(dp2159
sg70
g2144
sg63
(lp2160
g56
(g57
g58
NtRp2161
(dp2162
g61
(dp2163
g69
I5
ssg70
g2157
sg63
(lp2164
g1939
asbasbasbag56
(g72
g58
NtRp2165
(dp2166
g61
(dp2167
sg70
g66
sg63
(lp2168
g56
(g77
g58
NtRp2169
(dp2170
g61
(dp2171
g81
g82
ssg70
g2165
sg63
(lp2172
S'is_restful'
p2173
asbag56
(g77
g58
NtRp2174
(dp2175
g61
(dp2176
g88
g89
ssg70
g2165
sg63
(lp2177
S':'
asbag56
(g77
g58
NtRp2178
(dp2179
g61
(dp2180
sg70
g2165
sg63
(lp2181
g56
(g57
g58
NtRp2182
(dp2183
g61
(dp2184
g69
I5
ssg70
g2178
sg63
(lp2185
g99
asbasbasbag56
(g72
g58
NtRp2186
(dp2187
g61
(dp2188
sg70
g66
sg63
(lp2189
g56
(g77
g58
NtRp2190
(dp2191
g61
(dp2192
g81
g82
ssg70
g2186
sg63
(lp2193
S'now'
p2194
asbag56
(g77
g58
NtRp2195
(dp2196
g61
(dp2197
g88
g89
ssg70
g2186
sg63
(lp2198
S':'
asbag56
(g77
g58
NtRp2199
(dp2200
g61
(dp2201
sg70
g2186
sg63
(lp2202
g56
(g57
g58
NtRp2203
(dp2204
g61
(dp2205
g69
I5
ssg70
g2199
sg63
(lp2206
S'datetime.datetime(2011, 7, 21, 3, 57, 51, 492264)'
p2207
asbasbasbag56
(g72
g58
NtRp2208
(dp2209
g61
(dp2210
sg70
g66
sg63
(lp2211
g56
(g77
g58
NtRp2212
(dp2213
g61
(dp2214
g81
g82
ssg70
g2208
sg63
(lp2215
S'post_vars'
p2216
asbag56
(g77
g58
NtRp2217
(dp2218
g61
(dp2219
g88
g89
ssg70
g2208
sg63
(lp2220
S':'
asbag56
(g77
g58
NtRp2221
(dp2222
g61
(dp2223
sg70
g2208
sg63
(lp2224
g56
(g57
g58
NtRp2225
(dp2226
g61
(dp2227
g69
I5
ssg70
g2221
sg63
(lp2228
g56
(g65
g58
NtRp2229
(dp2230
g61
(dp2231
g69
I4
ssg70
Nsg63
(lp2232
sbasbasbasbag56
(g72
g58
NtRp2233
(dp2234
g61
(dp2235
sg70
g66
sg63
(lp2236
g56
(g77
g58
NtRp2237
(dp2238
g61
(dp2239
g81
g82
ssg70
g2233
sg63
(lp2240
S'url'
p2241
asbag56
(g77
g58
NtRp2242
(dp2243
g61
(dp2244
g88
g89
ssg70
g2233
sg63
(lp2245
S':'
asbag56
(g77
g58
NtRp2246
(dp2247
g61
(dp2248
sg70
g2233
sg63
(lp2249
g56
(g57
g58
NtRp2250
(dp2251
g61
(dp2252
g69
I5
ssg70
g2246
sg63
(lp2253
S'/wp/default/submit'
p2254
asbasbasbag56
(g72
g58
NtRp2255
(dp2256
g61
(dp2257
sg70
g66
sg63
(lp2258
g56
(g77
g58
NtRp2259
(dp2260
g61
(dp2261
g81
g82
ssg70
g2255
sg63
(lp2262
S'uuid'
p2263
asbag56
(g77
g58
NtRp2264
(dp2265
g61
(dp2266
g88
g89
ssg70
g2255
sg63
(lp2267
S':'
asbag56
(g77
g58
NtRp2268
(dp2269
g61
(dp2270
sg70
g2255
sg63
(lp2271
g56
(g57
g58
NtRp2272
(dp2273
g61
(dp2274
g69
I5
ssg70
g2268
sg63
(lp2275
S'wp/127.0.0.1.2011-07-21.03-57-51.c3ea32ca-0cb3-4b7f-b2ad-a924cd9daa1d'
p2276
asbasbasbag56
(g72
g58
NtRp2277
(dp2278
g61
(dp2279
sg70
g66
sg63
(lp2280
g56
(g77
g58
NtRp2281
(dp2282
g61
(dp2283
g81
g82
ssg70
g2277
sg63
(lp2284
S'vars'
p2285
asbag56
(g77
g58
NtRp2286
(dp2287
g61
(dp2288
g88
g89
ssg70
g2277
sg63
(lp2289
S':'
asbag56
(g77
g58
NtRp2290
(dp2291
g61
(dp2292
sg70
g2277
sg63
(lp2293
g56
(g57
g58
NtRp2294
(dp2295
g61
(dp2296
g69
I5
ssg70
g2290
sg63
(lp2297
g56
(g65
g58
NtRp2298
(dp2299
g61
(dp2300
g69
I4
ssg70
Nsg63
(lp2301
sbasbasbasbag56
(g72
g58
NtRp2302
(dp2303
g61
(dp2304
sg70
g66
sg63
(lp2305
g56
(g77
g58
NtRp2306
(dp2307
g61
(dp2308
g81
g82
ssg70
g2302
sg63
(lp2309
S'wsgi'
p2310
asbag56
(g77
g58
NtRp2311
(dp2312
g61
(dp2313
g88
g89
ssg70
g2302
sg63
(lp2314
S':'
asbag56
(g77
g58
NtRp2315
(dp2316
g61
(dp2317
sg70
g2302
sg63
(lp2318
g56
(g57
g58
NtRp2319
(dp2320
g61
(dp2321
g69
I5
ssg70
g2315
sg63
(lp2322
g56
(g65
g58
NtRp2323
(dp2324
g61
(dp2325
g69
I4
ssg70
Nsg63
(lp2326
g56
(g72
g58
NtRp2327
(dp2328
g61
(dp2329
sg70
g2323
sg63
(lp2330
g56
(g77
g58
NtRp2331
(dp2332
g61
(dp2333
g81
g82
ssg70
g2327
sg63
(lp2334
S'environ'
p2335
asbag56
(g77
g58
NtRp2336
(dp2337
g61
(dp2338
g88
g89
ssg70
g2327
sg63
(lp2339
S':'
asbag56
(g77
g58
NtRp2340
(dp2341
g61
(dp2342
sg70
g2327
sg63
(lp2343
g56
(g57
g58
NtRp2344
(dp2345
g61
(dp2346
g69
I4
ssg70
g2340
sg63
(lp2347
g56
(g65
g58
NtRp2348
(dp2349
g61
(dp2350
g69
I3
ssg70
Nsg63
(lp2351
g56
(g72
g58
NtRp2352
(dp2353
g61
(dp2354
sg70
g2348
sg63
(lp2355
g56
(g77
g58
NtRp2356
(dp2357
g61
(dp2358
g81
g82
ssg70
g2352
sg63
(lp2359
S'HTTP_ACCEPT'
p2360
asbag56
(g77
g58
NtRp2361
(dp2362
g61
(dp2363
g88
g89
ssg70
g2352
sg63
(lp2364
S':'
asbag56
(g77
g58
NtRp2365
(dp2366
g61
(dp2367
sg70
g2352
sg63
(lp2368
g56
(g57
g58
NtRp2369
(dp2370
g61
(dp2371
g69
I3
ssg70
g2365
sg63
(lp2372
g1372
asbasbasbag56
(g72
g58
NtRp2373
(dp2374
g61
(dp2375
sg70
g2348
sg63
(lp2376
g56
(g77
g58
NtRp2377
(dp2378
g61
(dp2379
g81
g82
ssg70
g2373
sg63
(lp2380
S'HTTP_ACCEPT_CHARSET'
p2381
asbag56
(g77
g58
NtRp2382
(dp2383
g61
(dp2384
g88
g89
ssg70
g2373
sg63
(lp2385
S':'
asbag56
(g77
g58
NtRp2386
(dp2387
g61
(dp2388
sg70
g2373
sg63
(lp2389
g56
(g57
g58
NtRp2390
(dp2391
g61
(dp2392
g69
I3
ssg70
g2386
sg63
(lp2393
g1394
asbasbasbag56
(g72
g58
NtRp2394
(dp2395
g61
(dp2396
sg70
g2348
sg63
(lp2397
g56
(g77
g58
NtRp2398
(dp2399
g61
(dp2400
g81
g82
ssg70
g2394
sg63
(lp2401
S'HTTP_ACCEPT_ENCODING'
p2402
asbag56
(g77
g58
NtRp2403
(dp2404
g61
(dp2405
g88
g89
ssg70
g2394
sg63
(lp2406
S':'
asbag56
(g77
g58
NtRp2407
(dp2408
g61
(dp2409
sg70
g2394
sg63
(lp2410
g56
(g57
g58
NtRp2411
(dp2412
g61
(dp2413
g69
I3
ssg70
g2407
sg63
(lp2414
g1416
asbasbasbag56
(g72
g58
NtRp2415
(dp2416
g61
(dp2417
sg70
g2348
sg63
(lp2418
g56
(g77
g58
NtRp2419
(dp2420
g61
(dp2421
g81
g82
ssg70
g2415
sg63
(lp2422
S'HTTP_ACCEPT_LANGUAGE'
p2423
asbag56
(g77
g58
NtRp2424
(dp2425
g61
(dp2426
g88
g89
ssg70
g2415
sg63
(lp2427
S':'
asbag56
(g77
g58
NtRp2428
(dp2429
g61
(dp2430
sg70
g2415
sg63
(lp2431
g56
(g57
g58
NtRp2432
(dp2433
g61
(dp2434
g69
I3
ssg70
g2428
sg63
(lp2435
g1438
asbasbasbag56
(g72
g58
NtRp2436
(dp2437
g61
(dp2438
sg70
g2348
sg63
(lp2439
g56
(g77
g58
NtRp2440
(dp2441
g61
(dp2442
g81
g82
ssg70
g2436
sg63
(lp2443
S'HTTP_CACHE_CONTROL'
p2444
asbag56
(g77
g58
NtRp2445
(dp2446
g61
(dp2447
g88
g89
ssg70
g2436
sg63
(lp2448
S':'
asbag56
(g77
g58
NtRp2449
(dp2450
g61
(dp2451
sg70
g2436
sg63
(lp2452
g56
(g57
g58
NtRp2453
(dp2454
g61
(dp2455
g69
I3
ssg70
g2449
sg63
(lp2456
g1460
asbasbasbag56
(g72
g58
NtRp2457
(dp2458
g61
(dp2459
sg70
g2348
sg63
(lp2460
g56
(g77
g58
NtRp2461
(dp2462
g61
(dp2463
g81
g82
ssg70
g2457
sg63
(lp2464
S'HTTP_CONNECTION'
p2465
asbag56
(g77
g58
NtRp2466
(dp2467
g61
(dp2468
g88
g89
ssg70
g2457
sg63
(lp2469
S':'
asbag56
(g77
g58
NtRp2470
(dp2471
g61
(dp2472
sg70
g2457
sg63
(lp2473
g56
(g57
g58
NtRp2474
(dp2475
g61
(dp2476
g69
I3
ssg70
g2470
sg63
(lp2477
g1482
asbasbasbag56
(g72
g58
NtRp2478
(dp2479
g61
(dp2480
sg70
g2348
sg63
(lp2481
g56
(g77
g58
NtRp2482
(dp2483
g61
(dp2484
g81
g82
ssg70
g2478
sg63
(lp2485
S'HTTP_COOKIE'
p2486
asbag56
(g77
g58
NtRp2487
(dp2488
g61
(dp2489
g88
g89
ssg70
g2478
sg63
(lp2490
S':'
asbag56
(g77
g58
NtRp2491
(dp2492
g61
(dp2493
sg70
g2478
sg63
(lp2494
g56
(g57
g58
NtRp2495
(dp2496
g61
(dp2497
g69
I3
ssg70
g2491
sg63
(lp2498
g1504
asbasbasbag56
(g72
g58
NtRp2499
(dp2500
g61
(dp2501
sg70
g2348
sg63
(lp2502
g56
(g77
g58
NtRp2503
(dp2504
g61
(dp2505
g81
g82
ssg70
g2499
sg63
(lp2506
S'HTTP_HOST'
p2507
asbag56
(g77
g58
NtRp2508
(dp2509
g61
(dp2510
g88
g89
ssg70
g2499
sg63
(lp2511
S':'
asbag56
(g77
g58
NtRp2512
(dp2513
g61
(dp2514
sg70
g2499
sg63
(lp2515
g56
(g57
g58
NtRp2516
(dp2517
g61
(dp2518
g69
I3
ssg70
g2512
sg63
(lp2519
g1526
asbasbasbag56
(g72
g58
NtRp2520
(dp2521
g61
(dp2522
sg70
g2348
sg63
(lp2523
g56
(g77
g58
NtRp2524
(dp2525
g61
(dp2526
g81
g82
ssg70
g2520
sg63
(lp2527
S'HTTP_USER_AGENT'
p2528
asbag56
(g77
g58
NtRp2529
(dp2530
g61
(dp2531
g88
g89
ssg70
g2520
sg63
(lp2532
S':'
asbag56
(g77
g58
NtRp2533
(dp2534
g61
(dp2535
sg70
g2520
sg63
(lp2536
g56
(g57
g58
NtRp2537
(dp2538
g61
(dp2539
g69
I3
ssg70
g2533
sg63
(lp2540
g1548
asbasbasbag56
(g72
g58
NtRp2541
(dp2542
g61
(dp2543
sg70
g2348
sg63
(lp2544
g56
(g77
g58
NtRp2545
(dp2546
g61
(dp2547
g81
g82
ssg70
g2541
sg63
(lp2548
S'PATH_INFO'
p2549
asbag56
(g77
g58
NtRp2550
(dp2551
g61
(dp2552
g88
g89
ssg70
g2541
sg63
(lp2553
S':'
asbag56
(g77
g58
NtRp2554
(dp2555
g61
(dp2556
sg70
g2541
sg63
(lp2557
g56
(g57
g58
NtRp2558
(dp2559
g61
(dp2560
g69
I3
ssg70
g2554
sg63
(lp2561
g1570
asbasbasbag56
(g72
g58
NtRp2562
(dp2563
g61
(dp2564
sg70
g2348
sg63
(lp2565
g56
(g77
g58
NtRp2566
(dp2567
g61
(dp2568
g81
g82
ssg70
g2562
sg63
(lp2569
S'QUERY_STRING'
p2570
asbag56
(g77
g58
NtRp2571
(dp2572
g61
(dp2573
g88
g89
ssg70
g2562
sg63
(lp2574
S':'
asbag56
(g77
g58
NtRp2575
(dp2576
g61
(dp2577
sg70
g2562
sg63
(lp2578
g56
(g57
g58
NtRp2579
(dp2580
g61
(dp2581
g69
I3
ssg70
g2575
sg63
(lp2582
S''
asbasbasbag56
(g72
g58
NtRp2583
(dp2584
g61
(dp2585
sg70
g2348
sg63
(lp2586
g56
(g77
g58
NtRp2587
(dp2588
g61
(dp2589
g81
g82
ssg70
g2583
sg63
(lp2590
S'REMOTE_ADDR'
p2591
asbag56
(g77
g58
NtRp2592
(dp2593
g61
(dp2594
g88
g89
ssg70
g2583
sg63
(lp2595
S':'
asbag56
(g77
g58
NtRp2596
(dp2597
g61
(dp2598
sg70
g2583
sg63
(lp2599
g56
(g57
g58
NtRp2600
(dp2601
g61
(dp2602
g69
I3
ssg70
g2596
sg63
(lp2603
g189
asbasbasbag56
(g72
g58
NtRp2604
(dp2605
g61
(dp2606
sg70
g2348
sg63
(lp2607
g56
(g77
g58
NtRp2608
(dp2609
g61
(dp2610
g81
g82
ssg70
g2604
sg63
(lp2611
S'REMOTE_PORT'
p2612
asbag56
(g77
g58
NtRp2613
(dp2614
g61
(dp2615
g88
g89
ssg70
g2604
sg63
(lp2616
S':'
asbag56
(g77
g58
NtRp2617
(dp2618
g61
(dp2619
sg70
g2604
sg63
(lp2620
g56
(g57
g58
NtRp2621
(dp2622
g61
(dp2623
g69
I3
ssg70
g2617
sg63
(lp2624
g1634
asbasbasbag56
(g72
g58
NtRp2625
(dp2626
g61
(dp2627
sg70
g2348
sg63
(lp2628
g56
(g77
g58
NtRp2629
(dp2630
g61
(dp2631
g81
g82
ssg70
g2625
sg63
(lp2632
S'REQUEST_METHOD'
p2633
asbag56
(g77
g58
NtRp2634
(dp2635
g61
(dp2636
g88
g89
ssg70
g2625
sg63
(lp2637
S':'
asbag56
(g77
g58
NtRp2638
(dp2639
g61
(dp2640
sg70
g2625
sg63
(lp2641
g56
(g57
g58
NtRp2642
(dp2643
g61
(dp2644
g69
I3
ssg70
g2638
sg63
(lp2645
g1656
asbasbasbag56
(g72
g58
NtRp2646
(dp2647
g61
(dp2648
sg70
g2348
sg63
(lp2649
g56
(g77
g58
NtRp2650
(dp2651
g61
(dp2652
g81
g82
ssg70
g2646
sg63
(lp2653
S'SCRIPT_NAME'
p2654
asbag56
(g77
g58
NtRp2655
(dp2656
g61
(dp2657
g88
g89
ssg70
g2646
sg63
(lp2658
S':'
asbag56
(g77
g58
NtRp2659
(dp2660
g61
(dp2661
sg70
g2646
sg63
(lp2662
g56
(g57
g58
NtRp2663
(dp2664
g61
(dp2665
g69
I3
ssg70
g2659
sg63
(lp2666
S''
asbasbasbag56
(g72
g58
NtRp2667
(dp2668
g61
(dp2669
sg70
g2348
sg63
(lp2670
g56
(g77
g58
NtRp2671
(dp2672
g61
(dp2673
g81
g82
ssg70
g2667
sg63
(lp2674
S'SERVER_NAME'
p2675
asbag56
(g77
g58
NtRp2676
(dp2677
g61
(dp2678
g88
g89
ssg70
g2667
sg63
(lp2679
S':'
asbag56
(g77
g58
NtRp2680
(dp2681
g61
(dp2682
sg70
g2667
sg63
(lp2683
g56
(g57
g58
NtRp2684
(dp2685
g61
(dp2686
g69
I3
ssg70
g2680
sg63
(lp2687
g1699
asbasbasbag56
(g72
g58
NtRp2688
(dp2689
g61
(dp2690
sg70
g2348
sg63
(lp2691
g56
(g77
g58
NtRp2692
(dp2693
g61
(dp2694
g81
g82
ssg70
g2688
sg63
(lp2695
S'SERVER_PORT'
p2696
asbag56
(g77
g58
NtRp2697
(dp2698
g61
(dp2699
g88
g89
ssg70
g2688
sg63
(lp2700
S':'
asbag56
(g77
g58
NtRp2701
(dp2702
g61
(dp2703
sg70
g2688
sg63
(lp2704
g56
(g57
g58
NtRp2705
(dp2706
g61
(dp2707
g69
I3
ssg70
g2701
sg63
(lp2708
g1721
asbasbasbag56
(g72
g58
NtRp2709
(dp2710
g61
(dp2711
sg70
g2348
sg63
(lp2712
g56
(g77
g58
NtRp2713
(dp2714
g61
(dp2715
g81
g82
ssg70
g2709
sg63
(lp2716
S'SERVER_PROTOCOL'
p2717
asbag56
(g77
g58
NtRp2718
(dp2719
g61
(dp2720
g88
g89
ssg70
g2709
sg63
(lp2721
S':'
asbag56
(g77
g58
NtRp2722
(dp2723
g61
(dp2724
sg70
g2709
sg63
(lp2725
g56
(g57
g58
NtRp2726
(dp2727
g61
(dp2728
g69
I3
ssg70
g2722
sg63
(lp2729
g1743
asbasbasbag56
(g72
g58
NtRp2730
(dp2731
g61
(dp2732
sg70
g2348
sg63
(lp2733
g56
(g77
g58
NtRp2734
(dp2735
g61
(dp2736
g81
g82
ssg70
g2730
sg63
(lp2737
S'SERVER_SOFTWARE'
p2738
asbag56
(g77
g58
NtRp2739
(dp2740
g61
(dp2741
g88
g89
ssg70
g2730
sg63
(lp2742
S':'
asbag56
(g77
g58
NtRp2743
(dp2744
g61
(dp2745
sg70
g2730
sg63
(lp2746
g56
(g57
g58
NtRp2747
(dp2748
g61
(dp2749
g69
I3
ssg70
g2743
sg63
(lp2750
g1765
asbasbasbag56
(g72
g58
NtRp2751
(dp2752
g61
(dp2753
sg70
g2348
sg63
(lp2754
g56
(g77
g58
NtRp2755
(dp2756
g61
(dp2757
g81
g82
ssg70
g2751
sg63
(lp2758
S'wsgi.errors'
p2759
asbag56
(g77
g58
NtRp2760
(dp2761
g61
(dp2762
g88
g89
ssg70
g2751
sg63
(lp2763
S':'
asbag56
(g77
g58
NtRp2764
(dp2765
g61
(dp2766
sg70
g2751
sg63
(lp2767
g56
(g57
g58
NtRp2768
(dp2769
g61
(dp2770
g69
I3
ssg70
g2764
sg63
(lp2771
S"<open file '<stderr>', mode 'w' at 0x100283270>"
p2772
asbasbasbag56
(g72
g58
NtRp2773
(dp2774
g61
(dp2775
sg70
g2348
sg63
(lp2776
g56
(g77
g58
NtRp2777
(dp2778
g61
(dp2779
g81
g82
ssg70
g2773
sg63
(lp2780
S'wsgi.file_wrapper'
p2781
asbag56
(g77
g58
NtRp2782
(dp2783
g61
(dp2784
g88
g89
ssg70
g2773
sg63
(lp2785
S':'
asbag56
(g77
g58
NtRp2786
(dp2787
g61
(dp2788
sg70
g2773
sg63
(lp2789
g56
(g57
g58
NtRp2790
(dp2791
g61
(dp2792
g69
I3
ssg70
g2786
sg63
(lp2793
S'<class gluon.rocket.FileWrapper at 0x101976ef0>'
p2794
asbasbasbag56
(g72
g58
NtRp2795
(dp2796
g61
(dp2797
sg70
g2348
sg63
(lp2798
g56
(g77
g58
NtRp2799
(dp2800
g61
(dp2801
g81
g82
ssg70
g2795
sg63
(lp2802
S'wsgi.input'
p2803
asbag56
(g77
g58
NtRp2804
(dp2805
g61
(dp2806
g88
g89
ssg70
g2795
sg63
(lp2807
S':'
asbag56
(g77
g58
NtRp2808
(dp2809
g61
(dp2810
sg70
g2795
sg63
(lp2811
g56
(g57
g58
NtRp2812
(dp2813
g61
(dp2814
g69
I3
ssg70
g2808
sg63
(lp2815
S'<cStringIO.StringO object at 0x107213538>'
p2816
asbasbasbag56
(g72
g58
NtRp2817
(dp2818
g61
(dp2819
sg70
g2348
sg63
(lp2820
g56
(g77
g58
NtRp2821
(dp2822
g61
(dp2823
g81
g82
ssg70
g2817
sg63
(lp2824
S'wsgi.multiprocess'
p2825
asbag56
(g77
g58
NtRp2826
(dp2827
g61
(dp2828
g88
g89
ssg70
g2817
sg63
(lp2829
S':'
asbag56
(g77
g58
NtRp2830
(dp2831
g61
(dp2832
sg70
g2817
sg63
(lp2833
g56
(g57
g58
NtRp2834
(dp2835
g61
(dp2836
g69
I3
ssg70
g2830
sg63
(lp2837
g99
asbasbasbag56
(g72
g58
NtRp2838
(dp2839
g61
(dp2840
sg70
g2348
sg63
(lp2841
g56
(g77
g58
NtRp2842
(dp2843
g61
(dp2844
g81
g82
ssg70
g2838
sg63
(lp2845
S'wsgi.multithread'
p2846
asbag56
(g77
g58
NtRp2847
(dp2848
g61
(dp2849
g88
g89
ssg70
g2838
sg63
(lp2850
S':'
asbag56
(g77
g58
NtRp2851
(dp2852
g61
(dp2853
sg70
g2838
sg63
(lp2854
g56
(g57
g58
NtRp2855
(dp2856
g61
(dp2857
g69
I3
ssg70
g2851
sg63
(lp2858
g1939
asbasbasbag56
(g72
g58
NtRp2859
(dp2860
g61
(dp2861
sg70
g2348
sg63
(lp2862
g56
(g77
g58
NtRp2863
(dp2864
g61
(dp2865
g81
g82
ssg70
g2859
sg63
(lp2866
S'wsgi.run_once'
p2867
asbag56
(g77
g58
NtRp2868
(dp2869
g61
(dp2870
g88
g89
ssg70
g2859
sg63
(lp2871
S':'
asbag56
(g77
g58
NtRp2872
(dp2873
g61
(dp2874
sg70
g2859
sg63
(lp2875
g56
(g57
g58
NtRp2876
(dp2877
g61
(dp2878
g69
I3
ssg70
g2872
sg63
(lp2879
g99
asbasbasbag56
(g72
g58
NtRp2880
(dp2881
g61
(dp2882
sg70
g2348
sg63
(lp2883
g56
(g77
g58
NtRp2884
(dp2885
g61
(dp2886
g81
g82
ssg70
g2880
sg63
(lp2887
S'wsgi.url_scheme'
p2888
asbag56
(g77
g58
NtRp2889
(dp2890
g61
(dp2891
g88
g89
ssg70
g2880
sg63
(lp2892
S':'
asbag56
(g77
g58
NtRp2893
(dp2894
g61
(dp2895
sg70
g2880
sg63
(lp2896
g56
(g57
g58
NtRp2897
(dp2898
g61
(dp2899
g69
I3
ssg70
g2893
sg63
(lp2900
g1982
asbasbasbag56
(g72
g58
NtRp2901
(dp2902
g61
(dp2903
sg70
g2348
sg63
(lp2904
g56
(g77
g58
NtRp2905
(dp2906
g61
(dp2907
g81
g82
ssg70
g2901
sg63
(lp2908
S'wsgi.version'
p2909
asbag56
(g77
g58
NtRp2910
(dp2911
g61
(dp2912
g88
g89
ssg70
g2901
sg63
(lp2913
S':'
asbag56
(g77
g58
NtRp2914
(dp2915
g61
(dp2916
sg70
g2901
sg63
(lp2917
g56
(g57
g58
NtRp2918
(dp2919
g61
(dp2920
g69
I3
ssg70
g2914
sg63
(lp2921
S'1'
asbasbasbasbasbasbasbasbasbasbasbasbasbsS'frames'
p2922
(lp2923
(dp2924
S'file'
p2925
S'/Users/schultzc/workspace/wherespuppet/web2py/gluon/restricted.py'
p2926
sS'dump'
p2927
(dp2928
S'environment'
p2929
S"{'A': <class 'gluon.html.A'>, 'B': <class 'gluon.html.B'>, 'BEAUTIFY': <class 'gluon.html.BEAUTIFY'>, 'BODY': <class 'gluon.html.BODY'>, 'BR': <class 'gluon.html.BR'>, 'BUTTON': <class 'gluon.html.BUTTON'>, 'CENTER': <class 'gluon.html.CENTER'>, 'CLEANUP': <class 'gluon.validators.CLEANUP'>, 'CODE': <class 'gluon.html.CODE'>, 'CRYPT': <class 'gluon.validators.CRYPT'>, ...}"
p2930
sS'ccode'
p2931
S'<code object <module> at 0x10750cab0, file "/Use...applications/wp/controllers/default.py", line 11>'
p2932
ssS'lnum'
p2933
I192
sS'lines'
p2934
(dp2935
I192
S'        exec ccode in environment'
p2936
sI193
S'    except HTTP:'
p2937
sI194
S'        raise'
p2938
sI195
S'    except Exception:'
p2939
sI196
S'        # XXX Show exception in Wing IDE if running in debugger'
p2940
sI187
S'    try:'
p2941
sI188
S'        if type(code) == types.CodeType:'
p2942
sI189
S'            ccode = code'
p2943
sI190
S'        else:'
p2944
sI191
S'            ccode = compile2(code,layer)'
p2945
ssS'call'
p2946
S'(code="# -*- coding: utf-8 -*-\\n# this file is released ...())\\n\'\'\'\\n\\nresponse._vars=response._caller(submit)\\n", environment={\'A\': <class \'gluon.html.A\'>, \'B\': <class \'gluon.html.B\'>, \'BEAUTIFY\': <class \'gluon.html.BEAUTIFY\'>, \'BODY\': <class \'gluon.html.BODY\'>, \'BR\': <class \'gluon.html.BR\'>, \'BUTTON\': <class \'gluon.html.BUTTON\'>, \'CENTER\': <class \'gluon.html.CENTER\'>, \'CLEANUP\': <class \'gluon.validators.CLEANUP\'>, \'CODE\': <class \'gluon.html.CODE\'>, \'CRYPT\': <class \'gluon.validators.CRYPT\'>, ...}, layer=\'/Users/schultzc/workspace/wherespuppet/web2py/applications/wp/controllers/default.py\')'
p2947
sS'func'
p2948
S'restricted'
p2949
sa(dp2950
g2925
S'/Users/schultzc/workspace/wherespuppet/web2py/applications/wp/controllers/default.py'
p2951
sg2927
(dp2952
sg2933
I91
sg2934
(dp2953
I80
S'    http://..../[app]/default/data/delete/[table]/[id['
p2954
sI81
S'    http://..../[app]/default/data/select/[table]'
p2955
sI82
S'    http://..../[app]/default/data/search/[table]'
p2956
sI83
S'    but URLs bust be signed, i.e. linked with'
p2957
sI84
S"      A('table',_href=URL('data/tables',user_signature=True))"
p2958
sI85
S'    or with the signed load operator'
p2959
sI86
S"      LOAD('default','data.load',args='tables',ajax=True,user_signature=True)"
p2960
sI87
S'    """'
p2961
sI88
S'    return dict(form=crud())'
p2962
sI89
S"'''"
p2963
ssg2946
S'()'
p2964
sg2948
S'<module>'
p2965
sa(dp2966
g2925
S'/Users/schultzc/workspace/wherespuppet/web2py/gluon/globals.py'
p2967
sg2927
(dp2968
S'self'
p2969
S'undefined'
p2970
sS'f'
S'<function submit>'
p2971
ssg2933
I137
sg2934
(dp2972
I132
S"        self.flash = ''           # used by the default view layout"
p2973
sI133
S'        self.meta = Storage()     # used by web2py_ajax.html'
p2974
sI134
S'        self.menu = []            # used by the default view layout'
p2975
sI135
S'        self.files = []           # used by web2py_ajax.html'
p2976
sI136
S'        self._vars = None'
p2977
sI137
S'        self._caller = lambda f: f()'
p2978
sI138
S'        self._view_environment = None'
p2979
sI139
S'        self._custom_commit = None'
p2980
sI140
S'        self._custom_rollback = None'
p2981
sI141
S''
ssg2946
S'(f=<function submit>)'
p2982
sg2948
S'<lambda>'
p2983
sa(dp2984
g2925
S'/Users/schultzc/workspace/wherespuppet/web2py/applications/wp/controllers/default.py'
p2985
sg2927
(dp2986
S'latitude'
p2987
g2970
sS'response.cookies.posLat'
p2988
g2970
sS'global response'
p2989
S"<Storage {'status': 200, 'body': <cStringIO.Stri...wp', 'files': [], 'view': 'default/submit.html'}>"
p2990
sS'response.cookies'
p2991
S"<SimpleCookie: session_id_wp='127.0.0.1-292b6699-2c9a-4c11-9dfc-e30d08cf9f9a'>"
p2992
ssg2933
I20
sg2934
(dp2993
I15
S'    images = db().select(db.image.ALL, orderby=db.image.title)'
p2994
sI16
S'    return dict(images=images)'
p2995
sI17
S''
sI18
S'def submit():'
p2996
sI19
S'    form = SQLFORM(db.image, submit_button=\'Submit Puppet\', _id = "submission",formstyle="divs")'
p2997
sI20
S'    latitude = response.cookies.posLat'
p2998
sI21
S'    if form.accepts(request.vars, session):'
p2999
sI22
S"        response.flash = 'form accepted'"
p3000
sI23
S'    elif form.errors:'
p3001
sI24
S"        response.flash = 'form has errors'"
p3002
ssg2946
S'()'
p3003
sg2948
S'submit'
p3004
sasS'pyver'
p3005
S'Python 2.7.2: /opt/local/Library/Frameworks/Python.framework/Versions/2.7/Resources/Python.app/Contents/MacOS/Python'
p3006
sS'session'
p3007
g56
(g57
g58
NtRp3008
(dp3009
g61
(dp3010
sg63
(lp3011
g56
(g65
g58
NtRp3012
(dp3013
g61
(dp3014
g69
I5
ssg70
Nsg63
(lp3015
sbasbsS'etype'
p3016
S"<type 'exceptions.AttributeError'>"
p3017
sS'date'
p3018
S'Thu Jul 21 03:57:51 2011'
p3019
sS'response'
p3020
g56
(g57
g58
NtRp3021
(dp3022
g61
(dp3023
sg63
(lp3024
g56
(g65
g58
NtRp3025
(dp3026
g61
(dp3027
g69
I5
ssg70
Nsg63
(lp3028
g56
(g72
g58
NtRp3029
(dp3030
g61
(dp3031
sg70
g3025
sg63
(lp3032
g56
(g77
g58
NtRp3033
(dp3034
g61
(dp3035
g81
g82
ssg70
g3029
sg63
(lp3036
g154
asbag56
(g77
g58
NtRp3037
(dp3038
g61
(dp3039
g88
g89
ssg70
g3029
sg63
(lp3040
S':'
asbag56
(g77
g58
NtRp3041
(dp3042
g61
(dp3043
sg70
g3029
sg63
(lp3044
g56
(g57
g58
NtRp3045
(dp3046
g61
(dp3047
g69
I5
ssg70
g3041
sg63
(lp3048
S'<cStringIO.StringO object at 0x101b3bea0>'
p3049
asbasbasbag56
(g72
g58
NtRp3050
(dp3051
g61
(dp3052
sg70
g3025
sg63
(lp3053
g56
(g77
g58
NtRp3054
(dp3055
g61
(dp3056
g81
g82
ssg70
g3050
sg63
(lp3057
g220
asbag56
(g77
g58
NtRp3058
(dp3059
g61
(dp3060
g88
g89
ssg70
g3050
sg63
(lp3061
S':'
asbag56
(g77
g58
NtRp3062
(dp3063
g61
(dp3064
sg70
g3050
sg63
(lp3065
g56
(g57
g58
NtRp3066
(dp3067
g61
(dp3068
g69
I5
ssg70
g3062
sg63
(lp3069
g56
(g65
g58
NtRp3070
(dp3071
g61
(dp3072
g69
I4
ssg70
Nsg63
(lp3073
g56
(g72
g58
NtRp3074
(dp3075
g61
(dp3076
sg70
g3070
sg63
(lp3077
g56
(g77
g58
NtRp3078
(dp3079
g61
(dp3080
g81
g82
ssg70
g3074
sg63
(lp3081
S'session_id_wp'
p3082
asbag56
(g77
g58
NtRp3083
(dp3084
g61
(dp3085
g88
g89
ssg70
g3074
sg63
(lp3086
S':'
asbag56
(g77
g58
NtRp3087
(dp3088
g61
(dp3089
sg70
g3074
sg63
(lp3090
g56
(g57
g58
NtRp3091
(dp3092
g61
(dp3093
g69
I4
ssg70
g3087
sg63
(lp3094
g56
(g65
g58
NtRp3095
(dp3096
g61
(dp3097
g69
I3
ssg70
Nsg63
(lp3098
g56
(g72
g58
NtRp3099
(dp3100
g61
(dp3101
sg70
g3095
sg63
(lp3102
g56
(g77
g58
NtRp3103
(dp3104
g61
(dp3105
g81
g82
ssg70
g3099
sg63
(lp3106
g270
asbag56
(g77
g58
NtRp3107
(dp3108
g61
(dp3109
g88
g89
ssg70
g3099
sg63
(lp3110
S':'
asbag56
(g77
g58
NtRp3111
(dp3112
g61
(dp3113
sg70
g3099
sg63
(lp3114
g56
(g57
g58
NtRp3115
(dp3116
g61
(dp3117
g69
I3
ssg70
g3111
sg63
(lp3118
S''
asbasbasbag56
(g72
g58
NtRp3119
(dp3120
g61
(dp3121
sg70
g3095
sg63
(lp3122
g56
(g77
g58
NtRp3123
(dp3124
g61
(dp3125
g81
g82
ssg70
g3119
sg63
(lp3126
g291
asbag56
(g77
g58
NtRp3127
(dp3128
g61
(dp3129
g88
g89
ssg70
g3119
sg63
(lp3130
S':'
asbag56
(g77
g58
NtRp3131
(dp3132
g61
(dp3133
sg70
g3119
sg63
(lp3134
g56
(g57
g58
NtRp3135
(dp3136
g61
(dp3137
g69
I3
ssg70
g3131
sg63
(lp3138
S''
asbasbasbag56
(g72
g58
NtRp3139
(dp3140
g61
(dp3141
sg70
g3095
sg63
(lp3142
g56
(g77
g58
NtRp3143
(dp3144
g61
(dp3145
g81
g82
ssg70
g3139
sg63
(lp3146
g312
asbag56
(g77
g58
NtRp3147
(dp3148
g61
(dp3149
g88
g89
ssg70
g3139
sg63
(lp3150
S':'
asbag56
(g77
g58
NtRp3151
(dp3152
g61
(dp3153
sg70
g3139
sg63
(lp3154
g56
(g57
g58
NtRp3155
(dp3156
g61
(dp3157
g69
I3
ssg70
g3151
sg63
(lp3158
S''
asbasbasbag56
(g72
g58
NtRp3159
(dp3160
g61
(dp3161
sg70
g3095
sg63
(lp3162
g56
(g77
g58
NtRp3163
(dp3164
g61
(dp3165
g81
g82
ssg70
g3159
sg63
(lp3166
g333
asbag56
(g77
g58
NtRp3167
(dp3168
g61
(dp3169
g88
g89
ssg70
g3159
sg63
(lp3170
S':'
asbag56
(g77
g58
NtRp3171
(dp3172
g61
(dp3173
sg70
g3159
sg63
(lp3174
g56
(g57
g58
NtRp3175
(dp3176
g61
(dp3177
g69
I3
ssg70
g3171
sg63
(lp3178
S''
asbasbasbag56
(g72
g58
NtRp3179
(dp3180
g61
(dp3181
sg70
g3095
sg63
(lp3182
g56
(g77
g58
NtRp3183
(dp3184
g61
(dp3185
g81
g82
ssg70
g3179
sg63
(lp3186
g354
asbag56
(g77
g58
NtRp3187
(dp3188
g61
(dp3189
g88
g89
ssg70
g3179
sg63
(lp3190
S':'
asbag56
(g77
g58
NtRp3191
(dp3192
g61
(dp3193
sg70
g3179
sg63
(lp3194
g56
(g57
g58
NtRp3195
(dp3196
g61
(dp3197
g69
I3
ssg70
g3191
sg63
(lp3198
S''
asbasbasbag56
(g72
g58
NtRp3199
(dp3200
g61
(dp3201
sg70
g3095
sg63
(lp3202
g56
(g77
g58
NtRp3203
(dp3204
g61
(dp3205
g81
g82
ssg70
g3199
sg63
(lp3206
g375
asbag56
(g77
g58
NtRp3207
(dp3208
g61
(dp3209
g88
g89
ssg70
g3199
sg63
(lp3210
S':'
asbag56
(g77
g58
NtRp3211
(dp3212
g61
(dp3213
sg70
g3199
sg63
(lp3214
g56
(g57
g58
NtRp3215
(dp3216
g61
(dp3217
g69
I3
ssg70
g3211
sg63
(lp3218
S'/'
asbasbasbag56
(g72
g58
NtRp3219
(dp3220
g61
(dp3221
sg70
g3095
sg63
(lp3222
g56
(g77
g58
NtRp3223
(dp3224
g61
(dp3225
g81
g82
ssg70
g3219
sg63
(lp3226
g396
asbag56
(g77
g58
NtRp3227
(dp3228
g61
(dp3229
g88
g89
ssg70
g3219
sg63
(lp3230
S':'
asbag56
(g77
g58
NtRp3231
(dp3232
g61
(dp3233
sg70
g3219
sg63
(lp3234
g56
(g57
g58
NtRp3235
(dp3236
g61
(dp3237
g69
I3
ssg70
g3231
sg63
(lp3238
S''
asbasbasbag56
(g72
g58
NtRp3239
(dp3240
g61
(dp3241
sg70
g3095
sg63
(lp3242
g56
(g77
g58
NtRp3243
(dp3244
g61
(dp3245
g81
g82
ssg70
g3239
sg63
(lp3246
g417
asbag56
(g77
g58
NtRp3247
(dp3248
g61
(dp3249
g88
g89
ssg70
g3239
sg63
(lp3250
S':'
asbag56
(g77
g58
NtRp3251
(dp3252
g61
(dp3253
sg70
g3239
sg63
(lp3254
g56
(g57
g58
NtRp3255
(dp3256
g61
(dp3257
g69
I3
ssg70
g3251
sg63
(lp3258
S''
asbasbasbasbasbasbasbasbasbasbasbag56
(g72
g58
NtRp3259
(dp3260
g61
(dp3261
sg70
g3025
sg63
(lp3262
g56
(g77
g58
NtRp3263
(dp3264
g61
(dp3265
g81
g82
ssg70
g3259
sg63
(lp3266
S'files'
p3267
asbag56
(g77
g58
NtRp3268
(dp3269
g61
(dp3270
g88
g89
ssg70
g3259
sg63
(lp3271
S':'
asbag56
(g77
g58
NtRp3272
(dp3273
g61
(dp3274
sg70
g3259
sg63
(lp3275
g56
(g57
g58
NtRp3276
(dp3277
g61
(dp3278
g69
I5
ssg70
g3272
sg63
(lp3279
g56
(g65
g58
NtRp3280
(dp3281
g61
(dp3282
g69
I4
ssg70
Nsg63
(lp3283
sbasbasbasbag56
(g72
g58
NtRp3284
(dp3285
g61
(dp3286
sg70
g3025
sg63
(lp3287
g56
(g77
g58
NtRp3288
(dp3289
g61
(dp3290
g81
g82
ssg70
g3284
sg63
(lp3291
S'flash'
p3292
asbag56
(g77
g58
NtRp3293
(dp3294
g61
(dp3295
g88
g89
ssg70
g3284
sg63
(lp3296
S':'
asbag56
(g77
g58
NtRp3297
(dp3298
g61
(dp3299
sg70
g3284
sg63
(lp3300
g56
(g57
g58
NtRp3301
(dp3302
g61
(dp3303
g69
I5
ssg70
g3297
sg63
(lp3304
S''
asbasbasbag56
(g72
g58
NtRp3305
(dp3306
g61
(dp3307
sg70
g3025
sg63
(lp3308
g56
(g77
g58
NtRp3309
(dp3310
g61
(dp3311
g81
g82
ssg70
g3305
sg63
(lp3312
S'headers'
p3313
asbag56
(g77
g58
NtRp3314
(dp3315
g61
(dp3316
g88
g89
ssg70
g3305
sg63
(lp3317
S':'
asbag56
(g77
g58
NtRp3318
(dp3319
g61
(dp3320
sg70
g3305
sg63
(lp3321
g56
(g57
g58
NtRp3322
(dp3323
g61
(dp3324
g69
I5
ssg70
g3318
sg63
(lp3325
g56
(g65
g58
NtRp3326
(dp3327
g61
(dp3328
g69
I4
ssg70
Nsg63
(lp3329
g56
(g72
g58
NtRp3330
(dp3331
g61
(dp3332
sg70
g3326
sg63
(lp3333
g56
(g77
g58
NtRp3334
(dp3335
g61
(dp3336
g81
g82
ssg70
g3330
sg63
(lp3337
S'Cache-Control'
p3338
asbag56
(g77
g58
NtRp3339
(dp3340
g61
(dp3341
g88
g89
ssg70
g3330
sg63
(lp3342
S':'
asbag56
(g77
g58
NtRp3343
(dp3344
g61
(dp3345
sg70
g3330
sg63
(lp3346
g56
(g57
g58
NtRp3347
(dp3348
g61
(dp3349
g69
I4
ssg70
g3343
sg63
(lp3350
S'no-store, no-cache, must-revalidate, post-check=0, pre-check=0'
p3351
asbasbasbag56
(g72
g58
NtRp3352
(dp3353
g61
(dp3354
sg70
g3326
sg63
(lp3355
g56
(g77
g58
NtRp3356
(dp3357
g61
(dp3358
g81
g82
ssg70
g3352
sg63
(lp3359
S'Content-Type'
p3360
asbag56
(g77
g58
NtRp3361
(dp3362
g61
(dp3363
g88
g89
ssg70
g3352
sg63
(lp3364
S':'
asbag56
(g77
g58
NtRp3365
(dp3366
g61
(dp3367
sg70
g3352
sg63
(lp3368
g56
(g57
g58
NtRp3369
(dp3370
g61
(dp3371
g69
I4
ssg70
g3365
sg63
(lp3372
S'text/html; charset=utf-8'
p3373
asbasbasbag56
(g72
g58
NtRp3374
(dp3375
g61
(dp3376
sg70
g3326
sg63
(lp3377
g56
(g77
g58
NtRp3378
(dp3379
g61
(dp3380
g81
g82
ssg70
g3374
sg63
(lp3381
S'Expires'
p3382
asbag56
(g77
g58
NtRp3383
(dp3384
g61
(dp3385
g88
g89
ssg70
g3374
sg63
(lp3386
S':'
asbag56
(g77
g58
NtRp3387
(dp3388
g61
(dp3389
sg70
g3374
sg63
(lp3390
g56
(g57
g58
NtRp3391
(dp3392
g61
(dp3393
g69
I4
ssg70
g3387
sg63
(lp3394
S'Thu, 21 Jul 2011 10:57:51 GMT'
p3395
asbasbasbag56
(g72
g58
NtRp3396
(dp3397
g61
(dp3398
sg70
g3326
sg63
(lp3399
g56
(g77
g58
NtRp3400
(dp3401
g61
(dp3402
g81
g82
ssg70
g3396
sg63
(lp3403
S'Pragma'
p3404
asbag56
(g77
g58
NtRp3405
(dp3406
g61
(dp3407
g88
g89
ssg70
g3396
sg63
(lp3408
S':'
asbag56
(g77
g58
NtRp3409
(dp3410
g61
(dp3411
sg70
g3396
sg63
(lp3412
g56
(g57
g58
NtRp3413
(dp3414
g61
(dp3415
g69
I4
ssg70
g3409
sg63
(lp3416
S'no-cache'
p3417
asbasbasbag56
(g72
g58
NtRp3418
(dp3419
g61
(dp3420
sg70
g3326
sg63
(lp3421
g56
(g77
g58
NtRp3422
(dp3423
g61
(dp3424
g81
g82
ssg70
g3418
sg63
(lp3425
S'X-Powered-By'
p3426
asbag56
(g77
g58
NtRp3427
(dp3428
g61
(dp3429
g88
g89
ssg70
g3418
sg63
(lp3430
S':'
asbag56
(g77
g58
NtRp3431
(dp3432
g61
(dp3433
sg70
g3418
sg63
(lp3434
g56
(g57
g58
NtRp3435
(dp3436
g61
(dp3437
g69
I4
ssg70
g3431
sg63
(lp3438
S'web2py'
p3439
asbasbasbasbasbasbasbag56
(g72
g58
NtRp3440
(dp3441
g61
(dp3442
sg70
g3025
sg63
(lp3443
g56
(g77
g58
NtRp3444
(dp3445
g61
(dp3446
g81
g82
ssg70
g3440
sg63
(lp3447
S'menu'
p3448
asbag56
(g77
g58
NtRp3449
(dp3450
g61
(dp3451
g88
g89
ssg70
g3440
sg63
(lp3452
S':'
asbag56
(g77
g58
NtRp3453
(dp3454
g61
(dp3455
sg70
g3440
sg63
(lp3456
g56
(g57
g58
NtRp3457
(dp3458
g61
(dp3459
g69
I5
ssg70
g3453
sg63
(lp3460
g56
(g65
g58
NtRp3461
(dp3462
g61
(dp3463
g69
I4
ssg70
Nsg63
(lp3464
g56
(g72
g58
NtRp3465
(dp3466
g61
(dp3467
sg70
g3461
sg63
(lp3468
g56
(g77
g58
NtRp3469
(dp3470
g61
(dp3471
sg70
g3465
sg63
(lp3472
g56
(g57
g58
NtRp3473
(dp3474
g61
(dp3475
g69
I4
ssg70
g3469
sg63
(lp3476
g56
(g65
g58
NtRp3477
(dp3478
g61
(dp3479
g69
I3
ssg70
Nsg63
(lp3480
g56
(g72
g58
NtRp3481
(dp3482
g61
(dp3483
sg70
g3477
sg63
(lp3484
g56
(g77
g58
NtRp3485
(dp3486
g61
(dp3487
sg70
g3481
sg63
(lp3488
g56
(g57
g58
NtRp3489
(dp3490
g61
(dp3491
g69
I3
ssg70
g3485
sg63
(lp3492
cgluon.languages
lazyT_unpickle
p3493
(S't\x04\x00\x00\x00Home'
tRp3494
asbasbasbag56
(g72
g58
NtRp3495
(dp3496
g61
(dp3497
sg70
g3477
sg63
(lp3498
g56
(g77
g58
NtRp3499
(dp3500
g61
(dp3501
sg70
g3495
sg63
(lp3502
g56
(g57
g58
NtRp3503
(dp3504
g61
(dp3505
g69
I3
ssg70
g3499
sg63
(lp3506
g99
asbasbasbag56
(g72
g58
NtRp3507
(dp3508
g61
(dp3509
sg70
g3477
sg63
(lp3510
g56
(g77
g58
NtRp3511
(dp3512
g61
(dp3513
sg70
g3507
sg63
(lp3514
g56
(g57
g58
NtRp3515
(dp3516
g61
(dp3517
g69
I3
ssg70
g3511
sg63
(lp3518
S'/wp/default/index'
p3519
asbasbasbag56
(g72
g58
NtRp3520
(dp3521
g61
(dp3522
sg70
g3477
sg63
(lp3523
g56
(g77
g58
NtRp3524
(dp3525
g61
(dp3526
sg70
g3520
sg63
(lp3527
g56
(g57
g58
NtRp3528
(dp3529
g61
(dp3530
g69
I3
ssg70
g3524
sg63
(lp3531
g56
(g65
g58
NtRp3532
(dp3533
g61
(dp3534
g69
I2
ssg70
Nsg63
(lp3535
sbasbasbasbasbasbasbasbag56
(g72
g58
NtRp3536
(dp3537
g61
(dp3538
sg70
g3461
sg63
(lp3539
g56
(g77
g58
NtRp3540
(dp3541
g61
(dp3542
sg70
g3536
sg63
(lp3543
g56
(g57
g58
NtRp3544
(dp3545
g61
(dp3546
g69
I4
ssg70
g3540
sg63
(lp3547
g56
(g65
g58
NtRp3548
(dp3549
g61
(dp3550
g69
I3
ssg70
Nsg63
(lp3551
g56
(g72
g58
NtRp3552
(dp3553
g61
(dp3554
sg70
g3548
sg63
(lp3555
g56
(g77
g58
NtRp3556
(dp3557
g61
(dp3558
sg70
g3552
sg63
(lp3559
g56
(g57
g58
NtRp3560
(dp3561
g61
(dp3562
g69
I3
ssg70
g3556
sg63
(lp3563
g3493
(S's\x08\x00\x00\x00This App'
tRp3564
asbasbasbag56
(g72
g58
NtRp3565
(dp3566
g61
(dp3567
sg70
g3548
sg63
(lp3568
g56
(g77
g58
NtRp3569
(dp3570
g61
(dp3571
sg70
g3565
sg63
(lp3572
g56
(g57
g58
NtRp3573
(dp3574
g61
(dp3575
g69
I3
ssg70
g3569
sg63
(lp3576
g99
asbasbasbag56
(g72
g58
NtRp3577
(dp3578
g61
(dp3579
sg70
g3548
sg63
(lp3580
g56
(g77
g58
NtRp3581
(dp3582
g61
(dp3583
sg70
g3577
sg63
(lp3584
g56
(g57
g58
NtRp3585
(dp3586
g61
(dp3587
g69
I3
ssg70
g3581
sg63
(lp3588
S'/admin/default/design/wp'
p3589
asbasbasbag56
(g72
g58
NtRp3590
(dp3591
g61
(dp3592
sg70
g3548
sg63
(lp3593
g56
(g77
g58
NtRp3594
(dp3595
g61
(dp3596
sg70
g3590
sg63
(lp3597
g56
(g57
g58
NtRp3598
(dp3599
g61
(dp3600
g69
I3
ssg70
g3594
sg63
(lp3601
g56
(g65
g58
NtRp3602
(dp3603
g61
(dp3604
g69
I2
ssg70
Nsg63
(lp3605
g56
(g72
g58
NtRp3606
(dp3607
g61
(dp3608
sg70
g3602
sg63
(lp3609
g56
(g77
g58
NtRp3610
(dp3611
g61
(dp3612
sg70
g3606
sg63
(lp3613
g56
(g57
g58
NtRp3614
(dp3615
g61
(dp3616
g69
I2
ssg70
g3610
sg63
(lp3617
g56
(g65
g58
NtRp3618
(dp3619
g61
(dp3620
g69
I1
ssg70
Nsg63
(lp3621
g56
(g72
g58
NtRp3622
(dp3623
g61
(dp3624
sg70
g3618
sg63
(lp3625
g56
(g77
g58
NtRp3626
(dp3627
g61
(dp3628
sg70
g3622
sg63
(lp3629
g56
(g57
g58
NtRp3630
(dp3631
g61
(dp3632
g69
I1
ssg70
g3626
sg63
(lp3633
g3493
(S't\n\x00\x00\x00Controller'
tRp3634
asbasbasbag56
(g72
g58
NtRp3635
(dp3636
g61
(dp3637
sg70
g3618
sg63
(lp3638
g56
(g77
g58
NtRp3639
(dp3640
g61
(dp3641
sg70
g3635
sg63
(lp3642
g56
(g57
g58
NtRp3643
(dp3644
g61
(dp3645
g69
I1
ssg70
g3639
sg63
(lp3646
I00
asbasbasbag56
(g72
g58
NtRp3647
(dp3648
g61
(dp3649
sg70
g3618
sg63
(lp3650
g56
(g77
g58
NtRp3651
(dp3652
g61
(dp3653
sg70
g3647
sg63
(lp3654
g56
(g57
g58
NtRp3655
(dp3656
g61
(dp3657
g69
I1
ssg70
g3651
sg63
(lp3658
S'/admin/default/edit/wp/controllers/default.py'
p3659
asbasbasbasbasbasbasbag56
(g72
g58
NtRp3660
(dp3661
g61
(dp3662
sg70
g3602
sg63
(lp3663
g56
(g77
g58
NtRp3664
(dp3665
g61
(dp3666
sg70
g3660
sg63
(lp3667
g56
(g57
g58
NtRp3668
(dp3669
g61
(dp3670
g69
I2
ssg70
g3664
sg63
(lp3671
g56
(g65
g58
NtRp3672
(dp3673
g61
(dp3674
g69
I1
ssg70
Nsg63
(lp3675
g56
(g72
g58
NtRp3676
(dp3677
g61
(dp3678
sg70
g3672
sg63
(lp3679
g56
(g77
g58
NtRp3680
(dp3681
g61
(dp3682
sg70
g3676
sg63
(lp3683
g56
(g57
g58
NtRp3684
(dp3685
g61
(dp3686
g69
I1
ssg70
g3680
sg63
(lp3687
g3493
(S't\x04\x00\x00\x00View'
tRp3688
asbasbasbag56
(g72
g58
NtRp3689
(dp3690
g61
(dp3691
sg70
g3672
sg63
(lp3692
g56
(g77
g58
NtRp3693
(dp3694
g61
(dp3695
sg70
g3689
sg63
(lp3696
g56
(g57
g58
NtRp3697
(dp3698
g61
(dp3699
g69
I1
ssg70
g3693
sg63
(lp3700
I00
asbasbasbag56
(g72
g58
NtRp3701
(dp3702
g61
(dp3703
sg70
g3672
sg63
(lp3704
g56
(g77
g58
NtRp3705
(dp3706
g61
(dp3707
sg70
g3701
sg63
(lp3708
g56
(g57
g58
NtRp3709
(dp3710
g61
(dp3711
g69
I1
ssg70
g3705
sg63
(lp3712
S'/admin/default/edit/wp/views/default/submit.html'
p3713
asbasbasbasbasbasbasbag56
(g72
g58
NtRp3714
(dp3715
g61
(dp3716
sg70
g3602
sg63
(lp3717
g56
(g77
g58
NtRp3718
(dp3719
g61
(dp3720
sg70
g3714
sg63
(lp3721
g56
(g57
g58
NtRp3722
(dp3723
g61
(dp3724
g69
I2
ssg70
g3718
sg63
(lp3725
g56
(g65
g58
NtRp3726
(dp3727
g61
(dp3728
g69
I1
ssg70
Nsg63
(lp3729
g56
(g72
g58
NtRp3730
(dp3731
g61
(dp3732
sg70
g3726
sg63
(lp3733
g56
(g77
g58
NtRp3734
(dp3735
g61
(dp3736
sg70
g3730
sg63
(lp3737
g56
(g57
g58
NtRp3738
(dp3739
g61
(dp3740
g69
I1
ssg70
g3734
sg63
(lp3741
g3493
(S't\x06\x00\x00\x00Layout'
tRp3742
asbasbasbag56
(g72
g58
NtRp3743
(dp3744
g61
(dp3745
sg70
g3726
sg63
(lp3746
g56
(g77
g58
NtRp3747
(dp3748
g61
(dp3749
sg70
g3743
sg63
(lp3750
g56
(g57
g58
NtRp3751
(dp3752
g61
(dp3753
g69
I1
ssg70
g3747
sg63
(lp3754
I00
asbasbasbag56
(g72
g58
NtRp3755
(dp3756
g61
(dp3757
sg70
g3726
sg63
(lp3758
g56
(g77
g58
NtRp3759
(dp3760
g61
(dp3761
sg70
g3755
sg63
(lp3762
g56
(g57
g58
NtRp3763
(dp3764
g61
(dp3765
g69
I1
ssg70
g3759
sg63
(lp3766
S'/admin/default/edit/wp/views/layout.html'
p3767
asbasbasbasbasbasbasbag56
(g72
g58
NtRp3768
(dp3769
g61
(dp3770
sg70
g3602
sg63
(lp3771
g56
(g77
g58
NtRp3772
(dp3773
g61
(dp3774
sg70
g3768
sg63
(lp3775
g56
(g57
g58
NtRp3776
(dp3777
g61
(dp3778
g69
I2
ssg70
g3772
sg63
(lp3779
g56
(g65
g58
NtRp3780
(dp3781
g61
(dp3782
g69
I1
ssg70
Nsg63
(lp3783
g56
(g72
g58
NtRp3784
(dp3785
g61
(dp3786
sg70
g3780
sg63
(lp3787
g56
(g77
g58
NtRp3788
(dp3789
g61
(dp3790
sg70
g3784
sg63
(lp3791
g56
(g57
g58
NtRp3792
(dp3793
g61
(dp3794
g69
I1
ssg70
g3788
sg63
(lp3795
g3493
(S't\n\x00\x00\x00Stylesheet'
tRp3796
asbasbasbag56
(g72
g58
NtRp3797
(dp3798
g61
(dp3799
sg70
g3780
sg63
(lp3800
g56
(g77
g58
NtRp3801
(dp3802
g61
(dp3803
sg70
g3797
sg63
(lp3804
g56
(g57
g58
NtRp3805
(dp3806
g61
(dp3807
g69
I1
ssg70
g3801
sg63
(lp3808
I00
asbasbasbag56
(g72
g58
NtRp3809
(dp3810
g61
(dp3811
sg70
g3780
sg63
(lp3812
g56
(g77
g58
NtRp3813
(dp3814
g61
(dp3815
sg70
g3809
sg63
(lp3816
g56
(g57
g58
NtRp3817
(dp3818
g61
(dp3819
g69
I1
ssg70
g3813
sg63
(lp3820
S'/admin/default/edit/wp/static/base.css'
p3821
asbasbasbasbasbasbasbag56
(g72
g58
NtRp3822
(dp3823
g61
(dp3824
sg70
g3602
sg63
(lp3825
g56
(g77
g58
NtRp3826
(dp3827
g61
(dp3828
sg70
g3822
sg63
(lp3829
g56
(g57
g58
NtRp3830
(dp3831
g61
(dp3832
g69
I2
ssg70
g3826
sg63
(lp3833
g56
(g65
g58
NtRp3834
(dp3835
g61
(dp3836
g69
I1
ssg70
Nsg63
(lp3837
g56
(g72
g58
NtRp3838
(dp3839
g61
(dp3840
sg70
g3834
sg63
(lp3841
g56
(g77
g58
NtRp3842
(dp3843
g61
(dp3844
sg70
g3838
sg63
(lp3845
g56
(g57
g58
NtRp3846
(dp3847
g61
(dp3848
g69
I1
ssg70
g3842
sg63
(lp3849
g3493
(S's\x08\x00\x00\x00DB Model'
tRp3850
asbasbasbag56
(g72
g58
NtRp3851
(dp3852
g61
(dp3853
sg70
g3834
sg63
(lp3854
g56
(g77
g58
NtRp3855
(dp3856
g61
(dp3857
sg70
g3851
sg63
(lp3858
g56
(g57
g58
NtRp3859
(dp3860
g61
(dp3861
g69
I1
ssg70
g3855
sg63
(lp3862
I00
asbasbasbag56
(g72
g58
NtRp3863
(dp3864
g61
(dp3865
sg70
g3834
sg63
(lp3866
g56
(g77
g58
NtRp3867
(dp3868
g61
(dp3869
sg70
g3863
sg63
(lp3870
g56
(g57
g58
NtRp3871
(dp3872
g61
(dp3873
g69
I1
ssg70
g3867
sg63
(lp3874
S'/admin/default/edit/wp/models/db.py'
p3875
asbasbasbasbasbasbasbag56
(g72
g58
NtRp3876
(dp3877
g61
(dp3878
sg70
g3602
sg63
(lp3879
g56
(g77
g58
NtRp3880
(dp3881
g61
(dp3882
sg70
g3876
sg63
(lp3883
g56
(g57
g58
NtRp3884
(dp3885
g61
(dp3886
g69
I2
ssg70
g3880
sg63
(lp3887
g56
(g65
g58
NtRp3888
(dp3889
g61
(dp3890
g69
I1
ssg70
Nsg63
(lp3891
g56
(g72
g58
NtRp3892
(dp3893
g61
(dp3894
sg70
g3888
sg63
(lp3895
g56
(g77
g58
NtRp3896
(dp3897
g61
(dp3898
sg70
g3892
sg63
(lp3899
g56
(g57
g58
NtRp3900
(dp3901
g61
(dp3902
g69
I1
ssg70
g3896
sg63
(lp3903
g3493
(S's\n\x00\x00\x00Menu Model'
tRp3904
asbasbasbag56
(g72
g58
NtRp3905
(dp3906
g61
(dp3907
sg70
g3888
sg63
(lp3908
g56
(g77
g58
NtRp3909
(dp3910
g61
(dp3911
sg70
g3905
sg63
(lp3912
g56
(g57
g58
NtRp3913
(dp3914
g61
(dp3915
g69
I1
ssg70
g3909
sg63
(lp3916
I00
asbasbasbag56
(g72
g58
NtRp3917
(dp3918
g61
(dp3919
sg70
g3888
sg63
(lp3920
g56
(g77
g58
NtRp3921
(dp3922
g61
(dp3923
sg70
g3917
sg63
(lp3924
g56
(g57
g58
NtRp3925
(dp3926
g61
(dp3927
g69
I1
ssg70
g3921
sg63
(lp3928
S'/admin/default/edit/wp/models/menu.py'
p3929
asbasbasbasbasbasbasbag56
(g72
g58
NtRp3930
(dp3931
g61
(dp3932
sg70
g3602
sg63
(lp3933
g56
(g77
g58
NtRp3934
(dp3935
g61
(dp3936
sg70
g3930
sg63
(lp3937
g56
(g57
g58
NtRp3938
(dp3939
g61
(dp3940
g69
I2
ssg70
g3934
sg63
(lp3941
g56
(g65
g58
NtRp3942
(dp3943
g61
(dp3944
g69
I1
ssg70
Nsg63
(lp3945
g56
(g72
g58
NtRp3946
(dp3947
g61
(dp3948
sg70
g3942
sg63
(lp3949
g56
(g77
g58
NtRp3950
(dp3951
g61
(dp3952
sg70
g3946
sg63
(lp3953
g56
(g57
g58
NtRp3954
(dp3955
g61
(dp3956
g69
I1
ssg70
g3950
sg63
(lp3957
g3493
(S't\x08\x00\x00\x00Database'
tRp3958
asbasbasbag56
(g72
g58
NtRp3959
(dp3960
g61
(dp3961
sg70
g3942
sg63
(lp3962
g56
(g77
g58
NtRp3963
(dp3964
g61
(dp3965
sg70
g3959
sg63
(lp3966
g56
(g57
g58
NtRp3967
(dp3968
g61
(dp3969
g69
I1
ssg70
g3963
sg63
(lp3970
I00
asbasbasbag56
(g72
g58
NtRp3971
(dp3972
g61
(dp3973
sg70
g3942
sg63
(lp3974
g56
(g77
g58
NtRp3975
(dp3976
g61
(dp3977
sg70
g3971
sg63
(lp3978
g56
(g57
g58
NtRp3979
(dp3980
g61
(dp3981
g69
I1
ssg70
g3975
sg63
(lp3982
S'/wp/appadmin/index'
p3983
asbasbasbasbasbasbasbag56
(g72
g58
NtRp3984
(dp3985
g61
(dp3986
sg70
g3602
sg63
(lp3987
g56
(g77
g58
NtRp3988
(dp3989
g61
(dp3990
sg70
g3984
sg63
(lp3991
g56
(g57
g58
NtRp3992
(dp3993
g61
(dp3994
g69
I2
ssg70
g3988
sg63
(lp3995
g56
(g65
g58
NtRp3996
(dp3997
g61
(dp3998
g69
I1
ssg70
Nsg63
(lp3999
g56
(g72
g58
NtRp4000
(dp4001
g61
(dp4002
sg70
g3996
sg63
(lp4003
g56
(g77
g58
NtRp4004
(dp4005
g61
(dp4006
sg70
g4000
sg63
(lp4007
g56
(g57
g58
NtRp4008
(dp4009
g61
(dp4010
g69
I1
ssg70
g4004
sg63
(lp4011
g3493
(S't\x06\x00\x00\x00Errors'
tRp4012
asbasbasbag56
(g72
g58
NtRp4013
(dp4014
g61
(dp4015
sg70
g3996
sg63
(lp4016
g56
(g77
g58
NtRp4017
(dp4018
g61
(dp4019
sg70
g4013
sg63
(lp4020
g56
(g57
g58
NtRp4021
(dp4022
g61
(dp4023
g69
I1
ssg70
g4017
sg63
(lp4024
I00
asbasbasbag56
(g72
g58
NtRp4025
(dp4026
g61
(dp4027
sg70
g3996
sg63
(lp4028
g56
(g77
g58
NtRp4029
(dp4030
g61
(dp4031
sg70
g4025
sg63
(lp4032
g56
(g57
g58
NtRp4033
(dp4034
g61
(dp4035
g69
I1
ssg70
g4029
sg63
(lp4036
S'/admin/default/errors/wp'
p4037
asbasbasbasbasbasbasbag56
(g72
g58
NtRp4038
(dp4039
g61
(dp4040
sg70
g3602
sg63
(lp4041
g56
(g77
g58
NtRp4042
(dp4043
g61
(dp4044
sg70
g4038
sg63
(lp4045
g56
(g57
g58
NtRp4046
(dp4047
g61
(dp4048
g69
I2
ssg70
g4042
sg63
(lp4049
g56
(g65
g58
NtRp4050
(dp4051
g61
(dp4052
g69
I1
ssg70
Nsg63
(lp4053
g56
(g72
g58
NtRp4054
(dp4055
g61
(dp4056
sg70
g4050
sg63
(lp4057
g56
(g77
g58
NtRp4058
(dp4059
g61
(dp4060
sg70
g4054
sg63
(lp4061
g56
(g57
g58
NtRp4062
(dp4063
g61
(dp4064
g69
I1
ssg70
g4058
sg63
(lp4065
g3493
(S't\x05\x00\x00\x00About'
tRp4066
asbasbasbag56
(g72
g58
NtRp4067
(dp4068
g61
(dp4069
sg70
g4050
sg63
(lp4070
g56
(g77
g58
NtRp4071
(dp4072
g61
(dp4073
sg70
g4067
sg63
(lp4074
g56
(g57
g58
NtRp4075
(dp4076
g61
(dp4077
g69
I1
ssg70
g4071
sg63
(lp4078
I00
asbasbasbag56
(g72
g58
NtRp4079
(dp4080
g61
(dp4081
sg70
g4050
sg63
(lp4082
g56
(g77
g58
NtRp4083
(dp4084
g61
(dp4085
sg70
g4079
sg63
(lp4086
g56
(g57
g58
NtRp4087
(dp4088
g61
(dp4089
g69
I1
ssg70
g4083
sg63
(lp4090
S'/admin/default/about/wp'
p4091
asbasbasbasbasbasbasbasbasbasbasbasbasbasbasbag56
(g72
g58
NtRp4092
(dp4093
g61
(dp4094
sg70
g3461
sg63
(lp4095
g56
(g77
g58
NtRp4096
(dp4097
g61
(dp4098
sg70
g4092
sg63
(lp4099
g56
(g57
g58
NtRp4100
(dp4101
g61
(dp4102
g69
I4
ssg70
g4096
sg63
(lp4103
g56
(g65
g58
NtRp4104
(dp4105
g61
(dp4106
g69
I3
ssg70
Nsg63
(lp4107
g56
(g72
g58
NtRp4108
(dp4109
g61
(dp4110
sg70
g4104
sg63
(lp4111
g56
(g77
g58
NtRp4112
(dp4113
g61
(dp4114
sg70
g4108
sg63
(lp4115
g56
(g57
g58
NtRp4116
(dp4117
g61
(dp4118
g69
I3
ssg70
g4112
sg63
(lp4119
g3493
(S't\t\x00\x00\x00Resources'
tRp4120
asbasbasbag56
(g72
g58
NtRp4121
(dp4122
g61
(dp4123
sg70
g4104
sg63
(lp4124
g56
(g77
g58
NtRp4125
(dp4126
g61
(dp4127
sg70
g4121
sg63
(lp4128
g56
(g57
g58
NtRp4129
(dp4130
g61
(dp4131
g69
I3
ssg70
g4125
sg63
(lp4132
g99
asbasbasbag56
(g72
g58
NtRp4133
(dp4134
g61
(dp4135
sg70
g4104
sg63
(lp4136
g56
(g77
g58
NtRp4137
(dp4138
g61
(dp4139
sg70
g4133
sg63
(lp4140
g56
(g57
g58
NtRp4141
(dp4142
g61
(dp4143
g69
I3
ssg70
g4137
sg63
(lp4144
S'None'
p4145
asbasbasbag56
(g72
g58
NtRp4146
(dp4147
g61
(dp4148
sg70
g4104
sg63
(lp4149
g56
(g77
g58
NtRp4150
(dp4151
g61
(dp4152
sg70
g4146
sg63
(lp4153
g56
(g57
g58
NtRp4154
(dp4155
g61
(dp4156
g69
I3
ssg70
g4150
sg63
(lp4157
g56
(g65
g58
NtRp4158
(dp4159
g61
(dp4160
g69
I2
ssg70
Nsg63
(lp4161
g56
(g72
g58
NtRp4162
(dp4163
g61
(dp4164
sg70
g4158
sg63
(lp4165
g56
(g77
g58
NtRp4166
(dp4167
g61
(dp4168
sg70
g4162
sg63
(lp4169
g56
(g57
g58
NtRp4170
(dp4171
g61
(dp4172
g69
I2
ssg70
g4166
sg63
(lp4173
g56
(g65
g58
NtRp4174
(dp4175
g61
(dp4176
g69
I1
ssg70
Nsg63
(lp4177
g56
(g72
g58
NtRp4178
(dp4179
g61
(dp4180
sg70
g4174
sg63
(lp4181
g56
(g77
g58
NtRp4182
(dp4183
g61
(dp4184
sg70
g4178
sg63
(lp4185
g56
(g57
g58
NtRp4186
(dp4187
g61
(dp4188
g69
I1
ssg70
g4182
sg63
(lp4189
g3493
(S't\r\x00\x00\x00Documentation'
tRp4190
asbasbasbag56
(g72
g58
NtRp4191
(dp4192
g61
(dp4193
sg70
g4174
sg63
(lp4194
g56
(g77
g58
NtRp4195
(dp4196
g61
(dp4197
sg70
g4191
sg63
(lp4198
g56
(g57
g58
NtRp4199
(dp4200
g61
(dp4201
g69
I1
ssg70
g4195
sg63
(lp4202
I00
asbasbasbag56
(g72
g58
NtRp4203
(dp4204
g61
(dp4205
sg70
g4174
sg63
(lp4206
g56
(g77
g58
NtRp4207
(dp4208
g61
(dp4209
sg70
g4203
sg63
(lp4210
g56
(g57
g58
NtRp4211
(dp4212
g61
(dp4213
g69
I1
ssg70
g4207
sg63
(lp4214
S'http://www.web2py.com/book'
p4215
asbasbasbag56
(g72
g58
NtRp4216
(dp4217
g61
(dp4218
sg70
g4174
sg63
(lp4219
g56
(g77
g58
NtRp4220
(dp4221
g61
(dp4222
sg70
g4216
sg63
(lp4223
g56
(g57
g58
NtRp4224
(dp4225
g61
(dp4226
g69
I1
ssg70
g4220
sg63
(lp4227
(lp4228
(g3493
(S't\x07\x00\x00\x00Preface'
tRp4229
I00
S'http://www.web2py.com/book/default/chapter/00'
tp4230
a(g3493
(S't\x0c\x00\x00\x00Introduction'
tRp4231
I00
S'http://www.web2py.com/book/default/chapter/01'
tp4232
a(g3493
(S't\x06\x00\x00\x00Python'
tRp4233
I00
S'http://www.web2py.com/book/default/chapter/02'
tp4234
a(g3493
(S't\x08\x00\x00\x00Overview'
tRp4235
I00
S'http://www.web2py.com/book/default/chapter/03'
tp4236
a(g3493
(S's\x08\x00\x00\x00The Core'
tRp4237
I00
S'http://www.web2py.com/book/default/chapter/04'
tp4238
a(g3493
(S's\t\x00\x00\x00The Views'
tRp4239
I00
S'http://www.web2py.com/book/default/chapter/05'
tp4240
a(g3493
(S't\x08\x00\x00\x00Database'
tRp4241
I00
S'http://www.web2py.com/book/default/chapter/06'
tp4242
a(g3493
(S's\x14\x00\x00\x00Forms and Validators'
tRp4243
I00
S'http://www.web2py.com/book/default/chapter/07'
tp4244
a(g3493
(S's\x0e\x00\x00\x00Access Control'
tRp4245
I00
S'http://www.web2py.com/book/default/chapter/08'
tp4246
a(g3493
(S't\x08\x00\x00\x00Services'
tRp4247
I00
S'http://www.web2py.com/book/default/chapter/09'
tp4248
a(g3493
(S's\x0c\x00\x00\x00Ajax Recipes'
tRp4249
I00
S'http://www.web2py.com/book/default/chapter/10'
tp4250
a(g3493
(S's\x12\x00\x00\x00Deployment Recipes'
tRp4251
I00
S'http://www.web2py.com/book/default/chapter/11'
tp4252
a(g3493
(S's\r\x00\x00\x00Other Recipes'
tRp4253
I00
S'http://www.web2py.com/book/default/chapter/12'
tp4254
a(g3493
(S's\r\x00\x00\x00Buy this book'
tRp4255
I00
S'http://stores.lulu.com/web2py'
tp4256
aasbasbasbasbasbasbasbag56
(g72
g58
NtRp4257
(dp4258
g61
(dp4259
sg70
g4158
sg63
(lp4260
g56
(g77
g58
NtRp4261
(dp4262
g61
(dp4263
sg70
g4257
sg63
(lp4264
g56
(g57
g58
NtRp4265
(dp4266
g61
(dp4267
g69
I2
ssg70
g4261
sg63
(lp4268
g56
(g65
g58
NtRp4269
(dp4270
g61
(dp4271
g69
I1
ssg70
Nsg63
(lp4272
g56
(g72
g58
NtRp4273
(dp4274
g61
(dp4275
sg70
g4269
sg63
(lp4276
g56
(g77
g58
NtRp4277
(dp4278
g61
(dp4279
sg70
g4273
sg63
(lp4280
g56
(g57
g58
NtRp4281
(dp4282
g61
(dp4283
g69
I1
ssg70
g4277
sg63
(lp4284
g3493
(S't\t\x00\x00\x00Community'
tRp4285
asbasbasbag56
(g72
g58
NtRp4286
(dp4287
g61
(dp4288
sg70
g4269
sg63
(lp4289
g56
(g77
g58
NtRp4290
(dp4291
g61
(dp4292
sg70
g4286
sg63
(lp4293
g56
(g57
g58
NtRp4294
(dp4295
g61
(dp4296
g69
I1
ssg70
g4290
sg63
(lp4297
I00
asbasbasbag56
(g72
g58
NtRp4298
(dp4299
g61
(dp4300
sg70
g4269
sg63
(lp4301
g56
(g77
g58
NtRp4302
(dp4303
g61
(dp4304
sg70
g4298
sg63
(lp4305
g56
(g57
g58
NtRp4306
(dp4307
g61
(dp4308
g69
I1
ssg70
g4302
sg63
(lp4309
Nasbasbasbag56
(g72
g58
NtRp4310
(dp4311
g61
(dp4312
sg70
g4269
sg63
(lp4313
g56
(g77
g58
NtRp4314
(dp4315
g61
(dp4316
sg70
g4310
sg63
(lp4317
g56
(g57
g58
NtRp4318
(dp4319
g61
(dp4320
g69
I1
ssg70
g4314
sg63
(lp4321
(lp4322
(g3493
(S't\x06\x00\x00\x00Groups'
tRp4323
I00
S'http://www.web2py.com/examples/default/usergroups'
tp4324
a(g3493
(S't\x07\x00\x00\x00Twitter'
tRp4325
I00
S'http://twitter.com/web2py'
tp4326
a(g3493
(S's\t\x00\x00\x00Live chat'
tRp4327
I00
S'http://mibbit.com/?channel=%23web2py&server=irc.mibbit.net'
tp4328
a(g3493
(S's\n\x00\x00\x00User Voice'
tRp4329
I00
S'http://web2py.uservoice.com/'
tp4330
aasbasbasbasbasbasbasbag56
(g72
g58
NtRp4331
(dp4332
g61
(dp4333
sg70
g4158
sg63
(lp4334
g56
(g77
g58
NtRp4335
(dp4336
g61
(dp4337
sg70
g4331
sg63
(lp4338
g56
(g57
g58
NtRp4339
(dp4340
g61
(dp4341
g69
I2
ssg70
g4335
sg63
(lp4342
g56
(g65
g58
NtRp4343
(dp4344
g61
(dp4345
g69
I1
ssg70
Nsg63
(lp4346
g56
(g72
g58
NtRp4347
(dp4348
g61
(dp4349
sg70
g4343
sg63
(lp4350
g56
(g77
g58
NtRp4351
(dp4352
g61
(dp4353
sg70
g4347
sg63
(lp4354
g56
(g57
g58
NtRp4355
(dp4356
g61
(dp4357
g69
I1
ssg70
g4351
sg63
(lp4358
g3493
(S't\x06\x00\x00\x00Web2py'
tRp4359
asbasbasbag56
(g72
g58
NtRp4360
(dp4361
g61
(dp4362
sg70
g4343
sg63
(lp4363
g56
(g77
g58
NtRp4364
(dp4365
g61
(dp4366
sg70
g4360
sg63
(lp4367
g56
(g57
g58
NtRp4368
(dp4369
g61
(dp4370
g69
I1
ssg70
g4364
sg63
(lp4371
I00
asbasbasbag56
(g72
g58
NtRp4372
(dp4373
g61
(dp4374
sg70
g4343
sg63
(lp4375
g56
(g77
g58
NtRp4376
(dp4377
g61
(dp4378
sg70
g4372
sg63
(lp4379
g56
(g57
g58
NtRp4380
(dp4381
g61
(dp4382
g69
I1
ssg70
g4376
sg63
(lp4383
S'http://www.web2py.com'
p4384
asbasbasbag56
(g72
g58
NtRp4385
(dp4386
g61
(dp4387
sg70
g4343
sg63
(lp4388
g56
(g77
g58
NtRp4389
(dp4390
g61
(dp4391
sg70
g4385
sg63
(lp4392
g56
(g57
g58
NtRp4393
(dp4394
g61
(dp4395
g69
I1
ssg70
g4389
sg63
(lp4396
(lp4397
(g3493
(S't\x08\x00\x00\x00Download'
tRp4398
I00
S'http://www.web2py.com/examples/default/download'
tp4399
a(g3493
(S't\x07\x00\x00\x00Support'
tRp4400
I00
S'http://www.web2py.com/examples/default/support'
tp4401
a(g3493
(S's\x0e\x00\x00\x00Quick Examples'
tRp4402
I00
S'http://web2py.com/examples/default/examples'
tp4403
a(g3493
(S't\x03\x00\x00\x00FAQ'
tRp4404
I00
S'http://web2py.com/AlterEgo'
tp4405
a(g3493
(S's\x11\x00\x00\x00Free Applications'
tRp4406
I00
S'http://web2py.com/appliances'
tp4407
a(g3493
(S't\x07\x00\x00\x00Plugins'
tRp4408
I00
S'http://web2py.com/plugins'
tp4409
a(g3493
(S't\x07\x00\x00\x00Recipes'
tRp4410
I00
S'http://web2pyslices.com/'
tp4411
a(g3493
(S't\x04\x00\x00\x00Demo'
tRp4412
I00
S'http://web2py.com/demo_admin'
tp4413
a(g3493
(S't\x08\x00\x00\x00Semantic'
tRp4414
I00
S'http://web2py.com/semantic'
tp4415
a(g3493
(S't\x07\x00\x00\x00Layouts'
tRp4416
I00
S'http://web2py.com/layouts'
tp4417
a(g3493
(S't\x06\x00\x00\x00Videos'
tRp4418
I00
S'http://www.web2py.com/examples/default/videos/'
tp4419
aasbasbasbasbasbasbasbasbasbasbasbasbasbasbasbasbasbasbasbag56
(g72
g58
NtRp4420
(dp4421
g61
(dp4422
sg70
g3025
sg63
(lp4423
g56
(g77
g58
NtRp4424
(dp4425
g61
(dp4426
g81
g82
ssg70
g4420
sg63
(lp4427
S'meta'
p4428
asbag56
(g77
g58
NtRp4429
(dp4430
g61
(dp4431
g88
g89
ssg70
g4420
sg63
(lp4432
S':'
asbag56
(g77
g58
NtRp4433
(dp4434
g61
(dp4435
sg70
g4420
sg63
(lp4436
g56
(g57
g58
NtRp4437
(dp4438
g61
(dp4439
g69
I5
ssg70
g4433
sg63
(lp4440
g56
(g65
g58
NtRp4441
(dp4442
g61
(dp4443
g69
I4
ssg70
Nsg63
(lp4444
g56
(g72
g58
NtRp4445
(dp4446
g61
(dp4447
sg70
g4441
sg63
(lp4448
g56
(g77
g58
NtRp4449
(dp4450
g61
(dp4451
g81
g82
ssg70
g4445
sg63
(lp4452
S'author'
p4453
asbag56
(g77
g58
NtRp4454
(dp4455
g61
(dp4456
g88
g89
ssg70
g4445
sg63
(lp4457
S':'
asbag56
(g77
g58
NtRp4458
(dp4459
g61
(dp4460
sg70
g4445
sg63
(lp4461
g56
(g57
g58
NtRp4462
(dp4463
g61
(dp4464
g69
I4
ssg70
g4458
sg63
(lp4465
S'you'
p4466
asbasbasbag56
(g72
g58
NtRp4467
(dp4468
g61
(dp4469
sg70
g4441
sg63
(lp4470
g56
(g77
g58
NtRp4471
(dp4472
g61
(dp4473
g81
g82
ssg70
g4467
sg63
(lp4474
S'copyright'
p4475
asbag56
(g77
g58
NtRp4476
(dp4477
g61
(dp4478
g88
g89
ssg70
g4467
sg63
(lp4479
S':'
asbag56
(g77
g58
NtRp4480
(dp4481
g61
(dp4482
sg70
g4467
sg63
(lp4483
g56
(g57
g58
NtRp4484
(dp4485
g61
(dp4486
g69
I4
ssg70
g4480
sg63
(lp4487
S'Copyright 2007-2010'
p4488
asbasbasbag56
(g72
g58
NtRp4489
(dp4490
g61
(dp4491
sg70
g4441
sg63
(lp4492
g56
(g77
g58
NtRp4493
(dp4494
g61
(dp4495
g81
g82
ssg70
g4489
sg63
(lp4496
S'description'
p4497
asbag56
(g77
g58
NtRp4498
(dp4499
g61
(dp4500
g88
g89
ssg70
g4489
sg63
(lp4501
S':'
asbag56
(g77
g58
NtRp4502
(dp4503
g61
(dp4504
sg70
g4489
sg63
(lp4505
g56
(g57
g58
NtRp4506
(dp4507
g61
(dp4508
g69
I4
ssg70
g4502
sg63
(lp4509
S'Free and open source full-stack enterprise framework for agile development of fast, scalable, secure and portable database-driven web-based applications. Written and programmable in Python'
p4510
asbasbasbag56
(g72
g58
NtRp4511
(dp4512
g61
(dp4513
sg70
g4441
sg63
(lp4514
g56
(g77
g58
NtRp4515
(dp4516
g61
(dp4517
g81
g82
ssg70
g4511
sg63
(lp4518
S'generator'
p4519
asbag56
(g77
g58
NtRp4520
(dp4521
g61
(dp4522
g88
g89
ssg70
g4511
sg63
(lp4523
S':'
asbag56
(g77
g58
NtRp4524
(dp4525
g61
(dp4526
sg70
g4511
sg63
(lp4527
g56
(g57
g58
NtRp4528
(dp4529
g61
(dp4530
g69
I4
ssg70
g4524
sg63
(lp4531
S'Web2py Enterprise Framework'
p4532
asbasbasbag56
(g72
g58
NtRp4533
(dp4534
g61
(dp4535
sg70
g4441
sg63
(lp4536
g56
(g77
g58
NtRp4537
(dp4538
g61
(dp4539
g81
g82
ssg70
g4533
sg63
(lp4540
S'keywords'
p4541
asbag56
(g77
g58
NtRp4542
(dp4543
g61
(dp4544
g88
g89
ssg70
g4533
sg63
(lp4545
S':'
asbag56
(g77
g58
NtRp4546
(dp4547
g61
(dp4548
sg70
g4533
sg63
(lp4549
g56
(g57
g58
NtRp4550
(dp4551
g61
(dp4552
g69
I4
ssg70
g4546
sg63
(lp4553
S'web2py, python, framework'
p4554
asbasbasbasbasbasbasbag56
(g72
g58
NtRp4555
(dp4556
g61
(dp4557
sg70
g3025
sg63
(lp4558
g56
(g77
g58
NtRp4559
(dp4560
g61
(dp4561
g81
g82
ssg70
g4555
sg63
(lp4562
S'postprocessing'
p4563
asbag56
(g77
g58
NtRp4564
(dp4565
g61
(dp4566
g88
g89
ssg70
g4555
sg63
(lp4567
S':'
asbag56
(g77
g58
NtRp4568
(dp4569
g61
(dp4570
sg70
g4555
sg63
(lp4571
g56
(g57
g58
NtRp4572
(dp4573
g61
(dp4574
g69
I5
ssg70
g4568
sg63
(lp4575
g56
(g65
g58
NtRp4576
(dp4577
g61
(dp4578
g69
I4
ssg70
Nsg63
(lp4579
sbasbasbasbag56
(g72
g58
NtRp4580
(dp4581
g61
(dp4582
sg70
g3025
sg63
(lp4583
g56
(g77
g58
NtRp4584
(dp4585
g61
(dp4586
g81
g82
ssg70
g4580
sg63
(lp4587
S'session_file'
p4588
asbag56
(g77
g58
NtRp4589
(dp4590
g61
(dp4591
g88
g89
ssg70
g4580
sg63
(lp4592
S':'
asbag56
(g77
g58
NtRp4593
(dp4594
g61
(dp4595
sg70
g4580
sg63
(lp4596
g56
(g57
g58
NtRp4597
(dp4598
g61
(dp4599
g69
I5
ssg70
g4593
sg63
(lp4600
S"<open file '/Users/schultzc/workspace/wherespuppet/web2py/applications/wp/sessions/127.0.0.1-292b6699-2c9a-4c11-9dfc-e30d08cf9f9a', mode 'rb+' at 0x1073eb420>"
p4601
asbasbasbag56
(g72
g58
NtRp4602
(dp4603
g61
(dp4604
sg70
g3025
sg63
(lp4605
g56
(g77
g58
NtRp4606
(dp4607
g61
(dp4608
g81
g82
ssg70
g4602
sg63
(lp4609
S'session_filename'
p4610
asbag56
(g77
g58
NtRp4611
(dp4612
g61
(dp4613
g88
g89
ssg70
g4602
sg63
(lp4614
S':'
asbag56
(g77
g58
NtRp4615
(dp4616
g61
(dp4617
sg70
g4602
sg63
(lp4618
g56
(g57
g58
NtRp4619
(dp4620
g61
(dp4621
g69
I5
ssg70
g4615
sg63
(lp4622
S'/Users/schultzc/workspace/wherespuppet/web2py/applications/wp/sessions/127.0.0.1-292b6699-2c9a-4c11-9dfc-e30d08cf9f9a'
p4623
asbasbasbag56
(g72
g58
NtRp4624
(dp4625
g61
(dp4626
sg70
g3025
sg63
(lp4627
g56
(g77
g58
NtRp4628
(dp4629
g61
(dp4630
g81
g82
ssg70
g4624
sg63
(lp4631
S'session_id'
p4632
asbag56
(g77
g58
NtRp4633
(dp4634
g61
(dp4635
g88
g89
ssg70
g4624
sg63
(lp4636
S':'
asbag56
(g77
g58
NtRp4637
(dp4638
g61
(dp4639
sg70
g4624
sg63
(lp4640
g56
(g57
g58
NtRp4641
(dp4642
g61
(dp4643
g69
I5
ssg70
g4637
sg63
(lp4644
S'127.0.0.1-292b6699-2c9a-4c11-9dfc-e30d08cf9f9a'
p4645
asbasbasbag56
(g72
g58
NtRp4646
(dp4647
g61
(dp4648
sg70
g3025
sg63
(lp4649
g56
(g77
g58
NtRp4650
(dp4651
g61
(dp4652
g81
g82
ssg70
g4646
sg63
(lp4653
S'session_id_name'
p4654
asbag56
(g77
g58
NtRp4655
(dp4656
g61
(dp4657
g88
g89
ssg70
g4646
sg63
(lp4658
S':'
asbag56
(g77
g58
NtRp4659
(dp4660
g61
(dp4661
sg70
g4646
sg63
(lp4662
g56
(g57
g58
NtRp4663
(dp4664
g61
(dp4665
g69
I5
ssg70
g4659
sg63
(lp4666
g3082
asbasbasbag56
(g72
g58
NtRp4667
(dp4668
g61
(dp4669
sg70
g3025
sg63
(lp4670
g56
(g77
g58
NtRp4671
(dp4672
g61
(dp4673
g81
g82
ssg70
g4667
sg63
(lp4674
S'session_locked'
p4675
asbag56
(g77
g58
NtRp4676
(dp4677
g61
(dp4678
g88
g89
ssg70
g4667
sg63
(lp4679
S':'
asbag56
(g77
g58
NtRp4680
(dp4681
g61
(dp4682
sg70
g4667
sg63
(lp4683
g56
(g57
g58
NtRp4684
(dp4685
g61
(dp4686
g69
I5
ssg70
g4680
sg63
(lp4687
g1939
asbasbasbag56
(g72
g58
NtRp4688
(dp4689
g61
(dp4690
sg70
g3025
sg63
(lp4691
g56
(g77
g58
NtRp4692
(dp4693
g61
(dp4694
g81
g82
ssg70
g4688
sg63
(lp4695
S'session_new'
p4696
asbag56
(g77
g58
NtRp4697
(dp4698
g61
(dp4699
g88
g89
ssg70
g4688
sg63
(lp4700
S':'
asbag56
(g77
g58
NtRp4701
(dp4702
g61
(dp4703
sg70
g4688
sg63
(lp4704
g56
(g57
g58
NtRp4705
(dp4706
g61
(dp4707
g69
I5
ssg70
g4701
sg63
(lp4708
g99
asbasbasbag56
(g72
g58
NtRp4709
(dp4710
g61
(dp4711
sg70
g3025
sg63
(lp4712
g56
(g77
g58
NtRp4713
(dp4714
g61
(dp4715
g81
g82
ssg70
g4709
sg63
(lp4716
S'status'
p4717
asbag56
(g77
g58
NtRp4718
(dp4719
g61
(dp4720
g88
g89
ssg70
g4709
sg63
(lp4721
S':'
asbag56
(g77
g58
NtRp4722
(dp4723
g61
(dp4724
sg70
g4709
sg63
(lp4725
g56
(g57
g58
NtRp4726
(dp4727
g61
(dp4728
g69
I5
ssg70
g4722
sg63
(lp4729
S'200'
p4730
asbasbasbag56
(g72
g58
NtRp4731
(dp4732
g61
(dp4733
sg70
g3025
sg63
(lp4734
g56
(g77
g58
NtRp4735
(dp4736
g61
(dp4737
g81
g82
ssg70
g4731
sg63
(lp4738
S'subtitle'
p4739
asbag56
(g77
g58
NtRp4740
(dp4741
g61
(dp4742
g88
g89
ssg70
g4731
sg63
(lp4743
S':'
asbag56
(g77
g58
NtRp4744
(dp4745
g61
(dp4746
sg70
g4731
sg63
(lp4747
g56
(g57
g58
NtRp4748
(dp4749
g61
(dp4750
g69
I5
ssg70
g4744
sg63
(lp4751
g3493
(S's\r\x00\x00\x00customize me!'
tRp4752
asbasbasbag56
(g72
g58
NtRp4753
(dp4754
g61
(dp4755
sg70
g3025
sg63
(lp4756
g56
(g77
g58
NtRp4757
(dp4758
g61
(dp4759
g81
g82
ssg70
g4753
sg63
(lp4760
S'title'
p4761
asbag56
(g77
g58
NtRp4762
(dp4763
g61
(dp4764
g88
g89
ssg70
g4753
sg63
(lp4765
S':'
asbag56
(g77
g58
NtRp4766
(dp4767
g61
(dp4768
sg70
g4753
sg63
(lp4769
g56
(g57
g58
NtRp4770
(dp4771
g61
(dp4772
g69
I5
ssg70
g4766
sg63
(lp4773
g121
asbasbasbag56
(g72
g58
NtRp4774
(dp4775
g61
(dp4776
sg70
g3025
sg63
(lp4777
g56
(g77
g58
NtRp4778
(dp4779
g61
(dp4780
g81
g82
ssg70
g4774
sg63
(lp4781
g2263
asbag56
(g77
g58
NtRp4782
(dp4783
g61
(dp4784
g88
g89
ssg70
g4774
sg63
(lp4785
S':'
asbag56
(g77
g58
NtRp4786
(dp4787
g61
(dp4788
sg70
g4774
sg63
(lp4789
g56
(g57
g58
NtRp4790
(dp4791
g61
(dp4792
g69
I5
ssg70
g4786
sg63
(lp4793
g2276
asbasbasbag56
(g72
g58
NtRp4794
(dp4795
g61
(dp4796
sg70
g3025
sg63
(lp4797
g56
(g77
g58
NtRp4798
(dp4799
g61
(dp4800
g81
g82
ssg70
g4794
sg63
(lp4801
S'view'
p4802
asbag56
(g77
g58
NtRp4803
(dp4804
g61
(dp4805
g88
g89
ssg70
g4794
sg63
(lp4806
S':'
asbag56
(g77
g58
NtRp4807
(dp4808
g61
(dp4809
sg70
g4794
sg63
(lp4810
g56
(g57
g58
NtRp4811
(dp4812
g61
(dp4813
g69
I5
ssg70
g4807
sg63
(lp4814
S'default/submit.html'
p4815
asbasbasbasbasbsS'locals'
p4816
(dp4817
S'form'
p4818
S'<gluon.sqlhtml.SQLFORM object>'
p4819
sssS'traceback'
p4820
S'Traceback (most recent call last):\n  File "/Users/schultzc/workspace/wherespuppet/web2py/gluon/restricted.py", line 192, in restricted\n    exec ccode in environment\n  File "/Users/schultzc/workspace/wherespuppet/web2py/applications/wp/controllers/default.py", line 91, in <module>\n  File "/Users/schultzc/workspace/wherespuppet/web2py/gluon/globals.py", line 137, in <lambda>\n    self._caller = lambda f: f()\n  File "/Users/schultzc/workspace/wherespuppet/web2py/applications/wp/controllers/default.py", line 20, in submit\n    latitude = response.cookies.posLat\nAttributeError: \'SimpleCookie\' object has no attribute \'posLat\'\n'
p4821
s.