(dp1
S'output'
p2
S''
sS'layer'
p3
S'/Users/schultzc/Downloads/web2py/applications/wp/controllers/default.py'
p4
sS'code'
p5
S'# -*- coding: utf-8 -*-\n# this file is released under public domain and you can use without limitations\n\n#########################################################################\n## This is a samples controller\n## - index is the default action of any application\n## - user is required for authentication and authorization\n## - download is for downloading files uploaded in the db (does streaming)\n## - call exposes all registered services (none by default)\n#########################################################################\n\ndef index():\n    """\n    example action using the internationalization operator T and flash\n    rendered by views/default/index.html or views/generic.html\n    """\n    return dict(message=T(\'Hello World\'))\n    \ndef submit():\n   form = SQLFORM(db.image)\n   if form.accepts(request.vars, session):\n       response.flash = \'form accepted\'\n   elif form.errors:\n       response.flash = \'form has errors\'\n   else:\n       response.flash = \'please fill out the form\'\n   return dict(form=form)\n   \ndef show():\n    image = db(db.image.id==request.args(0)).select().first()\n    form = SQLFORM(db.comment)\n    form.vars.image_id = image.id\n    if form.accepts(request.vars, session):\n        response.flash = \'your comment is posted\'\n    comments = db(db.comment.image_id==image.id).select()\n    return dict(image=image, comments=comments, form=form)\n\ndef user():\n    """\n    exposes:\n    http://..../[app]/default/user/login\n    http://..../[app]/default/user/logout\n    http://..../[app]/default/user/register\n    http://..../[app]/default/user/profile\n    http://..../[app]/default/user/retrieve_password\n    http://..../[app]/default/user/change_password\n    use @auth.requires_login()\n        @auth.requires_membership(\'group name\')\n        @auth.requires_permission(\'read\',\'table name\',record_id)\n    to decorate functions that need access control\n    """\n    return dict(form=auth())\n\n\ndef download():\n    """\n    allows downloading of uploaded files\n    http://..../[app]/default/download/[filename]\n    """\n    return response.download(request,db)\n\n\ndef call():\n    """\n    exposes services. for example:\n    http://..../[app]/default/call/jsonrpc\n    decorate with @services.jsonrpc the functions to expose\n    supports xml, json, xmlrpc, jsonrpc, amfrpc, rss, csv\n    """\n    return service()\n\n\n@auth.requires_signature()\ndef data():\n    """\n    http://..../[app]/default/data/tables\n    http://..../[app]/default/data/create/[table]\n    http://..../[app]/default/data/read/[table]/[id]\n    http://..../[app]/default/data/update/[table]/[id]\n    http://..../[app]/default/data/delete/[table]/[id[\n    http://..../[app]/default/data/select/[table]\n    http://..../[app]/default/data/search/[table]\n    but URLs bust be signed, i.e. linked with\n      A(\'table\',_href=URL(\'data/tables\',user_signature=True))\n    or with the signed load operator\n      LOAD(\'default\',\'data.load\',args=\'tables\',ajax=True,user_signature=True)\n    """\n    return dict(form=crud())\n\nresponse._vars=response._caller(submit)\n'
p6
sS'snapshot'
p7
(dp8
S'exception'
p9
(dp10
S'__hash__'
p11
S"<method-wrapper '__hash__' of exceptions.NameError object>"
p12
sS'__setattr__'
p13
S"<method-wrapper '__setattr__' of exceptions.NameError object>"
p14
sS'__reduce_ex__'
p15
S'<built-in method __reduce_ex__ of exceptions.NameError object>'
p16
sS'__getslice__'
p17
S"<method-wrapper '__getslice__' of exceptions.NameError object>"
p18
sS'__getitem__'
p19
S"<method-wrapper '__getitem__' of exceptions.NameError object>"
p20
sS'__setstate__'
p21
S'<built-in method __setstate__ of exceptions.NameError object>'
p22
sS'args'
p23
S'("name \'auth\' is not defined",)'
p24
sS'__reduce__'
p25
S'<built-in method __reduce__ of exceptions.NameError object>'
p26
sS'__str__'
p27
S"<method-wrapper '__str__' of exceptions.NameError object>"
p28
sS'__format__'
p29
S'<built-in method __format__ of exceptions.NameError object>'
p30
sS'__getattribute__'
p31
S"<method-wrapper '__getattribute__' of exceptions.NameError object>"
p32
sS'__class__'
p33
S"<type 'exceptions.NameError'>"
p34
sS'__unicode__'
p35
S'<built-in method __unicode__ of exceptions.NameError object>'
p36
sS'__delattr__'
p37
S"<method-wrapper '__delattr__' of exceptions.NameError object>"
p38
sS'__subclasshook__'
p39
S'<built-in method __subclasshook__ of type object>'
p40
sS'__repr__'
p41
S"<method-wrapper '__repr__' of exceptions.NameError object>"
p42
sS'__dict__'
p43
S'{}'
p44
sS'__sizeof__'
p45
S'<built-in method __sizeof__ of exceptions.NameError object>'
p46
sS'__doc__'
p47
S"'Name not found globally.'"
p48
sS'__init__'
p49
S"<method-wrapper '__init__' of exceptions.NameError object>"
p50
sS'__new__'
p51
S'<built-in method __new__ of type object>'
p52
ssS'evalue'
p53
S"name 'auth' is not defined"
p54
sS'request'
p55
ccopy_reg
_reconstructor
p56
(cgluon.html
BEAUTIFY
p57
c__builtin__
object
p58
NtRp59
(dp60
S'attributes'
p61
(dp62
sS'components'
p63
(lp64
g56
(cgluon.html
TABLE
p65
g58
NtRp66
(dp67
g61
(dp68
S'level'
p69
I5
ssS'parent'
p70
Nsg63
(lp71
g56
(cgluon.html
TR
p72
g58
NtRp73
(dp74
g61
(dp75
sg70
g66
sg63
(lp76
g56
(cgluon.html
TD
p77
g58
NtRp78
(dp79
g61
(dp80
S'_style'
p81
S'font-weight:bold;'
p82
ssg70
g73
sg63
(lp83
S'ajax'
p84
asbag56
(g77
g58
NtRp85
(dp86
g61
(dp87
S'_valign'
p88
S'top'
p89
ssg70
g73
sg63
(lp90
S':'
asbag56
(g77
g58
NtRp91
(dp92
g61
(dp93
sg70
g73
sg63
(lp94
g56
(g57
g58
NtRp95
(dp96
g61
(dp97
g69
I5
ssg70
g91
sg63
(lp98
S'False'
p99
asbasbasbag56
(g72
g58
NtRp100
(dp101
g61
(dp102
sg70
g66
sg63
(lp103
g56
(g77
g58
NtRp104
(dp105
g61
(dp106
g81
g82
ssg70
g100
sg63
(lp107
S'application'
p108
asbag56
(g77
g58
NtRp109
(dp110
g61
(dp111
g88
g89
ssg70
g100
sg63
(lp112
S':'
asbag56
(g77
g58
NtRp113
(dp114
g61
(dp115
sg70
g100
sg63
(lp116
g56
(g57
g58
NtRp117
(dp118
g61
(dp119
g69
I5
ssg70
g113
sg63
(lp120
S'wp'
p121
asbasbasbag56
(g72
g58
NtRp122
(dp123
g61
(dp124
sg70
g66
sg63
(lp125
g56
(g77
g58
NtRp126
(dp127
g61
(dp128
g81
g82
ssg70
g122
sg63
(lp129
g23
asbag56
(g77
g58
NtRp130
(dp131
g61
(dp132
g88
g89
ssg70
g122
sg63
(lp133
S':'
asbag56
(g77
g58
NtRp134
(dp135
g61
(dp136
sg70
g122
sg63
(lp137
g56
(g57
g58
NtRp138
(dp139
g61
(dp140
g69
I5
ssg70
g134
sg63
(lp141
g56
(g65
g58
NtRp142
(dp143
g61
(dp144
g69
I4
ssg70
Nsg63
(lp145
sbasbasbasbag56
(g72
g58
NtRp146
(dp147
g61
(dp148
sg70
g66
sg63
(lp149
g56
(g77
g58
NtRp150
(dp151
g61
(dp152
g81
g82
ssg70
g146
sg63
(lp153
S'body'
p154
asbag56
(g77
g58
NtRp155
(dp156
g61
(dp157
g88
g89
ssg70
g146
sg63
(lp158
S':'
asbag56
(g77
g58
NtRp159
(dp160
g61
(dp161
sg70
g146
sg63
(lp162
g56
(g57
g58
NtRp163
(dp164
g61
(dp165
g69
I5
ssg70
g159
sg63
(lp166
S'<cStringIO.StringO object at 0x107c13ae8>'
p167
asbasbasbag56
(g72
g58
NtRp168
(dp169
g61
(dp170
sg70
g66
sg63
(lp171
g56
(g77
g58
NtRp172
(dp173
g61
(dp174
g81
g82
ssg70
g168
sg63
(lp175
S'client'
p176
asbag56
(g77
g58
NtRp177
(dp178
g61
(dp179
g88
g89
ssg70
g168
sg63
(lp180
S':'
asbag56
(g77
g58
NtRp181
(dp182
g61
(dp183
sg70
g168
sg63
(lp184
g56
(g57
g58
NtRp185
(dp186
g61
(dp187
g69
I5
ssg70
g181
sg63
(lp188
S'127.0.0.1'
p189
asbasbasbag56
(g72
g58
NtRp190
(dp191
g61
(dp192
sg70
g66
sg63
(lp193
g56
(g77
g58
NtRp194
(dp195
g61
(dp196
g81
g82
ssg70
g190
sg63
(lp197
S'controller'
p198
asbag56
(g77
g58
NtRp199
(dp200
g61
(dp201
g88
g89
ssg70
g190
sg63
(lp202
S':'
asbag56
(g77
g58
NtRp203
(dp204
g61
(dp205
sg70
g190
sg63
(lp206
g56
(g57
g58
NtRp207
(dp208
g61
(dp209
g69
I5
ssg70
g203
sg63
(lp210
S'default'
p211
asbasbasbag56
(g72
g58
NtRp212
(dp213
g61
(dp214
sg70
g66
sg63
(lp215
g56
(g77
g58
NtRp216
(dp217
g61
(dp218
g81
g82
ssg70
g212
sg63
(lp219
S'cookies'
p220
asbag56
(g77
g58
NtRp221
(dp222
g61
(dp223
g88
g89
ssg70
g212
sg63
(lp224
S':'
asbag56
(g77
g58
NtRp225
(dp226
g61
(dp227
sg70
g212
sg63
(lp228
g56
(g57
g58
NtRp229
(dp230
g61
(dp231
g69
I5
ssg70
g225
sg63
(lp232
g56
(g65
g58
NtRp233
(dp234
g61
(dp235
g69
I4
ssg70
Nsg63
(lp236
g56
(g72
g58
NtRp237
(dp238
g61
(dp239
sg70
g233
sg63
(lp240
g56
(g77
g58
NtRp241
(dp242
g61
(dp243
g81
g82
ssg70
g237
sg63
(lp244
S'session_id_admin'
p245
asbag56
(g77
g58
NtRp246
(dp247
g61
(dp248
g88
g89
ssg70
g237
sg63
(lp249
S':'
asbag56
(g77
g58
NtRp250
(dp251
g61
(dp252
sg70
g237
sg63
(lp253
g56
(g57
g58
NtRp254
(dp255
g61
(dp256
g69
I4
ssg70
g250
sg63
(lp257
g56
(g65
g58
NtRp258
(dp259
g61
(dp260
g69
I3
ssg70
Nsg63
(lp261
g56
(g72
g58
NtRp262
(dp263
g61
(dp264
sg70
g258
sg63
(lp265
g56
(g77
g58
NtRp266
(dp267
g61
(dp268
g81
g82
ssg70
g262
sg63
(lp269
S'comment'
p270
asbag56
(g77
g58
NtRp271
(dp272
g61
(dp273
g88
g89
ssg70
g262
sg63
(lp274
S':'
asbag56
(g77
g58
NtRp275
(dp276
g61
(dp277
sg70
g262
sg63
(lp278
g56
(g57
g58
NtRp279
(dp280
g61
(dp281
g69
I3
ssg70
g275
sg63
(lp282
S''
asbasbasbag56
(g72
g58
NtRp283
(dp284
g61
(dp285
sg70
g258
sg63
(lp286
g56
(g77
g58
NtRp287
(dp288
g61
(dp289
g81
g82
ssg70
g283
sg63
(lp290
S'domain'
p291
asbag56
(g77
g58
NtRp292
(dp293
g61
(dp294
g88
g89
ssg70
g283
sg63
(lp295
S':'
asbag56
(g77
g58
NtRp296
(dp297
g61
(dp298
sg70
g283
sg63
(lp299
g56
(g57
g58
NtRp300
(dp301
g61
(dp302
g69
I3
ssg70
g296
sg63
(lp303
S''
asbasbasbag56
(g72
g58
NtRp304
(dp305
g61
(dp306
sg70
g258
sg63
(lp307
g56
(g77
g58
NtRp308
(dp309
g61
(dp310
g81
g82
ssg70
g304
sg63
(lp311
S'expires'
p312
asbag56
(g77
g58
NtRp313
(dp314
g61
(dp315
g88
g89
ssg70
g304
sg63
(lp316
S':'
asbag56
(g77
g58
NtRp317
(dp318
g61
(dp319
sg70
g304
sg63
(lp320
g56
(g57
g58
NtRp321
(dp322
g61
(dp323
g69
I3
ssg70
g317
sg63
(lp324
S''
asbasbasbag56
(g72
g58
NtRp325
(dp326
g61
(dp327
sg70
g258
sg63
(lp328
g56
(g77
g58
NtRp329
(dp330
g61
(dp331
g81
g82
ssg70
g325
sg63
(lp332
S'httponly'
p333
asbag56
(g77
g58
NtRp334
(dp335
g61
(dp336
g88
g89
ssg70
g325
sg63
(lp337
S':'
asbag56
(g77
g58
NtRp338
(dp339
g61
(dp340
sg70
g325
sg63
(lp341
g56
(g57
g58
NtRp342
(dp343
g61
(dp344
g69
I3
ssg70
g338
sg63
(lp345
S''
asbasbasbag56
(g72
g58
NtRp346
(dp347
g61
(dp348
sg70
g258
sg63
(lp349
g56
(g77
g58
NtRp350
(dp351
g61
(dp352
g81
g82
ssg70
g346
sg63
(lp353
S'max-age'
p354
asbag56
(g77
g58
NtRp355
(dp356
g61
(dp357
g88
g89
ssg70
g346
sg63
(lp358
S':'
asbag56
(g77
g58
NtRp359
(dp360
g61
(dp361
sg70
g346
sg63
(lp362
g56
(g57
g58
NtRp363
(dp364
g61
(dp365
g69
I3
ssg70
g359
sg63
(lp366
S''
asbasbasbag56
(g72
g58
NtRp367
(dp368
g61
(dp369
sg70
g258
sg63
(lp370
g56
(g77
g58
NtRp371
(dp372
g61
(dp373
g81
g82
ssg70
g367
sg63
(lp374
S'path'
p375
asbag56
(g77
g58
NtRp376
(dp377
g61
(dp378
g88
g89
ssg70
g367
sg63
(lp379
S':'
asbag56
(g77
g58
NtRp380
(dp381
g61
(dp382
sg70
g367
sg63
(lp383
g56
(g57
g58
NtRp384
(dp385
g61
(dp386
g69
I3
ssg70
g380
sg63
(lp387
S''
asbasbasbag56
(g72
g58
NtRp388
(dp389
g61
(dp390
sg70
g258
sg63
(lp391
g56
(g77
g58
NtRp392
(dp393
g61
(dp394
g81
g82
ssg70
g388
sg63
(lp395
S'secure'
p396
asbag56
(g77
g58
NtRp397
(dp398
g61
(dp399
g88
g89
ssg70
g388
sg63
(lp400
S':'
asbag56
(g77
g58
NtRp401
(dp402
g61
(dp403
sg70
g388
sg63
(lp404
g56
(g57
g58
NtRp405
(dp406
g61
(dp407
g69
I3
ssg70
g401
sg63
(lp408
S''
asbasbasbag56
(g72
g58
NtRp409
(dp410
g61
(dp411
sg70
g258
sg63
(lp412
g56
(g77
g58
NtRp413
(dp414
g61
(dp415
g81
g82
ssg70
g409
sg63
(lp416
S'version'
p417
asbag56
(g77
g58
NtRp418
(dp419
g61
(dp420
g88
g89
ssg70
g409
sg63
(lp421
S':'
asbag56
(g77
g58
NtRp422
(dp423
g61
(dp424
sg70
g409
sg63
(lp425
g56
(g57
g58
NtRp426
(dp427
g61
(dp428
g69
I3
ssg70
g422
sg63
(lp429
S''
asbasbasbasbasbasbasbag56
(g72
g58
NtRp430
(dp431
g61
(dp432
sg70
g233
sg63
(lp433
g56
(g77
g58
NtRp434
(dp435
g61
(dp436
g81
g82
ssg70
g430
sg63
(lp437
S'session_id_imgblog'
p438
asbag56
(g77
g58
NtRp439
(dp440
g61
(dp441
g88
g89
ssg70
g430
sg63
(lp442
S':'
asbag56
(g77
g58
NtRp443
(dp444
g61
(dp445
sg70
g430
sg63
(lp446
g56
(g57
g58
NtRp447
(dp448
g61
(dp449
g69
I4
ssg70
g443
sg63
(lp450
g56
(g65
g58
NtRp451
(dp452
g61
(dp453
g69
I3
ssg70
Nsg63
(lp454
g56
(g72
g58
NtRp455
(dp456
g61
(dp457
sg70
g451
sg63
(lp458
g56
(g77
g58
NtRp459
(dp460
g61
(dp461
g81
g82
ssg70
g455
sg63
(lp462
g270
asbag56
(g77
g58
NtRp463
(dp464
g61
(dp465
g88
g89
ssg70
g455
sg63
(lp466
S':'
asbag56
(g77
g58
NtRp467
(dp468
g61
(dp469
sg70
g455
sg63
(lp470
g56
(g57
g58
NtRp471
(dp472
g61
(dp473
g69
I3
ssg70
g467
sg63
(lp474
S''
asbasbasbag56
(g72
g58
NtRp475
(dp476
g61
(dp477
sg70
g451
sg63
(lp478
g56
(g77
g58
NtRp479
(dp480
g61
(dp481
g81
g82
ssg70
g475
sg63
(lp482
g291
asbag56
(g77
g58
NtRp483
(dp484
g61
(dp485
g88
g89
ssg70
g475
sg63
(lp486
S':'
asbag56
(g77
g58
NtRp487
(dp488
g61
(dp489
sg70
g475
sg63
(lp490
g56
(g57
g58
NtRp491
(dp492
g61
(dp493
g69
I3
ssg70
g487
sg63
(lp494
S''
asbasbasbag56
(g72
g58
NtRp495
(dp496
g61
(dp497
sg70
g451
sg63
(lp498
g56
(g77
g58
NtRp499
(dp500
g61
(dp501
g81
g82
ssg70
g495
sg63
(lp502
g312
asbag56
(g77
g58
NtRp503
(dp504
g61
(dp505
g88
g89
ssg70
g495
sg63
(lp506
S':'
asbag56
(g77
g58
NtRp507
(dp508
g61
(dp509
sg70
g495
sg63
(lp510
g56
(g57
g58
NtRp511
(dp512
g61
(dp513
g69
I3
ssg70
g507
sg63
(lp514
S''
asbasbasbag56
(g72
g58
NtRp515
(dp516
g61
(dp517
sg70
g451
sg63
(lp518
g56
(g77
g58
NtRp519
(dp520
g61
(dp521
g81
g82
ssg70
g515
sg63
(lp522
g333
asbag56
(g77
g58
NtRp523
(dp524
g61
(dp525
g88
g89
ssg70
g515
sg63
(lp526
S':'
asbag56
(g77
g58
NtRp527
(dp528
g61
(dp529
sg70
g515
sg63
(lp530
g56
(g57
g58
NtRp531
(dp532
g61
(dp533
g69
I3
ssg70
g527
sg63
(lp534
S''
asbasbasbag56
(g72
g58
NtRp535
(dp536
g61
(dp537
sg70
g451
sg63
(lp538
g56
(g77
g58
NtRp539
(dp540
g61
(dp541
g81
g82
ssg70
g535
sg63
(lp542
g354
asbag56
(g77
g58
NtRp543
(dp544
g61
(dp545
g88
g89
ssg70
g535
sg63
(lp546
S':'
asbag56
(g77
g58
NtRp547
(dp548
g61
(dp549
sg70
g535
sg63
(lp550
g56
(g57
g58
NtRp551
(dp552
g61
(dp553
g69
I3
ssg70
g547
sg63
(lp554
S''
asbasbasbag56
(g72
g58
NtRp555
(dp556
g61
(dp557
sg70
g451
sg63
(lp558
g56
(g77
g58
NtRp559
(dp560
g61
(dp561
g81
g82
ssg70
g555
sg63
(lp562
g375
asbag56
(g77
g58
NtRp563
(dp564
g61
(dp565
g88
g89
ssg70
g555
sg63
(lp566
S':'
asbag56
(g77
g58
NtRp567
(dp568
g61
(dp569
sg70
g555
sg63
(lp570
g56
(g57
g58
NtRp571
(dp572
g61
(dp573
g69
I3
ssg70
g567
sg63
(lp574
S''
asbasbasbag56
(g72
g58
NtRp575
(dp576
g61
(dp577
sg70
g451
sg63
(lp578
g56
(g77
g58
NtRp579
(dp580
g61
(dp581
g81
g82
ssg70
g575
sg63
(lp582
g396
asbag56
(g77
g58
NtRp583
(dp584
g61
(dp585
g88
g89
ssg70
g575
sg63
(lp586
S':'
asbag56
(g77
g58
NtRp587
(dp588
g61
(dp589
sg70
g575
sg63
(lp590
g56
(g57
g58
NtRp591
(dp592
g61
(dp593
g69
I3
ssg70
g587
sg63
(lp594
S''
asbasbasbag56
(g72
g58
NtRp595
(dp596
g61
(dp597
sg70
g451
sg63
(lp598
g56
(g77
g58
NtRp599
(dp600
g61
(dp601
g81
g82
ssg70
g595
sg63
(lp602
g417
asbag56
(g77
g58
NtRp603
(dp604
g61
(dp605
g88
g89
ssg70
g595
sg63
(lp606
S':'
asbag56
(g77
g58
NtRp607
(dp608
g61
(dp609
sg70
g595
sg63
(lp610
g56
(g57
g58
NtRp611
(dp612
g61
(dp613
g69
I3
ssg70
g607
sg63
(lp614
S''
asbasbasbasbasbasbasbag56
(g72
g58
NtRp615
(dp616
g61
(dp617
sg70
g233
sg63
(lp618
g56
(g77
g58
NtRp619
(dp620
g61
(dp621
g81
g82
ssg70
g615
sg63
(lp622
S'session_id_welcome'
p623
asbag56
(g77
g58
NtRp624
(dp625
g61
(dp626
g88
g89
ssg70
g615
sg63
(lp627
S':'
asbag56
(g77
g58
NtRp628
(dp629
g61
(dp630
sg70
g615
sg63
(lp631
g56
(g57
g58
NtRp632
(dp633
g61
(dp634
g69
I4
ssg70
g628
sg63
(lp635
g56
(g65
g58
NtRp636
(dp637
g61
(dp638
g69
I3
ssg70
Nsg63
(lp639
g56
(g72
g58
NtRp640
(dp641
g61
(dp642
sg70
g636
sg63
(lp643
g56
(g77
g58
NtRp644
(dp645
g61
(dp646
g81
g82
ssg70
g640
sg63
(lp647
g270
asbag56
(g77
g58
NtRp648
(dp649
g61
(dp650
g88
g89
ssg70
g640
sg63
(lp651
S':'
asbag56
(g77
g58
NtRp652
(dp653
g61
(dp654
sg70
g640
sg63
(lp655
g56
(g57
g58
NtRp656
(dp657
g61
(dp658
g69
I3
ssg70
g652
sg63
(lp659
S''
asbasbasbag56
(g72
g58
NtRp660
(dp661
g61
(dp662
sg70
g636
sg63
(lp663
g56
(g77
g58
NtRp664
(dp665
g61
(dp666
g81
g82
ssg70
g660
sg63
(lp667
g291
asbag56
(g77
g58
NtRp668
(dp669
g61
(dp670
g88
g89
ssg70
g660
sg63
(lp671
S':'
asbag56
(g77
g58
NtRp672
(dp673
g61
(dp674
sg70
g660
sg63
(lp675
g56
(g57
g58
NtRp676
(dp677
g61
(dp678
g69
I3
ssg70
g672
sg63
(lp679
S''
asbasbasbag56
(g72
g58
NtRp680
(dp681
g61
(dp682
sg70
g636
sg63
(lp683
g56
(g77
g58
NtRp684
(dp685
g61
(dp686
g81
g82
ssg70
g680
sg63
(lp687
g312
asbag56
(g77
g58
NtRp688
(dp689
g61
(dp690
g88
g89
ssg70
g680
sg63
(lp691
S':'
asbag56
(g77
g58
NtRp692
(dp693
g61
(dp694
sg70
g680
sg63
(lp695
g56
(g57
g58
NtRp696
(dp697
g61
(dp698
g69
I3
ssg70
g692
sg63
(lp699
S''
asbasbasbag56
(g72
g58
NtRp700
(dp701
g61
(dp702
sg70
g636
sg63
(lp703
g56
(g77
g58
NtRp704
(dp705
g61
(dp706
g81
g82
ssg70
g700
sg63
(lp707
g333
asbag56
(g77
g58
NtRp708
(dp709
g61
(dp710
g88
g89
ssg70
g700
sg63
(lp711
S':'
asbag56
(g77
g58
NtRp712
(dp713
g61
(dp714
sg70
g700
sg63
(lp715
g56
(g57
g58
NtRp716
(dp717
g61
(dp718
g69
I3
ssg70
g712
sg63
(lp719
S''
asbasbasbag56
(g72
g58
NtRp720
(dp721
g61
(dp722
sg70
g636
sg63
(lp723
g56
(g77
g58
NtRp724
(dp725
g61
(dp726
g81
g82
ssg70
g720
sg63
(lp727
g354
asbag56
(g77
g58
NtRp728
(dp729
g61
(dp730
g88
g89
ssg70
g720
sg63
(lp731
S':'
asbag56
(g77
g58
NtRp732
(dp733
g61
(dp734
sg70
g720
sg63
(lp735
g56
(g57
g58
NtRp736
(dp737
g61
(dp738
g69
I3
ssg70
g732
sg63
(lp739
S''
asbasbasbag56
(g72
g58
NtRp740
(dp741
g61
(dp742
sg70
g636
sg63
(lp743
g56
(g77
g58
NtRp744
(dp745
g61
(dp746
g81
g82
ssg70
g740
sg63
(lp747
g375
asbag56
(g77
g58
NtRp748
(dp749
g61
(dp750
g88
g89
ssg70
g740
sg63
(lp751
S':'
asbag56
(g77
g58
NtRp752
(dp753
g61
(dp754
sg70
g740
sg63
(lp755
g56
(g57
g58
NtRp756
(dp757
g61
(dp758
g69
I3
ssg70
g752
sg63
(lp759
S''
asbasbasbag56
(g72
g58
NtRp760
(dp761
g61
(dp762
sg70
g636
sg63
(lp763
g56
(g77
g58
NtRp764
(dp765
g61
(dp766
g81
g82
ssg70
g760
sg63
(lp767
g396
asbag56
(g77
g58
NtRp768
(dp769
g61
(dp770
g88
g89
ssg70
g760
sg63
(lp771
S':'
asbag56
(g77
g58
NtRp772
(dp773
g61
(dp774
sg70
g760
sg63
(lp775
g56
(g57
g58
NtRp776
(dp777
g61
(dp778
g69
I3
ssg70
g772
sg63
(lp779
S''
asbasbasbag56
(g72
g58
NtRp780
(dp781
g61
(dp782
sg70
g636
sg63
(lp783
g56
(g77
g58
NtRp784
(dp785
g61
(dp786
g81
g82
ssg70
g780
sg63
(lp787
g417
asbag56
(g77
g58
NtRp788
(dp789
g61
(dp790
g88
g89
ssg70
g780
sg63
(lp791
S':'
asbag56
(g77
g58
NtRp792
(dp793
g61
(dp794
sg70
g780
sg63
(lp795
g56
(g57
g58
NtRp796
(dp797
g61
(dp798
g69
I3
ssg70
g792
sg63
(lp799
S''
asbasbasbasbasbasbasbasbasbasbasbag56
(g72
g58
NtRp800
(dp801
g61
(dp802
sg70
g66
sg63
(lp803
g56
(g77
g58
NtRp804
(dp805
g61
(dp806
g81
g82
ssg70
g800
sg63
(lp807
S'env'
p808
asbag56
(g77
g58
NtRp809
(dp810
g61
(dp811
g88
g89
ssg70
g800
sg63
(lp812
S':'
asbag56
(g77
g58
NtRp813
(dp814
g61
(dp815
sg70
g800
sg63
(lp816
g56
(g57
g58
NtRp817
(dp818
g61
(dp819
g69
I5
ssg70
g813
sg63
(lp820
g56
(g65
g58
NtRp821
(dp822
g61
(dp823
g69
I4
ssg70
Nsg63
(lp824
g56
(g72
g58
NtRp825
(dp826
g61
(dp827
sg70
g821
sg63
(lp828
g56
(g77
g58
NtRp829
(dp830
g61
(dp831
g81
g82
ssg70
g825
sg63
(lp832
S'app_folders'
p833
asbag56
(g77
g58
NtRp834
(dp835
g61
(dp836
g88
g89
ssg70
g825
sg63
(lp837
S':'
asbag56
(g77
g58
NtRp838
(dp839
g61
(dp840
sg70
g825
sg63
(lp841
g56
(g57
g58
NtRp842
(dp843
g61
(dp844
g69
I4
ssg70
g838
sg63
(lp845
S"set(['/Users/schultzc/Downloads/web2py/applications/wp/', '/Users/schultzc/Downloads/web2py/applications/admin/', '/Users/schultzc/Downloads/web2py/applications/imgblog/', '/Users/schultzc/Downloads/web2py/applications/welcome/'])"
p846
asbasbasbag56
(g72
g58
NtRp847
(dp848
g61
(dp849
sg70
g821
sg63
(lp850
g56
(g77
g58
NtRp851
(dp852
g61
(dp853
g81
g82
ssg70
g847
sg63
(lp854
S'applications_parent'
p855
asbag56
(g77
g58
NtRp856
(dp857
g61
(dp858
g88
g89
ssg70
g847
sg63
(lp859
S':'
asbag56
(g77
g58
NtRp860
(dp861
g61
(dp862
sg70
g847
sg63
(lp863
g56
(g57
g58
NtRp864
(dp865
g61
(dp866
g69
I4
ssg70
g860
sg63
(lp867
S'/Users/schultzc/Downloads/web2py'
p868
asbasbasbag56
(g72
g58
NtRp869
(dp870
g61
(dp871
sg70
g821
sg63
(lp872
g56
(g77
g58
NtRp873
(dp874
g61
(dp875
g81
g82
ssg70
g869
sg63
(lp876
S'cmd_args'
p877
asbag56
(g77
g58
NtRp878
(dp879
g61
(dp880
g88
g89
ssg70
g869
sg63
(lp881
S':'
asbag56
(g77
g58
NtRp882
(dp883
g61
(dp884
sg70
g869
sg63
(lp885
g56
(g57
g58
NtRp886
(dp887
g61
(dp888
g69
I4
ssg70
g882
sg63
(lp889
g56
(g65
g58
NtRp890
(dp891
g61
(dp892
g69
I3
ssg70
Nsg63
(lp893
sbasbasbasbag56
(g72
g58
NtRp894
(dp895
g61
(dp896
sg70
g821
sg63
(lp897
g56
(g77
g58
NtRp898
(dp899
g61
(dp900
g81
g82
ssg70
g894
sg63
(lp901
S'cmd_options'
p902
asbag56
(g77
g58
NtRp903
(dp904
g61
(dp905
g88
g89
ssg70
g894
sg63
(lp906
S':'
asbag56
(g77
g58
NtRp907
(dp908
g61
(dp909
sg70
g894
sg63
(lp910
g56
(g57
g58
NtRp911
(dp912
g61
(dp913
g69
I4
ssg70
g907
sg63
(lp914
S"<Values at 0x101b35dd0: {'verbose': False, 'ip': '127.0.0.1', 'shutdown_timeout': 5, 'taskbar': False, 'port': 8000, 'maxthreads': None, 'softcron': False, 'server_name': 'Magnus-Specialis.local', 'bpython': False, 'nogui': False, 'nocron': False, 'extcron': False, 'debuglevel': 30, 'test': None, 'folder': '/Users/schultzc/Downloads/web2py', 'config': '', 'import_models': False, 'winservice': '', 'shell': None, 'run': '', 'log_filename': 'httpserver.log', 'args': [''], 'profiler_filename': None, 'ssl_private_key': '', 'password': 'hello', 'request_queue_size': 5, 'ssl_certificate': '', 'cronjob': False, 'plain': False, 'quiet': False, 'interfaces': None, 'minthreads': None, 'timeout': 10, 'numthreads': None, 'nobanner': False, 'pid_filename': 'httpserver.pid'}>"
p915
asbasbasbag56
(g72
g58
NtRp916
(dp917
g61
(dp918
sg70
g821
sg63
(lp919
g56
(g77
g58
NtRp920
(dp921
g61
(dp922
g81
g82
ssg70
g916
sg63
(lp923
S'db_sessions'
p924
asbag56
(g77
g58
NtRp925
(dp926
g61
(dp927
g88
g89
ssg70
g916
sg63
(lp928
S':'
asbag56
(g77
g58
NtRp929
(dp930
g61
(dp931
sg70
g916
sg63
(lp932
g56
(g57
g58
NtRp933
(dp934
g61
(dp935
g69
I4
ssg70
g929
sg63
(lp936
S'set([])'
p937
asbasbasbag56
(g72
g58
NtRp938
(dp939
g61
(dp940
sg70
g821
sg63
(lp941
g56
(g77
g58
NtRp942
(dp943
g61
(dp944
g81
g82
ssg70
g938
sg63
(lp945
S'debugging'
p946
asbag56
(g77
g58
NtRp947
(dp948
g61
(dp949
g88
g89
ssg70
g938
sg63
(lp950
S':'
asbag56
(g77
g58
NtRp951
(dp952
g61
(dp953
sg70
g938
sg63
(lp954
g56
(g57
g58
NtRp955
(dp956
g61
(dp957
g69
I4
ssg70
g951
sg63
(lp958
g99
asbasbasbag56
(g72
g58
NtRp959
(dp960
g61
(dp961
sg70
g821
sg63
(lp962
g56
(g77
g58
NtRp963
(dp964
g61
(dp965
g81
g82
ssg70
g959
sg63
(lp966
S'gluon_parent'
p967
asbag56
(g77
g58
NtRp968
(dp969
g61
(dp970
g88
g89
ssg70
g959
sg63
(lp971
S':'
asbag56
(g77
g58
NtRp972
(dp973
g61
(dp974
sg70
g959
sg63
(lp975
g56
(g57
g58
NtRp976
(dp977
g61
(dp978
g69
I4
ssg70
g972
sg63
(lp979
S'/Users/schultzc/Downloads/web2py'
p980
asbasbasbag56
(g72
g58
NtRp981
(dp982
g61
(dp983
sg70
g821
sg63
(lp984
g56
(g77
g58
NtRp985
(dp986
g61
(dp987
g81
g82
ssg70
g981
sg63
(lp988
S'http_accept'
p989
asbag56
(g77
g58
NtRp990
(dp991
g61
(dp992
g88
g89
ssg70
g981
sg63
(lp993
S':'
asbag56
(g77
g58
NtRp994
(dp995
g61
(dp996
sg70
g981
sg63
(lp997
g56
(g57
g58
NtRp998
(dp999
g61
(dp1000
g69
I4
ssg70
g994
sg63
(lp1001
S'text/html,application/xhtml+xml,application/xml;q=0.9,*/*;q=0.8'
p1002
asbasbasbag56
(g72
g58
NtRp1003
(dp1004
g61
(dp1005
sg70
g821
sg63
(lp1006
g56
(g77
g58
NtRp1007
(dp1008
g61
(dp1009
g81
g82
ssg70
g1003
sg63
(lp1010
S'http_accept_charset'
p1011
asbag56
(g77
g58
NtRp1012
(dp1013
g61
(dp1014
g88
g89
ssg70
g1003
sg63
(lp1015
S':'
asbag56
(g77
g58
NtRp1016
(dp1017
g61
(dp1018
sg70
g1003
sg63
(lp1019
g56
(g57
g58
NtRp1020
(dp1021
g61
(dp1022
g69
I4
ssg70
g1016
sg63
(lp1023
S'ISO-8859-1,utf-8;q=0.7,*;q=0.3'
p1024
asbasbasbag56
(g72
g58
NtRp1025
(dp1026
g61
(dp1027
sg70
g821
sg63
(lp1028
g56
(g77
g58
NtRp1029
(dp1030
g61
(dp1031
g81
g82
ssg70
g1025
sg63
(lp1032
S'http_accept_encoding'
p1033
asbag56
(g77
g58
NtRp1034
(dp1035
g61
(dp1036
g88
g89
ssg70
g1025
sg63
(lp1037
S':'
asbag56
(g77
g58
NtRp1038
(dp1039
g61
(dp1040
sg70
g1025
sg63
(lp1041
g56
(g57
g58
NtRp1042
(dp1043
g61
(dp1044
g69
I4
ssg70
g1038
sg63
(lp1045
S'gzip,deflate,sdch'
p1046
asbasbasbag56
(g72
g58
NtRp1047
(dp1048
g61
(dp1049
sg70
g821
sg63
(lp1050
g56
(g77
g58
NtRp1051
(dp1052
g61
(dp1053
g81
g82
ssg70
g1047
sg63
(lp1054
S'http_accept_language'
p1055
asbag56
(g77
g58
NtRp1056
(dp1057
g61
(dp1058
g88
g89
ssg70
g1047
sg63
(lp1059
S':'
asbag56
(g77
g58
NtRp1060
(dp1061
g61
(dp1062
sg70
g1047
sg63
(lp1063
g56
(g57
g58
NtRp1064
(dp1065
g61
(dp1066
g69
I4
ssg70
g1060
sg63
(lp1067
S'en-US,en;q=0.8'
p1068
asbasbasbag56
(g72
g58
NtRp1069
(dp1070
g61
(dp1071
sg70
g821
sg63
(lp1072
g56
(g77
g58
NtRp1073
(dp1074
g61
(dp1075
g81
g82
ssg70
g1069
sg63
(lp1076
S'http_connection'
p1077
asbag56
(g77
g58
NtRp1078
(dp1079
g61
(dp1080
g88
g89
ssg70
g1069
sg63
(lp1081
S':'
asbag56
(g77
g58
NtRp1082
(dp1083
g61
(dp1084
sg70
g1069
sg63
(lp1085
g56
(g57
g58
NtRp1086
(dp1087
g61
(dp1088
g69
I4
ssg70
g1082
sg63
(lp1089
S'keep-alive'
p1090
asbasbasbag56
(g72
g58
NtRp1091
(dp1092
g61
(dp1093
sg70
g821
sg63
(lp1094
g56
(g77
g58
NtRp1095
(dp1096
g61
(dp1097
g81
g82
ssg70
g1091
sg63
(lp1098
S'http_cookie'
p1099
asbag56
(g77
g58
NtRp1100
(dp1101
g61
(dp1102
g88
g89
ssg70
g1091
sg63
(lp1103
S':'
asbag56
(g77
g58
NtRp1104
(dp1105
g61
(dp1106
sg70
g1091
sg63
(lp1107
g56
(g57
g58
NtRp1108
(dp1109
g61
(dp1110
g69
I4
ssg70
g1104
sg63
(lp1111
S'session_id_welcome=127.0.0.1-b1f4fbb8-94ab-46c8-8d5b-f7cc0b0aa5e5; session_id_imgblog=127.0.0.1-e3a94cbc-0a17-4272-95c2-3597f5a4563b; session_id_admin=127.0.0.1-78d167a8-f1a0-47c7-a548-4e1c1a288c87'
p1112
asbasbasbag56
(g72
g58
NtRp1113
(dp1114
g61
(dp1115
sg70
g821
sg63
(lp1116
g56
(g77
g58
NtRp1117
(dp1118
g61
(dp1119
g81
g82
ssg70
g1113
sg63
(lp1120
S'http_host'
p1121
asbag56
(g77
g58
NtRp1122
(dp1123
g61
(dp1124
g88
g89
ssg70
g1113
sg63
(lp1125
S':'
asbag56
(g77
g58
NtRp1126
(dp1127
g61
(dp1128
sg70
g1113
sg63
(lp1129
g56
(g57
g58
NtRp1130
(dp1131
g61
(dp1132
g69
I4
ssg70
g1126
sg63
(lp1133
S'localhost:8000'
p1134
asbasbasbag56
(g72
g58
NtRp1135
(dp1136
g61
(dp1137
sg70
g821
sg63
(lp1138
g56
(g77
g58
NtRp1139
(dp1140
g61
(dp1141
g81
g82
ssg70
g1135
sg63
(lp1142
S'http_user_agent'
p1143
asbag56
(g77
g58
NtRp1144
(dp1145
g61
(dp1146
g88
g89
ssg70
g1135
sg63
(lp1147
S':'
asbag56
(g77
g58
NtRp1148
(dp1149
g61
(dp1150
sg70
g1135
sg63
(lp1151
g56
(g57
g58
NtRp1152
(dp1153
g61
(dp1154
g69
I4
ssg70
g1148
sg63
(lp1155
S'Mozilla/5.0 (Macintosh; Intel Mac OS X 10_6_8) AppleWebKit/534.30 (KHTML, like Gecko) Chrome/12.0.742.112 Safari/534.30'
p1156
asbasbasbag56
(g72
g58
NtRp1157
(dp1158
g61
(dp1159
sg70
g821
sg63
(lp1160
g56
(g77
g58
NtRp1161
(dp1162
g61
(dp1163
g81
g82
ssg70
g1157
sg63
(lp1164
S'path_info'
p1165
asbag56
(g77
g58
NtRp1166
(dp1167
g61
(dp1168
g88
g89
ssg70
g1157
sg63
(lp1169
S':'
asbag56
(g77
g58
NtRp1170
(dp1171
g61
(dp1172
sg70
g1157
sg63
(lp1173
g56
(g57
g58
NtRp1174
(dp1175
g61
(dp1176
g69
I4
ssg70
g1170
sg63
(lp1177
S'/wp/default/submit'
p1178
asbasbasbag56
(g72
g58
NtRp1179
(dp1180
g61
(dp1181
sg70
g821
sg63
(lp1182
g56
(g77
g58
NtRp1183
(dp1184
g61
(dp1185
g81
g82
ssg70
g1179
sg63
(lp1186
S'query_string'
p1187
asbag56
(g77
g58
NtRp1188
(dp1189
g61
(dp1190
g88
g89
ssg70
g1179
sg63
(lp1191
S':'
asbag56
(g77
g58
NtRp1192
(dp1193
g61
(dp1194
sg70
g1179
sg63
(lp1195
g56
(g57
g58
NtRp1196
(dp1197
g61
(dp1198
g69
I4
ssg70
g1192
sg63
(lp1199
S''
asbasbasbag56
(g72
g58
NtRp1200
(dp1201
g61
(dp1202
sg70
g821
sg63
(lp1203
g56
(g77
g58
NtRp1204
(dp1205
g61
(dp1206
g81
g82
ssg70
g1200
sg63
(lp1207
S'remote_addr'
p1208
asbag56
(g77
g58
NtRp1209
(dp1210
g61
(dp1211
g88
g89
ssg70
g1200
sg63
(lp1212
S':'
asbag56
(g77
g58
NtRp1213
(dp1214
g61
(dp1215
sg70
g1200
sg63
(lp1216
g56
(g57
g58
NtRp1217
(dp1218
g61
(dp1219
g69
I4
ssg70
g1213
sg63
(lp1220
g189
asbasbasbag56
(g72
g58
NtRp1221
(dp1222
g61
(dp1223
sg70
g821
sg63
(lp1224
g56
(g77
g58
NtRp1225
(dp1226
g61
(dp1227
g81
g82
ssg70
g1221
sg63
(lp1228
S'remote_port'
p1229
asbag56
(g77
g58
NtRp1230
(dp1231
g61
(dp1232
g88
g89
ssg70
g1221
sg63
(lp1233
S':'
asbag56
(g77
g58
NtRp1234
(dp1235
g61
(dp1236
sg70
g1221
sg63
(lp1237
g56
(g57
g58
NtRp1238
(dp1239
g61
(dp1240
g69
I4
ssg70
g1234
sg63
(lp1241
S'62289'
p1242
asbasbasbag56
(g72
g58
NtRp1243
(dp1244
g61
(dp1245
sg70
g821
sg63
(lp1246
g56
(g77
g58
NtRp1247
(dp1248
g61
(dp1249
g81
g82
ssg70
g1243
sg63
(lp1250
S'request_method'
p1251
asbag56
(g77
g58
NtRp1252
(dp1253
g61
(dp1254
g88
g89
ssg70
g1243
sg63
(lp1255
S':'
asbag56
(g77
g58
NtRp1256
(dp1257
g61
(dp1258
sg70
g1243
sg63
(lp1259
g56
(g57
g58
NtRp1260
(dp1261
g61
(dp1262
g69
I4
ssg70
g1256
sg63
(lp1263
S'GET'
p1264
asbasbasbag56
(g72
g58
NtRp1265
(dp1266
g61
(dp1267
sg70
g821
sg63
(lp1268
g56
(g77
g58
NtRp1269
(dp1270
g61
(dp1271
g81
g82
ssg70
g1265
sg63
(lp1272
S'script_name'
p1273
asbag56
(g77
g58
NtRp1274
(dp1275
g61
(dp1276
g88
g89
ssg70
g1265
sg63
(lp1277
S':'
asbag56
(g77
g58
NtRp1278
(dp1279
g61
(dp1280
sg70
g1265
sg63
(lp1281
g56
(g57
g58
NtRp1282
(dp1283
g61
(dp1284
g69
I4
ssg70
g1278
sg63
(lp1285
S''
asbasbasbag56
(g72
g58
NtRp1286
(dp1287
g61
(dp1288
sg70
g821
sg63
(lp1289
g56
(g77
g58
NtRp1290
(dp1291
g61
(dp1292
g81
g82
ssg70
g1286
sg63
(lp1293
S'server_name'
p1294
asbag56
(g77
g58
NtRp1295
(dp1296
g61
(dp1297
g88
g89
ssg70
g1286
sg63
(lp1298
S':'
asbag56
(g77
g58
NtRp1299
(dp1300
g61
(dp1301
sg70
g1286
sg63
(lp1302
g56
(g57
g58
NtRp1303
(dp1304
g61
(dp1305
g69
I4
ssg70
g1299
sg63
(lp1306
S'Magnus-Specialis.local'
p1307
asbasbasbag56
(g72
g58
NtRp1308
(dp1309
g61
(dp1310
sg70
g821
sg63
(lp1311
g56
(g77
g58
NtRp1312
(dp1313
g61
(dp1314
g81
g82
ssg70
g1308
sg63
(lp1315
S'server_port'
p1316
asbag56
(g77
g58
NtRp1317
(dp1318
g61
(dp1319
g88
g89
ssg70
g1308
sg63
(lp1320
S':'
asbag56
(g77
g58
NtRp1321
(dp1322
g61
(dp1323
sg70
g1308
sg63
(lp1324
g56
(g57
g58
NtRp1325
(dp1326
g61
(dp1327
g69
I4
ssg70
g1321
sg63
(lp1328
S'8000'
p1329
asbasbasbag56
(g72
g58
NtRp1330
(dp1331
g61
(dp1332
sg70
g821
sg63
(lp1333
g56
(g77
g58
NtRp1334
(dp1335
g61
(dp1336
g81
g82
ssg70
g1330
sg63
(lp1337
S'server_protocol'
p1338
asbag56
(g77
g58
NtRp1339
(dp1340
g61
(dp1341
g88
g89
ssg70
g1330
sg63
(lp1342
S':'
asbag56
(g77
g58
NtRp1343
(dp1344
g61
(dp1345
sg70
g1330
sg63
(lp1346
g56
(g57
g58
NtRp1347
(dp1348
g61
(dp1349
g69
I4
ssg70
g1343
sg63
(lp1350
S'HTTP/1.1'
p1351
asbasbasbag56
(g72
g58
NtRp1352
(dp1353
g61
(dp1354
sg70
g821
sg63
(lp1355
g56
(g77
g58
NtRp1356
(dp1357
g61
(dp1358
g81
g82
ssg70
g1352
sg63
(lp1359
S'server_software'
p1360
asbag56
(g77
g58
NtRp1361
(dp1362
g61
(dp1363
g88
g89
ssg70
g1352
sg63
(lp1364
S':'
asbag56
(g77
g58
NtRp1365
(dp1366
g61
(dp1367
sg70
g1352
sg63
(lp1368
g56
(g57
g58
NtRp1369
(dp1370
g61
(dp1371
g69
I4
ssg70
g1365
sg63
(lp1372
S'Rocket 1.2.2'
p1373
asbasbasbag56
(g72
g58
NtRp1374
(dp1375
g61
(dp1376
sg70
g821
sg63
(lp1377
g56
(g77
g58
NtRp1378
(dp1379
g61
(dp1380
g81
g82
ssg70
g1374
sg63
(lp1381
S'web2py_crontype'
p1382
asbag56
(g77
g58
NtRp1383
(dp1384
g61
(dp1385
g88
g89
ssg70
g1374
sg63
(lp1386
S':'
asbag56
(g77
g58
NtRp1387
(dp1388
g61
(dp1389
sg70
g1374
sg63
(lp1390
g56
(g57
g58
NtRp1391
(dp1392
g61
(dp1393
g69
I4
ssg70
g1387
sg63
(lp1394
S'hard'
p1395
asbasbasbag56
(g72
g58
NtRp1396
(dp1397
g61
(dp1398
sg70
g821
sg63
(lp1399
g56
(g77
g58
NtRp1400
(dp1401
g61
(dp1402
g81
g82
ssg70
g1396
sg63
(lp1403
S'web2py_path'
p1404
asbag56
(g77
g58
NtRp1405
(dp1406
g61
(dp1407
g88
g89
ssg70
g1396
sg63
(lp1408
S':'
asbag56
(g77
g58
NtRp1409
(dp1410
g61
(dp1411
sg70
g1396
sg63
(lp1412
g56
(g57
g58
NtRp1413
(dp1414
g61
(dp1415
g69
I4
ssg70
g1409
sg63
(lp1416
g868
asbasbasbag56
(g72
g58
NtRp1417
(dp1418
g61
(dp1419
sg70
g821
sg63
(lp1420
g56
(g77
g58
NtRp1421
(dp1422
g61
(dp1423
g81
g82
ssg70
g1417
sg63
(lp1424
S'web2py_version'
p1425
asbag56
(g77
g58
NtRp1426
(dp1427
g61
(dp1428
g88
g89
ssg70
g1417
sg63
(lp1429
S':'
asbag56
(g77
g58
NtRp1430
(dp1431
g61
(dp1432
sg70
g1417
sg63
(lp1433
g56
(g57
g58
NtRp1434
(dp1435
g61
(dp1436
g69
I4
ssg70
g1430
sg63
(lp1437
S'Version 1.97.1 (2011-06-26 19:25:44)\n'
p1438
asbasbasbag56
(g72
g58
NtRp1439
(dp1440
g61
(dp1441
sg70
g821
sg63
(lp1442
g56
(g77
g58
NtRp1443
(dp1444
g61
(dp1445
g81
g82
ssg70
g1439
sg63
(lp1446
S'wsgi_errors'
p1447
asbag56
(g77
g58
NtRp1448
(dp1449
g61
(dp1450
g88
g89
ssg70
g1439
sg63
(lp1451
S':'
asbag56
(g77
g58
NtRp1452
(dp1453
g61
(dp1454
sg70
g1439
sg63
(lp1455
g56
(g57
g58
NtRp1456
(dp1457
g61
(dp1458
g69
I4
ssg70
g1452
sg63
(lp1459
S"<open file '<stderr>', mode 'w' at 0x100283270>"
p1460
asbasbasbag56
(g72
g58
NtRp1461
(dp1462
g61
(dp1463
sg70
g821
sg63
(lp1464
g56
(g77
g58
NtRp1465
(dp1466
g61
(dp1467
g81
g82
ssg70
g1461
sg63
(lp1468
S'wsgi_file_wrapper'
p1469
asbag56
(g77
g58
NtRp1470
(dp1471
g61
(dp1472
g88
g89
ssg70
g1461
sg63
(lp1473
S':'
asbag56
(g77
g58
NtRp1474
(dp1475
g61
(dp1476
sg70
g1461
sg63
(lp1477
g56
(g57
g58
NtRp1478
(dp1479
g61
(dp1480
g69
I4
ssg70
g1474
sg63
(lp1481
S'<class gluon.rocket.FileWrapper at 0x1019a02c0>'
p1482
asbasbasbag56
(g72
g58
NtRp1483
(dp1484
g61
(dp1485
sg70
g821
sg63
(lp1486
g56
(g77
g58
NtRp1487
(dp1488
g61
(dp1489
g81
g82
ssg70
g1483
sg63
(lp1490
S'wsgi_input'
p1491
asbag56
(g77
g58
NtRp1492
(dp1493
g61
(dp1494
g88
g89
ssg70
g1483
sg63
(lp1495
S':'
asbag56
(g77
g58
NtRp1496
(dp1497
g61
(dp1498
sg70
g1483
sg63
(lp1499
g56
(g57
g58
NtRp1500
(dp1501
g61
(dp1502
g69
I4
ssg70
g1496
sg63
(lp1503
S'<socket._fileobject object at 0x107736b50>'
p1504
asbasbasbag56
(g72
g58
NtRp1505
(dp1506
g61
(dp1507
sg70
g821
sg63
(lp1508
g56
(g77
g58
NtRp1509
(dp1510
g61
(dp1511
g81
g82
ssg70
g1505
sg63
(lp1512
S'wsgi_multiprocess'
p1513
asbag56
(g77
g58
NtRp1514
(dp1515
g61
(dp1516
g88
g89
ssg70
g1505
sg63
(lp1517
S':'
asbag56
(g77
g58
NtRp1518
(dp1519
g61
(dp1520
sg70
g1505
sg63
(lp1521
g56
(g57
g58
NtRp1522
(dp1523
g61
(dp1524
g69
I4
ssg70
g1518
sg63
(lp1525
g99
asbasbasbag56
(g72
g58
NtRp1526
(dp1527
g61
(dp1528
sg70
g821
sg63
(lp1529
g56
(g77
g58
NtRp1530
(dp1531
g61
(dp1532
g81
g82
ssg70
g1526
sg63
(lp1533
S'wsgi_multithread'
p1534
asbag56
(g77
g58
NtRp1535
(dp1536
g61
(dp1537
g88
g89
ssg70
g1526
sg63
(lp1538
S':'
asbag56
(g77
g58
NtRp1539
(dp1540
g61
(dp1541
sg70
g1526
sg63
(lp1542
g56
(g57
g58
NtRp1543
(dp1544
g61
(dp1545
g69
I4
ssg70
g1539
sg63
(lp1546
S'True'
p1547
asbasbasbag56
(g72
g58
NtRp1548
(dp1549
g61
(dp1550
sg70
g821
sg63
(lp1551
g56
(g77
g58
NtRp1552
(dp1553
g61
(dp1554
g81
g82
ssg70
g1548
sg63
(lp1555
S'wsgi_run_once'
p1556
asbag56
(g77
g58
NtRp1557
(dp1558
g61
(dp1559
g88
g89
ssg70
g1548
sg63
(lp1560
S':'
asbag56
(g77
g58
NtRp1561
(dp1562
g61
(dp1563
sg70
g1548
sg63
(lp1564
g56
(g57
g58
NtRp1565
(dp1566
g61
(dp1567
g69
I4
ssg70
g1561
sg63
(lp1568
g99
asbasbasbag56
(g72
g58
NtRp1569
(dp1570
g61
(dp1571
sg70
g821
sg63
(lp1572
g56
(g77
g58
NtRp1573
(dp1574
g61
(dp1575
g81
g82
ssg70
g1569
sg63
(lp1576
S'wsgi_url_scheme'
p1577
asbag56
(g77
g58
NtRp1578
(dp1579
g61
(dp1580
g88
g89
ssg70
g1569
sg63
(lp1581
S':'
asbag56
(g77
g58
NtRp1582
(dp1583
g61
(dp1584
sg70
g1569
sg63
(lp1585
g56
(g57
g58
NtRp1586
(dp1587
g61
(dp1588
g69
I4
ssg70
g1582
sg63
(lp1589
S'http'
p1590
asbasbasbag56
(g72
g58
NtRp1591
(dp1592
g61
(dp1593
sg70
g821
sg63
(lp1594
g56
(g77
g58
NtRp1595
(dp1596
g61
(dp1597
g81
g82
ssg70
g1591
sg63
(lp1598
S'wsgi_version'
p1599
asbag56
(g77
g58
NtRp1600
(dp1601
g61
(dp1602
g88
g89
ssg70
g1591
sg63
(lp1603
S':'
asbag56
(g77
g58
NtRp1604
(dp1605
g61
(dp1606
sg70
g1591
sg63
(lp1607
g56
(g57
g58
NtRp1608
(dp1609
g61
(dp1610
g69
I4
ssg70
g1604
sg63
(lp1611
g56
(g65
g58
NtRp1612
(dp1613
g61
(dp1614
g69
I3
ssg70
Nsg63
(lp1615
g56
(g72
g58
NtRp1616
(dp1617
g61
(dp1618
sg70
g1612
sg63
(lp1619
g56
(g77
g58
NtRp1620
(dp1621
g61
(dp1622
sg70
g1616
sg63
(lp1623
g56
(g57
g58
NtRp1624
(dp1625
g61
(dp1626
g69
I3
ssg70
g1620
sg63
(lp1627
S'1'
asbasbasbag56
(g72
g58
NtRp1628
(dp1629
g61
(dp1630
sg70
g1612
sg63
(lp1631
g56
(g77
g58
NtRp1632
(dp1633
g61
(dp1634
sg70
g1628
sg63
(lp1635
g56
(g57
g58
NtRp1636
(dp1637
g61
(dp1638
g69
I3
ssg70
g1632
sg63
(lp1639
S'0'
asbasbasbasbasbasbasbasbasbasbasbag56
(g72
g58
NtRp1640
(dp1641
g61
(dp1642
sg70
g66
sg63
(lp1643
g56
(g77
g58
NtRp1644
(dp1645
g61
(dp1646
g81
g82
ssg70
g1640
sg63
(lp1647
S'extension'
p1648
asbag56
(g77
g58
NtRp1649
(dp1650
g61
(dp1651
g88
g89
ssg70
g1640
sg63
(lp1652
S':'
asbag56
(g77
g58
NtRp1653
(dp1654
g61
(dp1655
sg70
g1640
sg63
(lp1656
g56
(g57
g58
NtRp1657
(dp1658
g61
(dp1659
g69
I5
ssg70
g1653
sg63
(lp1660
S'html'
p1661
asbasbasbag56
(g72
g58
NtRp1662
(dp1663
g61
(dp1664
sg70
g66
sg63
(lp1665
g56
(g77
g58
NtRp1666
(dp1667
g61
(dp1668
g81
g82
ssg70
g1662
sg63
(lp1669
S'folder'
p1670
asbag56
(g77
g58
NtRp1671
(dp1672
g61
(dp1673
g88
g89
ssg70
g1662
sg63
(lp1674
S':'
asbag56
(g77
g58
NtRp1675
(dp1676
g61
(dp1677
sg70
g1662
sg63
(lp1678
g56
(g57
g58
NtRp1679
(dp1680
g61
(dp1681
g69
I5
ssg70
g1675
sg63
(lp1682
S'/Users/schultzc/Downloads/web2py/applications/wp/'
p1683
asbasbasbag56
(g72
g58
NtRp1684
(dp1685
g61
(dp1686
sg70
g66
sg63
(lp1687
g56
(g77
g58
NtRp1688
(dp1689
g61
(dp1690
g81
g82
ssg70
g1684
sg63
(lp1691
S'function'
p1692
asbag56
(g77
g58
NtRp1693
(dp1694
g61
(dp1695
g88
g89
ssg70
g1684
sg63
(lp1696
S':'
asbag56
(g77
g58
NtRp1697
(dp1698
g61
(dp1699
sg70
g1684
sg63
(lp1700
g56
(g57
g58
NtRp1701
(dp1702
g61
(dp1703
g69
I5
ssg70
g1697
sg63
(lp1704
S'submit'
p1705
asbasbasbag56
(g72
g58
NtRp1706
(dp1707
g61
(dp1708
sg70
g66
sg63
(lp1709
g56
(g77
g58
NtRp1710
(dp1711
g61
(dp1712
g81
g82
ssg70
g1706
sg63
(lp1713
S'get_vars'
p1714
asbag56
(g77
g58
NtRp1715
(dp1716
g61
(dp1717
g88
g89
ssg70
g1706
sg63
(lp1718
S':'
asbag56
(g77
g58
NtRp1719
(dp1720
g61
(dp1721
sg70
g1706
sg63
(lp1722
g56
(g57
g58
NtRp1723
(dp1724
g61
(dp1725
g69
I5
ssg70
g1719
sg63
(lp1726
g56
(g65
g58
NtRp1727
(dp1728
g61
(dp1729
g69
I4
ssg70
Nsg63
(lp1730
sbasbasbasbag56
(g72
g58
NtRp1731
(dp1732
g61
(dp1733
sg70
g66
sg63
(lp1734
g56
(g77
g58
NtRp1735
(dp1736
g61
(dp1737
g81
g82
ssg70
g1731
sg63
(lp1738
S'is_https'
p1739
asbag56
(g77
g58
NtRp1740
(dp1741
g61
(dp1742
g88
g89
ssg70
g1731
sg63
(lp1743
S':'
asbag56
(g77
g58
NtRp1744
(dp1745
g61
(dp1746
sg70
g1731
sg63
(lp1747
g56
(g57
g58
NtRp1748
(dp1749
g61
(dp1750
g69
I5
ssg70
g1744
sg63
(lp1751
g99
asbasbasbag56
(g72
g58
NtRp1752
(dp1753
g61
(dp1754
sg70
g66
sg63
(lp1755
g56
(g77
g58
NtRp1756
(dp1757
g61
(dp1758
g81
g82
ssg70
g1752
sg63
(lp1759
S'is_local'
p1760
asbag56
(g77
g58
NtRp1761
(dp1762
g61
(dp1763
g88
g89
ssg70
g1752
sg63
(lp1764
S':'
asbag56
(g77
g58
NtRp1765
(dp1766
g61
(dp1767
sg70
g1752
sg63
(lp1768
g56
(g57
g58
NtRp1769
(dp1770
g61
(dp1771
g69
I5
ssg70
g1765
sg63
(lp1772
g1547
asbasbasbag56
(g72
g58
NtRp1773
(dp1774
g61
(dp1775
sg70
g66
sg63
(lp1776
g56
(g77
g58
NtRp1777
(dp1778
g61
(dp1779
g81
g82
ssg70
g1773
sg63
(lp1780
S'is_restful'
p1781
asbag56
(g77
g58
NtRp1782
(dp1783
g61
(dp1784
g88
g89
ssg70
g1773
sg63
(lp1785
S':'
asbag56
(g77
g58
NtRp1786
(dp1787
g61
(dp1788
sg70
g1773
sg63
(lp1789
g56
(g57
g58
NtRp1790
(dp1791
g61
(dp1792
g69
I5
ssg70
g1786
sg63
(lp1793
g99
asbasbasbag56
(g72
g58
NtRp1794
(dp1795
g61
(dp1796
sg70
g66
sg63
(lp1797
g56
(g77
g58
NtRp1798
(dp1799
g61
(dp1800
g81
g82
ssg70
g1794
sg63
(lp1801
S'now'
p1802
asbag56
(g77
g58
NtRp1803
(dp1804
g61
(dp1805
g88
g89
ssg70
g1794
sg63
(lp1806
S':'
asbag56
(g77
g58
NtRp1807
(dp1808
g61
(dp1809
sg70
g1794
sg63
(lp1810
g56
(g57
g58
NtRp1811
(dp1812
g61
(dp1813
g69
I5
ssg70
g1807
sg63
(lp1814
S'datetime.datetime(2011, 7, 15, 22, 19, 46, 876545)'
p1815
asbasbasbag56
(g72
g58
NtRp1816
(dp1817
g61
(dp1818
sg70
g66
sg63
(lp1819
g56
(g77
g58
NtRp1820
(dp1821
g61
(dp1822
g81
g82
ssg70
g1816
sg63
(lp1823
S'post_vars'
p1824
asbag56
(g77
g58
NtRp1825
(dp1826
g61
(dp1827
g88
g89
ssg70
g1816
sg63
(lp1828
S':'
asbag56
(g77
g58
NtRp1829
(dp1830
g61
(dp1831
sg70
g1816
sg63
(lp1832
g56
(g57
g58
NtRp1833
(dp1834
g61
(dp1835
g69
I5
ssg70
g1829
sg63
(lp1836
g56
(g65
g58
NtRp1837
(dp1838
g61
(dp1839
g69
I4
ssg70
Nsg63
(lp1840
sbasbasbasbag56
(g72
g58
NtRp1841
(dp1842
g61
(dp1843
sg70
g66
sg63
(lp1844
g56
(g77
g58
NtRp1845
(dp1846
g61
(dp1847
g81
g82
ssg70
g1841
sg63
(lp1848
S'url'
p1849
asbag56
(g77
g58
NtRp1850
(dp1851
g61
(dp1852
g88
g89
ssg70
g1841
sg63
(lp1853
S':'
asbag56
(g77
g58
NtRp1854
(dp1855
g61
(dp1856
sg70
g1841
sg63
(lp1857
g56
(g57
g58
NtRp1858
(dp1859
g61
(dp1860
g69
I5
ssg70
g1854
sg63
(lp1861
S'/wp/default/submit'
p1862
asbasbasbag56
(g72
g58
NtRp1863
(dp1864
g61
(dp1865
sg70
g66
sg63
(lp1866
g56
(g77
g58
NtRp1867
(dp1868
g61
(dp1869
g81
g82
ssg70
g1863
sg63
(lp1870
S'uuid'
p1871
asbag56
(g77
g58
NtRp1872
(dp1873
g61
(dp1874
g88
g89
ssg70
g1863
sg63
(lp1875
S':'
asbag56
(g77
g58
NtRp1876
(dp1877
g61
(dp1878
sg70
g1863
sg63
(lp1879
g56
(g57
g58
NtRp1880
(dp1881
g61
(dp1882
g69
I5
ssg70
g1876
sg63
(lp1883
S'wp/127.0.0.1.2011-07-15.22-19-46.3c516156-4c94-4b50-b7c9-c57e92a6ec05'
p1884
asbasbasbag56
(g72
g58
NtRp1885
(dp1886
g61
(dp1887
sg70
g66
sg63
(lp1888
g56
(g77
g58
NtRp1889
(dp1890
g61
(dp1891
g81
g82
ssg70
g1885
sg63
(lp1892
S'vars'
p1893
asbag56
(g77
g58
NtRp1894
(dp1895
g61
(dp1896
g88
g89
ssg70
g1885
sg63
(lp1897
S':'
asbag56
(g77
g58
NtRp1898
(dp1899
g61
(dp1900
sg70
g1885
sg63
(lp1901
g56
(g57
g58
NtRp1902
(dp1903
g61
(dp1904
g69
I5
ssg70
g1898
sg63
(lp1905
g56
(g65
g58
NtRp1906
(dp1907
g61
(dp1908
g69
I4
ssg70
Nsg63
(lp1909
sbasbasbasbag56
(g72
g58
NtRp1910
(dp1911
g61
(dp1912
sg70
g66
sg63
(lp1913
g56
(g77
g58
NtRp1914
(dp1915
g61
(dp1916
g81
g82
ssg70
g1910
sg63
(lp1917
S'wsgi'
p1918
asbag56
(g77
g58
NtRp1919
(dp1920
g61
(dp1921
g88
g89
ssg70
g1910
sg63
(lp1922
S':'
asbag56
(g77
g58
NtRp1923
(dp1924
g61
(dp1925
sg70
g1910
sg63
(lp1926
g56
(g57
g58
NtRp1927
(dp1928
g61
(dp1929
g69
I5
ssg70
g1923
sg63
(lp1930
g56
(g65
g58
NtRp1931
(dp1932
g61
(dp1933
g69
I4
ssg70
Nsg63
(lp1934
g56
(g72
g58
NtRp1935
(dp1936
g61
(dp1937
sg70
g1931
sg63
(lp1938
g56
(g77
g58
NtRp1939
(dp1940
g61
(dp1941
g81
g82
ssg70
g1935
sg63
(lp1942
S'environ'
p1943
asbag56
(g77
g58
NtRp1944
(dp1945
g61
(dp1946
g88
g89
ssg70
g1935
sg63
(lp1947
S':'
asbag56
(g77
g58
NtRp1948
(dp1949
g61
(dp1950
sg70
g1935
sg63
(lp1951
g56
(g57
g58
NtRp1952
(dp1953
g61
(dp1954
g69
I4
ssg70
g1948
sg63
(lp1955
g56
(g65
g58
NtRp1956
(dp1957
g61
(dp1958
g69
I3
ssg70
Nsg63
(lp1959
g56
(g72
g58
NtRp1960
(dp1961
g61
(dp1962
sg70
g1956
sg63
(lp1963
g56
(g77
g58
NtRp1964
(dp1965
g61
(dp1966
g81
g82
ssg70
g1960
sg63
(lp1967
S'HTTP_ACCEPT'
p1968
asbag56
(g77
g58
NtRp1969
(dp1970
g61
(dp1971
g88
g89
ssg70
g1960
sg63
(lp1972
S':'
asbag56
(g77
g58
NtRp1973
(dp1974
g61
(dp1975
sg70
g1960
sg63
(lp1976
g56
(g57
g58
NtRp1977
(dp1978
g61
(dp1979
g69
I3
ssg70
g1973
sg63
(lp1980
g1002
asbasbasbag56
(g72
g58
NtRp1981
(dp1982
g61
(dp1983
sg70
g1956
sg63
(lp1984
g56
(g77
g58
NtRp1985
(dp1986
g61
(dp1987
g81
g82
ssg70
g1981
sg63
(lp1988
S'HTTP_ACCEPT_CHARSET'
p1989
asbag56
(g77
g58
NtRp1990
(dp1991
g61
(dp1992
g88
g89
ssg70
g1981
sg63
(lp1993
S':'
asbag56
(g77
g58
NtRp1994
(dp1995
g61
(dp1996
sg70
g1981
sg63
(lp1997
g56
(g57
g58
NtRp1998
(dp1999
g61
(dp2000
g69
I3
ssg70
g1994
sg63
(lp2001
g1024
asbasbasbag56
(g72
g58
NtRp2002
(dp2003
g61
(dp2004
sg70
g1956
sg63
(lp2005
g56
(g77
g58
NtRp2006
(dp2007
g61
(dp2008
g81
g82
ssg70
g2002
sg63
(lp2009
S'HTTP_ACCEPT_ENCODING'
p2010
asbag56
(g77
g58
NtRp2011
(dp2012
g61
(dp2013
g88
g89
ssg70
g2002
sg63
(lp2014
S':'
asbag56
(g77
g58
NtRp2015
(dp2016
g61
(dp2017
sg70
g2002
sg63
(lp2018
g56
(g57
g58
NtRp2019
(dp2020
g61
(dp2021
g69
I3
ssg70
g2015
sg63
(lp2022
g1046
asbasbasbag56
(g72
g58
NtRp2023
(dp2024
g61
(dp2025
sg70
g1956
sg63
(lp2026
g56
(g77
g58
NtRp2027
(dp2028
g61
(dp2029
g81
g82
ssg70
g2023
sg63
(lp2030
S'HTTP_ACCEPT_LANGUAGE'
p2031
asbag56
(g77
g58
NtRp2032
(dp2033
g61
(dp2034
g88
g89
ssg70
g2023
sg63
(lp2035
S':'
asbag56
(g77
g58
NtRp2036
(dp2037
g61
(dp2038
sg70
g2023
sg63
(lp2039
g56
(g57
g58
NtRp2040
(dp2041
g61
(dp2042
g69
I3
ssg70
g2036
sg63
(lp2043
g1068
asbasbasbag56
(g72
g58
NtRp2044
(dp2045
g61
(dp2046
sg70
g1956
sg63
(lp2047
g56
(g77
g58
NtRp2048
(dp2049
g61
(dp2050
g81
g82
ssg70
g2044
sg63
(lp2051
S'HTTP_CONNECTION'
p2052
asbag56
(g77
g58
NtRp2053
(dp2054
g61
(dp2055
g88
g89
ssg70
g2044
sg63
(lp2056
S':'
asbag56
(g77
g58
NtRp2057
(dp2058
g61
(dp2059
sg70
g2044
sg63
(lp2060
g56
(g57
g58
NtRp2061
(dp2062
g61
(dp2063
g69
I3
ssg70
g2057
sg63
(lp2064
g1090
asbasbasbag56
(g72
g58
NtRp2065
(dp2066
g61
(dp2067
sg70
g1956
sg63
(lp2068
g56
(g77
g58
NtRp2069
(dp2070
g61
(dp2071
g81
g82
ssg70
g2065
sg63
(lp2072
S'HTTP_COOKIE'
p2073
asbag56
(g77
g58
NtRp2074
(dp2075
g61
(dp2076
g88
g89
ssg70
g2065
sg63
(lp2077
S':'
asbag56
(g77
g58
NtRp2078
(dp2079
g61
(dp2080
sg70
g2065
sg63
(lp2081
g56
(g57
g58
NtRp2082
(dp2083
g61
(dp2084
g69
I3
ssg70
g2078
sg63
(lp2085
g1112
asbasbasbag56
(g72
g58
NtRp2086
(dp2087
g61
(dp2088
sg70
g1956
sg63
(lp2089
g56
(g77
g58
NtRp2090
(dp2091
g61
(dp2092
g81
g82
ssg70
g2086
sg63
(lp2093
S'HTTP_HOST'
p2094
asbag56
(g77
g58
NtRp2095
(dp2096
g61
(dp2097
g88
g89
ssg70
g2086
sg63
(lp2098
S':'
asbag56
(g77
g58
NtRp2099
(dp2100
g61
(dp2101
sg70
g2086
sg63
(lp2102
g56
(g57
g58
NtRp2103
(dp2104
g61
(dp2105
g69
I3
ssg70
g2099
sg63
(lp2106
g1134
asbasbasbag56
(g72
g58
NtRp2107
(dp2108
g61
(dp2109
sg70
g1956
sg63
(lp2110
g56
(g77
g58
NtRp2111
(dp2112
g61
(dp2113
g81
g82
ssg70
g2107
sg63
(lp2114
S'HTTP_USER_AGENT'
p2115
asbag56
(g77
g58
NtRp2116
(dp2117
g61
(dp2118
g88
g89
ssg70
g2107
sg63
(lp2119
S':'
asbag56
(g77
g58
NtRp2120
(dp2121
g61
(dp2122
sg70
g2107
sg63
(lp2123
g56
(g57
g58
NtRp2124
(dp2125
g61
(dp2126
g69
I3
ssg70
g2120
sg63
(lp2127
g1156
asbasbasbag56
(g72
g58
NtRp2128
(dp2129
g61
(dp2130
sg70
g1956
sg63
(lp2131
g56
(g77
g58
NtRp2132
(dp2133
g61
(dp2134
g81
g82
ssg70
g2128
sg63
(lp2135
S'PATH_INFO'
p2136
asbag56
(g77
g58
NtRp2137
(dp2138
g61
(dp2139
g88
g89
ssg70
g2128
sg63
(lp2140
S':'
asbag56
(g77
g58
NtRp2141
(dp2142
g61
(dp2143
sg70
g2128
sg63
(lp2144
g56
(g57
g58
NtRp2145
(dp2146
g61
(dp2147
g69
I3
ssg70
g2141
sg63
(lp2148
g1178
asbasbasbag56
(g72
g58
NtRp2149
(dp2150
g61
(dp2151
sg70
g1956
sg63
(lp2152
g56
(g77
g58
NtRp2153
(dp2154
g61
(dp2155
g81
g82
ssg70
g2149
sg63
(lp2156
S'QUERY_STRING'
p2157
asbag56
(g77
g58
NtRp2158
(dp2159
g61
(dp2160
g88
g89
ssg70
g2149
sg63
(lp2161
S':'
asbag56
(g77
g58
NtRp2162
(dp2163
g61
(dp2164
sg70
g2149
sg63
(lp2165
g56
(g57
g58
NtRp2166
(dp2167
g61
(dp2168
g69
I3
ssg70
g2162
sg63
(lp2169
S''
asbasbasbag56
(g72
g58
NtRp2170
(dp2171
g61
(dp2172
sg70
g1956
sg63
(lp2173
g56
(g77
g58
NtRp2174
(dp2175
g61
(dp2176
g81
g82
ssg70
g2170
sg63
(lp2177
S'REMOTE_ADDR'
p2178
asbag56
(g77
g58
NtRp2179
(dp2180
g61
(dp2181
g88
g89
ssg70
g2170
sg63
(lp2182
S':'
asbag56
(g77
g58
NtRp2183
(dp2184
g61
(dp2185
sg70
g2170
sg63
(lp2186
g56
(g57
g58
NtRp2187
(dp2188
g61
(dp2189
g69
I3
ssg70
g2183
sg63
(lp2190
g189
asbasbasbag56
(g72
g58
NtRp2191
(dp2192
g61
(dp2193
sg70
g1956
sg63
(lp2194
g56
(g77
g58
NtRp2195
(dp2196
g61
(dp2197
g81
g82
ssg70
g2191
sg63
(lp2198
S'REMOTE_PORT'
p2199
asbag56
(g77
g58
NtRp2200
(dp2201
g61
(dp2202
g88
g89
ssg70
g2191
sg63
(lp2203
S':'
asbag56
(g77
g58
NtRp2204
(dp2205
g61
(dp2206
sg70
g2191
sg63
(lp2207
g56
(g57
g58
NtRp2208
(dp2209
g61
(dp2210
g69
I3
ssg70
g2204
sg63
(lp2211
g1242
asbasbasbag56
(g72
g58
NtRp2212
(dp2213
g61
(dp2214
sg70
g1956
sg63
(lp2215
g56
(g77
g58
NtRp2216
(dp2217
g61
(dp2218
g81
g82
ssg70
g2212
sg63
(lp2219
S'REQUEST_METHOD'
p2220
asbag56
(g77
g58
NtRp2221
(dp2222
g61
(dp2223
g88
g89
ssg70
g2212
sg63
(lp2224
S':'
asbag56
(g77
g58
NtRp2225
(dp2226
g61
(dp2227
sg70
g2212
sg63
(lp2228
g56
(g57
g58
NtRp2229
(dp2230
g61
(dp2231
g69
I3
ssg70
g2225
sg63
(lp2232
g1264
asbasbasbag56
(g72
g58
NtRp2233
(dp2234
g61
(dp2235
sg70
g1956
sg63
(lp2236
g56
(g77
g58
NtRp2237
(dp2238
g61
(dp2239
g81
g82
ssg70
g2233
sg63
(lp2240
S'SCRIPT_NAME'
p2241
asbag56
(g77
g58
NtRp2242
(dp2243
g61
(dp2244
g88
g89
ssg70
g2233
sg63
(lp2245
S':'
asbag56
(g77
g58
NtRp2246
(dp2247
g61
(dp2248
sg70
g2233
sg63
(lp2249
g56
(g57
g58
NtRp2250
(dp2251
g61
(dp2252
g69
I3
ssg70
g2246
sg63
(lp2253
S''
asbasbasbag56
(g72
g58
NtRp2254
(dp2255
g61
(dp2256
sg70
g1956
sg63
(lp2257
g56
(g77
g58
NtRp2258
(dp2259
g61
(dp2260
g81
g82
ssg70
g2254
sg63
(lp2261
S'SERVER_NAME'
p2262
asbag56
(g77
g58
NtRp2263
(dp2264
g61
(dp2265
g88
g89
ssg70
g2254
sg63
(lp2266
S':'
asbag56
(g77
g58
NtRp2267
(dp2268
g61
(dp2269
sg70
g2254
sg63
(lp2270
g56
(g57
g58
NtRp2271
(dp2272
g61
(dp2273
g69
I3
ssg70
g2267
sg63
(lp2274
g1307
asbasbasbag56
(g72
g58
NtRp2275
(dp2276
g61
(dp2277
sg70
g1956
sg63
(lp2278
g56
(g77
g58
NtRp2279
(dp2280
g61
(dp2281
g81
g82
ssg70
g2275
sg63
(lp2282
S'SERVER_PORT'
p2283
asbag56
(g77
g58
NtRp2284
(dp2285
g61
(dp2286
g88
g89
ssg70
g2275
sg63
(lp2287
S':'
asbag56
(g77
g58
NtRp2288
(dp2289
g61
(dp2290
sg70
g2275
sg63
(lp2291
g56
(g57
g58
NtRp2292
(dp2293
g61
(dp2294
g69
I3
ssg70
g2288
sg63
(lp2295
g1329
asbasbasbag56
(g72
g58
NtRp2296
(dp2297
g61
(dp2298
sg70
g1956
sg63
(lp2299
g56
(g77
g58
NtRp2300
(dp2301
g61
(dp2302
g81
g82
ssg70
g2296
sg63
(lp2303
S'SERVER_PROTOCOL'
p2304
asbag56
(g77
g58
NtRp2305
(dp2306
g61
(dp2307
g88
g89
ssg70
g2296
sg63
(lp2308
S':'
asbag56
(g77
g58
NtRp2309
(dp2310
g61
(dp2311
sg70
g2296
sg63
(lp2312
g56
(g57
g58
NtRp2313
(dp2314
g61
(dp2315
g69
I3
ssg70
g2309
sg63
(lp2316
g1351
asbasbasbag56
(g72
g58
NtRp2317
(dp2318
g61
(dp2319
sg70
g1956
sg63
(lp2320
g56
(g77
g58
NtRp2321
(dp2322
g61
(dp2323
g81
g82
ssg70
g2317
sg63
(lp2324
S'SERVER_SOFTWARE'
p2325
asbag56
(g77
g58
NtRp2326
(dp2327
g61
(dp2328
g88
g89
ssg70
g2317
sg63
(lp2329
S':'
asbag56
(g77
g58
NtRp2330
(dp2331
g61
(dp2332
sg70
g2317
sg63
(lp2333
g56
(g57
g58
NtRp2334
(dp2335
g61
(dp2336
g69
I3
ssg70
g2330
sg63
(lp2337
g1373
asbasbasbag56
(g72
g58
NtRp2338
(dp2339
g61
(dp2340
sg70
g1956
sg63
(lp2341
g56
(g77
g58
NtRp2342
(dp2343
g61
(dp2344
g81
g82
ssg70
g2338
sg63
(lp2345
S'wsgi.errors'
p2346
asbag56
(g77
g58
NtRp2347
(dp2348
g61
(dp2349
g88
g89
ssg70
g2338
sg63
(lp2350
S':'
asbag56
(g77
g58
NtRp2351
(dp2352
g61
(dp2353
sg70
g2338
sg63
(lp2354
g56
(g57
g58
NtRp2355
(dp2356
g61
(dp2357
g69
I3
ssg70
g2351
sg63
(lp2358
S"<open file '<stderr>', mode 'w' at 0x100283270>"
p2359
asbasbasbag56
(g72
g58
NtRp2360
(dp2361
g61
(dp2362
sg70
g1956
sg63
(lp2363
g56
(g77
g58
NtRp2364
(dp2365
g61
(dp2366
g81
g82
ssg70
g2360
sg63
(lp2367
S'wsgi.file_wrapper'
p2368
asbag56
(g77
g58
NtRp2369
(dp2370
g61
(dp2371
g88
g89
ssg70
g2360
sg63
(lp2372
S':'
asbag56
(g77
g58
NtRp2373
(dp2374
g61
(dp2375
sg70
g2360
sg63
(lp2376
g56
(g57
g58
NtRp2377
(dp2378
g61
(dp2379
g69
I3
ssg70
g2373
sg63
(lp2380
S'<class gluon.rocket.FileWrapper at 0x1019a02c0>'
p2381
asbasbasbag56
(g72
g58
NtRp2382
(dp2383
g61
(dp2384
sg70
g1956
sg63
(lp2385
g56
(g77
g58
NtRp2386
(dp2387
g61
(dp2388
g81
g82
ssg70
g2382
sg63
(lp2389
S'wsgi.input'
p2390
asbag56
(g77
g58
NtRp2391
(dp2392
g61
(dp2393
g88
g89
ssg70
g2382
sg63
(lp2394
S':'
asbag56
(g77
g58
NtRp2395
(dp2396
g61
(dp2397
sg70
g2382
sg63
(lp2398
g56
(g57
g58
NtRp2399
(dp2400
g61
(dp2401
g69
I3
ssg70
g2395
sg63
(lp2402
S'<cStringIO.StringO object at 0x107c13ae8>'
p2403
asbasbasbag56
(g72
g58
NtRp2404
(dp2405
g61
(dp2406
sg70
g1956
sg63
(lp2407
g56
(g77
g58
NtRp2408
(dp2409
g61
(dp2410
g81
g82
ssg70
g2404
sg63
(lp2411
S'wsgi.multiprocess'
p2412
asbag56
(g77
g58
NtRp2413
(dp2414
g61
(dp2415
g88
g89
ssg70
g2404
sg63
(lp2416
S':'
asbag56
(g77
g58
NtRp2417
(dp2418
g61
(dp2419
sg70
g2404
sg63
(lp2420
g56
(g57
g58
NtRp2421
(dp2422
g61
(dp2423
g69
I3
ssg70
g2417
sg63
(lp2424
g99
asbasbasbag56
(g72
g58
NtRp2425
(dp2426
g61
(dp2427
sg70
g1956
sg63
(lp2428
g56
(g77
g58
NtRp2429
(dp2430
g61
(dp2431
g81
g82
ssg70
g2425
sg63
(lp2432
S'wsgi.multithread'
p2433
asbag56
(g77
g58
NtRp2434
(dp2435
g61
(dp2436
g88
g89
ssg70
g2425
sg63
(lp2437
S':'
asbag56
(g77
g58
NtRp2438
(dp2439
g61
(dp2440
sg70
g2425
sg63
(lp2441
g56
(g57
g58
NtRp2442
(dp2443
g61
(dp2444
g69
I3
ssg70
g2438
sg63
(lp2445
g1547
asbasbasbag56
(g72
g58
NtRp2446
(dp2447
g61
(dp2448
sg70
g1956
sg63
(lp2449
g56
(g77
g58
NtRp2450
(dp2451
g61
(dp2452
g81
g82
ssg70
g2446
sg63
(lp2453
S'wsgi.run_once'
p2454
asbag56
(g77
g58
NtRp2455
(dp2456
g61
(dp2457
g88
g89
ssg70
g2446
sg63
(lp2458
S':'
asbag56
(g77
g58
NtRp2459
(dp2460
g61
(dp2461
sg70
g2446
sg63
(lp2462
g56
(g57
g58
NtRp2463
(dp2464
g61
(dp2465
g69
I3
ssg70
g2459
sg63
(lp2466
g99
asbasbasbag56
(g72
g58
NtRp2467
(dp2468
g61
(dp2469
sg70
g1956
sg63
(lp2470
g56
(g77
g58
NtRp2471
(dp2472
g61
(dp2473
g81
g82
ssg70
g2467
sg63
(lp2474
S'wsgi.url_scheme'
p2475
asbag56
(g77
g58
NtRp2476
(dp2477
g61
(dp2478
g88
g89
ssg70
g2467
sg63
(lp2479
S':'
asbag56
(g77
g58
NtRp2480
(dp2481
g61
(dp2482
sg70
g2467
sg63
(lp2483
g56
(g57
g58
NtRp2484
(dp2485
g61
(dp2486
g69
I3
ssg70
g2480
sg63
(lp2487
g1590
asbasbasbag56
(g72
g58
NtRp2488
(dp2489
g61
(dp2490
sg70
g1956
sg63
(lp2491
g56
(g77
g58
NtRp2492
(dp2493
g61
(dp2494
g81
g82
ssg70
g2488
sg63
(lp2495
S'wsgi.version'
p2496
asbag56
(g77
g58
NtRp2497
(dp2498
g61
(dp2499
g88
g89
ssg70
g2488
sg63
(lp2500
S':'
asbag56
(g77
g58
NtRp2501
(dp2502
g61
(dp2503
sg70
g2488
sg63
(lp2504
g56
(g57
g58
NtRp2505
(dp2506
g61
(dp2507
g69
I3
ssg70
g2501
sg63
(lp2508
S'1'
asbasbasbasbasbasbasbasbasbasbasbasbasbsS'frames'
p2509
(lp2510
(dp2511
S'file'
p2512
S'/Users/schultzc/Downloads/web2py/gluon/restricted.py'
p2513
sS'dump'
p2514
(dp2515
S'environment'
p2516
S"{'A': <class 'gluon.html.A'>, 'B': <class 'gluon.html.B'>, 'BEAUTIFY': <class 'gluon.html.BEAUTIFY'>, 'BODY': <class 'gluon.html.BODY'>, 'BR': <class 'gluon.html.BR'>, 'BUTTON': <class 'gluon.html.BUTTON'>, 'CENTER': <class 'gluon.html.CENTER'>, 'CLEANUP': <class 'gluon.validators.CLEANUP'>, 'CODE': <class 'gluon.html.CODE'>, 'CRYPT': <class 'gluon.validators.CRYPT'>, ...}"
p2517
sS'ccode'
p2518
S'<code object <module> at 0x105f70eb0, file "/Use...applications/wp/controllers/default.py", line 12>'
p2519
ssS'lnum'
p2520
I192
sS'lines'
p2521
(dp2522
I192
S'        exec ccode in environment'
p2523
sI193
S'    except HTTP:'
p2524
sI194
S'        raise'
p2525
sI195
S'    except Exception:'
p2526
sI196
S'        # XXX Show exception in Wing IDE if running in debugger'
p2527
sI187
S'    try:'
p2528
sI188
S'        if type(code) == types.CodeType:'
p2529
sI189
S'            ccode = code'
p2530
sI190
S'        else:'
p2531
sI191
S'            ccode = compile2(code,layer)'
p2532
ssS'call'
p2533
S"(code='# -*- coding: utf-8 -*-\\n# this file is released ...crud())\\n\\nresponse._vars=response._caller(submit)\\n', environment={'A': <class 'gluon.html.A'>, 'B': <class 'gluon.html.B'>, 'BEAUTIFY': <class 'gluon.html.BEAUTIFY'>, 'BODY': <class 'gluon.html.BODY'>, 'BR': <class 'gluon.html.BR'>, 'BUTTON': <class 'gluon.html.BUTTON'>, 'CENTER': <class 'gluon.html.CENTER'>, 'CLEANUP': <class 'gluon.validators.CLEANUP'>, 'CODE': <class 'gluon.html.CODE'>, 'CRYPT': <class 'gluon.validators.CRYPT'>, ...}, layer='/Users/schultzc/Downloads/web2py/applications/wp/controllers/default.py')"
p2534
sS'func'
p2535
S'restricted'
p2536
sa(dp2537
g2512
S'/Users/schultzc/Downloads/web2py/applications/wp/controllers/default.py'
p2538
sg2514
(dp2539
S'auth'
p2540
S'undefined'
p2541
ssg2520
I73
sg2521
(dp2542
I68
S'    supports xml, json, xmlrpc, jsonrpc, amfrpc, rss, csv'
p2543
sI69
S'    """'
p2544
sI70
S'    return service()'
p2545
sI71
S''
sI72
S''
sI73
S'@auth.requires_signature()'
p2546
sI74
S'def data():'
p2547
sI75
S'    """'
p2548
sI76
S'    http://..../[app]/default/data/tables'
p2549
sI77
S'    http://..../[app]/default/data/create/[table]'
p2550
ssg2533
S'()'
p2551
sg2535
S'<module>'
p2552
sasS'pyver'
p2553
S'Python 2.7.2: /opt/local/Library/Frameworks/Python.framework/Versions/2.7/Resources/Python.app/Contents/MacOS/Python'
p2554
sS'session'
p2555
g56
(g57
g58
NtRp2556
(dp2557
g61
(dp2558
sg63
(lp2559
g56
(g65
g58
NtRp2560
(dp2561
g61
(dp2562
g69
I5
ssg70
Nsg63
(lp2563
sbasbsS'etype'
p2564
S"<type 'exceptions.NameError'>"
p2565
sS'date'
p2566
S'Fri Jul 15 22:19:46 2011'
p2567
sS'response'
p2568
g56
(g57
g58
NtRp2569
(dp2570
g61
(dp2571
sg63
(lp2572
g56
(g65
g58
NtRp2573
(dp2574
g61
(dp2575
g69
I5
ssg70
Nsg63
(lp2576
g56
(g72
g58
NtRp2577
(dp2578
g61
(dp2579
sg70
g2573
sg63
(lp2580
g56
(g77
g58
NtRp2581
(dp2582
g61
(dp2583
g81
g82
ssg70
g2577
sg63
(lp2584
g154
asbag56
(g77
g58
NtRp2585
(dp2586
g61
(dp2587
g88
g89
ssg70
g2577
sg63
(lp2588
S':'
asbag56
(g77
g58
NtRp2589
(dp2590
g61
(dp2591
sg70
g2577
sg63
(lp2592
g56
(g57
g58
NtRp2593
(dp2594
g61
(dp2595
g69
I5
ssg70
g2589
sg63
(lp2596
S'<cStringIO.StringO object at 0x105fa8b20>'
p2597
asbasbasbag56
(g72
g58
NtRp2598
(dp2599
g61
(dp2600
sg70
g2573
sg63
(lp2601
g56
(g77
g58
NtRp2602
(dp2603
g61
(dp2604
g81
g82
ssg70
g2598
sg63
(lp2605
g220
asbag56
(g77
g58
NtRp2606
(dp2607
g61
(dp2608
g88
g89
ssg70
g2598
sg63
(lp2609
S':'
asbag56
(g77
g58
NtRp2610
(dp2611
g61
(dp2612
sg70
g2598
sg63
(lp2613
g56
(g57
g58
NtRp2614
(dp2615
g61
(dp2616
g69
I5
ssg70
g2610
sg63
(lp2617
g56
(g65
g58
NtRp2618
(dp2619
g61
(dp2620
g69
I4
ssg70
Nsg63
(lp2621
g56
(g72
g58
NtRp2622
(dp2623
g61
(dp2624
sg70
g2618
sg63
(lp2625
g56
(g77
g58
NtRp2626
(dp2627
g61
(dp2628
g81
g82
ssg70
g2622
sg63
(lp2629
S'session_id_wp'
p2630
asbag56
(g77
g58
NtRp2631
(dp2632
g61
(dp2633
g88
g89
ssg70
g2622
sg63
(lp2634
S':'
asbag56
(g77
g58
NtRp2635
(dp2636
g61
(dp2637
sg70
g2622
sg63
(lp2638
g56
(g57
g58
NtRp2639
(dp2640
g61
(dp2641
g69
I4
ssg70
g2635
sg63
(lp2642
g56
(g65
g58
NtRp2643
(dp2644
g61
(dp2645
g69
I3
ssg70
Nsg63
(lp2646
g56
(g72
g58
NtRp2647
(dp2648
g61
(dp2649
sg70
g2643
sg63
(lp2650
g56
(g77
g58
NtRp2651
(dp2652
g61
(dp2653
g81
g82
ssg70
g2647
sg63
(lp2654
g270
asbag56
(g77
g58
NtRp2655
(dp2656
g61
(dp2657
g88
g89
ssg70
g2647
sg63
(lp2658
S':'
asbag56
(g77
g58
NtRp2659
(dp2660
g61
(dp2661
sg70
g2647
sg63
(lp2662
g56
(g57
g58
NtRp2663
(dp2664
g61
(dp2665
g69
I3
ssg70
g2659
sg63
(lp2666
S''
asbasbasbag56
(g72
g58
NtRp2667
(dp2668
g61
(dp2669
sg70
g2643
sg63
(lp2670
g56
(g77
g58
NtRp2671
(dp2672
g61
(dp2673
g81
g82
ssg70
g2667
sg63
(lp2674
g291
asbag56
(g77
g58
NtRp2675
(dp2676
g61
(dp2677
g88
g89
ssg70
g2667
sg63
(lp2678
S':'
asbag56
(g77
g58
NtRp2679
(dp2680
g61
(dp2681
sg70
g2667
sg63
(lp2682
g56
(g57
g58
NtRp2683
(dp2684
g61
(dp2685
g69
I3
ssg70
g2679
sg63
(lp2686
S''
asbasbasbag56
(g72
g58
NtRp2687
(dp2688
g61
(dp2689
sg70
g2643
sg63
(lp2690
g56
(g77
g58
NtRp2691
(dp2692
g61
(dp2693
g81
g82
ssg70
g2687
sg63
(lp2694
g312
asbag56
(g77
g58
NtRp2695
(dp2696
g61
(dp2697
g88
g89
ssg70
g2687
sg63
(lp2698
S':'
asbag56
(g77
g58
NtRp2699
(dp2700
g61
(dp2701
sg70
g2687
sg63
(lp2702
g56
(g57
g58
NtRp2703
(dp2704
g61
(dp2705
g69
I3
ssg70
g2699
sg63
(lp2706
S''
asbasbasbag56
(g72
g58
NtRp2707
(dp2708
g61
(dp2709
sg70
g2643
sg63
(lp2710
g56
(g77
g58
NtRp2711
(dp2712
g61
(dp2713
g81
g82
ssg70
g2707
sg63
(lp2714
g333
asbag56
(g77
g58
NtRp2715
(dp2716
g61
(dp2717
g88
g89
ssg70
g2707
sg63
(lp2718
S':'
asbag56
(g77
g58
NtRp2719
(dp2720
g61
(dp2721
sg70
g2707
sg63
(lp2722
g56
(g57
g58
NtRp2723
(dp2724
g61
(dp2725
g69
I3
ssg70
g2719
sg63
(lp2726
S''
asbasbasbag56
(g72
g58
NtRp2727
(dp2728
g61
(dp2729
sg70
g2643
sg63
(lp2730
g56
(g77
g58
NtRp2731
(dp2732
g61
(dp2733
g81
g82
ssg70
g2727
sg63
(lp2734
g354
asbag56
(g77
g58
NtRp2735
(dp2736
g61
(dp2737
g88
g89
ssg70
g2727
sg63
(lp2738
S':'
asbag56
(g77
g58
NtRp2739
(dp2740
g61
(dp2741
sg70
g2727
sg63
(lp2742
g56
(g57
g58
NtRp2743
(dp2744
g61
(dp2745
g69
I3
ssg70
g2739
sg63
(lp2746
S''
asbasbasbag56
(g72
g58
NtRp2747
(dp2748
g61
(dp2749
sg70
g2643
sg63
(lp2750
g56
(g77
g58
NtRp2751
(dp2752
g61
(dp2753
g81
g82
ssg70
g2747
sg63
(lp2754
g375
asbag56
(g77
g58
NtRp2755
(dp2756
g61
(dp2757
g88
g89
ssg70
g2747
sg63
(lp2758
S':'
asbag56
(g77
g58
NtRp2759
(dp2760
g61
(dp2761
sg70
g2747
sg63
(lp2762
g56
(g57
g58
NtRp2763
(dp2764
g61
(dp2765
g69
I3
ssg70
g2759
sg63
(lp2766
S'/'
asbasbasbag56
(g72
g58
NtRp2767
(dp2768
g61
(dp2769
sg70
g2643
sg63
(lp2770
g56
(g77
g58
NtRp2771
(dp2772
g61
(dp2773
g81
g82
ssg70
g2767
sg63
(lp2774
g396
asbag56
(g77
g58
NtRp2775
(dp2776
g61
(dp2777
g88
g89
ssg70
g2767
sg63
(lp2778
S':'
asbag56
(g77
g58
NtRp2779
(dp2780
g61
(dp2781
sg70
g2767
sg63
(lp2782
g56
(g57
g58
NtRp2783
(dp2784
g61
(dp2785
g69
I3
ssg70
g2779
sg63
(lp2786
S''
asbasbasbag56
(g72
g58
NtRp2787
(dp2788
g61
(dp2789
sg70
g2643
sg63
(lp2790
g56
(g77
g58
NtRp2791
(dp2792
g61
(dp2793
g81
g82
ssg70
g2787
sg63
(lp2794
g417
asbag56
(g77
g58
NtRp2795
(dp2796
g61
(dp2797
g88
g89
ssg70
g2787
sg63
(lp2798
S':'
asbag56
(g77
g58
NtRp2799
(dp2800
g61
(dp2801
sg70
g2787
sg63
(lp2802
g56
(g57
g58
NtRp2803
(dp2804
g61
(dp2805
g69
I3
ssg70
g2799
sg63
(lp2806
S''
asbasbasbasbasbasbasbasbasbasbasbag56
(g72
g58
NtRp2807
(dp2808
g61
(dp2809
sg70
g2573
sg63
(lp2810
g56
(g77
g58
NtRp2811
(dp2812
g61
(dp2813
g81
g82
ssg70
g2807
sg63
(lp2814
S'files'
p2815
asbag56
(g77
g58
NtRp2816
(dp2817
g61
(dp2818
g88
g89
ssg70
g2807
sg63
(lp2819
S':'
asbag56
(g77
g58
NtRp2820
(dp2821
g61
(dp2822
sg70
g2807
sg63
(lp2823
g56
(g57
g58
NtRp2824
(dp2825
g61
(dp2826
g69
I5
ssg70
g2820
sg63
(lp2827
g56
(g65
g58
NtRp2828
(dp2829
g61
(dp2830
g69
I4
ssg70
Nsg63
(lp2831
sbasbasbasbag56
(g72
g58
NtRp2832
(dp2833
g61
(dp2834
sg70
g2573
sg63
(lp2835
g56
(g77
g58
NtRp2836
(dp2837
g61
(dp2838
g81
g82
ssg70
g2832
sg63
(lp2839
S'flash'
p2840
asbag56
(g77
g58
NtRp2841
(dp2842
g61
(dp2843
g88
g89
ssg70
g2832
sg63
(lp2844
S':'
asbag56
(g77
g58
NtRp2845
(dp2846
g61
(dp2847
sg70
g2832
sg63
(lp2848
g56
(g57
g58
NtRp2849
(dp2850
g61
(dp2851
g69
I5
ssg70
g2845
sg63
(lp2852
S''
asbasbasbag56
(g72
g58
NtRp2853
(dp2854
g61
(dp2855
sg70
g2573
sg63
(lp2856
g56
(g77
g58
NtRp2857
(dp2858
g61
(dp2859
g81
g82
ssg70
g2853
sg63
(lp2860
S'headers'
p2861
asbag56
(g77
g58
NtRp2862
(dp2863
g61
(dp2864
g88
g89
ssg70
g2853
sg63
(lp2865
S':'
asbag56
(g77
g58
NtRp2866
(dp2867
g61
(dp2868
sg70
g2853
sg63
(lp2869
g56
(g57
g58
NtRp2870
(dp2871
g61
(dp2872
g69
I5
ssg70
g2866
sg63
(lp2873
g56
(g65
g58
NtRp2874
(dp2875
g61
(dp2876
g69
I4
ssg70
Nsg63
(lp2877
g56
(g72
g58
NtRp2878
(dp2879
g61
(dp2880
sg70
g2874
sg63
(lp2881
g56
(g77
g58
NtRp2882
(dp2883
g61
(dp2884
g81
g82
ssg70
g2878
sg63
(lp2885
S'Cache-Control'
p2886
asbag56
(g77
g58
NtRp2887
(dp2888
g61
(dp2889
g88
g89
ssg70
g2878
sg63
(lp2890
S':'
asbag56
(g77
g58
NtRp2891
(dp2892
g61
(dp2893
sg70
g2878
sg63
(lp2894
g56
(g57
g58
NtRp2895
(dp2896
g61
(dp2897
g69
I4
ssg70
g2891
sg63
(lp2898
S'no-store, no-cache, must-revalidate, post-check=0, pre-check=0'
p2899
asbasbasbag56
(g72
g58
NtRp2900
(dp2901
g61
(dp2902
sg70
g2874
sg63
(lp2903
g56
(g77
g58
NtRp2904
(dp2905
g61
(dp2906
g81
g82
ssg70
g2900
sg63
(lp2907
S'Content-Type'
p2908
asbag56
(g77
g58
NtRp2909
(dp2910
g61
(dp2911
g88
g89
ssg70
g2900
sg63
(lp2912
S':'
asbag56
(g77
g58
NtRp2913
(dp2914
g61
(dp2915
sg70
g2900
sg63
(lp2916
g56
(g57
g58
NtRp2917
(dp2918
g61
(dp2919
g69
I4
ssg70
g2913
sg63
(lp2920
S'text/html; charset=utf-8'
p2921
asbasbasbag56
(g72
g58
NtRp2922
(dp2923
g61
(dp2924
sg70
g2874
sg63
(lp2925
g56
(g77
g58
NtRp2926
(dp2927
g61
(dp2928
g81
g82
ssg70
g2922
sg63
(lp2929
S'Expires'
p2930
asbag56
(g77
g58
NtRp2931
(dp2932
g61
(dp2933
g88
g89
ssg70
g2922
sg63
(lp2934
S':'
asbag56
(g77
g58
NtRp2935
(dp2936
g61
(dp2937
sg70
g2922
sg63
(lp2938
g56
(g57
g58
NtRp2939
(dp2940
g61
(dp2941
g69
I4
ssg70
g2935
sg63
(lp2942
S'Sat, 16 Jul 2011 05:19:46 GMT'
p2943
asbasbasbag56
(g72
g58
NtRp2944
(dp2945
g61
(dp2946
sg70
g2874
sg63
(lp2947
g56
(g77
g58
NtRp2948
(dp2949
g61
(dp2950
g81
g82
ssg70
g2944
sg63
(lp2951
S'Pragma'
p2952
asbag56
(g77
g58
NtRp2953
(dp2954
g61
(dp2955
g88
g89
ssg70
g2944
sg63
(lp2956
S':'
asbag56
(g77
g58
NtRp2957
(dp2958
g61
(dp2959
sg70
g2944
sg63
(lp2960
g56
(g57
g58
NtRp2961
(dp2962
g61
(dp2963
g69
I4
ssg70
g2957
sg63
(lp2964
S'no-cache'
p2965
asbasbasbag56
(g72
g58
NtRp2966
(dp2967
g61
(dp2968
sg70
g2874
sg63
(lp2969
g56
(g77
g58
NtRp2970
(dp2971
g61
(dp2972
g81
g82
ssg70
g2966
sg63
(lp2973
S'X-Powered-By'
p2974
asbag56
(g77
g58
NtRp2975
(dp2976
g61
(dp2977
g88
g89
ssg70
g2966
sg63
(lp2978
S':'
asbag56
(g77
g58
NtRp2979
(dp2980
g61
(dp2981
sg70
g2966
sg63
(lp2982
g56
(g57
g58
NtRp2983
(dp2984
g61
(dp2985
g69
I4
ssg70
g2979
sg63
(lp2986
S'web2py'
p2987
asbasbasbasbasbasbasbag56
(g72
g58
NtRp2988
(dp2989
g61
(dp2990
sg70
g2573
sg63
(lp2991
g56
(g77
g58
NtRp2992
(dp2993
g61
(dp2994
g81
g82
ssg70
g2988
sg63
(lp2995
S'menu'
p2996
asbag56
(g77
g58
NtRp2997
(dp2998
g61
(dp2999
g88
g89
ssg70
g2988
sg63
(lp3000
S':'
asbag56
(g77
g58
NtRp3001
(dp3002
g61
(dp3003
sg70
g2988
sg63
(lp3004
g56
(g57
g58
NtRp3005
(dp3006
g61
(dp3007
g69
I5
ssg70
g3001
sg63
(lp3008
g56
(g65
g58
NtRp3009
(dp3010
g61
(dp3011
g69
I4
ssg70
Nsg63
(lp3012
g56
(g72
g58
NtRp3013
(dp3014
g61
(dp3015
sg70
g3009
sg63
(lp3016
g56
(g77
g58
NtRp3017
(dp3018
g61
(dp3019
sg70
g3013
sg63
(lp3020
g56
(g57
g58
NtRp3021
(dp3022
g61
(dp3023
g69
I4
ssg70
g3017
sg63
(lp3024
g56
(g65
g58
NtRp3025
(dp3026
g61
(dp3027
g69
I3
ssg70
Nsg63
(lp3028
g56
(g72
g58
NtRp3029
(dp3030
g61
(dp3031
sg70
g3025
sg63
(lp3032
g56
(g77
g58
NtRp3033
(dp3034
g61
(dp3035
sg70
g3029
sg63
(lp3036
g56
(g57
g58
NtRp3037
(dp3038
g61
(dp3039
g69
I3
ssg70
g3033
sg63
(lp3040
cgluon.languages
lazyT_unpickle
p3041
(S't\x04\x00\x00\x00Home'
tRp3042
asbasbasbag56
(g72
g58
NtRp3043
(dp3044
g61
(dp3045
sg70
g3025
sg63
(lp3046
g56
(g77
g58
NtRp3047
(dp3048
g61
(dp3049
sg70
g3043
sg63
(lp3050
g56
(g57
g58
NtRp3051
(dp3052
g61
(dp3053
g69
I3
ssg70
g3047
sg63
(lp3054
g99
asbasbasbag56
(g72
g58
NtRp3055
(dp3056
g61
(dp3057
sg70
g3025
sg63
(lp3058
g56
(g77
g58
NtRp3059
(dp3060
g61
(dp3061
sg70
g3055
sg63
(lp3062
g56
(g57
g58
NtRp3063
(dp3064
g61
(dp3065
g69
I3
ssg70
g3059
sg63
(lp3066
S'/wp/default/index'
p3067
asbasbasbag56
(g72
g58
NtRp3068
(dp3069
g61
(dp3070
sg70
g3025
sg63
(lp3071
g56
(g77
g58
NtRp3072
(dp3073
g61
(dp3074
sg70
g3068
sg63
(lp3075
g56
(g57
g58
NtRp3076
(dp3077
g61
(dp3078
g69
I3
ssg70
g3072
sg63
(lp3079
g56
(g65
g58
NtRp3080
(dp3081
g61
(dp3082
g69
I2
ssg70
Nsg63
(lp3083
sbasbasbasbasbasbasbasbag56
(g72
g58
NtRp3084
(dp3085
g61
(dp3086
sg70
g3009
sg63
(lp3087
g56
(g77
g58
NtRp3088
(dp3089
g61
(dp3090
sg70
g3084
sg63
(lp3091
g56
(g57
g58
NtRp3092
(dp3093
g61
(dp3094
g69
I4
ssg70
g3088
sg63
(lp3095
g56
(g65
g58
NtRp3096
(dp3097
g61
(dp3098
g69
I3
ssg70
Nsg63
(lp3099
g56
(g72
g58
NtRp3100
(dp3101
g61
(dp3102
sg70
g3096
sg63
(lp3103
g56
(g77
g58
NtRp3104
(dp3105
g61
(dp3106
sg70
g3100
sg63
(lp3107
g56
(g57
g58
NtRp3108
(dp3109
g61
(dp3110
g69
I3
ssg70
g3104
sg63
(lp3111
g3041
(S's\x08\x00\x00\x00This App'
tRp3112
asbasbasbag56
(g72
g58
NtRp3113
(dp3114
g61
(dp3115
sg70
g3096
sg63
(lp3116
g56
(g77
g58
NtRp3117
(dp3118
g61
(dp3119
sg70
g3113
sg63
(lp3120
g56
(g57
g58
NtRp3121
(dp3122
g61
(dp3123
g69
I3
ssg70
g3117
sg63
(lp3124
g99
asbasbasbag56
(g72
g58
NtRp3125
(dp3126
g61
(dp3127
sg70
g3096
sg63
(lp3128
g56
(g77
g58
NtRp3129
(dp3130
g61
(dp3131
sg70
g3125
sg63
(lp3132
g56
(g57
g58
NtRp3133
(dp3134
g61
(dp3135
g69
I3
ssg70
g3129
sg63
(lp3136
S'/admin/default/design/wp'
p3137
asbasbasbag56
(g72
g58
NtRp3138
(dp3139
g61
(dp3140
sg70
g3096
sg63
(lp3141
g56
(g77
g58
NtRp3142
(dp3143
g61
(dp3144
sg70
g3138
sg63
(lp3145
g56
(g57
g58
NtRp3146
(dp3147
g61
(dp3148
g69
I3
ssg70
g3142
sg63
(lp3149
g56
(g65
g58
NtRp3150
(dp3151
g61
(dp3152
g69
I2
ssg70
Nsg63
(lp3153
g56
(g72
g58
NtRp3154
(dp3155
g61
(dp3156
sg70
g3150
sg63
(lp3157
g56
(g77
g58
NtRp3158
(dp3159
g61
(dp3160
sg70
g3154
sg63
(lp3161
g56
(g57
g58
NtRp3162
(dp3163
g61
(dp3164
g69
I2
ssg70
g3158
sg63
(lp3165
g56
(g65
g58
NtRp3166
(dp3167
g61
(dp3168
g69
I1
ssg70
Nsg63
(lp3169
g56
(g72
g58
NtRp3170
(dp3171
g61
(dp3172
sg70
g3166
sg63
(lp3173
g56
(g77
g58
NtRp3174
(dp3175
g61
(dp3176
sg70
g3170
sg63
(lp3177
g56
(g57
g58
NtRp3178
(dp3179
g61
(dp3180
g69
I1
ssg70
g3174
sg63
(lp3181
g3041
(S't\n\x00\x00\x00Controller'
tRp3182
asbasbasbag56
(g72
g58
NtRp3183
(dp3184
g61
(dp3185
sg70
g3166
sg63
(lp3186
g56
(g77
g58
NtRp3187
(dp3188
g61
(dp3189
sg70
g3183
sg63
(lp3190
g56
(g57
g58
NtRp3191
(dp3192
g61
(dp3193
g69
I1
ssg70
g3187
sg63
(lp3194
I00
asbasbasbag56
(g72
g58
NtRp3195
(dp3196
g61
(dp3197
sg70
g3166
sg63
(lp3198
g56
(g77
g58
NtRp3199
(dp3200
g61
(dp3201
sg70
g3195
sg63
(lp3202
g56
(g57
g58
NtRp3203
(dp3204
g61
(dp3205
g69
I1
ssg70
g3199
sg63
(lp3206
S'/admin/default/edit/wp/controllers/default.py'
p3207
asbasbasbasbasbasbasbag56
(g72
g58
NtRp3208
(dp3209
g61
(dp3210
sg70
g3150
sg63
(lp3211
g56
(g77
g58
NtRp3212
(dp3213
g61
(dp3214
sg70
g3208
sg63
(lp3215
g56
(g57
g58
NtRp3216
(dp3217
g61
(dp3218
g69
I2
ssg70
g3212
sg63
(lp3219
g56
(g65
g58
NtRp3220
(dp3221
g61
(dp3222
g69
I1
ssg70
Nsg63
(lp3223
g56
(g72
g58
NtRp3224
(dp3225
g61
(dp3226
sg70
g3220
sg63
(lp3227
g56
(g77
g58
NtRp3228
(dp3229
g61
(dp3230
sg70
g3224
sg63
(lp3231
g56
(g57
g58
NtRp3232
(dp3233
g61
(dp3234
g69
I1
ssg70
g3228
sg63
(lp3235
g3041
(S't\x04\x00\x00\x00View'
tRp3236
asbasbasbag56
(g72
g58
NtRp3237
(dp3238
g61
(dp3239
sg70
g3220
sg63
(lp3240
g56
(g77
g58
NtRp3241
(dp3242
g61
(dp3243
sg70
g3237
sg63
(lp3244
g56
(g57
g58
NtRp3245
(dp3246
g61
(dp3247
g69
I1
ssg70
g3241
sg63
(lp3248
I00
asbasbasbag56
(g72
g58
NtRp3249
(dp3250
g61
(dp3251
sg70
g3220
sg63
(lp3252
g56
(g77
g58
NtRp3253
(dp3254
g61
(dp3255
sg70
g3249
sg63
(lp3256
g56
(g57
g58
NtRp3257
(dp3258
g61
(dp3259
g69
I1
ssg70
g3253
sg63
(lp3260
S'/admin/default/edit/wp/views/default/submit.html'
p3261
asbasbasbasbasbasbasbag56
(g72
g58
NtRp3262
(dp3263
g61
(dp3264
sg70
g3150
sg63
(lp3265
g56
(g77
g58
NtRp3266
(dp3267
g61
(dp3268
sg70
g3262
sg63
(lp3269
g56
(g57
g58
NtRp3270
(dp3271
g61
(dp3272
g69
I2
ssg70
g3266
sg63
(lp3273
g56
(g65
g58
NtRp3274
(dp3275
g61
(dp3276
g69
I1
ssg70
Nsg63
(lp3277
g56
(g72
g58
NtRp3278
(dp3279
g61
(dp3280
sg70
g3274
sg63
(lp3281
g56
(g77
g58
NtRp3282
(dp3283
g61
(dp3284
sg70
g3278
sg63
(lp3285
g56
(g57
g58
NtRp3286
(dp3287
g61
(dp3288
g69
I1
ssg70
g3282
sg63
(lp3289
g3041
(S't\x06\x00\x00\x00Layout'
tRp3290
asbasbasbag56
(g72
g58
NtRp3291
(dp3292
g61
(dp3293
sg70
g3274
sg63
(lp3294
g56
(g77
g58
NtRp3295
(dp3296
g61
(dp3297
sg70
g3291
sg63
(lp3298
g56
(g57
g58
NtRp3299
(dp3300
g61
(dp3301
g69
I1
ssg70
g3295
sg63
(lp3302
I00
asbasbasbag56
(g72
g58
NtRp3303
(dp3304
g61
(dp3305
sg70
g3274
sg63
(lp3306
g56
(g77
g58
NtRp3307
(dp3308
g61
(dp3309
sg70
g3303
sg63
(lp3310
g56
(g57
g58
NtRp3311
(dp3312
g61
(dp3313
g69
I1
ssg70
g3307
sg63
(lp3314
S'/admin/default/edit/wp/views/layout.html'
p3315
asbasbasbasbasbasbasbag56
(g72
g58
NtRp3316
(dp3317
g61
(dp3318
sg70
g3150
sg63
(lp3319
g56
(g77
g58
NtRp3320
(dp3321
g61
(dp3322
sg70
g3316
sg63
(lp3323
g56
(g57
g58
NtRp3324
(dp3325
g61
(dp3326
g69
I2
ssg70
g3320
sg63
(lp3327
g56
(g65
g58
NtRp3328
(dp3329
g61
(dp3330
g69
I1
ssg70
Nsg63
(lp3331
g56
(g72
g58
NtRp3332
(dp3333
g61
(dp3334
sg70
g3328
sg63
(lp3335
g56
(g77
g58
NtRp3336
(dp3337
g61
(dp3338
sg70
g3332
sg63
(lp3339
g56
(g57
g58
NtRp3340
(dp3341
g61
(dp3342
g69
I1
ssg70
g3336
sg63
(lp3343
g3041
(S't\n\x00\x00\x00Stylesheet'
tRp3344
asbasbasbag56
(g72
g58
NtRp3345
(dp3346
g61
(dp3347
sg70
g3328
sg63
(lp3348
g56
(g77
g58
NtRp3349
(dp3350
g61
(dp3351
sg70
g3345
sg63
(lp3352
g56
(g57
g58
NtRp3353
(dp3354
g61
(dp3355
g69
I1
ssg70
g3349
sg63
(lp3356
I00
asbasbasbag56
(g72
g58
NtRp3357
(dp3358
g61
(dp3359
sg70
g3328
sg63
(lp3360
g56
(g77
g58
NtRp3361
(dp3362
g61
(dp3363
sg70
g3357
sg63
(lp3364
g56
(g57
g58
NtRp3365
(dp3366
g61
(dp3367
g69
I1
ssg70
g3361
sg63
(lp3368
S'/admin/default/edit/wp/static/base.css'
p3369
asbasbasbasbasbasbasbag56
(g72
g58
NtRp3370
(dp3371
g61
(dp3372
sg70
g3150
sg63
(lp3373
g56
(g77
g58
NtRp3374
(dp3375
g61
(dp3376
sg70
g3370
sg63
(lp3377
g56
(g57
g58
NtRp3378
(dp3379
g61
(dp3380
g69
I2
ssg70
g3374
sg63
(lp3381
g56
(g65
g58
NtRp3382
(dp3383
g61
(dp3384
g69
I1
ssg70
Nsg63
(lp3385
g56
(g72
g58
NtRp3386
(dp3387
g61
(dp3388
sg70
g3382
sg63
(lp3389
g56
(g77
g58
NtRp3390
(dp3391
g61
(dp3392
sg70
g3386
sg63
(lp3393
g56
(g57
g58
NtRp3394
(dp3395
g61
(dp3396
g69
I1
ssg70
g3390
sg63
(lp3397
g3041
(S's\x08\x00\x00\x00DB Model'
tRp3398
asbasbasbag56
(g72
g58
NtRp3399
(dp3400
g61
(dp3401
sg70
g3382
sg63
(lp3402
g56
(g77
g58
NtRp3403
(dp3404
g61
(dp3405
sg70
g3399
sg63
(lp3406
g56
(g57
g58
NtRp3407
(dp3408
g61
(dp3409
g69
I1
ssg70
g3403
sg63
(lp3410
I00
asbasbasbag56
(g72
g58
NtRp3411
(dp3412
g61
(dp3413
sg70
g3382
sg63
(lp3414
g56
(g77
g58
NtRp3415
(dp3416
g61
(dp3417
sg70
g3411
sg63
(lp3418
g56
(g57
g58
NtRp3419
(dp3420
g61
(dp3421
g69
I1
ssg70
g3415
sg63
(lp3422
S'/admin/default/edit/wp/models/db.py'
p3423
asbasbasbasbasbasbasbag56
(g72
g58
NtRp3424
(dp3425
g61
(dp3426
sg70
g3150
sg63
(lp3427
g56
(g77
g58
NtRp3428
(dp3429
g61
(dp3430
sg70
g3424
sg63
(lp3431
g56
(g57
g58
NtRp3432
(dp3433
g61
(dp3434
g69
I2
ssg70
g3428
sg63
(lp3435
g56
(g65
g58
NtRp3436
(dp3437
g61
(dp3438
g69
I1
ssg70
Nsg63
(lp3439
g56
(g72
g58
NtRp3440
(dp3441
g61
(dp3442
sg70
g3436
sg63
(lp3443
g56
(g77
g58
NtRp3444
(dp3445
g61
(dp3446
sg70
g3440
sg63
(lp3447
g56
(g57
g58
NtRp3448
(dp3449
g61
(dp3450
g69
I1
ssg70
g3444
sg63
(lp3451
g3041
(S's\n\x00\x00\x00Menu Model'
tRp3452
asbasbasbag56
(g72
g58
NtRp3453
(dp3454
g61
(dp3455
sg70
g3436
sg63
(lp3456
g56
(g77
g58
NtRp3457
(dp3458
g61
(dp3459
sg70
g3453
sg63
(lp3460
g56
(g57
g58
NtRp3461
(dp3462
g61
(dp3463
g69
I1
ssg70
g3457
sg63
(lp3464
I00
asbasbasbag56
(g72
g58
NtRp3465
(dp3466
g61
(dp3467
sg70
g3436
sg63
(lp3468
g56
(g77
g58
NtRp3469
(dp3470
g61
(dp3471
sg70
g3465
sg63
(lp3472
g56
(g57
g58
NtRp3473
(dp3474
g61
(dp3475
g69
I1
ssg70
g3469
sg63
(lp3476
S'/admin/default/edit/wp/models/menu.py'
p3477
asbasbasbasbasbasbasbag56
(g72
g58
NtRp3478
(dp3479
g61
(dp3480
sg70
g3150
sg63
(lp3481
g56
(g77
g58
NtRp3482
(dp3483
g61
(dp3484
sg70
g3478
sg63
(lp3485
g56
(g57
g58
NtRp3486
(dp3487
g61
(dp3488
g69
I2
ssg70
g3482
sg63
(lp3489
g56
(g65
g58
NtRp3490
(dp3491
g61
(dp3492
g69
I1
ssg70
Nsg63
(lp3493
g56
(g72
g58
NtRp3494
(dp3495
g61
(dp3496
sg70
g3490
sg63
(lp3497
g56
(g77
g58
NtRp3498
(dp3499
g61
(dp3500
sg70
g3494
sg63
(lp3501
g56
(g57
g58
NtRp3502
(dp3503
g61
(dp3504
g69
I1
ssg70
g3498
sg63
(lp3505
g3041
(S't\x08\x00\x00\x00Database'
tRp3506
asbasbasbag56
(g72
g58
NtRp3507
(dp3508
g61
(dp3509
sg70
g3490
sg63
(lp3510
g56
(g77
g58
NtRp3511
(dp3512
g61
(dp3513
sg70
g3507
sg63
(lp3514
g56
(g57
g58
NtRp3515
(dp3516
g61
(dp3517
g69
I1
ssg70
g3511
sg63
(lp3518
I00
asbasbasbag56
(g72
g58
NtRp3519
(dp3520
g61
(dp3521
sg70
g3490
sg63
(lp3522
g56
(g77
g58
NtRp3523
(dp3524
g61
(dp3525
sg70
g3519
sg63
(lp3526
g56
(g57
g58
NtRp3527
(dp3528
g61
(dp3529
g69
I1
ssg70
g3523
sg63
(lp3530
S'/wp/appadmin/index'
p3531
asbasbasbasbasbasbasbag56
(g72
g58
NtRp3532
(dp3533
g61
(dp3534
sg70
g3150
sg63
(lp3535
g56
(g77
g58
NtRp3536
(dp3537
g61
(dp3538
sg70
g3532
sg63
(lp3539
g56
(g57
g58
NtRp3540
(dp3541
g61
(dp3542
g69
I2
ssg70
g3536
sg63
(lp3543
g56
(g65
g58
NtRp3544
(dp3545
g61
(dp3546
g69
I1
ssg70
Nsg63
(lp3547
g56
(g72
g58
NtRp3548
(dp3549
g61
(dp3550
sg70
g3544
sg63
(lp3551
g56
(g77
g58
NtRp3552
(dp3553
g61
(dp3554
sg70
g3548
sg63
(lp3555
g56
(g57
g58
NtRp3556
(dp3557
g61
(dp3558
g69
I1
ssg70
g3552
sg63
(lp3559
g3041
(S't\x06\x00\x00\x00Errors'
tRp3560
asbasbasbag56
(g72
g58
NtRp3561
(dp3562
g61
(dp3563
sg70
g3544
sg63
(lp3564
g56
(g77
g58
NtRp3565
(dp3566
g61
(dp3567
sg70
g3561
sg63
(lp3568
g56
(g57
g58
NtRp3569
(dp3570
g61
(dp3571
g69
I1
ssg70
g3565
sg63
(lp3572
I00
asbasbasbag56
(g72
g58
NtRp3573
(dp3574
g61
(dp3575
sg70
g3544
sg63
(lp3576
g56
(g77
g58
NtRp3577
(dp3578
g61
(dp3579
sg70
g3573
sg63
(lp3580
g56
(g57
g58
NtRp3581
(dp3582
g61
(dp3583
g69
I1
ssg70
g3577
sg63
(lp3584
S'/admin/default/errors/wp'
p3585
asbasbasbasbasbasbasbag56
(g72
g58
NtRp3586
(dp3587
g61
(dp3588
sg70
g3150
sg63
(lp3589
g56
(g77
g58
NtRp3590
(dp3591
g61
(dp3592
sg70
g3586
sg63
(lp3593
g56
(g57
g58
NtRp3594
(dp3595
g61
(dp3596
g69
I2
ssg70
g3590
sg63
(lp3597
g56
(g65
g58
NtRp3598
(dp3599
g61
(dp3600
g69
I1
ssg70
Nsg63
(lp3601
g56
(g72
g58
NtRp3602
(dp3603
g61
(dp3604
sg70
g3598
sg63
(lp3605
g56
(g77
g58
NtRp3606
(dp3607
g61
(dp3608
sg70
g3602
sg63
(lp3609
g56
(g57
g58
NtRp3610
(dp3611
g61
(dp3612
g69
I1
ssg70
g3606
sg63
(lp3613
g3041
(S't\x05\x00\x00\x00About'
tRp3614
asbasbasbag56
(g72
g58
NtRp3615
(dp3616
g61
(dp3617
sg70
g3598
sg63
(lp3618
g56
(g77
g58
NtRp3619
(dp3620
g61
(dp3621
sg70
g3615
sg63
(lp3622
g56
(g57
g58
NtRp3623
(dp3624
g61
(dp3625
g69
I1
ssg70
g3619
sg63
(lp3626
I00
asbasbasbag56
(g72
g58
NtRp3627
(dp3628
g61
(dp3629
sg70
g3598
sg63
(lp3630
g56
(g77
g58
NtRp3631
(dp3632
g61
(dp3633
sg70
g3627
sg63
(lp3634
g56
(g57
g58
NtRp3635
(dp3636
g61
(dp3637
g69
I1
ssg70
g3631
sg63
(lp3638
S'/admin/default/about/wp'
p3639
asbasbasbasbasbasbasbasbasbasbasbasbasbasbasbag56
(g72
g58
NtRp3640
(dp3641
g61
(dp3642
sg70
g3009
sg63
(lp3643
g56
(g77
g58
NtRp3644
(dp3645
g61
(dp3646
sg70
g3640
sg63
(lp3647
g56
(g57
g58
NtRp3648
(dp3649
g61
(dp3650
g69
I4
ssg70
g3644
sg63
(lp3651
g56
(g65
g58
NtRp3652
(dp3653
g61
(dp3654
g69
I3
ssg70
Nsg63
(lp3655
g56
(g72
g58
NtRp3656
(dp3657
g61
(dp3658
sg70
g3652
sg63
(lp3659
g56
(g77
g58
NtRp3660
(dp3661
g61
(dp3662
sg70
g3656
sg63
(lp3663
g56
(g57
g58
NtRp3664
(dp3665
g61
(dp3666
g69
I3
ssg70
g3660
sg63
(lp3667
g3041
(S't\t\x00\x00\x00Resources'
tRp3668
asbasbasbag56
(g72
g58
NtRp3669
(dp3670
g61
(dp3671
sg70
g3652
sg63
(lp3672
g56
(g77
g58
NtRp3673
(dp3674
g61
(dp3675
sg70
g3669
sg63
(lp3676
g56
(g57
g58
NtRp3677
(dp3678
g61
(dp3679
g69
I3
ssg70
g3673
sg63
(lp3680
g99
asbasbasbag56
(g72
g58
NtRp3681
(dp3682
g61
(dp3683
sg70
g3652
sg63
(lp3684
g56
(g77
g58
NtRp3685
(dp3686
g61
(dp3687
sg70
g3681
sg63
(lp3688
g56
(g57
g58
NtRp3689
(dp3690
g61
(dp3691
g69
I3
ssg70
g3685
sg63
(lp3692
S'None'
p3693
asbasbasbag56
(g72
g58
NtRp3694
(dp3695
g61
(dp3696
sg70
g3652
sg63
(lp3697
g56
(g77
g58
NtRp3698
(dp3699
g61
(dp3700
sg70
g3694
sg63
(lp3701
g56
(g57
g58
NtRp3702
(dp3703
g61
(dp3704
g69
I3
ssg70
g3698
sg63
(lp3705
g56
(g65
g58
NtRp3706
(dp3707
g61
(dp3708
g69
I2
ssg70
Nsg63
(lp3709
g56
(g72
g58
NtRp3710
(dp3711
g61
(dp3712
sg70
g3706
sg63
(lp3713
g56
(g77
g58
NtRp3714
(dp3715
g61
(dp3716
sg70
g3710
sg63
(lp3717
g56
(g57
g58
NtRp3718
(dp3719
g61
(dp3720
g69
I2
ssg70
g3714
sg63
(lp3721
g56
(g65
g58
NtRp3722
(dp3723
g61
(dp3724
g69
I1
ssg70
Nsg63
(lp3725
g56
(g72
g58
NtRp3726
(dp3727
g61
(dp3728
sg70
g3722
sg63
(lp3729
g56
(g77
g58
NtRp3730
(dp3731
g61
(dp3732
sg70
g3726
sg63
(lp3733
g56
(g57
g58
NtRp3734
(dp3735
g61
(dp3736
g69
I1
ssg70
g3730
sg63
(lp3737
g3041
(S't\r\x00\x00\x00Documentation'
tRp3738
asbasbasbag56
(g72
g58
NtRp3739
(dp3740
g61
(dp3741
sg70
g3722
sg63
(lp3742
g56
(g77
g58
NtRp3743
(dp3744
g61
(dp3745
sg70
g3739
sg63
(lp3746
g56
(g57
g58
NtRp3747
(dp3748
g61
(dp3749
g69
I1
ssg70
g3743
sg63
(lp3750
I00
asbasbasbag56
(g72
g58
NtRp3751
(dp3752
g61
(dp3753
sg70
g3722
sg63
(lp3754
g56
(g77
g58
NtRp3755
(dp3756
g61
(dp3757
sg70
g3751
sg63
(lp3758
g56
(g57
g58
NtRp3759
(dp3760
g61
(dp3761
g69
I1
ssg70
g3755
sg63
(lp3762
S'http://www.web2py.com/book'
p3763
asbasbasbag56
(g72
g58
NtRp3764
(dp3765
g61
(dp3766
sg70
g3722
sg63
(lp3767
g56
(g77
g58
NtRp3768
(dp3769
g61
(dp3770
sg70
g3764
sg63
(lp3771
g56
(g57
g58
NtRp3772
(dp3773
g61
(dp3774
g69
I1
ssg70
g3768
sg63
(lp3775
(lp3776
(g3041
(S't\x07\x00\x00\x00Preface'
tRp3777
I00
S'http://www.web2py.com/book/default/chapter/00'
tp3778
a(g3041
(S't\x0c\x00\x00\x00Introduction'
tRp3779
I00
S'http://www.web2py.com/book/default/chapter/01'
tp3780
a(g3041
(S't\x06\x00\x00\x00Python'
tRp3781
I00
S'http://www.web2py.com/book/default/chapter/02'
tp3782
a(g3041
(S't\x08\x00\x00\x00Overview'
tRp3783
I00
S'http://www.web2py.com/book/default/chapter/03'
tp3784
a(g3041
(S's\x08\x00\x00\x00The Core'
tRp3785
I00
S'http://www.web2py.com/book/default/chapter/04'
tp3786
a(g3041
(S's\t\x00\x00\x00The Views'
tRp3787
I00
S'http://www.web2py.com/book/default/chapter/05'
tp3788
a(g3041
(S't\x08\x00\x00\x00Database'
tRp3789
I00
S'http://www.web2py.com/book/default/chapter/06'
tp3790
a(g3041
(S's\x14\x00\x00\x00Forms and Validators'
tRp3791
I00
S'http://www.web2py.com/book/default/chapter/07'
tp3792
a(g3041
(S's\x0e\x00\x00\x00Access Control'
tRp3793
I00
S'http://www.web2py.com/book/default/chapter/08'
tp3794
a(g3041
(S't\x08\x00\x00\x00Services'
tRp3795
I00
S'http://www.web2py.com/book/default/chapter/09'
tp3796
a(g3041
(S's\x0c\x00\x00\x00Ajax Recipes'
tRp3797
I00
S'http://www.web2py.com/book/default/chapter/10'
tp3798
a(g3041
(S's\x12\x00\x00\x00Deployment Recipes'
tRp3799
I00
S'http://www.web2py.com/book/default/chapter/11'
tp3800
a(g3041
(S's\r\x00\x00\x00Other Recipes'
tRp3801
I00
S'http://www.web2py.com/book/default/chapter/12'
tp3802
a(g3041
(S's\r\x00\x00\x00Buy this book'
tRp3803
I00
S'http://stores.lulu.com/web2py'
tp3804
aasbasbasbasbasbasbasbag56
(g72
g58
NtRp3805
(dp3806
g61
(dp3807
sg70
g3706
sg63
(lp3808
g56
(g77
g58
NtRp3809
(dp3810
g61
(dp3811
sg70
g3805
sg63
(lp3812
g56
(g57
g58
NtRp3813
(dp3814
g61
(dp3815
g69
I2
ssg70
g3809
sg63
(lp3816
g56
(g65
g58
NtRp3817
(dp3818
g61
(dp3819
g69
I1
ssg70
Nsg63
(lp3820
g56
(g72
g58
NtRp3821
(dp3822
g61
(dp3823
sg70
g3817
sg63
(lp3824
g56
(g77
g58
NtRp3825
(dp3826
g61
(dp3827
sg70
g3821
sg63
(lp3828
g56
(g57
g58
NtRp3829
(dp3830
g61
(dp3831
g69
I1
ssg70
g3825
sg63
(lp3832
g3041
(S't\t\x00\x00\x00Community'
tRp3833
asbasbasbag56
(g72
g58
NtRp3834
(dp3835
g61
(dp3836
sg70
g3817
sg63
(lp3837
g56
(g77
g58
NtRp3838
(dp3839
g61
(dp3840
sg70
g3834
sg63
(lp3841
g56
(g57
g58
NtRp3842
(dp3843
g61
(dp3844
g69
I1
ssg70
g3838
sg63
(lp3845
I00
asbasbasbag56
(g72
g58
NtRp3846
(dp3847
g61
(dp3848
sg70
g3817
sg63
(lp3849
g56
(g77
g58
NtRp3850
(dp3851
g61
(dp3852
sg70
g3846
sg63
(lp3853
g56
(g57
g58
NtRp3854
(dp3855
g61
(dp3856
g69
I1
ssg70
g3850
sg63
(lp3857
Nasbasbasbag56
(g72
g58
NtRp3858
(dp3859
g61
(dp3860
sg70
g3817
sg63
(lp3861
g56
(g77
g58
NtRp3862
(dp3863
g61
(dp3864
sg70
g3858
sg63
(lp3865
g56
(g57
g58
NtRp3866
(dp3867
g61
(dp3868
g69
I1
ssg70
g3862
sg63
(lp3869
(lp3870
(g3041
(S't\x06\x00\x00\x00Groups'
tRp3871
I00
S'http://www.web2py.com/examples/default/usergroups'
tp3872
a(g3041
(S't\x07\x00\x00\x00Twitter'
tRp3873
I00
S'http://twitter.com/web2py'
tp3874
a(g3041
(S's\t\x00\x00\x00Live chat'
tRp3875
I00
S'http://mibbit.com/?channel=%23web2py&server=irc.mibbit.net'
tp3876
a(g3041
(S's\n\x00\x00\x00User Voice'
tRp3877
I00
S'http://web2py.uservoice.com/'
tp3878
aasbasbasbasbasbasbasbag56
(g72
g58
NtRp3879
(dp3880
g61
(dp3881
sg70
g3706
sg63
(lp3882
g56
(g77
g58
NtRp3883
(dp3884
g61
(dp3885
sg70
g3879
sg63
(lp3886
g56
(g57
g58
NtRp3887
(dp3888
g61
(dp3889
g69
I2
ssg70
g3883
sg63
(lp3890
g56
(g65
g58
NtRp3891
(dp3892
g61
(dp3893
g69
I1
ssg70
Nsg63
(lp3894
g56
(g72
g58
NtRp3895
(dp3896
g61
(dp3897
sg70
g3891
sg63
(lp3898
g56
(g77
g58
NtRp3899
(dp3900
g61
(dp3901
sg70
g3895
sg63
(lp3902
g56
(g57
g58
NtRp3903
(dp3904
g61
(dp3905
g69
I1
ssg70
g3899
sg63
(lp3906
g3041
(S't\x06\x00\x00\x00Web2py'
tRp3907
asbasbasbag56
(g72
g58
NtRp3908
(dp3909
g61
(dp3910
sg70
g3891
sg63
(lp3911
g56
(g77
g58
NtRp3912
(dp3913
g61
(dp3914
sg70
g3908
sg63
(lp3915
g56
(g57
g58
NtRp3916
(dp3917
g61
(dp3918
g69
I1
ssg70
g3912
sg63
(lp3919
I00
asbasbasbag56
(g72
g58
NtRp3920
(dp3921
g61
(dp3922
sg70
g3891
sg63
(lp3923
g56
(g77
g58
NtRp3924
(dp3925
g61
(dp3926
sg70
g3920
sg63
(lp3927
g56
(g57
g58
NtRp3928
(dp3929
g61
(dp3930
g69
I1
ssg70
g3924
sg63
(lp3931
S'http://www.web2py.com'
p3932
asbasbasbag56
(g72
g58
NtRp3933
(dp3934
g61
(dp3935
sg70
g3891
sg63
(lp3936
g56
(g77
g58
NtRp3937
(dp3938
g61
(dp3939
sg70
g3933
sg63
(lp3940
g56
(g57
g58
NtRp3941
(dp3942
g61
(dp3943
g69
I1
ssg70
g3937
sg63
(lp3944
(lp3945
(g3041
(S't\x08\x00\x00\x00Download'
tRp3946
I00
S'http://www.web2py.com/examples/default/download'
tp3947
a(g3041
(S't\x07\x00\x00\x00Support'
tRp3948
I00
S'http://www.web2py.com/examples/default/support'
tp3949
a(g3041
(S's\x0e\x00\x00\x00Quick Examples'
tRp3950
I00
S'http://web2py.com/examples/default/examples'
tp3951
a(g3041
(S't\x03\x00\x00\x00FAQ'
tRp3952
I00
S'http://web2py.com/AlterEgo'
tp3953
a(g3041
(S's\x11\x00\x00\x00Free Applications'
tRp3954
I00
S'http://web2py.com/appliances'
tp3955
a(g3041
(S't\x07\x00\x00\x00Plugins'
tRp3956
I00
S'http://web2py.com/plugins'
tp3957
a(g3041
(S't\x07\x00\x00\x00Recipes'
tRp3958
I00
S'http://web2pyslices.com/'
tp3959
a(g3041
(S't\x04\x00\x00\x00Demo'
tRp3960
I00
S'http://web2py.com/demo_admin'
tp3961
a(g3041
(S't\x08\x00\x00\x00Semantic'
tRp3962
I00
S'http://web2py.com/semantic'
tp3963
a(g3041
(S't\x07\x00\x00\x00Layouts'
tRp3964
I00
S'http://web2py.com/layouts'
tp3965
a(g3041
(S't\x06\x00\x00\x00Videos'
tRp3966
I00
S'http://www.web2py.com/examples/default/videos/'
tp3967
aasbasbasbasbasbasbasbasbasbasbasbasbasbasbasbasbasbasbasbag56
(g72
g58
NtRp3968
(dp3969
g61
(dp3970
sg70
g2573
sg63
(lp3971
g56
(g77
g58
NtRp3972
(dp3973
g61
(dp3974
g81
g82
ssg70
g3968
sg63
(lp3975
S'meta'
p3976
asbag56
(g77
g58
NtRp3977
(dp3978
g61
(dp3979
g88
g89
ssg70
g3968
sg63
(lp3980
S':'
asbag56
(g77
g58
NtRp3981
(dp3982
g61
(dp3983
sg70
g3968
sg63
(lp3984
g56
(g57
g58
NtRp3985
(dp3986
g61
(dp3987
g69
I5
ssg70
g3981
sg63
(lp3988
g56
(g65
g58
NtRp3989
(dp3990
g61
(dp3991
g69
I4
ssg70
Nsg63
(lp3992
g56
(g72
g58
NtRp3993
(dp3994
g61
(dp3995
sg70
g3989
sg63
(lp3996
g56
(g77
g58
NtRp3997
(dp3998
g61
(dp3999
g81
g82
ssg70
g3993
sg63
(lp4000
S'author'
p4001
asbag56
(g77
g58
NtRp4002
(dp4003
g61
(dp4004
g88
g89
ssg70
g3993
sg63
(lp4005
S':'
asbag56
(g77
g58
NtRp4006
(dp4007
g61
(dp4008
sg70
g3993
sg63
(lp4009
g56
(g57
g58
NtRp4010
(dp4011
g61
(dp4012
g69
I4
ssg70
g4006
sg63
(lp4013
S'you'
p4014
asbasbasbag56
(g72
g58
NtRp4015
(dp4016
g61
(dp4017
sg70
g3989
sg63
(lp4018
g56
(g77
g58
NtRp4019
(dp4020
g61
(dp4021
g81
g82
ssg70
g4015
sg63
(lp4022
S'copyright'
p4023
asbag56
(g77
g58
NtRp4024
(dp4025
g61
(dp4026
g88
g89
ssg70
g4015
sg63
(lp4027
S':'
asbag56
(g77
g58
NtRp4028
(dp4029
g61
(dp4030
sg70
g4015
sg63
(lp4031
g56
(g57
g58
NtRp4032
(dp4033
g61
(dp4034
g69
I4
ssg70
g4028
sg63
(lp4035
S'Copyright 2007-2010'
p4036
asbasbasbag56
(g72
g58
NtRp4037
(dp4038
g61
(dp4039
sg70
g3989
sg63
(lp4040
g56
(g77
g58
NtRp4041
(dp4042
g61
(dp4043
g81
g82
ssg70
g4037
sg63
(lp4044
S'description'
p4045
asbag56
(g77
g58
NtRp4046
(dp4047
g61
(dp4048
g88
g89
ssg70
g4037
sg63
(lp4049
S':'
asbag56
(g77
g58
NtRp4050
(dp4051
g61
(dp4052
sg70
g4037
sg63
(lp4053
g56
(g57
g58
NtRp4054
(dp4055
g61
(dp4056
g69
I4
ssg70
g4050
sg63
(lp4057
S'Free and open source full-stack enterprise framework for agile development of fast, scalable, secure and portable database-driven web-based applications. Written and programmable in Python'
p4058
asbasbasbag56
(g72
g58
NtRp4059
(dp4060
g61
(dp4061
sg70
g3989
sg63
(lp4062
g56
(g77
g58
NtRp4063
(dp4064
g61
(dp4065
g81
g82
ssg70
g4059
sg63
(lp4066
S'generator'
p4067
asbag56
(g77
g58
NtRp4068
(dp4069
g61
(dp4070
g88
g89
ssg70
g4059
sg63
(lp4071
S':'
asbag56
(g77
g58
NtRp4072
(dp4073
g61
(dp4074
sg70
g4059
sg63
(lp4075
g56
(g57
g58
NtRp4076
(dp4077
g61
(dp4078
g69
I4
ssg70
g4072
sg63
(lp4079
S'Web2py Enterprise Framework'
p4080
asbasbasbag56
(g72
g58
NtRp4081
(dp4082
g61
(dp4083
sg70
g3989
sg63
(lp4084
g56
(g77
g58
NtRp4085
(dp4086
g61
(dp4087
g81
g82
ssg70
g4081
sg63
(lp4088
S'keywords'
p4089
asbag56
(g77
g58
NtRp4090
(dp4091
g61
(dp4092
g88
g89
ssg70
g4081
sg63
(lp4093
S':'
asbag56
(g77
g58
NtRp4094
(dp4095
g61
(dp4096
sg70
g4081
sg63
(lp4097
g56
(g57
g58
NtRp4098
(dp4099
g61
(dp4100
g69
I4
ssg70
g4094
sg63
(lp4101
S'web2py, python, framework'
p4102
asbasbasbasbasbasbasbag56
(g72
g58
NtRp4103
(dp4104
g61
(dp4105
sg70
g2573
sg63
(lp4106
g56
(g77
g58
NtRp4107
(dp4108
g61
(dp4109
g81
g82
ssg70
g4103
sg63
(lp4110
S'postprocessing'
p4111
asbag56
(g77
g58
NtRp4112
(dp4113
g61
(dp4114
g88
g89
ssg70
g4103
sg63
(lp4115
S':'
asbag56
(g77
g58
NtRp4116
(dp4117
g61
(dp4118
sg70
g4103
sg63
(lp4119
g56
(g57
g58
NtRp4120
(dp4121
g61
(dp4122
g69
I5
ssg70
g4116
sg63
(lp4123
g56
(g65
g58
NtRp4124
(dp4125
g61
(dp4126
g69
I4
ssg70
Nsg63
(lp4127
sbasbasbasbag56
(g72
g58
NtRp4128
(dp4129
g61
(dp4130
sg70
g2573
sg63
(lp4131
g56
(g77
g58
NtRp4132
(dp4133
g61
(dp4134
g81
g82
ssg70
g4128
sg63
(lp4135
S'session_filename'
p4136
asbag56
(g77
g58
NtRp4137
(dp4138
g61
(dp4139
g88
g89
ssg70
g4128
sg63
(lp4140
S':'
asbag56
(g77
g58
NtRp4141
(dp4142
g61
(dp4143
sg70
g4128
sg63
(lp4144
g56
(g57
g58
NtRp4145
(dp4146
g61
(dp4147
g69
I5
ssg70
g4141
sg63
(lp4148
S'/Users/schultzc/Downloads/web2py/applications/wp/sessions/127.0.0.1-594ecc2e-91a8-4b31-8a9a-4428bc9bd21f'
p4149
asbasbasbag56
(g72
g58
NtRp4150
(dp4151
g61
(dp4152
sg70
g2573
sg63
(lp4153
g56
(g77
g58
NtRp4154
(dp4155
g61
(dp4156
g81
g82
ssg70
g4150
sg63
(lp4157
S'session_id'
p4158
asbag56
(g77
g58
NtRp4159
(dp4160
g61
(dp4161
g88
g89
ssg70
g4150
sg63
(lp4162
S':'
asbag56
(g77
g58
NtRp4163
(dp4164
g61
(dp4165
sg70
g4150
sg63
(lp4166
g56
(g57
g58
NtRp4167
(dp4168
g61
(dp4169
g69
I5
ssg70
g4163
sg63
(lp4170
S'127.0.0.1-594ecc2e-91a8-4b31-8a9a-4428bc9bd21f'
p4171
asbasbasbag56
(g72
g58
NtRp4172
(dp4173
g61
(dp4174
sg70
g2573
sg63
(lp4175
g56
(g77
g58
NtRp4176
(dp4177
g61
(dp4178
g81
g82
ssg70
g4172
sg63
(lp4179
S'session_id_name'
p4180
asbag56
(g77
g58
NtRp4181
(dp4182
g61
(dp4183
g88
g89
ssg70
g4172
sg63
(lp4184
S':'
asbag56
(g77
g58
NtRp4185
(dp4186
g61
(dp4187
sg70
g4172
sg63
(lp4188
g56
(g57
g58
NtRp4189
(dp4190
g61
(dp4191
g69
I5
ssg70
g4185
sg63
(lp4192
g2630
asbasbasbag56
(g72
g58
NtRp4193
(dp4194
g61
(dp4195
sg70
g2573
sg63
(lp4196
g56
(g77
g58
NtRp4197
(dp4198
g61
(dp4199
g81
g82
ssg70
g4193
sg63
(lp4200
S'session_new'
p4201
asbag56
(g77
g58
NtRp4202
(dp4203
g61
(dp4204
g88
g89
ssg70
g4193
sg63
(lp4205
S':'
asbag56
(g77
g58
NtRp4206
(dp4207
g61
(dp4208
sg70
g4193
sg63
(lp4209
g56
(g57
g58
NtRp4210
(dp4211
g61
(dp4212
g69
I5
ssg70
g4206
sg63
(lp4213
g1547
asbasbasbag56
(g72
g58
NtRp4214
(dp4215
g61
(dp4216
sg70
g2573
sg63
(lp4217
g56
(g77
g58
NtRp4218
(dp4219
g61
(dp4220
g81
g82
ssg70
g4214
sg63
(lp4221
S'status'
p4222
asbag56
(g77
g58
NtRp4223
(dp4224
g61
(dp4225
g88
g89
ssg70
g4214
sg63
(lp4226
S':'
asbag56
(g77
g58
NtRp4227
(dp4228
g61
(dp4229
sg70
g4214
sg63
(lp4230
g56
(g57
g58
NtRp4231
(dp4232
g61
(dp4233
g69
I5
ssg70
g4227
sg63
(lp4234
S'200'
p4235
asbasbasbag56
(g72
g58
NtRp4236
(dp4237
g61
(dp4238
sg70
g2573
sg63
(lp4239
g56
(g77
g58
NtRp4240
(dp4241
g61
(dp4242
g81
g82
ssg70
g4236
sg63
(lp4243
S'subtitle'
p4244
asbag56
(g77
g58
NtRp4245
(dp4246
g61
(dp4247
g88
g89
ssg70
g4236
sg63
(lp4248
S':'
asbag56
(g77
g58
NtRp4249
(dp4250
g61
(dp4251
sg70
g4236
sg63
(lp4252
g56
(g57
g58
NtRp4253
(dp4254
g61
(dp4255
g69
I5
ssg70
g4249
sg63
(lp4256
g3041
(S's\r\x00\x00\x00customize me!'
tRp4257
asbasbasbag56
(g72
g58
NtRp4258
(dp4259
g61
(dp4260
sg70
g2573
sg63
(lp4261
g56
(g77
g58
NtRp4262
(dp4263
g61
(dp4264
g81
g82
ssg70
g4258
sg63
(lp4265
S'title'
p4266
asbag56
(g77
g58
NtRp4267
(dp4268
g61
(dp4269
g88
g89
ssg70
g4258
sg63
(lp4270
S':'
asbag56
(g77
g58
NtRp4271
(dp4272
g61
(dp4273
sg70
g4258
sg63
(lp4274
g56
(g57
g58
NtRp4275
(dp4276
g61
(dp4277
g69
I5
ssg70
g4271
sg63
(lp4278
g121
asbasbasbag56
(g72
g58
NtRp4279
(dp4280
g61
(dp4281
sg70
g2573
sg63
(lp4282
g56
(g77
g58
NtRp4283
(dp4284
g61
(dp4285
g81
g82
ssg70
g4279
sg63
(lp4286
g1871
asbag56
(g77
g58
NtRp4287
(dp4288
g61
(dp4289
g88
g89
ssg70
g4279
sg63
(lp4290
S':'
asbag56
(g77
g58
NtRp4291
(dp4292
g61
(dp4293
sg70
g4279
sg63
(lp4294
g56
(g57
g58
NtRp4295
(dp4296
g61
(dp4297
g69
I5
ssg70
g4291
sg63
(lp4298
g1884
asbasbasbag56
(g72
g58
NtRp4299
(dp4300
g61
(dp4301
sg70
g2573
sg63
(lp4302
g56
(g77
g58
NtRp4303
(dp4304
g61
(dp4305
g81
g82
ssg70
g4299
sg63
(lp4306
S'view'
p4307
asbag56
(g77
g58
NtRp4308
(dp4309
g61
(dp4310
g88
g89
ssg70
g4299
sg63
(lp4311
S':'
asbag56
(g77
g58
NtRp4312
(dp4313
g61
(dp4314
sg70
g4299
sg63
(lp4315
g56
(g57
g58
NtRp4316
(dp4317
g61
(dp4318
g69
I5
ssg70
g4312
sg63
(lp4319
S'default/submit.html'
p4320
asbasbasbasbasbsS'locals'
p4321
(dp4322
S'show'
p4323
S'<function show>'
p4324
sS'OBJECT'
p4325
S"<class 'gluon.html.OBJECT'>"
p4326
sS'SQLDB'
p4327
S"<class 'gluon.dal.DAL'>"
p4328
sg2555
S"<Storage {'_Session__hash': '\\xc8[\\xd5\\xc1#\\xd8e\\x10\\xe3\\x06\\x0ba\\xddT\\x92m'}>"
p4329
sS'LINK'
p4330
S"<class 'gluon.html.LINK'>"
p4331
sS'BR'
p4332
S"<class 'gluon.html.BR'>"
p4333
sS'local_import'
p4334
S'<function <lambda>>'
p4335
sS'OPTGROUP'
p4336
S"<class 'gluon.html.OPTGROUP'>"
p4337
sS'PRE'
p4338
S"<class 'gluon.html.PRE'>"
p4339
sS'IS_INT_IN_RANGE'
p4340
S"<class 'gluon.validators.IS_INT_IN_RANGE'>"
p4341
sS'IS_LOWER'
p4342
S"<class 'gluon.validators.IS_LOWER'>"
p4343
sS'IS_STRONG'
p4344
S"<class 'gluon.validators.IS_STRONG'>"
p4345
sS'cache'
p4346
S'<gluon.cache.Cache object>'
p4347
sS'IS_IN_DB'
p4348
S"<class 'gluon.validators.IS_IN_DB'>"
p4349
sS'TAG'
p4350
S'<gluon.html.__TAG__ object>'
p4351
sS'SQLField'
p4352
S"<class 'gluon.dal.Field'>"
p4353
sS'BODY'
p4354
S"<class 'gluon.html.BODY'>"
p4355
sS'IS_DATE_IN_RANGE'
p4356
S"<class 'gluon.validators.IS_DATE_IN_RANGE'>"
p4357
sS'IFRAME'
p4358
S"<class 'gluon.html.IFRAME'>"
p4359
sS'URL'
p4360
S'<function URL>'
p4361
sS'__file__'
p4362
S"'/Users/schultzc/Downloads/web2py/applications/wp/controllers/default.py'"
p4363
sS'db'
p4364
S"<DAL {'_migrate_enabled': True, '_lastsql': 'CRE...'_uri_hash': 'fb87181b96a99be45f5a23f4277867ce'}>"
p4365
sS'P'
S"<class 'gluon.html.P'>"
p4366
sS'TFOOT'
p4367
S"<class 'gluon.html.TFOOT'>"
p4368
sS'XHTML'
p4369
S"<class 'gluon.html.XHTML'>"
p4370
sS'ON'
p4371
g1547
sS'OL'
p4372
S"<class 'gluon.html.OL'>"
p4373
sS'TEXTAREA'
p4374
S"<class 'gluon.html.TEXTAREA'>"
p4375
sS'MENU'
p4376
S"<class 'gluon.html.MENU'>"
p4377
sS'EM'
p4378
S"<class 'gluon.html.EM'>"
p4379
sS'CODE'
p4380
S"<class 'gluon.html.CODE'>"
p4381
sS'HTTP'
p4382
S"<class 'gluon.http.HTTP'>"
p4383
sS'HR'
p4384
S"<class 'gluon.html.HR'>"
p4385
sS'IS_DATETIME'
p4386
S"<class 'gluon.validators.IS_DATETIME'>"
p4387
sS'STYLE'
p4388
S"<class 'gluon.html.STYLE'>"
p4389
sS'LABEL'
p4390
S"<class 'gluon.html.LABEL'>"
p4391
sS'CLEANUP'
p4392
S"<class 'gluon.validators.CLEANUP'>"
p4393
sS'download'
p4394
S'<function download>'
p4395
sS'SELECT'
p4396
S"<class 'gluon.html.SELECT'>"
p4397
sS'index'
p4398
S'<function index>'
p4399
sS'CENTER'
p4400
S"<class 'gluon.html.CENTER'>"
p4401
sS'__builtins__'
p4402
S"{'ArithmeticError': <type 'exceptions.ArithmeticError'>, 'AssertionError': <type 'exceptions.AssertionError'>, 'AttributeError': <type 'exceptions.AttributeError'>, 'BaseException': <type 'exceptions.BaseException'>, 'BufferError': <type 'exceptions.BufferError'>, 'BytesWarning': <type 'exceptions.BytesWarning'>, 'DeprecationWarning': <type 'exceptions.DeprecationWarning'>, 'EOFError': <type 'exceptions.EOFError'>, 'Ellipsis': Ellipsis, 'EnvironmentError': <type 'exceptions.EnvironmentError'>, ...}"
p4403
sS'IS_LIST_OF'
p4404
S"<class 'gluon.validators.IS_LIST_OF'>"
p4405
sS'SQLFORM'
p4406
S"<class 'gluon.sqlhtml.SQLFORM'>"
p4407
sS'LOAD'
p4408
S'<gluon.compileapp.LoadFactory object>'
p4409
sS'redirect'
p4410
S'<function redirect>'
p4411
sS'FIELDSET'
p4412
S"<class 'gluon.html.FIELDSET'>"
p4413
sS'IS_EQUAL_TO'
p4414
S"<class 'gluon.validators.IS_EQUAL_TO'>"
p4415
sS'embed64'
p4416
S'<function embed64>'
p4417
sS'INPUT'
p4418
S"<class 'gluon.html.INPUT'>"
p4419
sS'EMBED'
p4420
S"<class 'gluon.html.EMBED'>"
p4421
sS'FORM'
p4422
S"<class 'gluon.html.FORM'>"
p4423
sS'H2'
p4424
S"<class 'gluon.html.H2'>"
p4425
sS'H3'
p4426
S"<class 'gluon.html.H3'>"
p4427
sS'BUTTON'
p4428
S"<class 'gluon.html.BUTTON'>"
p4429
sS'H1'
p4430
S"<class 'gluon.html.H1'>"
p4431
sS'H6'
p4432
S"<class 'gluon.html.H6'>"
p4433
sS'H4'
p4434
S"<class 'gluon.html.H4'>"
p4435
sS'H5'
p4436
S"<class 'gluon.html.H5'>"
p4437
sS'UL'
p4438
S"<class 'gluon.html.UL'>"
p4439
sS'IS_UPPER'
p4440
S"<class 'gluon.validators.IS_UPPER'>"
p4441
sS'xmlescape'
p4442
S'<function xmlescape>'
p4443
sS'IS_TIME'
p4444
S"<class 'gluon.validators.IS_TIME'>"
p4445
sS'OPTION'
p4446
S"<class 'gluon.html.OPTION'>"
p4447
sS'TITLE'
p4448
S"<class 'gluon.html.TITLE'>"
p4449
sS'CRYPT'
p4450
S"<class 'gluon.validators.CRYPT'>"
p4451
sS'IS_EMPTY_OR'
p4452
S"<class 'gluon.validators.IS_EMPTY_OR'>"
p4453
sS'MARKMIN'
p4454
S"<class 'gluon.html.MARKMIN'>"
p4455
sS'SCRIPT'
p4456
S"<class 'gluon.html.SCRIPT'>"
p4457
sS'submit'
p4458
S'<function submit>'
p4459
sg2533
S'<function call>'
p4460
sS'TABLE'
p4461
S"<class 'gluon.html.TABLE'>"
p4462
sS'IS_IPV4'
p4463
S"<class 'gluon.validators.IS_IPV4'>"
p4464
sS'IS_LENGTH'
p4465
S"<class 'gluon.validators.IS_LENGTH'>"
p4466
sS'XML'
p4467
S"<class 'gluon.html.XML'>"
p4468
sS'B'
S"<class 'gluon.html.B'>"
p4469
sS'IMG'
p4470
S"<class 'gluon.html.IMG'>"
p4471
sS'SQLTABLE'
p4472
S"<class 'gluon.sqlhtml.SQLTABLE'>"
p4473
sS'IS_MATCH'
p4474
S"<class 'gluon.validators.IS_MATCH'>"
p4475
sS'IS_ALPHANUMERIC'
p4476
S"<class 'gluon.validators.IS_ALPHANUMERIC'>"
p4477
sS'SPAN'
p4478
S"<class 'gluon.html.SPAN'>"
p4479
sS'IS_SLUG'
p4480
S"<class 'gluon.validators.IS_SLUG'>"
p4481
sS'META'
p4482
S"<class 'gluon.html.META'>"
p4483
sS'IS_DATE'
p4484
S"<class 'gluon.validators.IS_DATE'>"
p4485
sS'IS_EMAIL'
p4486
S"<class 'gluon.validators.IS_EMAIL'>"
p4487
sS'IS_NOT_EMPTY'
p4488
S"<class 'gluon.validators.IS_NOT_EMPTY'>"
p4489
sS'IS_FLOAT_IN_RANGE'
p4490
S"<class 'gluon.validators.IS_FLOAT_IN_RANGE'>"
p4491
sS'BEAUTIFY'
p4492
S"<class 'gluon.html.BEAUTIFY'>"
p4493
sS'TBODY'
p4494
S"<class 'gluon.html.TBODY'>"
p4495
sS'Field'
p4496
S"<class 'gluon.dal.Field'>"
p4497
sS'DIV'
p4498
S"<class 'gluon.html.DIV'>"
p4499
sS'LEGEND'
p4500
S"<class 'gluon.html.LEGEND'>"
p4501
sS'DAL'
p4502
S"<class 'gluon.dal.DAL'>"
p4503
sS'TT'
p4504
S"<class 'gluon.html.TT'>"
p4505
sS'TR'
p4506
S"<class 'gluon.html.TR'>"
p4507
sS'LI'
p4508
S"<class 'gluon.html.LI'>"
p4509
sS'TH'
p4510
S"<class 'gluon.html.TH'>"
p4511
sS'TD'
p4512
S"<class 'gluon.html.TD'>"
p4513
sS'IS_URL'
p4514
S"<class 'gluon.validators.IS_URL'>"
p4515
sS'A'
S"<class 'gluon.html.A'>"
p4516
sS'HEAD'
p4517
S"<class 'gluon.html.HEAD'>"
p4518
sS'IS_DATETIME_IN_RANGE'
p4519
S"<class 'gluon.validators.IS_DATETIME_IN_RANGE'>"
p4520
sS'HTML'
p4521
S"<class 'gluon.html.HTML'>"
p4522
sS'IS_IMAGE'
p4523
S"<class 'gluon.validators.IS_IMAGE'>"
p4524
sS'I'
S"<class 'gluon.html.I'>"
p4525
sS'IS_NOT_IN_DB'
p4526
S"<class 'gluon.validators.IS_NOT_IN_DB'>"
p4527
sS'user'
p4528
S'<function user>'
p4529
sg2568
S"<Storage {'status': 200, 'body': <cStringIO.Stri...wp', 'files': [], 'view': 'default/submit.html'}>"
p4530
sS'THEAD'
p4531
S"<class 'gluon.html.THEAD'>"
p4532
sS'IS_NULL_OR'
p4533
S"<class 'gluon.validators.IS_EMPTY_OR'>"
p4534
sg55
S"<Storage {'is_local': True, 'function': 'submit'....22-19-46.3c516156-4c94-4b50-b7c9-c57e92a6ec05'}>"
p4535
sS'IS_EXPR'
p4536
S"<class 'gluon.validators.IS_EXPR'>"
p4537
sS'IS_IN_SET'
p4538
S"<class 'gluon.validators.IS_IN_SET'>"
p4539
sS'IS_UPLOAD_FILENAME'
p4540
S"<class 'gluon.validators.IS_UPLOAD_FILENAME'>"
p4541
sS'IS_DECIMAL_IN_RANGE'
p4542
S"<class 'gluon.validators.IS_DECIMAL_IN_RANGE'>"
p4543
sS'T'
S'<gluon.languages.translator object>'
p4544
sssS'traceback'
p4545
S'Traceback (most recent call last):\n  File "/Users/schultzc/Downloads/web2py/gluon/restricted.py", line 192, in restricted\n    exec ccode in environment\n  File "/Users/schultzc/Downloads/web2py/applications/wp/controllers/default.py", line 73, in <module>\n    @auth.requires_signature()\nNameError: name \'auth\' is not defined\n'
p4546
s.