(dp1
S'output'
p2
S''
sS'layer'
p3
S'/Users/schultzc/workspace/wherespuppet/web2py/applications/wp/controllers/default.py'
p4
sS'code'
p5
S'# -*- coding: utf-8 -*-\n# this file is released under public domain and you can use without limitations\n\n#########################################################################\n## This is a samples controller\n## - index is the default action of any application\n## - user is required for authentication and authorization\n## - download is for downloading files uploaded in the db (does streaming)\n## - call exposes all registered services (none by default)\n#########################################################################\nimport datetime\n\n\ndef index():\n    images = db().select(db.image.ALL, orderby=db.image.title)\n    return dict(images=images)\n    \ndef submit():\n   ## latitude = request.cookies[\'posLat\'].value\n    form = SQLFORM(db.image, submit_button=\'Submit Puppet\', _id = "submission",formstyle="divs")\n    \n    if form.accepts(request.vars, session):\n        response.flash = \'form accepted\'\n    elif form.errors:\n        response.flash = \'form has errors\'\n    else:\n        response.flash = \'please fill out the form\'\n    return dict(form=form,latitude=latitude)\n   \ndef show():\n    image = db(db.image.id==request.args(0)).select().first()\n    form = SQLFORM(db.comment)\n    form.vars.image_id = image.id\n    if form.accepts(request.vars, session):\n        response.flash = \'your comment is posted\'\n    comments = db(db.comment.image_id==image.id).select()\n    return dict(image=image, comments=comments, form=form)\n\ndef user():\n    """\n    exposes:\n    http://..../[app]/default/user/login\n    http://..../[app]/default/user/logout\n    http://..../[app]/default/user/register\n    http://..../[app]/default/user/profile\n    http://..../[app]/default/user/retrieve_password\n    http://..../[app]/default/user/change_password\n    use @auth.requires_login()\n        @auth.requires_membership(\'group name\')\n        @auth.requires_permission(\'read\',\'table name\',record_id)\n    to decorate functions that need access control\n    """\n    return dict(form=auth())\n\n\ndef download():\n    """\n    allows downloading of uploaded files\n    http://..../[app]/default/download/[filename]\n    """\n    return response.download(request,db)\n\n\ndef call():\n    """\n    exposes services. for example:\n    http://..../[app]/default/call/jsonrpc\n    decorate with @services.jsonrpc the functions to expose\n    supports xml, json, xmlrpc, jsonrpc, amfrpc, rss, csv\n    """\n    return service()\n\n\'\'\'\n@auth.requires_signature()\ndef data():\n    """\n    http://..../[app]/default/data/tables\n    http://..../[app]/default/data/create/[table]\n    http://..../[app]/default/data/read/[table]/[id]\n    http://..../[app]/default/data/update/[table]/[id]\n    http://..../[app]/default/data/delete/[table]/[id[\n    http://..../[app]/default/data/select/[table]\n    http://..../[app]/default/data/search/[table]\n    but URLs bust be signed, i.e. linked with\n      A(\'table\',_href=URL(\'data/tables\',user_signature=True))\n    or with the signed load operator\n      LOAD(\'default\',\'data.load\',args=\'tables\',ajax=True,user_signature=True)\n    """\n    return dict(form=crud())\n\'\'\'\n\nresponse._vars=response._caller(submit)\n'
p6
sS'snapshot'
p7
(dp8
S'exception'
p9
(dp10
S'__hash__'
p11
S"<method-wrapper '__hash__' of exceptions.NameError object>"
p12
sS'__setattr__'
p13
S"<method-wrapper '__setattr__' of exceptions.NameError object>"
p14
sS'__reduce_ex__'
p15
S'<built-in method __reduce_ex__ of exceptions.NameError object>'
p16
sS'__getslice__'
p17
S"<method-wrapper '__getslice__' of exceptions.NameError object>"
p18
sS'__getitem__'
p19
S"<method-wrapper '__getitem__' of exceptions.NameError object>"
p20
sS'__setstate__'
p21
S'<built-in method __setstate__ of exceptions.NameError object>'
p22
sS'args'
p23
S'("global name \'latitude\' is not defined",)'
p24
sS'__reduce__'
p25
S'<built-in method __reduce__ of exceptions.NameError object>'
p26
sS'__str__'
p27
S"<method-wrapper '__str__' of exceptions.NameError object>"
p28
sS'__format__'
p29
S'<built-in method __format__ of exceptions.NameError object>'
p30
sS'__getattribute__'
p31
S"<method-wrapper '__getattribute__' of exceptions.NameError object>"
p32
sS'__class__'
p33
S"<type 'exceptions.NameError'>"
p34
sS'__unicode__'
p35
S'<built-in method __unicode__ of exceptions.NameError object>'
p36
sS'__delattr__'
p37
S"<method-wrapper '__delattr__' of exceptions.NameError object>"
p38
sS'__subclasshook__'
p39
S'<built-in method __subclasshook__ of type object>'
p40
sS'__repr__'
p41
S"<method-wrapper '__repr__' of exceptions.NameError object>"
p42
sS'__dict__'
p43
S'{}'
p44
sS'__sizeof__'
p45
S'<built-in method __sizeof__ of exceptions.NameError object>'
p46
sS'__doc__'
p47
S"'Name not found globally.'"
p48
sS'__init__'
p49
S"<method-wrapper '__init__' of exceptions.NameError object>"
p50
sS'__new__'
p51
S'<built-in method __new__ of type object>'
p52
ssS'evalue'
p53
S"global name 'latitude' is not defined"
p54
sS'request'
p55
ccopy_reg
_reconstructor
p56
(cgluon.html
BEAUTIFY
p57
c__builtin__
object
p58
NtRp59
(dp60
S'attributes'
p61
(dp62
sS'components'
p63
(lp64
g56
(cgluon.html
TABLE
p65
g58
NtRp66
(dp67
g61
(dp68
S'level'
p69
I5
ssS'parent'
p70
Nsg63
(lp71
g56
(cgluon.html
TR
p72
g58
NtRp73
(dp74
g61
(dp75
sg70
g66
sg63
(lp76
g56
(cgluon.html
TD
p77
g58
NtRp78
(dp79
g61
(dp80
S'_style'
p81
S'font-weight:bold;'
p82
ssg70
g73
sg63
(lp83
S'ajax'
p84
asbag56
(g77
g58
NtRp85
(dp86
g61
(dp87
S'_valign'
p88
S'top'
p89
ssg70
g73
sg63
(lp90
S':'
asbag56
(g77
g58
NtRp91
(dp92
g61
(dp93
sg70
g73
sg63
(lp94
g56
(g57
g58
NtRp95
(dp96
g61
(dp97
g69
I5
ssg70
g91
sg63
(lp98
S'False'
p99
asbasbasbag56
(g72
g58
NtRp100
(dp101
g61
(dp102
sg70
g66
sg63
(lp103
g56
(g77
g58
NtRp104
(dp105
g61
(dp106
g81
g82
ssg70
g100
sg63
(lp107
S'application'
p108
asbag56
(g77
g58
NtRp109
(dp110
g61
(dp111
g88
g89
ssg70
g100
sg63
(lp112
S':'
asbag56
(g77
g58
NtRp113
(dp114
g61
(dp115
sg70
g100
sg63
(lp116
g56
(g57
g58
NtRp117
(dp118
g61
(dp119
g69
I5
ssg70
g113
sg63
(lp120
S'wp'
p121
asbasbasbag56
(g72
g58
NtRp122
(dp123
g61
(dp124
sg70
g66
sg63
(lp125
g56
(g77
g58
NtRp126
(dp127
g61
(dp128
g81
g82
ssg70
g122
sg63
(lp129
g23
asbag56
(g77
g58
NtRp130
(dp131
g61
(dp132
g88
g89
ssg70
g122
sg63
(lp133
S':'
asbag56
(g77
g58
NtRp134
(dp135
g61
(dp136
sg70
g122
sg63
(lp137
g56
(g57
g58
NtRp138
(dp139
g61
(dp140
g69
I5
ssg70
g134
sg63
(lp141
g56
(g65
g58
NtRp142
(dp143
g61
(dp144
g69
I4
ssg70
Nsg63
(lp145
sbasbasbasbag56
(g72
g58
NtRp146
(dp147
g61
(dp148
sg70
g66
sg63
(lp149
g56
(g77
g58
NtRp150
(dp151
g61
(dp152
g81
g82
ssg70
g146
sg63
(lp153
S'body'
p154
asbag56
(g77
g58
NtRp155
(dp156
g61
(dp157
g88
g89
ssg70
g146
sg63
(lp158
S':'
asbag56
(g77
g58
NtRp159
(dp160
g61
(dp161
sg70
g146
sg63
(lp162
g56
(g57
g58
NtRp163
(dp164
g61
(dp165
g69
I5
ssg70
g159
sg63
(lp166
S'<cStringIO.StringO object at 0x10768d4c8>'
p167
asbasbasbag56
(g72
g58
NtRp168
(dp169
g61
(dp170
sg70
g66
sg63
(lp171
g56
(g77
g58
NtRp172
(dp173
g61
(dp174
g81
g82
ssg70
g168
sg63
(lp175
S'client'
p176
asbag56
(g77
g58
NtRp177
(dp178
g61
(dp179
g88
g89
ssg70
g168
sg63
(lp180
S':'
asbag56
(g77
g58
NtRp181
(dp182
g61
(dp183
sg70
g168
sg63
(lp184
g56
(g57
g58
NtRp185
(dp186
g61
(dp187
g69
I5
ssg70
g181
sg63
(lp188
S'127.0.0.1'
p189
asbasbasbag56
(g72
g58
NtRp190
(dp191
g61
(dp192
sg70
g66
sg63
(lp193
g56
(g77
g58
NtRp194
(dp195
g61
(dp196
g81
g82
ssg70
g190
sg63
(lp197
S'controller'
p198
asbag56
(g77
g58
NtRp199
(dp200
g61
(dp201
g88
g89
ssg70
g190
sg63
(lp202
S':'
asbag56
(g77
g58
NtRp203
(dp204
g61
(dp205
sg70
g190
sg63
(lp206
g56
(g57
g58
NtRp207
(dp208
g61
(dp209
g69
I5
ssg70
g203
sg63
(lp210
S'default'
p211
asbasbasbag56
(g72
g58
NtRp212
(dp213
g61
(dp214
sg70
g66
sg63
(lp215
g56
(g77
g58
NtRp216
(dp217
g61
(dp218
g81
g82
ssg70
g212
sg63
(lp219
S'cookies'
p220
asbag56
(g77
g58
NtRp221
(dp222
g61
(dp223
g88
g89
ssg70
g212
sg63
(lp224
S':'
asbag56
(g77
g58
NtRp225
(dp226
g61
(dp227
sg70
g212
sg63
(lp228
g56
(g57
g58
NtRp229
(dp230
g61
(dp231
g69
I5
ssg70
g225
sg63
(lp232
g56
(g65
g58
NtRp233
(dp234
g61
(dp235
g69
I4
ssg70
Nsg63
(lp236
g56
(g72
g58
NtRp237
(dp238
g61
(dp239
sg70
g233
sg63
(lp240
g56
(g77
g58
NtRp241
(dp242
g61
(dp243
g81
g82
ssg70
g237
sg63
(lp244
S'session_id_admin'
p245
asbag56
(g77
g58
NtRp246
(dp247
g61
(dp248
g88
g89
ssg70
g237
sg63
(lp249
S':'
asbag56
(g77
g58
NtRp250
(dp251
g61
(dp252
sg70
g237
sg63
(lp253
g56
(g57
g58
NtRp254
(dp255
g61
(dp256
g69
I4
ssg70
g250
sg63
(lp257
g56
(g65
g58
NtRp258
(dp259
g61
(dp260
g69
I3
ssg70
Nsg63
(lp261
g56
(g72
g58
NtRp262
(dp263
g61
(dp264
sg70
g258
sg63
(lp265
g56
(g77
g58
NtRp266
(dp267
g61
(dp268
g81
g82
ssg70
g262
sg63
(lp269
S'comment'
p270
asbag56
(g77
g58
NtRp271
(dp272
g61
(dp273
g88
g89
ssg70
g262
sg63
(lp274
S':'
asbag56
(g77
g58
NtRp275
(dp276
g61
(dp277
sg70
g262
sg63
(lp278
g56
(g57
g58
NtRp279
(dp280
g61
(dp281
g69
I3
ssg70
g275
sg63
(lp282
S''
asbasbasbag56
(g72
g58
NtRp283
(dp284
g61
(dp285
sg70
g258
sg63
(lp286
g56
(g77
g58
NtRp287
(dp288
g61
(dp289
g81
g82
ssg70
g283
sg63
(lp290
S'domain'
p291
asbag56
(g77
g58
NtRp292
(dp293
g61
(dp294
g88
g89
ssg70
g283
sg63
(lp295
S':'
asbag56
(g77
g58
NtRp296
(dp297
g61
(dp298
sg70
g283
sg63
(lp299
g56
(g57
g58
NtRp300
(dp301
g61
(dp302
g69
I3
ssg70
g296
sg63
(lp303
S''
asbasbasbag56
(g72
g58
NtRp304
(dp305
g61
(dp306
sg70
g258
sg63
(lp307
g56
(g77
g58
NtRp308
(dp309
g61
(dp310
g81
g82
ssg70
g304
sg63
(lp311
S'expires'
p312
asbag56
(g77
g58
NtRp313
(dp314
g61
(dp315
g88
g89
ssg70
g304
sg63
(lp316
S':'
asbag56
(g77
g58
NtRp317
(dp318
g61
(dp319
sg70
g304
sg63
(lp320
g56
(g57
g58
NtRp321
(dp322
g61
(dp323
g69
I3
ssg70
g317
sg63
(lp324
S''
asbasbasbag56
(g72
g58
NtRp325
(dp326
g61
(dp327
sg70
g258
sg63
(lp328
g56
(g77
g58
NtRp329
(dp330
g61
(dp331
g81
g82
ssg70
g325
sg63
(lp332
S'httponly'
p333
asbag56
(g77
g58
NtRp334
(dp335
g61
(dp336
g88
g89
ssg70
g325
sg63
(lp337
S':'
asbag56
(g77
g58
NtRp338
(dp339
g61
(dp340
sg70
g325
sg63
(lp341
g56
(g57
g58
NtRp342
(dp343
g61
(dp344
g69
I3
ssg70
g338
sg63
(lp345
S''
asbasbasbag56
(g72
g58
NtRp346
(dp347
g61
(dp348
sg70
g258
sg63
(lp349
g56
(g77
g58
NtRp350
(dp351
g61
(dp352
g81
g82
ssg70
g346
sg63
(lp353
S'max-age'
p354
asbag56
(g77
g58
NtRp355
(dp356
g61
(dp357
g88
g89
ssg70
g346
sg63
(lp358
S':'
asbag56
(g77
g58
NtRp359
(dp360
g61
(dp361
sg70
g346
sg63
(lp362
g56
(g57
g58
NtRp363
(dp364
g61
(dp365
g69
I3
ssg70
g359
sg63
(lp366
S''
asbasbasbag56
(g72
g58
NtRp367
(dp368
g61
(dp369
sg70
g258
sg63
(lp370
g56
(g77
g58
NtRp371
(dp372
g61
(dp373
g81
g82
ssg70
g367
sg63
(lp374
S'path'
p375
asbag56
(g77
g58
NtRp376
(dp377
g61
(dp378
g88
g89
ssg70
g367
sg63
(lp379
S':'
asbag56
(g77
g58
NtRp380
(dp381
g61
(dp382
sg70
g367
sg63
(lp383
g56
(g57
g58
NtRp384
(dp385
g61
(dp386
g69
I3
ssg70
g380
sg63
(lp387
S''
asbasbasbag56
(g72
g58
NtRp388
(dp389
g61
(dp390
sg70
g258
sg63
(lp391
g56
(g77
g58
NtRp392
(dp393
g61
(dp394
g81
g82
ssg70
g388
sg63
(lp395
S'secure'
p396
asbag56
(g77
g58
NtRp397
(dp398
g61
(dp399
g88
g89
ssg70
g388
sg63
(lp400
S':'
asbag56
(g77
g58
NtRp401
(dp402
g61
(dp403
sg70
g388
sg63
(lp404
g56
(g57
g58
NtRp405
(dp406
g61
(dp407
g69
I3
ssg70
g401
sg63
(lp408
S''
asbasbasbag56
(g72
g58
NtRp409
(dp410
g61
(dp411
sg70
g258
sg63
(lp412
g56
(g77
g58
NtRp413
(dp414
g61
(dp415
g81
g82
ssg70
g409
sg63
(lp416
S'version'
p417
asbag56
(g77
g58
NtRp418
(dp419
g61
(dp420
g88
g89
ssg70
g409
sg63
(lp421
S':'
asbag56
(g77
g58
NtRp422
(dp423
g61
(dp424
sg70
g409
sg63
(lp425
g56
(g57
g58
NtRp426
(dp427
g61
(dp428
g69
I3
ssg70
g422
sg63
(lp429
S''
asbasbasbasbasbasbasbag56
(g72
g58
NtRp430
(dp431
g61
(dp432
sg70
g233
sg63
(lp433
g56
(g77
g58
NtRp434
(dp435
g61
(dp436
g81
g82
ssg70
g430
sg63
(lp437
S'session_id_welcome'
p438
asbag56
(g77
g58
NtRp439
(dp440
g61
(dp441
g88
g89
ssg70
g430
sg63
(lp442
S':'
asbag56
(g77
g58
NtRp443
(dp444
g61
(dp445
sg70
g430
sg63
(lp446
g56
(g57
g58
NtRp447
(dp448
g61
(dp449
g69
I4
ssg70
g443
sg63
(lp450
g56
(g65
g58
NtRp451
(dp452
g61
(dp453
g69
I3
ssg70
Nsg63
(lp454
g56
(g72
g58
NtRp455
(dp456
g61
(dp457
sg70
g451
sg63
(lp458
g56
(g77
g58
NtRp459
(dp460
g61
(dp461
g81
g82
ssg70
g455
sg63
(lp462
g270
asbag56
(g77
g58
NtRp463
(dp464
g61
(dp465
g88
g89
ssg70
g455
sg63
(lp466
S':'
asbag56
(g77
g58
NtRp467
(dp468
g61
(dp469
sg70
g455
sg63
(lp470
g56
(g57
g58
NtRp471
(dp472
g61
(dp473
g69
I3
ssg70
g467
sg63
(lp474
S''
asbasbasbag56
(g72
g58
NtRp475
(dp476
g61
(dp477
sg70
g451
sg63
(lp478
g56
(g77
g58
NtRp479
(dp480
g61
(dp481
g81
g82
ssg70
g475
sg63
(lp482
g291
asbag56
(g77
g58
NtRp483
(dp484
g61
(dp485
g88
g89
ssg70
g475
sg63
(lp486
S':'
asbag56
(g77
g58
NtRp487
(dp488
g61
(dp489
sg70
g475
sg63
(lp490
g56
(g57
g58
NtRp491
(dp492
g61
(dp493
g69
I3
ssg70
g487
sg63
(lp494
S''
asbasbasbag56
(g72
g58
NtRp495
(dp496
g61
(dp497
sg70
g451
sg63
(lp498
g56
(g77
g58
NtRp499
(dp500
g61
(dp501
g81
g82
ssg70
g495
sg63
(lp502
g312
asbag56
(g77
g58
NtRp503
(dp504
g61
(dp505
g88
g89
ssg70
g495
sg63
(lp506
S':'
asbag56
(g77
g58
NtRp507
(dp508
g61
(dp509
sg70
g495
sg63
(lp510
g56
(g57
g58
NtRp511
(dp512
g61
(dp513
g69
I3
ssg70
g507
sg63
(lp514
S''
asbasbasbag56
(g72
g58
NtRp515
(dp516
g61
(dp517
sg70
g451
sg63
(lp518
g56
(g77
g58
NtRp519
(dp520
g61
(dp521
g81
g82
ssg70
g515
sg63
(lp522
g333
asbag56
(g77
g58
NtRp523
(dp524
g61
(dp525
g88
g89
ssg70
g515
sg63
(lp526
S':'
asbag56
(g77
g58
NtRp527
(dp528
g61
(dp529
sg70
g515
sg63
(lp530
g56
(g57
g58
NtRp531
(dp532
g61
(dp533
g69
I3
ssg70
g527
sg63
(lp534
S''
asbasbasbag56
(g72
g58
NtRp535
(dp536
g61
(dp537
sg70
g451
sg63
(lp538
g56
(g77
g58
NtRp539
(dp540
g61
(dp541
g81
g82
ssg70
g535
sg63
(lp542
g354
asbag56
(g77
g58
NtRp543
(dp544
g61
(dp545
g88
g89
ssg70
g535
sg63
(lp546
S':'
asbag56
(g77
g58
NtRp547
(dp548
g61
(dp549
sg70
g535
sg63
(lp550
g56
(g57
g58
NtRp551
(dp552
g61
(dp553
g69
I3
ssg70
g547
sg63
(lp554
S''
asbasbasbag56
(g72
g58
NtRp555
(dp556
g61
(dp557
sg70
g451
sg63
(lp558
g56
(g77
g58
NtRp559
(dp560
g61
(dp561
g81
g82
ssg70
g555
sg63
(lp562
g375
asbag56
(g77
g58
NtRp563
(dp564
g61
(dp565
g88
g89
ssg70
g555
sg63
(lp566
S':'
asbag56
(g77
g58
NtRp567
(dp568
g61
(dp569
sg70
g555
sg63
(lp570
g56
(g57
g58
NtRp571
(dp572
g61
(dp573
g69
I3
ssg70
g567
sg63
(lp574
S''
asbasbasbag56
(g72
g58
NtRp575
(dp576
g61
(dp577
sg70
g451
sg63
(lp578
g56
(g77
g58
NtRp579
(dp580
g61
(dp581
g81
g82
ssg70
g575
sg63
(lp582
g396
asbag56
(g77
g58
NtRp583
(dp584
g61
(dp585
g88
g89
ssg70
g575
sg63
(lp586
S':'
asbag56
(g77
g58
NtRp587
(dp588
g61
(dp589
sg70
g575
sg63
(lp590
g56
(g57
g58
NtRp591
(dp592
g61
(dp593
g69
I3
ssg70
g587
sg63
(lp594
S''
asbasbasbag56
(g72
g58
NtRp595
(dp596
g61
(dp597
sg70
g451
sg63
(lp598
g56
(g77
g58
NtRp599
(dp600
g61
(dp601
g81
g82
ssg70
g595
sg63
(lp602
g417
asbag56
(g77
g58
NtRp603
(dp604
g61
(dp605
g88
g89
ssg70
g595
sg63
(lp606
S':'
asbag56
(g77
g58
NtRp607
(dp608
g61
(dp609
sg70
g595
sg63
(lp610
g56
(g57
g58
NtRp611
(dp612
g61
(dp613
g69
I3
ssg70
g607
sg63
(lp614
S''
asbasbasbasbasbasbasbag56
(g72
g58
NtRp615
(dp616
g61
(dp617
sg70
g233
sg63
(lp618
g56
(g77
g58
NtRp619
(dp620
g61
(dp621
g81
g82
ssg70
g615
sg63
(lp622
S'session_id_wp'
p623
asbag56
(g77
g58
NtRp624
(dp625
g61
(dp626
g88
g89
ssg70
g615
sg63
(lp627
S':'
asbag56
(g77
g58
NtRp628
(dp629
g61
(dp630
sg70
g615
sg63
(lp631
g56
(g57
g58
NtRp632
(dp633
g61
(dp634
g69
I4
ssg70
g628
sg63
(lp635
g56
(g65
g58
NtRp636
(dp637
g61
(dp638
g69
I3
ssg70
Nsg63
(lp639
g56
(g72
g58
NtRp640
(dp641
g61
(dp642
sg70
g636
sg63
(lp643
g56
(g77
g58
NtRp644
(dp645
g61
(dp646
g81
g82
ssg70
g640
sg63
(lp647
g270
asbag56
(g77
g58
NtRp648
(dp649
g61
(dp650
g88
g89
ssg70
g640
sg63
(lp651
S':'
asbag56
(g77
g58
NtRp652
(dp653
g61
(dp654
sg70
g640
sg63
(lp655
g56
(g57
g58
NtRp656
(dp657
g61
(dp658
g69
I3
ssg70
g652
sg63
(lp659
S''
asbasbasbag56
(g72
g58
NtRp660
(dp661
g61
(dp662
sg70
g636
sg63
(lp663
g56
(g77
g58
NtRp664
(dp665
g61
(dp666
g81
g82
ssg70
g660
sg63
(lp667
g291
asbag56
(g77
g58
NtRp668
(dp669
g61
(dp670
g88
g89
ssg70
g660
sg63
(lp671
S':'
asbag56
(g77
g58
NtRp672
(dp673
g61
(dp674
sg70
g660
sg63
(lp675
g56
(g57
g58
NtRp676
(dp677
g61
(dp678
g69
I3
ssg70
g672
sg63
(lp679
S''
asbasbasbag56
(g72
g58
NtRp680
(dp681
g61
(dp682
sg70
g636
sg63
(lp683
g56
(g77
g58
NtRp684
(dp685
g61
(dp686
g81
g82
ssg70
g680
sg63
(lp687
g312
asbag56
(g77
g58
NtRp688
(dp689
g61
(dp690
g88
g89
ssg70
g680
sg63
(lp691
S':'
asbag56
(g77
g58
NtRp692
(dp693
g61
(dp694
sg70
g680
sg63
(lp695
g56
(g57
g58
NtRp696
(dp697
g61
(dp698
g69
I3
ssg70
g692
sg63
(lp699
S''
asbasbasbag56
(g72
g58
NtRp700
(dp701
g61
(dp702
sg70
g636
sg63
(lp703
g56
(g77
g58
NtRp704
(dp705
g61
(dp706
g81
g82
ssg70
g700
sg63
(lp707
g333
asbag56
(g77
g58
NtRp708
(dp709
g61
(dp710
g88
g89
ssg70
g700
sg63
(lp711
S':'
asbag56
(g77
g58
NtRp712
(dp713
g61
(dp714
sg70
g700
sg63
(lp715
g56
(g57
g58
NtRp716
(dp717
g61
(dp718
g69
I3
ssg70
g712
sg63
(lp719
S''
asbasbasbag56
(g72
g58
NtRp720
(dp721
g61
(dp722
sg70
g636
sg63
(lp723
g56
(g77
g58
NtRp724
(dp725
g61
(dp726
g81
g82
ssg70
g720
sg63
(lp727
g354
asbag56
(g77
g58
NtRp728
(dp729
g61
(dp730
g88
g89
ssg70
g720
sg63
(lp731
S':'
asbag56
(g77
g58
NtRp732
(dp733
g61
(dp734
sg70
g720
sg63
(lp735
g56
(g57
g58
NtRp736
(dp737
g61
(dp738
g69
I3
ssg70
g732
sg63
(lp739
S''
asbasbasbag56
(g72
g58
NtRp740
(dp741
g61
(dp742
sg70
g636
sg63
(lp743
g56
(g77
g58
NtRp744
(dp745
g61
(dp746
g81
g82
ssg70
g740
sg63
(lp747
g375
asbag56
(g77
g58
NtRp748
(dp749
g61
(dp750
g88
g89
ssg70
g740
sg63
(lp751
S':'
asbag56
(g77
g58
NtRp752
(dp753
g61
(dp754
sg70
g740
sg63
(lp755
g56
(g57
g58
NtRp756
(dp757
g61
(dp758
g69
I3
ssg70
g752
sg63
(lp759
S''
asbasbasbag56
(g72
g58
NtRp760
(dp761
g61
(dp762
sg70
g636
sg63
(lp763
g56
(g77
g58
NtRp764
(dp765
g61
(dp766
g81
g82
ssg70
g760
sg63
(lp767
g396
asbag56
(g77
g58
NtRp768
(dp769
g61
(dp770
g88
g89
ssg70
g760
sg63
(lp771
S':'
asbag56
(g77
g58
NtRp772
(dp773
g61
(dp774
sg70
g760
sg63
(lp775
g56
(g57
g58
NtRp776
(dp777
g61
(dp778
g69
I3
ssg70
g772
sg63
(lp779
S''
asbasbasbag56
(g72
g58
NtRp780
(dp781
g61
(dp782
sg70
g636
sg63
(lp783
g56
(g77
g58
NtRp784
(dp785
g61
(dp786
g81
g82
ssg70
g780
sg63
(lp787
g417
asbag56
(g77
g58
NtRp788
(dp789
g61
(dp790
g88
g89
ssg70
g780
sg63
(lp791
S':'
asbag56
(g77
g58
NtRp792
(dp793
g61
(dp794
sg70
g780
sg63
(lp795
g56
(g57
g58
NtRp796
(dp797
g61
(dp798
g69
I3
ssg70
g792
sg63
(lp799
S''
asbasbasbasbasbasbasbasbasbasbasbag56
(g72
g58
NtRp800
(dp801
g61
(dp802
sg70
g66
sg63
(lp803
g56
(g77
g58
NtRp804
(dp805
g61
(dp806
g81
g82
ssg70
g800
sg63
(lp807
S'env'
p808
asbag56
(g77
g58
NtRp809
(dp810
g61
(dp811
g88
g89
ssg70
g800
sg63
(lp812
S':'
asbag56
(g77
g58
NtRp813
(dp814
g61
(dp815
sg70
g800
sg63
(lp816
g56
(g57
g58
NtRp817
(dp818
g61
(dp819
g69
I5
ssg70
g813
sg63
(lp820
g56
(g65
g58
NtRp821
(dp822
g61
(dp823
g69
I4
ssg70
Nsg63
(lp824
g56
(g72
g58
NtRp825
(dp826
g61
(dp827
sg70
g821
sg63
(lp828
g56
(g77
g58
NtRp829
(dp830
g61
(dp831
g81
g82
ssg70
g825
sg63
(lp832
S'app_folders'
p833
asbag56
(g77
g58
NtRp834
(dp835
g61
(dp836
g88
g89
ssg70
g825
sg63
(lp837
S':'
asbag56
(g77
g58
NtRp838
(dp839
g61
(dp840
sg70
g825
sg63
(lp841
g56
(g57
g58
NtRp842
(dp843
g61
(dp844
g69
I4
ssg70
g838
sg63
(lp845
S"set(['/Users/schultzc/workspace/wherespuppet/web2py/applications/wp/', '/Users/schultzc/workspace/wherespuppet/web2py/applications/welcome/', '/Users/schultzc/workspace/wherespuppet/web2py/applications/admin/'])"
p846
asbasbasbag56
(g72
g58
NtRp847
(dp848
g61
(dp849
sg70
g821
sg63
(lp850
g56
(g77
g58
NtRp851
(dp852
g61
(dp853
g81
g82
ssg70
g847
sg63
(lp854
S'applications_parent'
p855
asbag56
(g77
g58
NtRp856
(dp857
g61
(dp858
g88
g89
ssg70
g847
sg63
(lp859
S':'
asbag56
(g77
g58
NtRp860
(dp861
g61
(dp862
sg70
g847
sg63
(lp863
g56
(g57
g58
NtRp864
(dp865
g61
(dp866
g69
I4
ssg70
g860
sg63
(lp867
S'/Users/schultzc/workspace/wherespuppet/web2py'
p868
asbasbasbag56
(g72
g58
NtRp869
(dp870
g61
(dp871
sg70
g821
sg63
(lp872
g56
(g77
g58
NtRp873
(dp874
g61
(dp875
g81
g82
ssg70
g869
sg63
(lp876
S'cmd_args'
p877
asbag56
(g77
g58
NtRp878
(dp879
g61
(dp880
g88
g89
ssg70
g869
sg63
(lp881
S':'
asbag56
(g77
g58
NtRp882
(dp883
g61
(dp884
sg70
g869
sg63
(lp885
g56
(g57
g58
NtRp886
(dp887
g61
(dp888
g69
I4
ssg70
g882
sg63
(lp889
g56
(g65
g58
NtRp890
(dp891
g61
(dp892
g69
I3
ssg70
Nsg63
(lp893
sbasbasbasbag56
(g72
g58
NtRp894
(dp895
g61
(dp896
sg70
g821
sg63
(lp897
g56
(g77
g58
NtRp898
(dp899
g61
(dp900
g81
g82
ssg70
g894
sg63
(lp901
S'cmd_options'
p902
asbag56
(g77
g58
NtRp903
(dp904
g61
(dp905
g88
g89
ssg70
g894
sg63
(lp906
S':'
asbag56
(g77
g58
NtRp907
(dp908
g61
(dp909
sg70
g894
sg63
(lp910
g56
(g57
g58
NtRp911
(dp912
g61
(dp913
g69
I4
ssg70
g907
sg63
(lp914
S"<Values at 0x101b19ab8: {'verbose': False, 'ip': '127.0.0.1', 'shutdown_timeout': 5, 'taskbar': False, 'port': 8000, 'maxthreads': None, 'softcron': False, 'server_name': 'Magnus-Specialis.local', 'bpython': False, 'nogui': False, 'nocron': False, 'extcron': False, 'debuglevel': 30, 'test': None, 'folder': '/Users/schultzc/workspace/wherespuppet/web2py', 'config': '', 'import_models': False, 'winservice': '', 'shell': None, 'run': '', 'log_filename': 'httpserver.log', 'args': [''], 'profiler_filename': None, 'ssl_private_key': '', 'password': 'hello', 'request_queue_size': 5, 'ssl_certificate': '', 'cronjob': False, 'plain': False, 'quiet': False, 'interfaces': None, 'minthreads': None, 'timeout': 10, 'numthreads': None, 'nobanner': False, 'pid_filename': 'httpserver.pid'}>"
p915
asbasbasbag56
(g72
g58
NtRp916
(dp917
g61
(dp918
sg70
g821
sg63
(lp919
g56
(g77
g58
NtRp920
(dp921
g61
(dp922
g81
g82
ssg70
g916
sg63
(lp923
S'db_sessions'
p924
asbag56
(g77
g58
NtRp925
(dp926
g61
(dp927
g88
g89
ssg70
g916
sg63
(lp928
S':'
asbag56
(g77
g58
NtRp929
(dp930
g61
(dp931
sg70
g916
sg63
(lp932
g56
(g57
g58
NtRp933
(dp934
g61
(dp935
g69
I4
ssg70
g929
sg63
(lp936
S'set([])'
p937
asbasbasbag56
(g72
g58
NtRp938
(dp939
g61
(dp940
sg70
g821
sg63
(lp941
g56
(g77
g58
NtRp942
(dp943
g61
(dp944
g81
g82
ssg70
g938
sg63
(lp945
S'debugging'
p946
asbag56
(g77
g58
NtRp947
(dp948
g61
(dp949
g88
g89
ssg70
g938
sg63
(lp950
S':'
asbag56
(g77
g58
NtRp951
(dp952
g61
(dp953
sg70
g938
sg63
(lp954
g56
(g57
g58
NtRp955
(dp956
g61
(dp957
g69
I4
ssg70
g951
sg63
(lp958
g99
asbasbasbag56
(g72
g58
NtRp959
(dp960
g61
(dp961
sg70
g821
sg63
(lp962
g56
(g77
g58
NtRp963
(dp964
g61
(dp965
g81
g82
ssg70
g959
sg63
(lp966
S'gluon_parent'
p967
asbag56
(g77
g58
NtRp968
(dp969
g61
(dp970
g88
g89
ssg70
g959
sg63
(lp971
S':'
asbag56
(g77
g58
NtRp972
(dp973
g61
(dp974
sg70
g959
sg63
(lp975
g56
(g57
g58
NtRp976
(dp977
g61
(dp978
g69
I4
ssg70
g972
sg63
(lp979
S'/Users/schultzc/workspace/wherespuppet/web2py'
p980
asbasbasbag56
(g72
g58
NtRp981
(dp982
g61
(dp983
sg70
g821
sg63
(lp984
g56
(g77
g58
NtRp985
(dp986
g61
(dp987
g81
g82
ssg70
g981
sg63
(lp988
S'http_accept'
p989
asbag56
(g77
g58
NtRp990
(dp991
g61
(dp992
g88
g89
ssg70
g981
sg63
(lp993
S':'
asbag56
(g77
g58
NtRp994
(dp995
g61
(dp996
sg70
g981
sg63
(lp997
g56
(g57
g58
NtRp998
(dp999
g61
(dp1000
g69
I4
ssg70
g994
sg63
(lp1001
S'text/html,application/xhtml+xml,application/xml;q=0.9,*/*;q=0.8'
p1002
asbasbasbag56
(g72
g58
NtRp1003
(dp1004
g61
(dp1005
sg70
g821
sg63
(lp1006
g56
(g77
g58
NtRp1007
(dp1008
g61
(dp1009
g81
g82
ssg70
g1003
sg63
(lp1010
S'http_accept_charset'
p1011
asbag56
(g77
g58
NtRp1012
(dp1013
g61
(dp1014
g88
g89
ssg70
g1003
sg63
(lp1015
S':'
asbag56
(g77
g58
NtRp1016
(dp1017
g61
(dp1018
sg70
g1003
sg63
(lp1019
g56
(g57
g58
NtRp1020
(dp1021
g61
(dp1022
g69
I4
ssg70
g1016
sg63
(lp1023
S'ISO-8859-1,utf-8;q=0.7,*;q=0.3'
p1024
asbasbasbag56
(g72
g58
NtRp1025
(dp1026
g61
(dp1027
sg70
g821
sg63
(lp1028
g56
(g77
g58
NtRp1029
(dp1030
g61
(dp1031
g81
g82
ssg70
g1025
sg63
(lp1032
S'http_accept_encoding'
p1033
asbag56
(g77
g58
NtRp1034
(dp1035
g61
(dp1036
g88
g89
ssg70
g1025
sg63
(lp1037
S':'
asbag56
(g77
g58
NtRp1038
(dp1039
g61
(dp1040
sg70
g1025
sg63
(lp1041
g56
(g57
g58
NtRp1042
(dp1043
g61
(dp1044
g69
I4
ssg70
g1038
sg63
(lp1045
S'gzip,deflate,sdch'
p1046
asbasbasbag56
(g72
g58
NtRp1047
(dp1048
g61
(dp1049
sg70
g821
sg63
(lp1050
g56
(g77
g58
NtRp1051
(dp1052
g61
(dp1053
g81
g82
ssg70
g1047
sg63
(lp1054
S'http_accept_language'
p1055
asbag56
(g77
g58
NtRp1056
(dp1057
g61
(dp1058
g88
g89
ssg70
g1047
sg63
(lp1059
S':'
asbag56
(g77
g58
NtRp1060
(dp1061
g61
(dp1062
sg70
g1047
sg63
(lp1063
g56
(g57
g58
NtRp1064
(dp1065
g61
(dp1066
g69
I4
ssg70
g1060
sg63
(lp1067
S'en-US,en;q=0.8'
p1068
asbasbasbag56
(g72
g58
NtRp1069
(dp1070
g61
(dp1071
sg70
g821
sg63
(lp1072
g56
(g77
g58
NtRp1073
(dp1074
g61
(dp1075
g81
g82
ssg70
g1069
sg63
(lp1076
S'http_connection'
p1077
asbag56
(g77
g58
NtRp1078
(dp1079
g61
(dp1080
g88
g89
ssg70
g1069
sg63
(lp1081
S':'
asbag56
(g77
g58
NtRp1082
(dp1083
g61
(dp1084
sg70
g1069
sg63
(lp1085
g56
(g57
g58
NtRp1086
(dp1087
g61
(dp1088
g69
I4
ssg70
g1082
sg63
(lp1089
S'keep-alive'
p1090
asbasbasbag56
(g72
g58
NtRp1091
(dp1092
g61
(dp1093
sg70
g821
sg63
(lp1094
g56
(g77
g58
NtRp1095
(dp1096
g61
(dp1097
g81
g82
ssg70
g1091
sg63
(lp1098
S'http_cookie'
p1099
asbag56
(g77
g58
NtRp1100
(dp1101
g61
(dp1102
g88
g89
ssg70
g1091
sg63
(lp1103
S':'
asbag56
(g77
g58
NtRp1104
(dp1105
g61
(dp1106
sg70
g1091
sg63
(lp1107
g56
(g57
g58
NtRp1108
(dp1109
g61
(dp1110
g69
I4
ssg70
g1104
sg63
(lp1111
S'session_id_welcome=127.0.0.1-63776dcf-1f31-441a-97c7-43de2fda5d24; session_id_wp=127.0.0.1-4193f9ef-76d9-4ddb-926b-9a2cba4aa377; session_id_admin=127.0.0.1-50a37c10-9c58-42e6-beec-62490d955be1'
p1112
asbasbasbag56
(g72
g58
NtRp1113
(dp1114
g61
(dp1115
sg70
g821
sg63
(lp1116
g56
(g77
g58
NtRp1117
(dp1118
g61
(dp1119
g81
g82
ssg70
g1113
sg63
(lp1120
S'http_host'
p1121
asbag56
(g77
g58
NtRp1122
(dp1123
g61
(dp1124
g88
g89
ssg70
g1113
sg63
(lp1125
S':'
asbag56
(g77
g58
NtRp1126
(dp1127
g61
(dp1128
sg70
g1113
sg63
(lp1129
g56
(g57
g58
NtRp1130
(dp1131
g61
(dp1132
g69
I4
ssg70
g1126
sg63
(lp1133
S'localhost:8000'
p1134
asbasbasbag56
(g72
g58
NtRp1135
(dp1136
g61
(dp1137
sg70
g821
sg63
(lp1138
g56
(g77
g58
NtRp1139
(dp1140
g61
(dp1141
g81
g82
ssg70
g1135
sg63
(lp1142
S'http_user_agent'
p1143
asbag56
(g77
g58
NtRp1144
(dp1145
g61
(dp1146
g88
g89
ssg70
g1135
sg63
(lp1147
S':'
asbag56
(g77
g58
NtRp1148
(dp1149
g61
(dp1150
sg70
g1135
sg63
(lp1151
g56
(g57
g58
NtRp1152
(dp1153
g61
(dp1154
g69
I4
ssg70
g1148
sg63
(lp1155
S'Mozilla/5.0 (Macintosh; Intel Mac OS X 10_6_8) AppleWebKit/534.30 (KHTML, like Gecko) Chrome/12.0.742.122 Safari/534.30'
p1156
asbasbasbag56
(g72
g58
NtRp1157
(dp1158
g61
(dp1159
sg70
g821
sg63
(lp1160
g56
(g77
g58
NtRp1161
(dp1162
g61
(dp1163
g81
g82
ssg70
g1157
sg63
(lp1164
S'path_info'
p1165
asbag56
(g77
g58
NtRp1166
(dp1167
g61
(dp1168
g88
g89
ssg70
g1157
sg63
(lp1169
S':'
asbag56
(g77
g58
NtRp1170
(dp1171
g61
(dp1172
sg70
g1157
sg63
(lp1173
g56
(g57
g58
NtRp1174
(dp1175
g61
(dp1176
g69
I4
ssg70
g1170
sg63
(lp1177
S'/wp/default/submit/'
p1178
asbasbasbag56
(g72
g58
NtRp1179
(dp1180
g61
(dp1181
sg70
g821
sg63
(lp1182
g56
(g77
g58
NtRp1183
(dp1184
g61
(dp1185
g81
g82
ssg70
g1179
sg63
(lp1186
S'query_string'
p1187
asbag56
(g77
g58
NtRp1188
(dp1189
g61
(dp1190
g88
g89
ssg70
g1179
sg63
(lp1191
S':'
asbag56
(g77
g58
NtRp1192
(dp1193
g61
(dp1194
sg70
g1179
sg63
(lp1195
g56
(g57
g58
NtRp1196
(dp1197
g61
(dp1198
g69
I4
ssg70
g1192
sg63
(lp1199
S''
asbasbasbag56
(g72
g58
NtRp1200
(dp1201
g61
(dp1202
sg70
g821
sg63
(lp1203
g56
(g77
g58
NtRp1204
(dp1205
g61
(dp1206
g81
g82
ssg70
g1200
sg63
(lp1207
S'remote_addr'
p1208
asbag56
(g77
g58
NtRp1209
(dp1210
g61
(dp1211
g88
g89
ssg70
g1200
sg63
(lp1212
S':'
asbag56
(g77
g58
NtRp1213
(dp1214
g61
(dp1215
sg70
g1200
sg63
(lp1216
g56
(g57
g58
NtRp1217
(dp1218
g61
(dp1219
g69
I4
ssg70
g1213
sg63
(lp1220
g189
asbasbasbag56
(g72
g58
NtRp1221
(dp1222
g61
(dp1223
sg70
g821
sg63
(lp1224
g56
(g77
g58
NtRp1225
(dp1226
g61
(dp1227
g81
g82
ssg70
g1221
sg63
(lp1228
S'remote_port'
p1229
asbag56
(g77
g58
NtRp1230
(dp1231
g61
(dp1232
g88
g89
ssg70
g1221
sg63
(lp1233
S':'
asbag56
(g77
g58
NtRp1234
(dp1235
g61
(dp1236
sg70
g1221
sg63
(lp1237
g56
(g57
g58
NtRp1238
(dp1239
g61
(dp1240
g69
I4
ssg70
g1234
sg63
(lp1241
S'50518'
p1242
asbasbasbag56
(g72
g58
NtRp1243
(dp1244
g61
(dp1245
sg70
g821
sg63
(lp1246
g56
(g77
g58
NtRp1247
(dp1248
g61
(dp1249
g81
g82
ssg70
g1243
sg63
(lp1250
S'request_method'
p1251
asbag56
(g77
g58
NtRp1252
(dp1253
g61
(dp1254
g88
g89
ssg70
g1243
sg63
(lp1255
S':'
asbag56
(g77
g58
NtRp1256
(dp1257
g61
(dp1258
sg70
g1243
sg63
(lp1259
g56
(g57
g58
NtRp1260
(dp1261
g61
(dp1262
g69
I4
ssg70
g1256
sg63
(lp1263
S'GET'
p1264
asbasbasbag56
(g72
g58
NtRp1265
(dp1266
g61
(dp1267
sg70
g821
sg63
(lp1268
g56
(g77
g58
NtRp1269
(dp1270
g61
(dp1271
g81
g82
ssg70
g1265
sg63
(lp1272
S'script_name'
p1273
asbag56
(g77
g58
NtRp1274
(dp1275
g61
(dp1276
g88
g89
ssg70
g1265
sg63
(lp1277
S':'
asbag56
(g77
g58
NtRp1278
(dp1279
g61
(dp1280
sg70
g1265
sg63
(lp1281
g56
(g57
g58
NtRp1282
(dp1283
g61
(dp1284
g69
I4
ssg70
g1278
sg63
(lp1285
S''
asbasbasbag56
(g72
g58
NtRp1286
(dp1287
g61
(dp1288
sg70
g821
sg63
(lp1289
g56
(g77
g58
NtRp1290
(dp1291
g61
(dp1292
g81
g82
ssg70
g1286
sg63
(lp1293
S'server_name'
p1294
asbag56
(g77
g58
NtRp1295
(dp1296
g61
(dp1297
g88
g89
ssg70
g1286
sg63
(lp1298
S':'
asbag56
(g77
g58
NtRp1299
(dp1300
g61
(dp1301
sg70
g1286
sg63
(lp1302
g56
(g57
g58
NtRp1303
(dp1304
g61
(dp1305
g69
I4
ssg70
g1299
sg63
(lp1306
S'Magnus-Specialis.local'
p1307
asbasbasbag56
(g72
g58
NtRp1308
(dp1309
g61
(dp1310
sg70
g821
sg63
(lp1311
g56
(g77
g58
NtRp1312
(dp1313
g61
(dp1314
g81
g82
ssg70
g1308
sg63
(lp1315
S'server_port'
p1316
asbag56
(g77
g58
NtRp1317
(dp1318
g61
(dp1319
g88
g89
ssg70
g1308
sg63
(lp1320
S':'
asbag56
(g77
g58
NtRp1321
(dp1322
g61
(dp1323
sg70
g1308
sg63
(lp1324
g56
(g57
g58
NtRp1325
(dp1326
g61
(dp1327
g69
I4
ssg70
g1321
sg63
(lp1328
S'8000'
p1329
asbasbasbag56
(g72
g58
NtRp1330
(dp1331
g61
(dp1332
sg70
g821
sg63
(lp1333
g56
(g77
g58
NtRp1334
(dp1335
g61
(dp1336
g81
g82
ssg70
g1330
sg63
(lp1337
S'server_protocol'
p1338
asbag56
(g77
g58
NtRp1339
(dp1340
g61
(dp1341
g88
g89
ssg70
g1330
sg63
(lp1342
S':'
asbag56
(g77
g58
NtRp1343
(dp1344
g61
(dp1345
sg70
g1330
sg63
(lp1346
g56
(g57
g58
NtRp1347
(dp1348
g61
(dp1349
g69
I4
ssg70
g1343
sg63
(lp1350
S'HTTP/1.1'
p1351
asbasbasbag56
(g72
g58
NtRp1352
(dp1353
g61
(dp1354
sg70
g821
sg63
(lp1355
g56
(g77
g58
NtRp1356
(dp1357
g61
(dp1358
g81
g82
ssg70
g1352
sg63
(lp1359
S'server_software'
p1360
asbag56
(g77
g58
NtRp1361
(dp1362
g61
(dp1363
g88
g89
ssg70
g1352
sg63
(lp1364
S':'
asbag56
(g77
g58
NtRp1365
(dp1366
g61
(dp1367
sg70
g1352
sg63
(lp1368
g56
(g57
g58
NtRp1369
(dp1370
g61
(dp1371
g69
I4
ssg70
g1365
sg63
(lp1372
S'Rocket 1.2.2'
p1373
asbasbasbag56
(g72
g58
NtRp1374
(dp1375
g61
(dp1376
sg70
g821
sg63
(lp1377
g56
(g77
g58
NtRp1378
(dp1379
g61
(dp1380
g81
g82
ssg70
g1374
sg63
(lp1381
S'web2py_crontype'
p1382
asbag56
(g77
g58
NtRp1383
(dp1384
g61
(dp1385
g88
g89
ssg70
g1374
sg63
(lp1386
S':'
asbag56
(g77
g58
NtRp1387
(dp1388
g61
(dp1389
sg70
g1374
sg63
(lp1390
g56
(g57
g58
NtRp1391
(dp1392
g61
(dp1393
g69
I4
ssg70
g1387
sg63
(lp1394
S'hard'
p1395
asbasbasbag56
(g72
g58
NtRp1396
(dp1397
g61
(dp1398
sg70
g821
sg63
(lp1399
g56
(g77
g58
NtRp1400
(dp1401
g61
(dp1402
g81
g82
ssg70
g1396
sg63
(lp1403
S'web2py_path'
p1404
asbag56
(g77
g58
NtRp1405
(dp1406
g61
(dp1407
g88
g89
ssg70
g1396
sg63
(lp1408
S':'
asbag56
(g77
g58
NtRp1409
(dp1410
g61
(dp1411
sg70
g1396
sg63
(lp1412
g56
(g57
g58
NtRp1413
(dp1414
g61
(dp1415
g69
I4
ssg70
g1409
sg63
(lp1416
g868
asbasbasbag56
(g72
g58
NtRp1417
(dp1418
g61
(dp1419
sg70
g821
sg63
(lp1420
g56
(g77
g58
NtRp1421
(dp1422
g61
(dp1423
g81
g82
ssg70
g1417
sg63
(lp1424
S'web2py_version'
p1425
asbag56
(g77
g58
NtRp1426
(dp1427
g61
(dp1428
g88
g89
ssg70
g1417
sg63
(lp1429
S':'
asbag56
(g77
g58
NtRp1430
(dp1431
g61
(dp1432
sg70
g1417
sg63
(lp1433
g56
(g57
g58
NtRp1434
(dp1435
g61
(dp1436
g69
I4
ssg70
g1430
sg63
(lp1437
S'Version 1.97.1 (2011-06-26 19:25:44)\n'
p1438
asbasbasbag56
(g72
g58
NtRp1439
(dp1440
g61
(dp1441
sg70
g821
sg63
(lp1442
g56
(g77
g58
NtRp1443
(dp1444
g61
(dp1445
g81
g82
ssg70
g1439
sg63
(lp1446
S'wsgi_errors'
p1447
asbag56
(g77
g58
NtRp1448
(dp1449
g61
(dp1450
g88
g89
ssg70
g1439
sg63
(lp1451
S':'
asbag56
(g77
g58
NtRp1452
(dp1453
g61
(dp1454
sg70
g1439
sg63
(lp1455
g56
(g57
g58
NtRp1456
(dp1457
g61
(dp1458
g69
I4
ssg70
g1452
sg63
(lp1459
S"<open file '<stderr>', mode 'w' at 0x100283270>"
p1460
asbasbasbag56
(g72
g58
NtRp1461
(dp1462
g61
(dp1463
sg70
g821
sg63
(lp1464
g56
(g77
g58
NtRp1465
(dp1466
g61
(dp1467
g81
g82
ssg70
g1461
sg63
(lp1468
S'wsgi_file_wrapper'
p1469
asbag56
(g77
g58
NtRp1470
(dp1471
g61
(dp1472
g88
g89
ssg70
g1461
sg63
(lp1473
S':'
asbag56
(g77
g58
NtRp1474
(dp1475
g61
(dp1476
sg70
g1461
sg63
(lp1477
g56
(g57
g58
NtRp1478
(dp1479
g61
(dp1480
g69
I4
ssg70
g1474
sg63
(lp1481
S'<class gluon.rocket.FileWrapper at 0x101976ef0>'
p1482
asbasbasbag56
(g72
g58
NtRp1483
(dp1484
g61
(dp1485
sg70
g821
sg63
(lp1486
g56
(g77
g58
NtRp1487
(dp1488
g61
(dp1489
g81
g82
ssg70
g1483
sg63
(lp1490
S'wsgi_input'
p1491
asbag56
(g77
g58
NtRp1492
(dp1493
g61
(dp1494
g88
g89
ssg70
g1483
sg63
(lp1495
S':'
asbag56
(g77
g58
NtRp1496
(dp1497
g61
(dp1498
sg70
g1483
sg63
(lp1499
g56
(g57
g58
NtRp1500
(dp1501
g61
(dp1502
g69
I4
ssg70
g1496
sg63
(lp1503
S'<socket._fileobject object at 0x1073559d0>'
p1504
asbasbasbag56
(g72
g58
NtRp1505
(dp1506
g61
(dp1507
sg70
g821
sg63
(lp1508
g56
(g77
g58
NtRp1509
(dp1510
g61
(dp1511
g81
g82
ssg70
g1505
sg63
(lp1512
S'wsgi_multiprocess'
p1513
asbag56
(g77
g58
NtRp1514
(dp1515
g61
(dp1516
g88
g89
ssg70
g1505
sg63
(lp1517
S':'
asbag56
(g77
g58
NtRp1518
(dp1519
g61
(dp1520
sg70
g1505
sg63
(lp1521
g56
(g57
g58
NtRp1522
(dp1523
g61
(dp1524
g69
I4
ssg70
g1518
sg63
(lp1525
g99
asbasbasbag56
(g72
g58
NtRp1526
(dp1527
g61
(dp1528
sg70
g821
sg63
(lp1529
g56
(g77
g58
NtRp1530
(dp1531
g61
(dp1532
g81
g82
ssg70
g1526
sg63
(lp1533
S'wsgi_multithread'
p1534
asbag56
(g77
g58
NtRp1535
(dp1536
g61
(dp1537
g88
g89
ssg70
g1526
sg63
(lp1538
S':'
asbag56
(g77
g58
NtRp1539
(dp1540
g61
(dp1541
sg70
g1526
sg63
(lp1542
g56
(g57
g58
NtRp1543
(dp1544
g61
(dp1545
g69
I4
ssg70
g1539
sg63
(lp1546
S'True'
p1547
asbasbasbag56
(g72
g58
NtRp1548
(dp1549
g61
(dp1550
sg70
g821
sg63
(lp1551
g56
(g77
g58
NtRp1552
(dp1553
g61
(dp1554
g81
g82
ssg70
g1548
sg63
(lp1555
S'wsgi_run_once'
p1556
asbag56
(g77
g58
NtRp1557
(dp1558
g61
(dp1559
g88
g89
ssg70
g1548
sg63
(lp1560
S':'
asbag56
(g77
g58
NtRp1561
(dp1562
g61
(dp1563
sg70
g1548
sg63
(lp1564
g56
(g57
g58
NtRp1565
(dp1566
g61
(dp1567
g69
I4
ssg70
g1561
sg63
(lp1568
g99
asbasbasbag56
(g72
g58
NtRp1569
(dp1570
g61
(dp1571
sg70
g821
sg63
(lp1572
g56
(g77
g58
NtRp1573
(dp1574
g61
(dp1575
g81
g82
ssg70
g1569
sg63
(lp1576
S'wsgi_url_scheme'
p1577
asbag56
(g77
g58
NtRp1578
(dp1579
g61
(dp1580
g88
g89
ssg70
g1569
sg63
(lp1581
S':'
asbag56
(g77
g58
NtRp1582
(dp1583
g61
(dp1584
sg70
g1569
sg63
(lp1585
g56
(g57
g58
NtRp1586
(dp1587
g61
(dp1588
g69
I4
ssg70
g1582
sg63
(lp1589
S'http'
p1590
asbasbasbag56
(g72
g58
NtRp1591
(dp1592
g61
(dp1593
sg70
g821
sg63
(lp1594
g56
(g77
g58
NtRp1595
(dp1596
g61
(dp1597
g81
g82
ssg70
g1591
sg63
(lp1598
S'wsgi_version'
p1599
asbag56
(g77
g58
NtRp1600
(dp1601
g61
(dp1602
g88
g89
ssg70
g1591
sg63
(lp1603
S':'
asbag56
(g77
g58
NtRp1604
(dp1605
g61
(dp1606
sg70
g1591
sg63
(lp1607
g56
(g57
g58
NtRp1608
(dp1609
g61
(dp1610
g69
I4
ssg70
g1604
sg63
(lp1611
g56
(g65
g58
NtRp1612
(dp1613
g61
(dp1614
g69
I3
ssg70
Nsg63
(lp1615
g56
(g72
g58
NtRp1616
(dp1617
g61
(dp1618
sg70
g1612
sg63
(lp1619
g56
(g77
g58
NtRp1620
(dp1621
g61
(dp1622
sg70
g1616
sg63
(lp1623
g56
(g57
g58
NtRp1624
(dp1625
g61
(dp1626
g69
I3
ssg70
g1620
sg63
(lp1627
S'1'
asbasbasbag56
(g72
g58
NtRp1628
(dp1629
g61
(dp1630
sg70
g1612
sg63
(lp1631
g56
(g77
g58
NtRp1632
(dp1633
g61
(dp1634
sg70
g1628
sg63
(lp1635
g56
(g57
g58
NtRp1636
(dp1637
g61
(dp1638
g69
I3
ssg70
g1632
sg63
(lp1639
S'0'
asbasbasbasbasbasbasbasbasbasbasbag56
(g72
g58
NtRp1640
(dp1641
g61
(dp1642
sg70
g66
sg63
(lp1643
g56
(g77
g58
NtRp1644
(dp1645
g61
(dp1646
g81
g82
ssg70
g1640
sg63
(lp1647
S'extension'
p1648
asbag56
(g77
g58
NtRp1649
(dp1650
g61
(dp1651
g88
g89
ssg70
g1640
sg63
(lp1652
S':'
asbag56
(g77
g58
NtRp1653
(dp1654
g61
(dp1655
sg70
g1640
sg63
(lp1656
g56
(g57
g58
NtRp1657
(dp1658
g61
(dp1659
g69
I5
ssg70
g1653
sg63
(lp1660
S'html'
p1661
asbasbasbag56
(g72
g58
NtRp1662
(dp1663
g61
(dp1664
sg70
g66
sg63
(lp1665
g56
(g77
g58
NtRp1666
(dp1667
g61
(dp1668
g81
g82
ssg70
g1662
sg63
(lp1669
S'folder'
p1670
asbag56
(g77
g58
NtRp1671
(dp1672
g61
(dp1673
g88
g89
ssg70
g1662
sg63
(lp1674
S':'
asbag56
(g77
g58
NtRp1675
(dp1676
g61
(dp1677
sg70
g1662
sg63
(lp1678
g56
(g57
g58
NtRp1679
(dp1680
g61
(dp1681
g69
I5
ssg70
g1675
sg63
(lp1682
S'/Users/schultzc/workspace/wherespuppet/web2py/applications/wp/'
p1683
asbasbasbag56
(g72
g58
NtRp1684
(dp1685
g61
(dp1686
sg70
g66
sg63
(lp1687
g56
(g77
g58
NtRp1688
(dp1689
g61
(dp1690
g81
g82
ssg70
g1684
sg63
(lp1691
S'function'
p1692
asbag56
(g77
g58
NtRp1693
(dp1694
g61
(dp1695
g88
g89
ssg70
g1684
sg63
(lp1696
S':'
asbag56
(g77
g58
NtRp1697
(dp1698
g61
(dp1699
sg70
g1684
sg63
(lp1700
g56
(g57
g58
NtRp1701
(dp1702
g61
(dp1703
g69
I5
ssg70
g1697
sg63
(lp1704
S'submit'
p1705
asbasbasbag56
(g72
g58
NtRp1706
(dp1707
g61
(dp1708
sg70
g66
sg63
(lp1709
g56
(g77
g58
NtRp1710
(dp1711
g61
(dp1712
g81
g82
ssg70
g1706
sg63
(lp1713
S'get_vars'
p1714
asbag56
(g77
g58
NtRp1715
(dp1716
g61
(dp1717
g88
g89
ssg70
g1706
sg63
(lp1718
S':'
asbag56
(g77
g58
NtRp1719
(dp1720
g61
(dp1721
sg70
g1706
sg63
(lp1722
g56
(g57
g58
NtRp1723
(dp1724
g61
(dp1725
g69
I5
ssg70
g1719
sg63
(lp1726
g56
(g65
g58
NtRp1727
(dp1728
g61
(dp1729
g69
I4
ssg70
Nsg63
(lp1730
sbasbasbasbag56
(g72
g58
NtRp1731
(dp1732
g61
(dp1733
sg70
g66
sg63
(lp1734
g56
(g77
g58
NtRp1735
(dp1736
g61
(dp1737
g81
g82
ssg70
g1731
sg63
(lp1738
S'is_https'
p1739
asbag56
(g77
g58
NtRp1740
(dp1741
g61
(dp1742
g88
g89
ssg70
g1731
sg63
(lp1743
S':'
asbag56
(g77
g58
NtRp1744
(dp1745
g61
(dp1746
sg70
g1731
sg63
(lp1747
g56
(g57
g58
NtRp1748
(dp1749
g61
(dp1750
g69
I5
ssg70
g1744
sg63
(lp1751
g99
asbasbasbag56
(g72
g58
NtRp1752
(dp1753
g61
(dp1754
sg70
g66
sg63
(lp1755
g56
(g77
g58
NtRp1756
(dp1757
g61
(dp1758
g81
g82
ssg70
g1752
sg63
(lp1759
S'is_local'
p1760
asbag56
(g77
g58
NtRp1761
(dp1762
g61
(dp1763
g88
g89
ssg70
g1752
sg63
(lp1764
S':'
asbag56
(g77
g58
NtRp1765
(dp1766
g61
(dp1767
sg70
g1752
sg63
(lp1768
g56
(g57
g58
NtRp1769
(dp1770
g61
(dp1771
g69
I5
ssg70
g1765
sg63
(lp1772
g1547
asbasbasbag56
(g72
g58
NtRp1773
(dp1774
g61
(dp1775
sg70
g66
sg63
(lp1776
g56
(g77
g58
NtRp1777
(dp1778
g61
(dp1779
g81
g82
ssg70
g1773
sg63
(lp1780
S'is_restful'
p1781
asbag56
(g77
g58
NtRp1782
(dp1783
g61
(dp1784
g88
g89
ssg70
g1773
sg63
(lp1785
S':'
asbag56
(g77
g58
NtRp1786
(dp1787
g61
(dp1788
sg70
g1773
sg63
(lp1789
g56
(g57
g58
NtRp1790
(dp1791
g61
(dp1792
g69
I5
ssg70
g1786
sg63
(lp1793
g99
asbasbasbag56
(g72
g58
NtRp1794
(dp1795
g61
(dp1796
sg70
g66
sg63
(lp1797
g56
(g77
g58
NtRp1798
(dp1799
g61
(dp1800
g81
g82
ssg70
g1794
sg63
(lp1801
S'now'
p1802
asbag56
(g77
g58
NtRp1803
(dp1804
g61
(dp1805
g88
g89
ssg70
g1794
sg63
(lp1806
S':'
asbag56
(g77
g58
NtRp1807
(dp1808
g61
(dp1809
sg70
g1794
sg63
(lp1810
g56
(g57
g58
NtRp1811
(dp1812
g61
(dp1813
g69
I5
ssg70
g1807
sg63
(lp1814
S'datetime.datetime(2011, 7, 22, 16, 44, 49, 198651)'
p1815
asbasbasbag56
(g72
g58
NtRp1816
(dp1817
g61
(dp1818
sg70
g66
sg63
(lp1819
g56
(g77
g58
NtRp1820
(dp1821
g61
(dp1822
g81
g82
ssg70
g1816
sg63
(lp1823
S'post_vars'
p1824
asbag56
(g77
g58
NtRp1825
(dp1826
g61
(dp1827
g88
g89
ssg70
g1816
sg63
(lp1828
S':'
asbag56
(g77
g58
NtRp1829
(dp1830
g61
(dp1831
sg70
g1816
sg63
(lp1832
g56
(g57
g58
NtRp1833
(dp1834
g61
(dp1835
g69
I5
ssg70
g1829
sg63
(lp1836
g56
(g65
g58
NtRp1837
(dp1838
g61
(dp1839
g69
I4
ssg70
Nsg63
(lp1840
sbasbasbasbag56
(g72
g58
NtRp1841
(dp1842
g61
(dp1843
sg70
g66
sg63
(lp1844
g56
(g77
g58
NtRp1845
(dp1846
g61
(dp1847
g81
g82
ssg70
g1841
sg63
(lp1848
S'raw_args'
p1849
asbag56
(g77
g58
NtRp1850
(dp1851
g61
(dp1852
g88
g89
ssg70
g1841
sg63
(lp1853
S':'
asbag56
(g77
g58
NtRp1854
(dp1855
g61
(dp1856
sg70
g1841
sg63
(lp1857
g56
(g57
g58
NtRp1858
(dp1859
g61
(dp1860
g69
I5
ssg70
g1854
sg63
(lp1861
S''
asbasbasbag56
(g72
g58
NtRp1862
(dp1863
g61
(dp1864
sg70
g66
sg63
(lp1865
g56
(g77
g58
NtRp1866
(dp1867
g61
(dp1868
g81
g82
ssg70
g1862
sg63
(lp1869
S'url'
p1870
asbag56
(g77
g58
NtRp1871
(dp1872
g61
(dp1873
g88
g89
ssg70
g1862
sg63
(lp1874
S':'
asbag56
(g77
g58
NtRp1875
(dp1876
g61
(dp1877
sg70
g1862
sg63
(lp1878
g56
(g57
g58
NtRp1879
(dp1880
g61
(dp1881
g69
I5
ssg70
g1875
sg63
(lp1882
S'/wp/default/submit'
p1883
asbasbasbag56
(g72
g58
NtRp1884
(dp1885
g61
(dp1886
sg70
g66
sg63
(lp1887
g56
(g77
g58
NtRp1888
(dp1889
g61
(dp1890
g81
g82
ssg70
g1884
sg63
(lp1891
S'uuid'
p1892
asbag56
(g77
g58
NtRp1893
(dp1894
g61
(dp1895
g88
g89
ssg70
g1884
sg63
(lp1896
S':'
asbag56
(g77
g58
NtRp1897
(dp1898
g61
(dp1899
sg70
g1884
sg63
(lp1900
g56
(g57
g58
NtRp1901
(dp1902
g61
(dp1903
g69
I5
ssg70
g1897
sg63
(lp1904
S'wp/127.0.0.1.2011-07-22.16-44-49.1fbadde5-2fc9-4d7c-ad73-537f5a2e657b'
p1905
asbasbasbag56
(g72
g58
NtRp1906
(dp1907
g61
(dp1908
sg70
g66
sg63
(lp1909
g56
(g77
g58
NtRp1910
(dp1911
g61
(dp1912
g81
g82
ssg70
g1906
sg63
(lp1913
S'vars'
p1914
asbag56
(g77
g58
NtRp1915
(dp1916
g61
(dp1917
g88
g89
ssg70
g1906
sg63
(lp1918
S':'
asbag56
(g77
g58
NtRp1919
(dp1920
g61
(dp1921
sg70
g1906
sg63
(lp1922
g56
(g57
g58
NtRp1923
(dp1924
g61
(dp1925
g69
I5
ssg70
g1919
sg63
(lp1926
g56
(g65
g58
NtRp1927
(dp1928
g61
(dp1929
g69
I4
ssg70
Nsg63
(lp1930
sbasbasbasbag56
(g72
g58
NtRp1931
(dp1932
g61
(dp1933
sg70
g66
sg63
(lp1934
g56
(g77
g58
NtRp1935
(dp1936
g61
(dp1937
g81
g82
ssg70
g1931
sg63
(lp1938
S'wsgi'
p1939
asbag56
(g77
g58
NtRp1940
(dp1941
g61
(dp1942
g88
g89
ssg70
g1931
sg63
(lp1943
S':'
asbag56
(g77
g58
NtRp1944
(dp1945
g61
(dp1946
sg70
g1931
sg63
(lp1947
g56
(g57
g58
NtRp1948
(dp1949
g61
(dp1950
g69
I5
ssg70
g1944
sg63
(lp1951
g56
(g65
g58
NtRp1952
(dp1953
g61
(dp1954
g69
I4
ssg70
Nsg63
(lp1955
g56
(g72
g58
NtRp1956
(dp1957
g61
(dp1958
sg70
g1952
sg63
(lp1959
g56
(g77
g58
NtRp1960
(dp1961
g61
(dp1962
g81
g82
ssg70
g1956
sg63
(lp1963
S'environ'
p1964
asbag56
(g77
g58
NtRp1965
(dp1966
g61
(dp1967
g88
g89
ssg70
g1956
sg63
(lp1968
S':'
asbag56
(g77
g58
NtRp1969
(dp1970
g61
(dp1971
sg70
g1956
sg63
(lp1972
g56
(g57
g58
NtRp1973
(dp1974
g61
(dp1975
g69
I4
ssg70
g1969
sg63
(lp1976
g56
(g65
g58
NtRp1977
(dp1978
g61
(dp1979
g69
I3
ssg70
Nsg63
(lp1980
g56
(g72
g58
NtRp1981
(dp1982
g61
(dp1983
sg70
g1977
sg63
(lp1984
g56
(g77
g58
NtRp1985
(dp1986
g61
(dp1987
g81
g82
ssg70
g1981
sg63
(lp1988
S'HTTP_ACCEPT'
p1989
asbag56
(g77
g58
NtRp1990
(dp1991
g61
(dp1992
g88
g89
ssg70
g1981
sg63
(lp1993
S':'
asbag56
(g77
g58
NtRp1994
(dp1995
g61
(dp1996
sg70
g1981
sg63
(lp1997
g56
(g57
g58
NtRp1998
(dp1999
g61
(dp2000
g69
I3
ssg70
g1994
sg63
(lp2001
g1002
asbasbasbag56
(g72
g58
NtRp2002
(dp2003
g61
(dp2004
sg70
g1977
sg63
(lp2005
g56
(g77
g58
NtRp2006
(dp2007
g61
(dp2008
g81
g82
ssg70
g2002
sg63
(lp2009
S'HTTP_ACCEPT_CHARSET'
p2010
asbag56
(g77
g58
NtRp2011
(dp2012
g61
(dp2013
g88
g89
ssg70
g2002
sg63
(lp2014
S':'
asbag56
(g77
g58
NtRp2015
(dp2016
g61
(dp2017
sg70
g2002
sg63
(lp2018
g56
(g57
g58
NtRp2019
(dp2020
g61
(dp2021
g69
I3
ssg70
g2015
sg63
(lp2022
g1024
asbasbasbag56
(g72
g58
NtRp2023
(dp2024
g61
(dp2025
sg70
g1977
sg63
(lp2026
g56
(g77
g58
NtRp2027
(dp2028
g61
(dp2029
g81
g82
ssg70
g2023
sg63
(lp2030
S'HTTP_ACCEPT_ENCODING'
p2031
asbag56
(g77
g58
NtRp2032
(dp2033
g61
(dp2034
g88
g89
ssg70
g2023
sg63
(lp2035
S':'
asbag56
(g77
g58
NtRp2036
(dp2037
g61
(dp2038
sg70
g2023
sg63
(lp2039
g56
(g57
g58
NtRp2040
(dp2041
g61
(dp2042
g69
I3
ssg70
g2036
sg63
(lp2043
g1046
asbasbasbag56
(g72
g58
NtRp2044
(dp2045
g61
(dp2046
sg70
g1977
sg63
(lp2047
g56
(g77
g58
NtRp2048
(dp2049
g61
(dp2050
g81
g82
ssg70
g2044
sg63
(lp2051
S'HTTP_ACCEPT_LANGUAGE'
p2052
asbag56
(g77
g58
NtRp2053
(dp2054
g61
(dp2055
g88
g89
ssg70
g2044
sg63
(lp2056
S':'
asbag56
(g77
g58
NtRp2057
(dp2058
g61
(dp2059
sg70
g2044
sg63
(lp2060
g56
(g57
g58
NtRp2061
(dp2062
g61
(dp2063
g69
I3
ssg70
g2057
sg63
(lp2064
g1068
asbasbasbag56
(g72
g58
NtRp2065
(dp2066
g61
(dp2067
sg70
g1977
sg63
(lp2068
g56
(g77
g58
NtRp2069
(dp2070
g61
(dp2071
g81
g82
ssg70
g2065
sg63
(lp2072
S'HTTP_CONNECTION'
p2073
asbag56
(g77
g58
NtRp2074
(dp2075
g61
(dp2076
g88
g89
ssg70
g2065
sg63
(lp2077
S':'
asbag56
(g77
g58
NtRp2078
(dp2079
g61
(dp2080
sg70
g2065
sg63
(lp2081
g56
(g57
g58
NtRp2082
(dp2083
g61
(dp2084
g69
I3
ssg70
g2078
sg63
(lp2085
g1090
asbasbasbag56
(g72
g58
NtRp2086
(dp2087
g61
(dp2088
sg70
g1977
sg63
(lp2089
g56
(g77
g58
NtRp2090
(dp2091
g61
(dp2092
g81
g82
ssg70
g2086
sg63
(lp2093
S'HTTP_COOKIE'
p2094
asbag56
(g77
g58
NtRp2095
(dp2096
g61
(dp2097
g88
g89
ssg70
g2086
sg63
(lp2098
S':'
asbag56
(g77
g58
NtRp2099
(dp2100
g61
(dp2101
sg70
g2086
sg63
(lp2102
g56
(g57
g58
NtRp2103
(dp2104
g61
(dp2105
g69
I3
ssg70
g2099
sg63
(lp2106
g1112
asbasbasbag56
(g72
g58
NtRp2107
(dp2108
g61
(dp2109
sg70
g1977
sg63
(lp2110
g56
(g77
g58
NtRp2111
(dp2112
g61
(dp2113
g81
g82
ssg70
g2107
sg63
(lp2114
S'HTTP_HOST'
p2115
asbag56
(g77
g58
NtRp2116
(dp2117
g61
(dp2118
g88
g89
ssg70
g2107
sg63
(lp2119
S':'
asbag56
(g77
g58
NtRp2120
(dp2121
g61
(dp2122
sg70
g2107
sg63
(lp2123
g56
(g57
g58
NtRp2124
(dp2125
g61
(dp2126
g69
I3
ssg70
g2120
sg63
(lp2127
g1134
asbasbasbag56
(g72
g58
NtRp2128
(dp2129
g61
(dp2130
sg70
g1977
sg63
(lp2131
g56
(g77
g58
NtRp2132
(dp2133
g61
(dp2134
g81
g82
ssg70
g2128
sg63
(lp2135
S'HTTP_USER_AGENT'
p2136
asbag56
(g77
g58
NtRp2137
(dp2138
g61
(dp2139
g88
g89
ssg70
g2128
sg63
(lp2140
S':'
asbag56
(g77
g58
NtRp2141
(dp2142
g61
(dp2143
sg70
g2128
sg63
(lp2144
g56
(g57
g58
NtRp2145
(dp2146
g61
(dp2147
g69
I3
ssg70
g2141
sg63
(lp2148
g1156
asbasbasbag56
(g72
g58
NtRp2149
(dp2150
g61
(dp2151
sg70
g1977
sg63
(lp2152
g56
(g77
g58
NtRp2153
(dp2154
g61
(dp2155
g81
g82
ssg70
g2149
sg63
(lp2156
S'PATH_INFO'
p2157
asbag56
(g77
g58
NtRp2158
(dp2159
g61
(dp2160
g88
g89
ssg70
g2149
sg63
(lp2161
S':'
asbag56
(g77
g58
NtRp2162
(dp2163
g61
(dp2164
sg70
g2149
sg63
(lp2165
g56
(g57
g58
NtRp2166
(dp2167
g61
(dp2168
g69
I3
ssg70
g2162
sg63
(lp2169
g1178
asbasbasbag56
(g72
g58
NtRp2170
(dp2171
g61
(dp2172
sg70
g1977
sg63
(lp2173
g56
(g77
g58
NtRp2174
(dp2175
g61
(dp2176
g81
g82
ssg70
g2170
sg63
(lp2177
S'QUERY_STRING'
p2178
asbag56
(g77
g58
NtRp2179
(dp2180
g61
(dp2181
g88
g89
ssg70
g2170
sg63
(lp2182
S':'
asbag56
(g77
g58
NtRp2183
(dp2184
g61
(dp2185
sg70
g2170
sg63
(lp2186
g56
(g57
g58
NtRp2187
(dp2188
g61
(dp2189
g69
I3
ssg70
g2183
sg63
(lp2190
S''
asbasbasbag56
(g72
g58
NtRp2191
(dp2192
g61
(dp2193
sg70
g1977
sg63
(lp2194
g56
(g77
g58
NtRp2195
(dp2196
g61
(dp2197
g81
g82
ssg70
g2191
sg63
(lp2198
S'REMOTE_ADDR'
p2199
asbag56
(g77
g58
NtRp2200
(dp2201
g61
(dp2202
g88
g89
ssg70
g2191
sg63
(lp2203
S':'
asbag56
(g77
g58
NtRp2204
(dp2205
g61
(dp2206
sg70
g2191
sg63
(lp2207
g56
(g57
g58
NtRp2208
(dp2209
g61
(dp2210
g69
I3
ssg70
g2204
sg63
(lp2211
g189
asbasbasbag56
(g72
g58
NtRp2212
(dp2213
g61
(dp2214
sg70
g1977
sg63
(lp2215
g56
(g77
g58
NtRp2216
(dp2217
g61
(dp2218
g81
g82
ssg70
g2212
sg63
(lp2219
S'REMOTE_PORT'
p2220
asbag56
(g77
g58
NtRp2221
(dp2222
g61
(dp2223
g88
g89
ssg70
g2212
sg63
(lp2224
S':'
asbag56
(g77
g58
NtRp2225
(dp2226
g61
(dp2227
sg70
g2212
sg63
(lp2228
g56
(g57
g58
NtRp2229
(dp2230
g61
(dp2231
g69
I3
ssg70
g2225
sg63
(lp2232
g1242
asbasbasbag56
(g72
g58
NtRp2233
(dp2234
g61
(dp2235
sg70
g1977
sg63
(lp2236
g56
(g77
g58
NtRp2237
(dp2238
g61
(dp2239
g81
g82
ssg70
g2233
sg63
(lp2240
S'REQUEST_METHOD'
p2241
asbag56
(g77
g58
NtRp2242
(dp2243
g61
(dp2244
g88
g89
ssg70
g2233
sg63
(lp2245
S':'
asbag56
(g77
g58
NtRp2246
(dp2247
g61
(dp2248
sg70
g2233
sg63
(lp2249
g56
(g57
g58
NtRp2250
(dp2251
g61
(dp2252
g69
I3
ssg70
g2246
sg63
(lp2253
g1264
asbasbasbag56
(g72
g58
NtRp2254
(dp2255
g61
(dp2256
sg70
g1977
sg63
(lp2257
g56
(g77
g58
NtRp2258
(dp2259
g61
(dp2260
g81
g82
ssg70
g2254
sg63
(lp2261
S'SCRIPT_NAME'
p2262
asbag56
(g77
g58
NtRp2263
(dp2264
g61
(dp2265
g88
g89
ssg70
g2254
sg63
(lp2266
S':'
asbag56
(g77
g58
NtRp2267
(dp2268
g61
(dp2269
sg70
g2254
sg63
(lp2270
g56
(g57
g58
NtRp2271
(dp2272
g61
(dp2273
g69
I3
ssg70
g2267
sg63
(lp2274
S''
asbasbasbag56
(g72
g58
NtRp2275
(dp2276
g61
(dp2277
sg70
g1977
sg63
(lp2278
g56
(g77
g58
NtRp2279
(dp2280
g61
(dp2281
g81
g82
ssg70
g2275
sg63
(lp2282
S'SERVER_NAME'
p2283
asbag56
(g77
g58
NtRp2284
(dp2285
g61
(dp2286
g88
g89
ssg70
g2275
sg63
(lp2287
S':'
asbag56
(g77
g58
NtRp2288
(dp2289
g61
(dp2290
sg70
g2275
sg63
(lp2291
g56
(g57
g58
NtRp2292
(dp2293
g61
(dp2294
g69
I3
ssg70
g2288
sg63
(lp2295
g1307
asbasbasbag56
(g72
g58
NtRp2296
(dp2297
g61
(dp2298
sg70
g1977
sg63
(lp2299
g56
(g77
g58
NtRp2300
(dp2301
g61
(dp2302
g81
g82
ssg70
g2296
sg63
(lp2303
S'SERVER_PORT'
p2304
asbag56
(g77
g58
NtRp2305
(dp2306
g61
(dp2307
g88
g89
ssg70
g2296
sg63
(lp2308
S':'
asbag56
(g77
g58
NtRp2309
(dp2310
g61
(dp2311
sg70
g2296
sg63
(lp2312
g56
(g57
g58
NtRp2313
(dp2314
g61
(dp2315
g69
I3
ssg70
g2309
sg63
(lp2316
g1329
asbasbasbag56
(g72
g58
NtRp2317
(dp2318
g61
(dp2319
sg70
g1977
sg63
(lp2320
g56
(g77
g58
NtRp2321
(dp2322
g61
(dp2323
g81
g82
ssg70
g2317
sg63
(lp2324
S'SERVER_PROTOCOL'
p2325
asbag56
(g77
g58
NtRp2326
(dp2327
g61
(dp2328
g88
g89
ssg70
g2317
sg63
(lp2329
S':'
asbag56
(g77
g58
NtRp2330
(dp2331
g61
(dp2332
sg70
g2317
sg63
(lp2333
g56
(g57
g58
NtRp2334
(dp2335
g61
(dp2336
g69
I3
ssg70
g2330
sg63
(lp2337
g1351
asbasbasbag56
(g72
g58
NtRp2338
(dp2339
g61
(dp2340
sg70
g1977
sg63
(lp2341
g56
(g77
g58
NtRp2342
(dp2343
g61
(dp2344
g81
g82
ssg70
g2338
sg63
(lp2345
S'SERVER_SOFTWARE'
p2346
asbag56
(g77
g58
NtRp2347
(dp2348
g61
(dp2349
g88
g89
ssg70
g2338
sg63
(lp2350
S':'
asbag56
(g77
g58
NtRp2351
(dp2352
g61
(dp2353
sg70
g2338
sg63
(lp2354
g56
(g57
g58
NtRp2355
(dp2356
g61
(dp2357
g69
I3
ssg70
g2351
sg63
(lp2358
g1373
asbasbasbag56
(g72
g58
NtRp2359
(dp2360
g61
(dp2361
sg70
g1977
sg63
(lp2362
g56
(g77
g58
NtRp2363
(dp2364
g61
(dp2365
g81
g82
ssg70
g2359
sg63
(lp2366
S'wsgi.errors'
p2367
asbag56
(g77
g58
NtRp2368
(dp2369
g61
(dp2370
g88
g89
ssg70
g2359
sg63
(lp2371
S':'
asbag56
(g77
g58
NtRp2372
(dp2373
g61
(dp2374
sg70
g2359
sg63
(lp2375
g56
(g57
g58
NtRp2376
(dp2377
g61
(dp2378
g69
I3
ssg70
g2372
sg63
(lp2379
S"<open file '<stderr>', mode 'w' at 0x100283270>"
p2380
asbasbasbag56
(g72
g58
NtRp2381
(dp2382
g61
(dp2383
sg70
g1977
sg63
(lp2384
g56
(g77
g58
NtRp2385
(dp2386
g61
(dp2387
g81
g82
ssg70
g2381
sg63
(lp2388
S'wsgi.file_wrapper'
p2389
asbag56
(g77
g58
NtRp2390
(dp2391
g61
(dp2392
g88
g89
ssg70
g2381
sg63
(lp2393
S':'
asbag56
(g77
g58
NtRp2394
(dp2395
g61
(dp2396
sg70
g2381
sg63
(lp2397
g56
(g57
g58
NtRp2398
(dp2399
g61
(dp2400
g69
I3
ssg70
g2394
sg63
(lp2401
S'<class gluon.rocket.FileWrapper at 0x101976ef0>'
p2402
asbasbasbag56
(g72
g58
NtRp2403
(dp2404
g61
(dp2405
sg70
g1977
sg63
(lp2406
g56
(g77
g58
NtRp2407
(dp2408
g61
(dp2409
g81
g82
ssg70
g2403
sg63
(lp2410
S'wsgi.input'
p2411
asbag56
(g77
g58
NtRp2412
(dp2413
g61
(dp2414
g88
g89
ssg70
g2403
sg63
(lp2415
S':'
asbag56
(g77
g58
NtRp2416
(dp2417
g61
(dp2418
sg70
g2403
sg63
(lp2419
g56
(g57
g58
NtRp2420
(dp2421
g61
(dp2422
g69
I3
ssg70
g2416
sg63
(lp2423
S'<cStringIO.StringO object at 0x10768d4c8>'
p2424
asbasbasbag56
(g72
g58
NtRp2425
(dp2426
g61
(dp2427
sg70
g1977
sg63
(lp2428
g56
(g77
g58
NtRp2429
(dp2430
g61
(dp2431
g81
g82
ssg70
g2425
sg63
(lp2432
S'wsgi.multiprocess'
p2433
asbag56
(g77
g58
NtRp2434
(dp2435
g61
(dp2436
g88
g89
ssg70
g2425
sg63
(lp2437
S':'
asbag56
(g77
g58
NtRp2438
(dp2439
g61
(dp2440
sg70
g2425
sg63
(lp2441
g56
(g57
g58
NtRp2442
(dp2443
g61
(dp2444
g69
I3
ssg70
g2438
sg63
(lp2445
g99
asbasbasbag56
(g72
g58
NtRp2446
(dp2447
g61
(dp2448
sg70
g1977
sg63
(lp2449
g56
(g77
g58
NtRp2450
(dp2451
g61
(dp2452
g81
g82
ssg70
g2446
sg63
(lp2453
S'wsgi.multithread'
p2454
asbag56
(g77
g58
NtRp2455
(dp2456
g61
(dp2457
g88
g89
ssg70
g2446
sg63
(lp2458
S':'
asbag56
(g77
g58
NtRp2459
(dp2460
g61
(dp2461
sg70
g2446
sg63
(lp2462
g56
(g57
g58
NtRp2463
(dp2464
g61
(dp2465
g69
I3
ssg70
g2459
sg63
(lp2466
g1547
asbasbasbag56
(g72
g58
NtRp2467
(dp2468
g61
(dp2469
sg70
g1977
sg63
(lp2470
g56
(g77
g58
NtRp2471
(dp2472
g61
(dp2473
g81
g82
ssg70
g2467
sg63
(lp2474
S'wsgi.run_once'
p2475
asbag56
(g77
g58
NtRp2476
(dp2477
g61
(dp2478
g88
g89
ssg70
g2467
sg63
(lp2479
S':'
asbag56
(g77
g58
NtRp2480
(dp2481
g61
(dp2482
sg70
g2467
sg63
(lp2483
g56
(g57
g58
NtRp2484
(dp2485
g61
(dp2486
g69
I3
ssg70
g2480
sg63
(lp2487
g99
asbasbasbag56
(g72
g58
NtRp2488
(dp2489
g61
(dp2490
sg70
g1977
sg63
(lp2491
g56
(g77
g58
NtRp2492
(dp2493
g61
(dp2494
g81
g82
ssg70
g2488
sg63
(lp2495
S'wsgi.url_scheme'
p2496
asbag56
(g77
g58
NtRp2497
(dp2498
g61
(dp2499
g88
g89
ssg70
g2488
sg63
(lp2500
S':'
asbag56
(g77
g58
NtRp2501
(dp2502
g61
(dp2503
sg70
g2488
sg63
(lp2504
g56
(g57
g58
NtRp2505
(dp2506
g61
(dp2507
g69
I3
ssg70
g2501
sg63
(lp2508
g1590
asbasbasbag56
(g72
g58
NtRp2509
(dp2510
g61
(dp2511
sg70
g1977
sg63
(lp2512
g56
(g77
g58
NtRp2513
(dp2514
g61
(dp2515
g81
g82
ssg70
g2509
sg63
(lp2516
S'wsgi.version'
p2517
asbag56
(g77
g58
NtRp2518
(dp2519
g61
(dp2520
g88
g89
ssg70
g2509
sg63
(lp2521
S':'
asbag56
(g77
g58
NtRp2522
(dp2523
g61
(dp2524
sg70
g2509
sg63
(lp2525
g56
(g57
g58
NtRp2526
(dp2527
g61
(dp2528
g69
I3
ssg70
g2522
sg63
(lp2529
S'1'
asbasbasbasbasbasbasbasbasbasbasbasbasbsS'frames'
p2530
(lp2531
(dp2532
S'file'
p2533
S'/Users/schultzc/workspace/wherespuppet/web2py/gluon/restricted.py'
p2534
sS'dump'
p2535
(dp2536
S'environment'
p2537
S"{'A': <class 'gluon.html.A'>, 'B': <class 'gluon.html.B'>, 'BEAUTIFY': <class 'gluon.html.BEAUTIFY'>, 'BODY': <class 'gluon.html.BODY'>, 'BR': <class 'gluon.html.BR'>, 'BUTTON': <class 'gluon.html.BUTTON'>, 'CENTER': <class 'gluon.html.CENTER'>, 'CLEANUP': <class 'gluon.validators.CLEANUP'>, 'CODE': <class 'gluon.html.CODE'>, 'CRYPT': <class 'gluon.validators.CRYPT'>, ...}"
p2538
sS'ccode'
p2539
S'<code object <module> at 0x105f99930, file "/Use...applications/wp/controllers/default.py", line 11>'
p2540
ssS'lnum'
p2541
I192
sS'lines'
p2542
(dp2543
I192
S'        exec ccode in environment'
p2544
sI193
S'    except HTTP:'
p2545
sI194
S'        raise'
p2546
sI195
S'    except Exception:'
p2547
sI196
S'        # XXX Show exception in Wing IDE if running in debugger'
p2548
sI187
S'    try:'
p2549
sI188
S'        if type(code) == types.CodeType:'
p2550
sI189
S'            ccode = code'
p2551
sI190
S'        else:'
p2552
sI191
S'            ccode = compile2(code,layer)'
p2553
ssS'call'
p2554
S'(code="# -*- coding: utf-8 -*-\\n# this file is released ...())\\n\'\'\'\\n\\nresponse._vars=response._caller(submit)\\n", environment={\'A\': <class \'gluon.html.A\'>, \'B\': <class \'gluon.html.B\'>, \'BEAUTIFY\': <class \'gluon.html.BEAUTIFY\'>, \'BODY\': <class \'gluon.html.BODY\'>, \'BR\': <class \'gluon.html.BR\'>, \'BUTTON\': <class \'gluon.html.BUTTON\'>, \'CENTER\': <class \'gluon.html.CENTER\'>, \'CLEANUP\': <class \'gluon.validators.CLEANUP\'>, \'CODE\': <class \'gluon.html.CODE\'>, \'CRYPT\': <class \'gluon.validators.CRYPT\'>, ...}, layer=\'/Users/schultzc/workspace/wherespuppet/web2py/applications/wp/controllers/default.py\')'
p2555
sS'func'
p2556
S'restricted'
p2557
sa(dp2558
g2533
S'/Users/schultzc/workspace/wherespuppet/web2py/applications/wp/controllers/default.py'
p2559
sg2535
(dp2560
sg2541
I92
sg2542
(dp2561
I81
S'    http://..../[app]/default/data/delete/[table]/[id['
p2562
sI82
S'    http://..../[app]/default/data/select/[table]'
p2563
sI83
S'    http://..../[app]/default/data/search/[table]'
p2564
sI84
S'    but URLs bust be signed, i.e. linked with'
p2565
sI85
S"      A('table',_href=URL('data/tables',user_signature=True))"
p2566
sI86
S'    or with the signed load operator'
p2567
sI87
S"      LOAD('default','data.load',args='tables',ajax=True,user_signature=True)"
p2568
sI88
S'    """'
p2569
sI89
S'    return dict(form=crud())'
p2570
sI90
S"'''"
p2571
ssg2554
S'()'
p2572
sg2556
S'<module>'
p2573
sa(dp2574
g2533
S'/Users/schultzc/workspace/wherespuppet/web2py/gluon/globals.py'
p2575
sg2535
(dp2576
S'self'
p2577
S'undefined'
p2578
sS'f'
S'<function submit>'
p2579
ssg2541
I137
sg2542
(dp2580
I132
S"        self.flash = ''           # used by the default view layout"
p2581
sI133
S'        self.meta = Storage()     # used by web2py_ajax.html'
p2582
sI134
S'        self.menu = []            # used by the default view layout'
p2583
sI135
S'        self.files = []           # used by web2py_ajax.html'
p2584
sI136
S'        self._vars = None'
p2585
sI137
S'        self._caller = lambda f: f()'
p2586
sI138
S'        self._view_environment = None'
p2587
sI139
S'        self._custom_commit = None'
p2588
sI140
S'        self._custom_rollback = None'
p2589
sI141
S''
ssg2554
S'(f=<function submit>)'
p2590
sg2556
S'<lambda>'
p2591
sa(dp2592
g2533
S'/Users/schultzc/workspace/wherespuppet/web2py/applications/wp/controllers/default.py'
p2593
sg2535
(dp2594
S'latitude'
p2595
g2578
sS'form'
p2596
S'<gluon.sqlhtml.SQLFORM object>'
p2597
sS'builtindict'
p2598
S"<type 'dict'>"
p2599
ssg2541
I28
sg2542
(dp2600
I32
S'    form = SQLFORM(db.comment)'
p2601
sI23
S"        response.flash = 'form accepted'"
p2602
sI24
S'    elif form.errors:'
p2603
sI25
S"        response.flash = 'form has errors'"
p2604
sI26
S'    else:'
p2605
sI27
S"        response.flash = 'please fill out the form'"
p2606
sI28
S'    return dict(form=form,latitude=latitude)'
p2607
sI29
S''
sI30
S'def show():'
p2608
sI31
S'    image = db(db.image.id==request.args(0)).select().first()'
p2609
ssg2554
S'()'
p2610
sg2556
S'submit'
p2611
sasS'pyver'
p2612
S'Python 2.7.2: /opt/local/Library/Frameworks/Python.framework/Versions/2.7/Resources/Python.app/Contents/MacOS/Python'
p2613
sS'session'
p2614
g56
(g57
g58
NtRp2615
(dp2616
g61
(dp2617
sg63
(lp2618
g56
(g65
g58
NtRp2619
(dp2620
g61
(dp2621
g69
I5
ssg70
Nsg63
(lp2622
sbasbsS'etype'
p2623
S"<type 'exceptions.NameError'>"
p2624
sS'date'
p2625
S'Fri Jul 22 16:44:49 2011'
p2626
sS'response'
p2627
g56
(g57
g58
NtRp2628
(dp2629
g61
(dp2630
sg63
(lp2631
g56
(g65
g58
NtRp2632
(dp2633
g61
(dp2634
g69
I5
ssg70
Nsg63
(lp2635
g56
(g72
g58
NtRp2636
(dp2637
g61
(dp2638
sg70
g2632
sg63
(lp2639
g56
(g77
g58
NtRp2640
(dp2641
g61
(dp2642
g81
g82
ssg70
g2636
sg63
(lp2643
g154
asbag56
(g77
g58
NtRp2644
(dp2645
g61
(dp2646
g88
g89
ssg70
g2636
sg63
(lp2647
S':'
asbag56
(g77
g58
NtRp2648
(dp2649
g61
(dp2650
sg70
g2636
sg63
(lp2651
g56
(g57
g58
NtRp2652
(dp2653
g61
(dp2654
g69
I5
ssg70
g2648
sg63
(lp2655
S'<cStringIO.StringO object at 0x10768ded8>'
p2656
asbasbasbag56
(g72
g58
NtRp2657
(dp2658
g61
(dp2659
sg70
g2632
sg63
(lp2660
g56
(g77
g58
NtRp2661
(dp2662
g61
(dp2663
g81
g82
ssg70
g2657
sg63
(lp2664
g220
asbag56
(g77
g58
NtRp2665
(dp2666
g61
(dp2667
g88
g89
ssg70
g2657
sg63
(lp2668
S':'
asbag56
(g77
g58
NtRp2669
(dp2670
g61
(dp2671
sg70
g2657
sg63
(lp2672
g56
(g57
g58
NtRp2673
(dp2674
g61
(dp2675
g69
I5
ssg70
g2669
sg63
(lp2676
g56
(g65
g58
NtRp2677
(dp2678
g61
(dp2679
g69
I4
ssg70
Nsg63
(lp2680
g56
(g72
g58
NtRp2681
(dp2682
g61
(dp2683
sg70
g2677
sg63
(lp2684
g56
(g77
g58
NtRp2685
(dp2686
g61
(dp2687
g81
g82
ssg70
g2681
sg63
(lp2688
S'session_id_wp'
p2689
asbag56
(g77
g58
NtRp2690
(dp2691
g61
(dp2692
g88
g89
ssg70
g2681
sg63
(lp2693
S':'
asbag56
(g77
g58
NtRp2694
(dp2695
g61
(dp2696
sg70
g2681
sg63
(lp2697
g56
(g57
g58
NtRp2698
(dp2699
g61
(dp2700
g69
I4
ssg70
g2694
sg63
(lp2701
g56
(g65
g58
NtRp2702
(dp2703
g61
(dp2704
g69
I3
ssg70
Nsg63
(lp2705
g56
(g72
g58
NtRp2706
(dp2707
g61
(dp2708
sg70
g2702
sg63
(lp2709
g56
(g77
g58
NtRp2710
(dp2711
g61
(dp2712
g81
g82
ssg70
g2706
sg63
(lp2713
g270
asbag56
(g77
g58
NtRp2714
(dp2715
g61
(dp2716
g88
g89
ssg70
g2706
sg63
(lp2717
S':'
asbag56
(g77
g58
NtRp2718
(dp2719
g61
(dp2720
sg70
g2706
sg63
(lp2721
g56
(g57
g58
NtRp2722
(dp2723
g61
(dp2724
g69
I3
ssg70
g2718
sg63
(lp2725
S''
asbasbasbag56
(g72
g58
NtRp2726
(dp2727
g61
(dp2728
sg70
g2702
sg63
(lp2729
g56
(g77
g58
NtRp2730
(dp2731
g61
(dp2732
g81
g82
ssg70
g2726
sg63
(lp2733
g291
asbag56
(g77
g58
NtRp2734
(dp2735
g61
(dp2736
g88
g89
ssg70
g2726
sg63
(lp2737
S':'
asbag56
(g77
g58
NtRp2738
(dp2739
g61
(dp2740
sg70
g2726
sg63
(lp2741
g56
(g57
g58
NtRp2742
(dp2743
g61
(dp2744
g69
I3
ssg70
g2738
sg63
(lp2745
S''
asbasbasbag56
(g72
g58
NtRp2746
(dp2747
g61
(dp2748
sg70
g2702
sg63
(lp2749
g56
(g77
g58
NtRp2750
(dp2751
g61
(dp2752
g81
g82
ssg70
g2746
sg63
(lp2753
g312
asbag56
(g77
g58
NtRp2754
(dp2755
g61
(dp2756
g88
g89
ssg70
g2746
sg63
(lp2757
S':'
asbag56
(g77
g58
NtRp2758
(dp2759
g61
(dp2760
sg70
g2746
sg63
(lp2761
g56
(g57
g58
NtRp2762
(dp2763
g61
(dp2764
g69
I3
ssg70
g2758
sg63
(lp2765
S''
asbasbasbag56
(g72
g58
NtRp2766
(dp2767
g61
(dp2768
sg70
g2702
sg63
(lp2769
g56
(g77
g58
NtRp2770
(dp2771
g61
(dp2772
g81
g82
ssg70
g2766
sg63
(lp2773
g333
asbag56
(g77
g58
NtRp2774
(dp2775
g61
(dp2776
g88
g89
ssg70
g2766
sg63
(lp2777
S':'
asbag56
(g77
g58
NtRp2778
(dp2779
g61
(dp2780
sg70
g2766
sg63
(lp2781
g56
(g57
g58
NtRp2782
(dp2783
g61
(dp2784
g69
I3
ssg70
g2778
sg63
(lp2785
S''
asbasbasbag56
(g72
g58
NtRp2786
(dp2787
g61
(dp2788
sg70
g2702
sg63
(lp2789
g56
(g77
g58
NtRp2790
(dp2791
g61
(dp2792
g81
g82
ssg70
g2786
sg63
(lp2793
g354
asbag56
(g77
g58
NtRp2794
(dp2795
g61
(dp2796
g88
g89
ssg70
g2786
sg63
(lp2797
S':'
asbag56
(g77
g58
NtRp2798
(dp2799
g61
(dp2800
sg70
g2786
sg63
(lp2801
g56
(g57
g58
NtRp2802
(dp2803
g61
(dp2804
g69
I3
ssg70
g2798
sg63
(lp2805
S''
asbasbasbag56
(g72
g58
NtRp2806
(dp2807
g61
(dp2808
sg70
g2702
sg63
(lp2809
g56
(g77
g58
NtRp2810
(dp2811
g61
(dp2812
g81
g82
ssg70
g2806
sg63
(lp2813
g375
asbag56
(g77
g58
NtRp2814
(dp2815
g61
(dp2816
g88
g89
ssg70
g2806
sg63
(lp2817
S':'
asbag56
(g77
g58
NtRp2818
(dp2819
g61
(dp2820
sg70
g2806
sg63
(lp2821
g56
(g57
g58
NtRp2822
(dp2823
g61
(dp2824
g69
I3
ssg70
g2818
sg63
(lp2825
S'/'
asbasbasbag56
(g72
g58
NtRp2826
(dp2827
g61
(dp2828
sg70
g2702
sg63
(lp2829
g56
(g77
g58
NtRp2830
(dp2831
g61
(dp2832
g81
g82
ssg70
g2826
sg63
(lp2833
g396
asbag56
(g77
g58
NtRp2834
(dp2835
g61
(dp2836
g88
g89
ssg70
g2826
sg63
(lp2837
S':'
asbag56
(g77
g58
NtRp2838
(dp2839
g61
(dp2840
sg70
g2826
sg63
(lp2841
g56
(g57
g58
NtRp2842
(dp2843
g61
(dp2844
g69
I3
ssg70
g2838
sg63
(lp2845
S''
asbasbasbag56
(g72
g58
NtRp2846
(dp2847
g61
(dp2848
sg70
g2702
sg63
(lp2849
g56
(g77
g58
NtRp2850
(dp2851
g61
(dp2852
g81
g82
ssg70
g2846
sg63
(lp2853
g417
asbag56
(g77
g58
NtRp2854
(dp2855
g61
(dp2856
g88
g89
ssg70
g2846
sg63
(lp2857
S':'
asbag56
(g77
g58
NtRp2858
(dp2859
g61
(dp2860
sg70
g2846
sg63
(lp2861
g56
(g57
g58
NtRp2862
(dp2863
g61
(dp2864
g69
I3
ssg70
g2858
sg63
(lp2865
S''
asbasbasbasbasbasbasbasbasbasbasbag56
(g72
g58
NtRp2866
(dp2867
g61
(dp2868
sg70
g2632
sg63
(lp2869
g56
(g77
g58
NtRp2870
(dp2871
g61
(dp2872
g81
g82
ssg70
g2866
sg63
(lp2873
S'files'
p2874
asbag56
(g77
g58
NtRp2875
(dp2876
g61
(dp2877
g88
g89
ssg70
g2866
sg63
(lp2878
S':'
asbag56
(g77
g58
NtRp2879
(dp2880
g61
(dp2881
sg70
g2866
sg63
(lp2882
g56
(g57
g58
NtRp2883
(dp2884
g61
(dp2885
g69
I5
ssg70
g2879
sg63
(lp2886
g56
(g65
g58
NtRp2887
(dp2888
g61
(dp2889
g69
I4
ssg70
Nsg63
(lp2890
sbasbasbasbag56
(g72
g58
NtRp2891
(dp2892
g61
(dp2893
sg70
g2632
sg63
(lp2894
g56
(g77
g58
NtRp2895
(dp2896
g61
(dp2897
g81
g82
ssg70
g2891
sg63
(lp2898
S'flash'
p2899
asbag56
(g77
g58
NtRp2900
(dp2901
g61
(dp2902
g88
g89
ssg70
g2891
sg63
(lp2903
S':'
asbag56
(g77
g58
NtRp2904
(dp2905
g61
(dp2906
sg70
g2891
sg63
(lp2907
g56
(g57
g58
NtRp2908
(dp2909
g61
(dp2910
g69
I5
ssg70
g2904
sg63
(lp2911
S'please fill out the form'
p2912
asbasbasbag56
(g72
g58
NtRp2913
(dp2914
g61
(dp2915
sg70
g2632
sg63
(lp2916
g56
(g77
g58
NtRp2917
(dp2918
g61
(dp2919
g81
g82
ssg70
g2913
sg63
(lp2920
S'headers'
p2921
asbag56
(g77
g58
NtRp2922
(dp2923
g61
(dp2924
g88
g89
ssg70
g2913
sg63
(lp2925
S':'
asbag56
(g77
g58
NtRp2926
(dp2927
g61
(dp2928
sg70
g2913
sg63
(lp2929
g56
(g57
g58
NtRp2930
(dp2931
g61
(dp2932
g69
I5
ssg70
g2926
sg63
(lp2933
g56
(g65
g58
NtRp2934
(dp2935
g61
(dp2936
g69
I4
ssg70
Nsg63
(lp2937
g56
(g72
g58
NtRp2938
(dp2939
g61
(dp2940
sg70
g2934
sg63
(lp2941
g56
(g77
g58
NtRp2942
(dp2943
g61
(dp2944
g81
g82
ssg70
g2938
sg63
(lp2945
S'Cache-Control'
p2946
asbag56
(g77
g58
NtRp2947
(dp2948
g61
(dp2949
g88
g89
ssg70
g2938
sg63
(lp2950
S':'
asbag56
(g77
g58
NtRp2951
(dp2952
g61
(dp2953
sg70
g2938
sg63
(lp2954
g56
(g57
g58
NtRp2955
(dp2956
g61
(dp2957
g69
I4
ssg70
g2951
sg63
(lp2958
S'no-store, no-cache, must-revalidate, post-check=0, pre-check=0'
p2959
asbasbasbag56
(g72
g58
NtRp2960
(dp2961
g61
(dp2962
sg70
g2934
sg63
(lp2963
g56
(g77
g58
NtRp2964
(dp2965
g61
(dp2966
g81
g82
ssg70
g2960
sg63
(lp2967
S'Content-Type'
p2968
asbag56
(g77
g58
NtRp2969
(dp2970
g61
(dp2971
g88
g89
ssg70
g2960
sg63
(lp2972
S':'
asbag56
(g77
g58
NtRp2973
(dp2974
g61
(dp2975
sg70
g2960
sg63
(lp2976
g56
(g57
g58
NtRp2977
(dp2978
g61
(dp2979
g69
I4
ssg70
g2973
sg63
(lp2980
S'text/html; charset=utf-8'
p2981
asbasbasbag56
(g72
g58
NtRp2982
(dp2983
g61
(dp2984
sg70
g2934
sg63
(lp2985
g56
(g77
g58
NtRp2986
(dp2987
g61
(dp2988
g81
g82
ssg70
g2982
sg63
(lp2989
S'Expires'
p2990
asbag56
(g77
g58
NtRp2991
(dp2992
g61
(dp2993
g88
g89
ssg70
g2982
sg63
(lp2994
S':'
asbag56
(g77
g58
NtRp2995
(dp2996
g61
(dp2997
sg70
g2982
sg63
(lp2998
g56
(g57
g58
NtRp2999
(dp3000
g61
(dp3001
g69
I4
ssg70
g2995
sg63
(lp3002
S'Fri, 22 Jul 2011 23:44:49 GMT'
p3003
asbasbasbag56
(g72
g58
NtRp3004
(dp3005
g61
(dp3006
sg70
g2934
sg63
(lp3007
g56
(g77
g58
NtRp3008
(dp3009
g61
(dp3010
g81
g82
ssg70
g3004
sg63
(lp3011
S'Pragma'
p3012
asbag56
(g77
g58
NtRp3013
(dp3014
g61
(dp3015
g88
g89
ssg70
g3004
sg63
(lp3016
S':'
asbag56
(g77
g58
NtRp3017
(dp3018
g61
(dp3019
sg70
g3004
sg63
(lp3020
g56
(g57
g58
NtRp3021
(dp3022
g61
(dp3023
g69
I4
ssg70
g3017
sg63
(lp3024
S'no-cache'
p3025
asbasbasbag56
(g72
g58
NtRp3026
(dp3027
g61
(dp3028
sg70
g2934
sg63
(lp3029
g56
(g77
g58
NtRp3030
(dp3031
g61
(dp3032
g81
g82
ssg70
g3026
sg63
(lp3033
S'X-Powered-By'
p3034
asbag56
(g77
g58
NtRp3035
(dp3036
g61
(dp3037
g88
g89
ssg70
g3026
sg63
(lp3038
S':'
asbag56
(g77
g58
NtRp3039
(dp3040
g61
(dp3041
sg70
g3026
sg63
(lp3042
g56
(g57
g58
NtRp3043
(dp3044
g61
(dp3045
g69
I4
ssg70
g3039
sg63
(lp3046
S'web2py'
p3047
asbasbasbasbasbasbasbag56
(g72
g58
NtRp3048
(dp3049
g61
(dp3050
sg70
g2632
sg63
(lp3051
g56
(g77
g58
NtRp3052
(dp3053
g61
(dp3054
g81
g82
ssg70
g3048
sg63
(lp3055
S'menu'
p3056
asbag56
(g77
g58
NtRp3057
(dp3058
g61
(dp3059
g88
g89
ssg70
g3048
sg63
(lp3060
S':'
asbag56
(g77
g58
NtRp3061
(dp3062
g61
(dp3063
sg70
g3048
sg63
(lp3064
g56
(g57
g58
NtRp3065
(dp3066
g61
(dp3067
g69
I5
ssg70
g3061
sg63
(lp3068
g56
(g65
g58
NtRp3069
(dp3070
g61
(dp3071
g69
I4
ssg70
Nsg63
(lp3072
g56
(g72
g58
NtRp3073
(dp3074
g61
(dp3075
sg70
g3069
sg63
(lp3076
g56
(g77
g58
NtRp3077
(dp3078
g61
(dp3079
sg70
g3073
sg63
(lp3080
g56
(g57
g58
NtRp3081
(dp3082
g61
(dp3083
g69
I4
ssg70
g3077
sg63
(lp3084
g56
(g65
g58
NtRp3085
(dp3086
g61
(dp3087
g69
I3
ssg70
Nsg63
(lp3088
g56
(g72
g58
NtRp3089
(dp3090
g61
(dp3091
sg70
g3085
sg63
(lp3092
g56
(g77
g58
NtRp3093
(dp3094
g61
(dp3095
sg70
g3089
sg63
(lp3096
g56
(g57
g58
NtRp3097
(dp3098
g61
(dp3099
g69
I3
ssg70
g3093
sg63
(lp3100
cgluon.languages
lazyT_unpickle
p3101
(S't\x04\x00\x00\x00Home'
tRp3102
asbasbasbag56
(g72
g58
NtRp3103
(dp3104
g61
(dp3105
sg70
g3085
sg63
(lp3106
g56
(g77
g58
NtRp3107
(dp3108
g61
(dp3109
sg70
g3103
sg63
(lp3110
g56
(g57
g58
NtRp3111
(dp3112
g61
(dp3113
g69
I3
ssg70
g3107
sg63
(lp3114
g99
asbasbasbag56
(g72
g58
NtRp3115
(dp3116
g61
(dp3117
sg70
g3085
sg63
(lp3118
g56
(g77
g58
NtRp3119
(dp3120
g61
(dp3121
sg70
g3115
sg63
(lp3122
g56
(g57
g58
NtRp3123
(dp3124
g61
(dp3125
g69
I3
ssg70
g3119
sg63
(lp3126
S'/wp/default/index'
p3127
asbasbasbag56
(g72
g58
NtRp3128
(dp3129
g61
(dp3130
sg70
g3085
sg63
(lp3131
g56
(g77
g58
NtRp3132
(dp3133
g61
(dp3134
sg70
g3128
sg63
(lp3135
g56
(g57
g58
NtRp3136
(dp3137
g61
(dp3138
g69
I3
ssg70
g3132
sg63
(lp3139
g56
(g65
g58
NtRp3140
(dp3141
g61
(dp3142
g69
I2
ssg70
Nsg63
(lp3143
sbasbasbasbasbasbasbasbag56
(g72
g58
NtRp3144
(dp3145
g61
(dp3146
sg70
g3069
sg63
(lp3147
g56
(g77
g58
NtRp3148
(dp3149
g61
(dp3150
sg70
g3144
sg63
(lp3151
g56
(g57
g58
NtRp3152
(dp3153
g61
(dp3154
g69
I4
ssg70
g3148
sg63
(lp3155
g56
(g65
g58
NtRp3156
(dp3157
g61
(dp3158
g69
I3
ssg70
Nsg63
(lp3159
g56
(g72
g58
NtRp3160
(dp3161
g61
(dp3162
sg70
g3156
sg63
(lp3163
g56
(g77
g58
NtRp3164
(dp3165
g61
(dp3166
sg70
g3160
sg63
(lp3167
g56
(g57
g58
NtRp3168
(dp3169
g61
(dp3170
g69
I3
ssg70
g3164
sg63
(lp3171
g3101
(S's\x08\x00\x00\x00This App'
tRp3172
asbasbasbag56
(g72
g58
NtRp3173
(dp3174
g61
(dp3175
sg70
g3156
sg63
(lp3176
g56
(g77
g58
NtRp3177
(dp3178
g61
(dp3179
sg70
g3173
sg63
(lp3180
g56
(g57
g58
NtRp3181
(dp3182
g61
(dp3183
g69
I3
ssg70
g3177
sg63
(lp3184
g99
asbasbasbag56
(g72
g58
NtRp3185
(dp3186
g61
(dp3187
sg70
g3156
sg63
(lp3188
g56
(g77
g58
NtRp3189
(dp3190
g61
(dp3191
sg70
g3185
sg63
(lp3192
g56
(g57
g58
NtRp3193
(dp3194
g61
(dp3195
g69
I3
ssg70
g3189
sg63
(lp3196
S'/admin/default/design/wp'
p3197
asbasbasbag56
(g72
g58
NtRp3198
(dp3199
g61
(dp3200
sg70
g3156
sg63
(lp3201
g56
(g77
g58
NtRp3202
(dp3203
g61
(dp3204
sg70
g3198
sg63
(lp3205
g56
(g57
g58
NtRp3206
(dp3207
g61
(dp3208
g69
I3
ssg70
g3202
sg63
(lp3209
g56
(g65
g58
NtRp3210
(dp3211
g61
(dp3212
g69
I2
ssg70
Nsg63
(lp3213
g56
(g72
g58
NtRp3214
(dp3215
g61
(dp3216
sg70
g3210
sg63
(lp3217
g56
(g77
g58
NtRp3218
(dp3219
g61
(dp3220
sg70
g3214
sg63
(lp3221
g56
(g57
g58
NtRp3222
(dp3223
g61
(dp3224
g69
I2
ssg70
g3218
sg63
(lp3225
g56
(g65
g58
NtRp3226
(dp3227
g61
(dp3228
g69
I1
ssg70
Nsg63
(lp3229
g56
(g72
g58
NtRp3230
(dp3231
g61
(dp3232
sg70
g3226
sg63
(lp3233
g56
(g77
g58
NtRp3234
(dp3235
g61
(dp3236
sg70
g3230
sg63
(lp3237
g56
(g57
g58
NtRp3238
(dp3239
g61
(dp3240
g69
I1
ssg70
g3234
sg63
(lp3241
g3101
(S't\n\x00\x00\x00Controller'
tRp3242
asbasbasbag56
(g72
g58
NtRp3243
(dp3244
g61
(dp3245
sg70
g3226
sg63
(lp3246
g56
(g77
g58
NtRp3247
(dp3248
g61
(dp3249
sg70
g3243
sg63
(lp3250
g56
(g57
g58
NtRp3251
(dp3252
g61
(dp3253
g69
I1
ssg70
g3247
sg63
(lp3254
I00
asbasbasbag56
(g72
g58
NtRp3255
(dp3256
g61
(dp3257
sg70
g3226
sg63
(lp3258
g56
(g77
g58
NtRp3259
(dp3260
g61
(dp3261
sg70
g3255
sg63
(lp3262
g56
(g57
g58
NtRp3263
(dp3264
g61
(dp3265
g69
I1
ssg70
g3259
sg63
(lp3266
S'/admin/default/edit/wp/controllers/default.py'
p3267
asbasbasbasbasbasbasbag56
(g72
g58
NtRp3268
(dp3269
g61
(dp3270
sg70
g3210
sg63
(lp3271
g56
(g77
g58
NtRp3272
(dp3273
g61
(dp3274
sg70
g3268
sg63
(lp3275
g56
(g57
g58
NtRp3276
(dp3277
g61
(dp3278
g69
I2
ssg70
g3272
sg63
(lp3279
g56
(g65
g58
NtRp3280
(dp3281
g61
(dp3282
g69
I1
ssg70
Nsg63
(lp3283
g56
(g72
g58
NtRp3284
(dp3285
g61
(dp3286
sg70
g3280
sg63
(lp3287
g56
(g77
g58
NtRp3288
(dp3289
g61
(dp3290
sg70
g3284
sg63
(lp3291
g56
(g57
g58
NtRp3292
(dp3293
g61
(dp3294
g69
I1
ssg70
g3288
sg63
(lp3295
g3101
(S't\x04\x00\x00\x00View'
tRp3296
asbasbasbag56
(g72
g58
NtRp3297
(dp3298
g61
(dp3299
sg70
g3280
sg63
(lp3300
g56
(g77
g58
NtRp3301
(dp3302
g61
(dp3303
sg70
g3297
sg63
(lp3304
g56
(g57
g58
NtRp3305
(dp3306
g61
(dp3307
g69
I1
ssg70
g3301
sg63
(lp3308
I00
asbasbasbag56
(g72
g58
NtRp3309
(dp3310
g61
(dp3311
sg70
g3280
sg63
(lp3312
g56
(g77
g58
NtRp3313
(dp3314
g61
(dp3315
sg70
g3309
sg63
(lp3316
g56
(g57
g58
NtRp3317
(dp3318
g61
(dp3319
g69
I1
ssg70
g3313
sg63
(lp3320
S'/admin/default/edit/wp/views/default/submit.html'
p3321
asbasbasbasbasbasbasbag56
(g72
g58
NtRp3322
(dp3323
g61
(dp3324
sg70
g3210
sg63
(lp3325
g56
(g77
g58
NtRp3326
(dp3327
g61
(dp3328
sg70
g3322
sg63
(lp3329
g56
(g57
g58
NtRp3330
(dp3331
g61
(dp3332
g69
I2
ssg70
g3326
sg63
(lp3333
g56
(g65
g58
NtRp3334
(dp3335
g61
(dp3336
g69
I1
ssg70
Nsg63
(lp3337
g56
(g72
g58
NtRp3338
(dp3339
g61
(dp3340
sg70
g3334
sg63
(lp3341
g56
(g77
g58
NtRp3342
(dp3343
g61
(dp3344
sg70
g3338
sg63
(lp3345
g56
(g57
g58
NtRp3346
(dp3347
g61
(dp3348
g69
I1
ssg70
g3342
sg63
(lp3349
g3101
(S't\x06\x00\x00\x00Layout'
tRp3350
asbasbasbag56
(g72
g58
NtRp3351
(dp3352
g61
(dp3353
sg70
g3334
sg63
(lp3354
g56
(g77
g58
NtRp3355
(dp3356
g61
(dp3357
sg70
g3351
sg63
(lp3358
g56
(g57
g58
NtRp3359
(dp3360
g61
(dp3361
g69
I1
ssg70
g3355
sg63
(lp3362
I00
asbasbasbag56
(g72
g58
NtRp3363
(dp3364
g61
(dp3365
sg70
g3334
sg63
(lp3366
g56
(g77
g58
NtRp3367
(dp3368
g61
(dp3369
sg70
g3363
sg63
(lp3370
g56
(g57
g58
NtRp3371
(dp3372
g61
(dp3373
g69
I1
ssg70
g3367
sg63
(lp3374
S'/admin/default/edit/wp/views/layout.html'
p3375
asbasbasbasbasbasbasbag56
(g72
g58
NtRp3376
(dp3377
g61
(dp3378
sg70
g3210
sg63
(lp3379
g56
(g77
g58
NtRp3380
(dp3381
g61
(dp3382
sg70
g3376
sg63
(lp3383
g56
(g57
g58
NtRp3384
(dp3385
g61
(dp3386
g69
I2
ssg70
g3380
sg63
(lp3387
g56
(g65
g58
NtRp3388
(dp3389
g61
(dp3390
g69
I1
ssg70
Nsg63
(lp3391
g56
(g72
g58
NtRp3392
(dp3393
g61
(dp3394
sg70
g3388
sg63
(lp3395
g56
(g77
g58
NtRp3396
(dp3397
g61
(dp3398
sg70
g3392
sg63
(lp3399
g56
(g57
g58
NtRp3400
(dp3401
g61
(dp3402
g69
I1
ssg70
g3396
sg63
(lp3403
g3101
(S't\n\x00\x00\x00Stylesheet'
tRp3404
asbasbasbag56
(g72
g58
NtRp3405
(dp3406
g61
(dp3407
sg70
g3388
sg63
(lp3408
g56
(g77
g58
NtRp3409
(dp3410
g61
(dp3411
sg70
g3405
sg63
(lp3412
g56
(g57
g58
NtRp3413
(dp3414
g61
(dp3415
g69
I1
ssg70
g3409
sg63
(lp3416
I00
asbasbasbag56
(g72
g58
NtRp3417
(dp3418
g61
(dp3419
sg70
g3388
sg63
(lp3420
g56
(g77
g58
NtRp3421
(dp3422
g61
(dp3423
sg70
g3417
sg63
(lp3424
g56
(g57
g58
NtRp3425
(dp3426
g61
(dp3427
g69
I1
ssg70
g3421
sg63
(lp3428
S'/admin/default/edit/wp/static/base.css'
p3429
asbasbasbasbasbasbasbag56
(g72
g58
NtRp3430
(dp3431
g61
(dp3432
sg70
g3210
sg63
(lp3433
g56
(g77
g58
NtRp3434
(dp3435
g61
(dp3436
sg70
g3430
sg63
(lp3437
g56
(g57
g58
NtRp3438
(dp3439
g61
(dp3440
g69
I2
ssg70
g3434
sg63
(lp3441
g56
(g65
g58
NtRp3442
(dp3443
g61
(dp3444
g69
I1
ssg70
Nsg63
(lp3445
g56
(g72
g58
NtRp3446
(dp3447
g61
(dp3448
sg70
g3442
sg63
(lp3449
g56
(g77
g58
NtRp3450
(dp3451
g61
(dp3452
sg70
g3446
sg63
(lp3453
g56
(g57
g58
NtRp3454
(dp3455
g61
(dp3456
g69
I1
ssg70
g3450
sg63
(lp3457
g3101
(S's\x08\x00\x00\x00DB Model'
tRp3458
asbasbasbag56
(g72
g58
NtRp3459
(dp3460
g61
(dp3461
sg70
g3442
sg63
(lp3462
g56
(g77
g58
NtRp3463
(dp3464
g61
(dp3465
sg70
g3459
sg63
(lp3466
g56
(g57
g58
NtRp3467
(dp3468
g61
(dp3469
g69
I1
ssg70
g3463
sg63
(lp3470
I00
asbasbasbag56
(g72
g58
NtRp3471
(dp3472
g61
(dp3473
sg70
g3442
sg63
(lp3474
g56
(g77
g58
NtRp3475
(dp3476
g61
(dp3477
sg70
g3471
sg63
(lp3478
g56
(g57
g58
NtRp3479
(dp3480
g61
(dp3481
g69
I1
ssg70
g3475
sg63
(lp3482
S'/admin/default/edit/wp/models/db.py'
p3483
asbasbasbasbasbasbasbag56
(g72
g58
NtRp3484
(dp3485
g61
(dp3486
sg70
g3210
sg63
(lp3487
g56
(g77
g58
NtRp3488
(dp3489
g61
(dp3490
sg70
g3484
sg63
(lp3491
g56
(g57
g58
NtRp3492
(dp3493
g61
(dp3494
g69
I2
ssg70
g3488
sg63
(lp3495
g56
(g65
g58
NtRp3496
(dp3497
g61
(dp3498
g69
I1
ssg70
Nsg63
(lp3499
g56
(g72
g58
NtRp3500
(dp3501
g61
(dp3502
sg70
g3496
sg63
(lp3503
g56
(g77
g58
NtRp3504
(dp3505
g61
(dp3506
sg70
g3500
sg63
(lp3507
g56
(g57
g58
NtRp3508
(dp3509
g61
(dp3510
g69
I1
ssg70
g3504
sg63
(lp3511
g3101
(S's\n\x00\x00\x00Menu Model'
tRp3512
asbasbasbag56
(g72
g58
NtRp3513
(dp3514
g61
(dp3515
sg70
g3496
sg63
(lp3516
g56
(g77
g58
NtRp3517
(dp3518
g61
(dp3519
sg70
g3513
sg63
(lp3520
g56
(g57
g58
NtRp3521
(dp3522
g61
(dp3523
g69
I1
ssg70
g3517
sg63
(lp3524
I00
asbasbasbag56
(g72
g58
NtRp3525
(dp3526
g61
(dp3527
sg70
g3496
sg63
(lp3528
g56
(g77
g58
NtRp3529
(dp3530
g61
(dp3531
sg70
g3525
sg63
(lp3532
g56
(g57
g58
NtRp3533
(dp3534
g61
(dp3535
g69
I1
ssg70
g3529
sg63
(lp3536
S'/admin/default/edit/wp/models/menu.py'
p3537
asbasbasbasbasbasbasbag56
(g72
g58
NtRp3538
(dp3539
g61
(dp3540
sg70
g3210
sg63
(lp3541
g56
(g77
g58
NtRp3542
(dp3543
g61
(dp3544
sg70
g3538
sg63
(lp3545
g56
(g57
g58
NtRp3546
(dp3547
g61
(dp3548
g69
I2
ssg70
g3542
sg63
(lp3549
g56
(g65
g58
NtRp3550
(dp3551
g61
(dp3552
g69
I1
ssg70
Nsg63
(lp3553
g56
(g72
g58
NtRp3554
(dp3555
g61
(dp3556
sg70
g3550
sg63
(lp3557
g56
(g77
g58
NtRp3558
(dp3559
g61
(dp3560
sg70
g3554
sg63
(lp3561
g56
(g57
g58
NtRp3562
(dp3563
g61
(dp3564
g69
I1
ssg70
g3558
sg63
(lp3565
g3101
(S't\x08\x00\x00\x00Database'
tRp3566
asbasbasbag56
(g72
g58
NtRp3567
(dp3568
g61
(dp3569
sg70
g3550
sg63
(lp3570
g56
(g77
g58
NtRp3571
(dp3572
g61
(dp3573
sg70
g3567
sg63
(lp3574
g56
(g57
g58
NtRp3575
(dp3576
g61
(dp3577
g69
I1
ssg70
g3571
sg63
(lp3578
I00
asbasbasbag56
(g72
g58
NtRp3579
(dp3580
g61
(dp3581
sg70
g3550
sg63
(lp3582
g56
(g77
g58
NtRp3583
(dp3584
g61
(dp3585
sg70
g3579
sg63
(lp3586
g56
(g57
g58
NtRp3587
(dp3588
g61
(dp3589
g69
I1
ssg70
g3583
sg63
(lp3590
S'/wp/appadmin/index'
p3591
asbasbasbasbasbasbasbag56
(g72
g58
NtRp3592
(dp3593
g61
(dp3594
sg70
g3210
sg63
(lp3595
g56
(g77
g58
NtRp3596
(dp3597
g61
(dp3598
sg70
g3592
sg63
(lp3599
g56
(g57
g58
NtRp3600
(dp3601
g61
(dp3602
g69
I2
ssg70
g3596
sg63
(lp3603
g56
(g65
g58
NtRp3604
(dp3605
g61
(dp3606
g69
I1
ssg70
Nsg63
(lp3607
g56
(g72
g58
NtRp3608
(dp3609
g61
(dp3610
sg70
g3604
sg63
(lp3611
g56
(g77
g58
NtRp3612
(dp3613
g61
(dp3614
sg70
g3608
sg63
(lp3615
g56
(g57
g58
NtRp3616
(dp3617
g61
(dp3618
g69
I1
ssg70
g3612
sg63
(lp3619
g3101
(S't\x06\x00\x00\x00Errors'
tRp3620
asbasbasbag56
(g72
g58
NtRp3621
(dp3622
g61
(dp3623
sg70
g3604
sg63
(lp3624
g56
(g77
g58
NtRp3625
(dp3626
g61
(dp3627
sg70
g3621
sg63
(lp3628
g56
(g57
g58
NtRp3629
(dp3630
g61
(dp3631
g69
I1
ssg70
g3625
sg63
(lp3632
I00
asbasbasbag56
(g72
g58
NtRp3633
(dp3634
g61
(dp3635
sg70
g3604
sg63
(lp3636
g56
(g77
g58
NtRp3637
(dp3638
g61
(dp3639
sg70
g3633
sg63
(lp3640
g56
(g57
g58
NtRp3641
(dp3642
g61
(dp3643
g69
I1
ssg70
g3637
sg63
(lp3644
S'/admin/default/errors/wp'
p3645
asbasbasbasbasbasbasbag56
(g72
g58
NtRp3646
(dp3647
g61
(dp3648
sg70
g3210
sg63
(lp3649
g56
(g77
g58
NtRp3650
(dp3651
g61
(dp3652
sg70
g3646
sg63
(lp3653
g56
(g57
g58
NtRp3654
(dp3655
g61
(dp3656
g69
I2
ssg70
g3650
sg63
(lp3657
g56
(g65
g58
NtRp3658
(dp3659
g61
(dp3660
g69
I1
ssg70
Nsg63
(lp3661
g56
(g72
g58
NtRp3662
(dp3663
g61
(dp3664
sg70
g3658
sg63
(lp3665
g56
(g77
g58
NtRp3666
(dp3667
g61
(dp3668
sg70
g3662
sg63
(lp3669
g56
(g57
g58
NtRp3670
(dp3671
g61
(dp3672
g69
I1
ssg70
g3666
sg63
(lp3673
g3101
(S't\x05\x00\x00\x00About'
tRp3674
asbasbasbag56
(g72
g58
NtRp3675
(dp3676
g61
(dp3677
sg70
g3658
sg63
(lp3678
g56
(g77
g58
NtRp3679
(dp3680
g61
(dp3681
sg70
g3675
sg63
(lp3682
g56
(g57
g58
NtRp3683
(dp3684
g61
(dp3685
g69
I1
ssg70
g3679
sg63
(lp3686
I00
asbasbasbag56
(g72
g58
NtRp3687
(dp3688
g61
(dp3689
sg70
g3658
sg63
(lp3690
g56
(g77
g58
NtRp3691
(dp3692
g61
(dp3693
sg70
g3687
sg63
(lp3694
g56
(g57
g58
NtRp3695
(dp3696
g61
(dp3697
g69
I1
ssg70
g3691
sg63
(lp3698
S'/admin/default/about/wp'
p3699
asbasbasbasbasbasbasbasbasbasbasbasbasbasbasbag56
(g72
g58
NtRp3700
(dp3701
g61
(dp3702
sg70
g3069
sg63
(lp3703
g56
(g77
g58
NtRp3704
(dp3705
g61
(dp3706
sg70
g3700
sg63
(lp3707
g56
(g57
g58
NtRp3708
(dp3709
g61
(dp3710
g69
I4
ssg70
g3704
sg63
(lp3711
g56
(g65
g58
NtRp3712
(dp3713
g61
(dp3714
g69
I3
ssg70
Nsg63
(lp3715
g56
(g72
g58
NtRp3716
(dp3717
g61
(dp3718
sg70
g3712
sg63
(lp3719
g56
(g77
g58
NtRp3720
(dp3721
g61
(dp3722
sg70
g3716
sg63
(lp3723
g56
(g57
g58
NtRp3724
(dp3725
g61
(dp3726
g69
I3
ssg70
g3720
sg63
(lp3727
g3101
(S't\t\x00\x00\x00Resources'
tRp3728
asbasbasbag56
(g72
g58
NtRp3729
(dp3730
g61
(dp3731
sg70
g3712
sg63
(lp3732
g56
(g77
g58
NtRp3733
(dp3734
g61
(dp3735
sg70
g3729
sg63
(lp3736
g56
(g57
g58
NtRp3737
(dp3738
g61
(dp3739
g69
I3
ssg70
g3733
sg63
(lp3740
g99
asbasbasbag56
(g72
g58
NtRp3741
(dp3742
g61
(dp3743
sg70
g3712
sg63
(lp3744
g56
(g77
g58
NtRp3745
(dp3746
g61
(dp3747
sg70
g3741
sg63
(lp3748
g56
(g57
g58
NtRp3749
(dp3750
g61
(dp3751
g69
I3
ssg70
g3745
sg63
(lp3752
S'None'
p3753
asbasbasbag56
(g72
g58
NtRp3754
(dp3755
g61
(dp3756
sg70
g3712
sg63
(lp3757
g56
(g77
g58
NtRp3758
(dp3759
g61
(dp3760
sg70
g3754
sg63
(lp3761
g56
(g57
g58
NtRp3762
(dp3763
g61
(dp3764
g69
I3
ssg70
g3758
sg63
(lp3765
g56
(g65
g58
NtRp3766
(dp3767
g61
(dp3768
g69
I2
ssg70
Nsg63
(lp3769
g56
(g72
g58
NtRp3770
(dp3771
g61
(dp3772
sg70
g3766
sg63
(lp3773
g56
(g77
g58
NtRp3774
(dp3775
g61
(dp3776
sg70
g3770
sg63
(lp3777
g56
(g57
g58
NtRp3778
(dp3779
g61
(dp3780
g69
I2
ssg70
g3774
sg63
(lp3781
g56
(g65
g58
NtRp3782
(dp3783
g61
(dp3784
g69
I1
ssg70
Nsg63
(lp3785
g56
(g72
g58
NtRp3786
(dp3787
g61
(dp3788
sg70
g3782
sg63
(lp3789
g56
(g77
g58
NtRp3790
(dp3791
g61
(dp3792
sg70
g3786
sg63
(lp3793
g56
(g57
g58
NtRp3794
(dp3795
g61
(dp3796
g69
I1
ssg70
g3790
sg63
(lp3797
g3101
(S't\r\x00\x00\x00Documentation'
tRp3798
asbasbasbag56
(g72
g58
NtRp3799
(dp3800
g61
(dp3801
sg70
g3782
sg63
(lp3802
g56
(g77
g58
NtRp3803
(dp3804
g61
(dp3805
sg70
g3799
sg63
(lp3806
g56
(g57
g58
NtRp3807
(dp3808
g61
(dp3809
g69
I1
ssg70
g3803
sg63
(lp3810
I00
asbasbasbag56
(g72
g58
NtRp3811
(dp3812
g61
(dp3813
sg70
g3782
sg63
(lp3814
g56
(g77
g58
NtRp3815
(dp3816
g61
(dp3817
sg70
g3811
sg63
(lp3818
g56
(g57
g58
NtRp3819
(dp3820
g61
(dp3821
g69
I1
ssg70
g3815
sg63
(lp3822
S'http://www.web2py.com/book'
p3823
asbasbasbag56
(g72
g58
NtRp3824
(dp3825
g61
(dp3826
sg70
g3782
sg63
(lp3827
g56
(g77
g58
NtRp3828
(dp3829
g61
(dp3830
sg70
g3824
sg63
(lp3831
g56
(g57
g58
NtRp3832
(dp3833
g61
(dp3834
g69
I1
ssg70
g3828
sg63
(lp3835
(lp3836
(g3101
(S't\x07\x00\x00\x00Preface'
tRp3837
I00
S'http://www.web2py.com/book/default/chapter/00'
tp3838
a(g3101
(S't\x0c\x00\x00\x00Introduction'
tRp3839
I00
S'http://www.web2py.com/book/default/chapter/01'
tp3840
a(g3101
(S't\x06\x00\x00\x00Python'
tRp3841
I00
S'http://www.web2py.com/book/default/chapter/02'
tp3842
a(g3101
(S't\x08\x00\x00\x00Overview'
tRp3843
I00
S'http://www.web2py.com/book/default/chapter/03'
tp3844
a(g3101
(S's\x08\x00\x00\x00The Core'
tRp3845
I00
S'http://www.web2py.com/book/default/chapter/04'
tp3846
a(g3101
(S's\t\x00\x00\x00The Views'
tRp3847
I00
S'http://www.web2py.com/book/default/chapter/05'
tp3848
a(g3101
(S't\x08\x00\x00\x00Database'
tRp3849
I00
S'http://www.web2py.com/book/default/chapter/06'
tp3850
a(g3101
(S's\x14\x00\x00\x00Forms and Validators'
tRp3851
I00
S'http://www.web2py.com/book/default/chapter/07'
tp3852
a(g3101
(S's\x0e\x00\x00\x00Access Control'
tRp3853
I00
S'http://www.web2py.com/book/default/chapter/08'
tp3854
a(g3101
(S't\x08\x00\x00\x00Services'
tRp3855
I00
S'http://www.web2py.com/book/default/chapter/09'
tp3856
a(g3101
(S's\x0c\x00\x00\x00Ajax Recipes'
tRp3857
I00
S'http://www.web2py.com/book/default/chapter/10'
tp3858
a(g3101
(S's\x12\x00\x00\x00Deployment Recipes'
tRp3859
I00
S'http://www.web2py.com/book/default/chapter/11'
tp3860
a(g3101
(S's\r\x00\x00\x00Other Recipes'
tRp3861
I00
S'http://www.web2py.com/book/default/chapter/12'
tp3862
a(g3101
(S's\r\x00\x00\x00Buy this book'
tRp3863
I00
S'http://stores.lulu.com/web2py'
tp3864
aasbasbasbasbasbasbasbag56
(g72
g58
NtRp3865
(dp3866
g61
(dp3867
sg70
g3766
sg63
(lp3868
g56
(g77
g58
NtRp3869
(dp3870
g61
(dp3871
sg70
g3865
sg63
(lp3872
g56
(g57
g58
NtRp3873
(dp3874
g61
(dp3875
g69
I2
ssg70
g3869
sg63
(lp3876
g56
(g65
g58
NtRp3877
(dp3878
g61
(dp3879
g69
I1
ssg70
Nsg63
(lp3880
g56
(g72
g58
NtRp3881
(dp3882
g61
(dp3883
sg70
g3877
sg63
(lp3884
g56
(g77
g58
NtRp3885
(dp3886
g61
(dp3887
sg70
g3881
sg63
(lp3888
g56
(g57
g58
NtRp3889
(dp3890
g61
(dp3891
g69
I1
ssg70
g3885
sg63
(lp3892
g3101
(S't\t\x00\x00\x00Community'
tRp3893
asbasbasbag56
(g72
g58
NtRp3894
(dp3895
g61
(dp3896
sg70
g3877
sg63
(lp3897
g56
(g77
g58
NtRp3898
(dp3899
g61
(dp3900
sg70
g3894
sg63
(lp3901
g56
(g57
g58
NtRp3902
(dp3903
g61
(dp3904
g69
I1
ssg70
g3898
sg63
(lp3905
I00
asbasbasbag56
(g72
g58
NtRp3906
(dp3907
g61
(dp3908
sg70
g3877
sg63
(lp3909
g56
(g77
g58
NtRp3910
(dp3911
g61
(dp3912
sg70
g3906
sg63
(lp3913
g56
(g57
g58
NtRp3914
(dp3915
g61
(dp3916
g69
I1
ssg70
g3910
sg63
(lp3917
Nasbasbasbag56
(g72
g58
NtRp3918
(dp3919
g61
(dp3920
sg70
g3877
sg63
(lp3921
g56
(g77
g58
NtRp3922
(dp3923
g61
(dp3924
sg70
g3918
sg63
(lp3925
g56
(g57
g58
NtRp3926
(dp3927
g61
(dp3928
g69
I1
ssg70
g3922
sg63
(lp3929
(lp3930
(g3101
(S't\x06\x00\x00\x00Groups'
tRp3931
I00
S'http://www.web2py.com/examples/default/usergroups'
tp3932
a(g3101
(S't\x07\x00\x00\x00Twitter'
tRp3933
I00
S'http://twitter.com/web2py'
tp3934
a(g3101
(S's\t\x00\x00\x00Live chat'
tRp3935
I00
S'http://mibbit.com/?channel=%23web2py&server=irc.mibbit.net'
tp3936
a(g3101
(S's\n\x00\x00\x00User Voice'
tRp3937
I00
S'http://web2py.uservoice.com/'
tp3938
aasbasbasbasbasbasbasbag56
(g72
g58
NtRp3939
(dp3940
g61
(dp3941
sg70
g3766
sg63
(lp3942
g56
(g77
g58
NtRp3943
(dp3944
g61
(dp3945
sg70
g3939
sg63
(lp3946
g56
(g57
g58
NtRp3947
(dp3948
g61
(dp3949
g69
I2
ssg70
g3943
sg63
(lp3950
g56
(g65
g58
NtRp3951
(dp3952
g61
(dp3953
g69
I1
ssg70
Nsg63
(lp3954
g56
(g72
g58
NtRp3955
(dp3956
g61
(dp3957
sg70
g3951
sg63
(lp3958
g56
(g77
g58
NtRp3959
(dp3960
g61
(dp3961
sg70
g3955
sg63
(lp3962
g56
(g57
g58
NtRp3963
(dp3964
g61
(dp3965
g69
I1
ssg70
g3959
sg63
(lp3966
g3101
(S't\x06\x00\x00\x00Web2py'
tRp3967
asbasbasbag56
(g72
g58
NtRp3968
(dp3969
g61
(dp3970
sg70
g3951
sg63
(lp3971
g56
(g77
g58
NtRp3972
(dp3973
g61
(dp3974
sg70
g3968
sg63
(lp3975
g56
(g57
g58
NtRp3976
(dp3977
g61
(dp3978
g69
I1
ssg70
g3972
sg63
(lp3979
I00
asbasbasbag56
(g72
g58
NtRp3980
(dp3981
g61
(dp3982
sg70
g3951
sg63
(lp3983
g56
(g77
g58
NtRp3984
(dp3985
g61
(dp3986
sg70
g3980
sg63
(lp3987
g56
(g57
g58
NtRp3988
(dp3989
g61
(dp3990
g69
I1
ssg70
g3984
sg63
(lp3991
S'http://www.web2py.com'
p3992
asbasbasbag56
(g72
g58
NtRp3993
(dp3994
g61
(dp3995
sg70
g3951
sg63
(lp3996
g56
(g77
g58
NtRp3997
(dp3998
g61
(dp3999
sg70
g3993
sg63
(lp4000
g56
(g57
g58
NtRp4001
(dp4002
g61
(dp4003
g69
I1
ssg70
g3997
sg63
(lp4004
(lp4005
(g3101
(S't\x08\x00\x00\x00Download'
tRp4006
I00
S'http://www.web2py.com/examples/default/download'
tp4007
a(g3101
(S't\x07\x00\x00\x00Support'
tRp4008
I00
S'http://www.web2py.com/examples/default/support'
tp4009
a(g3101
(S's\x0e\x00\x00\x00Quick Examples'
tRp4010
I00
S'http://web2py.com/examples/default/examples'
tp4011
a(g3101
(S't\x03\x00\x00\x00FAQ'
tRp4012
I00
S'http://web2py.com/AlterEgo'
tp4013
a(g3101
(S's\x11\x00\x00\x00Free Applications'
tRp4014
I00
S'http://web2py.com/appliances'
tp4015
a(g3101
(S't\x07\x00\x00\x00Plugins'
tRp4016
I00
S'http://web2py.com/plugins'
tp4017
a(g3101
(S't\x07\x00\x00\x00Recipes'
tRp4018
I00
S'http://web2pyslices.com/'
tp4019
a(g3101
(S't\x04\x00\x00\x00Demo'
tRp4020
I00
S'http://web2py.com/demo_admin'
tp4021
a(g3101
(S't\x08\x00\x00\x00Semantic'
tRp4022
I00
S'http://web2py.com/semantic'
tp4023
a(g3101
(S't\x07\x00\x00\x00Layouts'
tRp4024
I00
S'http://web2py.com/layouts'
tp4025
a(g3101
(S't\x06\x00\x00\x00Videos'
tRp4026
I00
S'http://www.web2py.com/examples/default/videos/'
tp4027
aasbasbasbasbasbasbasbasbasbasbasbasbasbasbasbasbasbasbasbag56
(g72
g58
NtRp4028
(dp4029
g61
(dp4030
sg70
g2632
sg63
(lp4031
g56
(g77
g58
NtRp4032
(dp4033
g61
(dp4034
g81
g82
ssg70
g4028
sg63
(lp4035
S'meta'
p4036
asbag56
(g77
g58
NtRp4037
(dp4038
g61
(dp4039
g88
g89
ssg70
g4028
sg63
(lp4040
S':'
asbag56
(g77
g58
NtRp4041
(dp4042
g61
(dp4043
sg70
g4028
sg63
(lp4044
g56
(g57
g58
NtRp4045
(dp4046
g61
(dp4047
g69
I5
ssg70
g4041
sg63
(lp4048
g56
(g65
g58
NtRp4049
(dp4050
g61
(dp4051
g69
I4
ssg70
Nsg63
(lp4052
g56
(g72
g58
NtRp4053
(dp4054
g61
(dp4055
sg70
g4049
sg63
(lp4056
g56
(g77
g58
NtRp4057
(dp4058
g61
(dp4059
g81
g82
ssg70
g4053
sg63
(lp4060
S'author'
p4061
asbag56
(g77
g58
NtRp4062
(dp4063
g61
(dp4064
g88
g89
ssg70
g4053
sg63
(lp4065
S':'
asbag56
(g77
g58
NtRp4066
(dp4067
g61
(dp4068
sg70
g4053
sg63
(lp4069
g56
(g57
g58
NtRp4070
(dp4071
g61
(dp4072
g69
I4
ssg70
g4066
sg63
(lp4073
S'you'
p4074
asbasbasbag56
(g72
g58
NtRp4075
(dp4076
g61
(dp4077
sg70
g4049
sg63
(lp4078
g56
(g77
g58
NtRp4079
(dp4080
g61
(dp4081
g81
g82
ssg70
g4075
sg63
(lp4082
S'copyright'
p4083
asbag56
(g77
g58
NtRp4084
(dp4085
g61
(dp4086
g88
g89
ssg70
g4075
sg63
(lp4087
S':'
asbag56
(g77
g58
NtRp4088
(dp4089
g61
(dp4090
sg70
g4075
sg63
(lp4091
g56
(g57
g58
NtRp4092
(dp4093
g61
(dp4094
g69
I4
ssg70
g4088
sg63
(lp4095
S'Copyright 2007-2010'
p4096
asbasbasbag56
(g72
g58
NtRp4097
(dp4098
g61
(dp4099
sg70
g4049
sg63
(lp4100
g56
(g77
g58
NtRp4101
(dp4102
g61
(dp4103
g81
g82
ssg70
g4097
sg63
(lp4104
S'description'
p4105
asbag56
(g77
g58
NtRp4106
(dp4107
g61
(dp4108
g88
g89
ssg70
g4097
sg63
(lp4109
S':'
asbag56
(g77
g58
NtRp4110
(dp4111
g61
(dp4112
sg70
g4097
sg63
(lp4113
g56
(g57
g58
NtRp4114
(dp4115
g61
(dp4116
g69
I4
ssg70
g4110
sg63
(lp4117
S'Free and open source full-stack enterprise framework for agile development of fast, scalable, secure and portable database-driven web-based applications. Written and programmable in Python'
p4118
asbasbasbag56
(g72
g58
NtRp4119
(dp4120
g61
(dp4121
sg70
g4049
sg63
(lp4122
g56
(g77
g58
NtRp4123
(dp4124
g61
(dp4125
g81
g82
ssg70
g4119
sg63
(lp4126
S'generator'
p4127
asbag56
(g77
g58
NtRp4128
(dp4129
g61
(dp4130
g88
g89
ssg70
g4119
sg63
(lp4131
S':'
asbag56
(g77
g58
NtRp4132
(dp4133
g61
(dp4134
sg70
g4119
sg63
(lp4135
g56
(g57
g58
NtRp4136
(dp4137
g61
(dp4138
g69
I4
ssg70
g4132
sg63
(lp4139
S'Web2py Enterprise Framework'
p4140
asbasbasbag56
(g72
g58
NtRp4141
(dp4142
g61
(dp4143
sg70
g4049
sg63
(lp4144
g56
(g77
g58
NtRp4145
(dp4146
g61
(dp4147
g81
g82
ssg70
g4141
sg63
(lp4148
S'keywords'
p4149
asbag56
(g77
g58
NtRp4150
(dp4151
g61
(dp4152
g88
g89
ssg70
g4141
sg63
(lp4153
S':'
asbag56
(g77
g58
NtRp4154
(dp4155
g61
(dp4156
sg70
g4141
sg63
(lp4157
g56
(g57
g58
NtRp4158
(dp4159
g61
(dp4160
g69
I4
ssg70
g4154
sg63
(lp4161
S'web2py, python, framework'
p4162
asbasbasbasbasbasbasbag56
(g72
g58
NtRp4163
(dp4164
g61
(dp4165
sg70
g2632
sg63
(lp4166
g56
(g77
g58
NtRp4167
(dp4168
g61
(dp4169
g81
g82
ssg70
g4163
sg63
(lp4170
S'postprocessing'
p4171
asbag56
(g77
g58
NtRp4172
(dp4173
g61
(dp4174
g88
g89
ssg70
g4163
sg63
(lp4175
S':'
asbag56
(g77
g58
NtRp4176
(dp4177
g61
(dp4178
sg70
g4163
sg63
(lp4179
g56
(g57
g58
NtRp4180
(dp4181
g61
(dp4182
g69
I5
ssg70
g4176
sg63
(lp4183
g56
(g65
g58
NtRp4184
(dp4185
g61
(dp4186
g69
I4
ssg70
Nsg63
(lp4187
sbasbasbasbag56
(g72
g58
NtRp4188
(dp4189
g61
(dp4190
sg70
g2632
sg63
(lp4191
g56
(g77
g58
NtRp4192
(dp4193
g61
(dp4194
g81
g82
ssg70
g4188
sg63
(lp4195
S'session_file'
p4196
asbag56
(g77
g58
NtRp4197
(dp4198
g61
(dp4199
g88
g89
ssg70
g4188
sg63
(lp4200
S':'
asbag56
(g77
g58
NtRp4201
(dp4202
g61
(dp4203
sg70
g4188
sg63
(lp4204
g56
(g57
g58
NtRp4205
(dp4206
g61
(dp4207
g69
I5
ssg70
g4201
sg63
(lp4208
S"<open file '/Users/schultzc/workspace/wherespuppet/web2py/applications/wp/sessions/127.0.0.1-4193f9ef-76d9-4ddb-926b-9a2cba4aa377', mode 'rb+' at 0x101b55150>"
p4209
asbasbasbag56
(g72
g58
NtRp4210
(dp4211
g61
(dp4212
sg70
g2632
sg63
(lp4213
g56
(g77
g58
NtRp4214
(dp4215
g61
(dp4216
g81
g82
ssg70
g4210
sg63
(lp4217
S'session_filename'
p4218
asbag56
(g77
g58
NtRp4219
(dp4220
g61
(dp4221
g88
g89
ssg70
g4210
sg63
(lp4222
S':'
asbag56
(g77
g58
NtRp4223
(dp4224
g61
(dp4225
sg70
g4210
sg63
(lp4226
g56
(g57
g58
NtRp4227
(dp4228
g61
(dp4229
g69
I5
ssg70
g4223
sg63
(lp4230
S'/Users/schultzc/workspace/wherespuppet/web2py/applications/wp/sessions/127.0.0.1-4193f9ef-76d9-4ddb-926b-9a2cba4aa377'
p4231
asbasbasbag56
(g72
g58
NtRp4232
(dp4233
g61
(dp4234
sg70
g2632
sg63
(lp4235
g56
(g77
g58
NtRp4236
(dp4237
g61
(dp4238
g81
g82
ssg70
g4232
sg63
(lp4239
S'session_id'
p4240
asbag56
(g77
g58
NtRp4241
(dp4242
g61
(dp4243
g88
g89
ssg70
g4232
sg63
(lp4244
S':'
asbag56
(g77
g58
NtRp4245
(dp4246
g61
(dp4247
sg70
g4232
sg63
(lp4248
g56
(g57
g58
NtRp4249
(dp4250
g61
(dp4251
g69
I5
ssg70
g4245
sg63
(lp4252
S'127.0.0.1-4193f9ef-76d9-4ddb-926b-9a2cba4aa377'
p4253
asbasbasbag56
(g72
g58
NtRp4254
(dp4255
g61
(dp4256
sg70
g2632
sg63
(lp4257
g56
(g77
g58
NtRp4258
(dp4259
g61
(dp4260
g81
g82
ssg70
g4254
sg63
(lp4261
S'session_id_name'
p4262
asbag56
(g77
g58
NtRp4263
(dp4264
g61
(dp4265
g88
g89
ssg70
g4254
sg63
(lp4266
S':'
asbag56
(g77
g58
NtRp4267
(dp4268
g61
(dp4269
sg70
g4254
sg63
(lp4270
g56
(g57
g58
NtRp4271
(dp4272
g61
(dp4273
g69
I5
ssg70
g4267
sg63
(lp4274
g2689
asbasbasbag56
(g72
g58
NtRp4275
(dp4276
g61
(dp4277
sg70
g2632
sg63
(lp4278
g56
(g77
g58
NtRp4279
(dp4280
g61
(dp4281
g81
g82
ssg70
g4275
sg63
(lp4282
S'session_locked'
p4283
asbag56
(g77
g58
NtRp4284
(dp4285
g61
(dp4286
g88
g89
ssg70
g4275
sg63
(lp4287
S':'
asbag56
(g77
g58
NtRp4288
(dp4289
g61
(dp4290
sg70
g4275
sg63
(lp4291
g56
(g57
g58
NtRp4292
(dp4293
g61
(dp4294
g69
I5
ssg70
g4288
sg63
(lp4295
g1547
asbasbasbag56
(g72
g58
NtRp4296
(dp4297
g61
(dp4298
sg70
g2632
sg63
(lp4299
g56
(g77
g58
NtRp4300
(dp4301
g61
(dp4302
g81
g82
ssg70
g4296
sg63
(lp4303
S'session_new'
p4304
asbag56
(g77
g58
NtRp4305
(dp4306
g61
(dp4307
g88
g89
ssg70
g4296
sg63
(lp4308
S':'
asbag56
(g77
g58
NtRp4309
(dp4310
g61
(dp4311
sg70
g4296
sg63
(lp4312
g56
(g57
g58
NtRp4313
(dp4314
g61
(dp4315
g69
I5
ssg70
g4309
sg63
(lp4316
g99
asbasbasbag56
(g72
g58
NtRp4317
(dp4318
g61
(dp4319
sg70
g2632
sg63
(lp4320
g56
(g77
g58
NtRp4321
(dp4322
g61
(dp4323
g81
g82
ssg70
g4317
sg63
(lp4324
S'status'
p4325
asbag56
(g77
g58
NtRp4326
(dp4327
g61
(dp4328
g88
g89
ssg70
g4317
sg63
(lp4329
S':'
asbag56
(g77
g58
NtRp4330
(dp4331
g61
(dp4332
sg70
g4317
sg63
(lp4333
g56
(g57
g58
NtRp4334
(dp4335
g61
(dp4336
g69
I5
ssg70
g4330
sg63
(lp4337
S'200'
p4338
asbasbasbag56
(g72
g58
NtRp4339
(dp4340
g61
(dp4341
sg70
g2632
sg63
(lp4342
g56
(g77
g58
NtRp4343
(dp4344
g61
(dp4345
g81
g82
ssg70
g4339
sg63
(lp4346
S'subtitle'
p4347
asbag56
(g77
g58
NtRp4348
(dp4349
g61
(dp4350
g88
g89
ssg70
g4339
sg63
(lp4351
S':'
asbag56
(g77
g58
NtRp4352
(dp4353
g61
(dp4354
sg70
g4339
sg63
(lp4355
g56
(g57
g58
NtRp4356
(dp4357
g61
(dp4358
g69
I5
ssg70
g4352
sg63
(lp4359
g3101
(S's\r\x00\x00\x00customize me!'
tRp4360
asbasbasbag56
(g72
g58
NtRp4361
(dp4362
g61
(dp4363
sg70
g2632
sg63
(lp4364
g56
(g77
g58
NtRp4365
(dp4366
g61
(dp4367
g81
g82
ssg70
g4361
sg63
(lp4368
S'title'
p4369
asbag56
(g77
g58
NtRp4370
(dp4371
g61
(dp4372
g88
g89
ssg70
g4361
sg63
(lp4373
S':'
asbag56
(g77
g58
NtRp4374
(dp4375
g61
(dp4376
sg70
g4361
sg63
(lp4377
g56
(g57
g58
NtRp4378
(dp4379
g61
(dp4380
g69
I5
ssg70
g4374
sg63
(lp4381
g121
asbasbasbag56
(g72
g58
NtRp4382
(dp4383
g61
(dp4384
sg70
g2632
sg63
(lp4385
g56
(g77
g58
NtRp4386
(dp4387
g61
(dp4388
g81
g82
ssg70
g4382
sg63
(lp4389
g1892
asbag56
(g77
g58
NtRp4390
(dp4391
g61
(dp4392
g88
g89
ssg70
g4382
sg63
(lp4393
S':'
asbag56
(g77
g58
NtRp4394
(dp4395
g61
(dp4396
sg70
g4382
sg63
(lp4397
g56
(g57
g58
NtRp4398
(dp4399
g61
(dp4400
g69
I5
ssg70
g4394
sg63
(lp4401
g1905
asbasbasbag56
(g72
g58
NtRp4402
(dp4403
g61
(dp4404
sg70
g2632
sg63
(lp4405
g56
(g77
g58
NtRp4406
(dp4407
g61
(dp4408
g81
g82
ssg70
g4402
sg63
(lp4409
S'view'
p4410
asbag56
(g77
g58
NtRp4411
(dp4412
g61
(dp4413
g88
g89
ssg70
g4402
sg63
(lp4414
S':'
asbag56
(g77
g58
NtRp4415
(dp4416
g61
(dp4417
sg70
g4402
sg63
(lp4418
g56
(g57
g58
NtRp4419
(dp4420
g61
(dp4421
g69
I5
ssg70
g4415
sg63
(lp4422
S'default/submit.html'
p4423
asbasbasbasbasbsS'locals'
p4424
(dp4425
S'form'
p4426
S'<gluon.sqlhtml.SQLFORM object>'
p4427
sssS'traceback'
p4428
S'Traceback (most recent call last):\n  File "/Users/schultzc/workspace/wherespuppet/web2py/gluon/restricted.py", line 192, in restricted\n    exec ccode in environment\n  File "/Users/schultzc/workspace/wherespuppet/web2py/applications/wp/controllers/default.py", line 92, in <module>\n  File "/Users/schultzc/workspace/wherespuppet/web2py/gluon/globals.py", line 137, in <lambda>\n    self._caller = lambda f: f()\n  File "/Users/schultzc/workspace/wherespuppet/web2py/applications/wp/controllers/default.py", line 28, in submit\n    return dict(form=form,latitude=latitude)\nNameError: global name \'latitude\' is not defined\n'
p4429
s.