(dp1
S'output'
p2
S''
sS'layer'
p3
S'/Users/schultzc/Downloads/web2py/applications/wp/controllers/default.py'
p4
sS'code'
p5
S'# -*- coding: utf-8 -*-\n# this file is released under public domain and you can use without limitations\n\n#########################################################################\n## This is a samples controller\n## - index is the default action of any application\n## - user is required for authentication and authorization\n## - download is for downloading files uploaded in the db (does streaming)\n## - call exposes all registered services (none by default)\n#########################################################################\nimport datetime\n\n\ndef index():\n    images = db().select(db.image.ALL, orderby=db.image.title)\n    return dict(images=images)\n    \ndef submit():\n    form = SQLFORM(db.image, formstyle="divs")\n    if form.accepts(request.vars, session):\n        response.flash = \'form accepted\'\n    elif form.errors:\n        response.flash = \'form has errors\'\n    else:\n        response.flash = \'please fill out the form\'\n    return dict(form=form)\n   \ndef show():\n    image = db(db.image.id==request.args(0)).select().first()\n    form = SQLFORM(db.comment)\n    form.vars.image_id = image.id\n    if form.accepts(request.vars, session):\n        response.flash = \'your comment is posted\'\n    comments = db(db.comment.image_id==image.id).select()\n    return dict(image=image, comments=comments, form=form)\n\ndef user():\n    """\n    exposes:\n    http://..../[app]/default/user/login\n    http://..../[app]/default/user/logout\n    http://..../[app]/default/user/register\n    http://..../[app]/default/user/profile\n    http://..../[app]/default/user/retrieve_password\n    http://..../[app]/default/user/change_password\n    use @auth.requires_login()\n        @auth.requires_membership(\'group name\')\n        @auth.requires_permission(\'read\',\'table name\',record_id)\n    to decorate functions that need access control\n    """\n    return dict(form=auth())\n\n\ndef download():\n    """\n    allows downloading of uploaded files\n    http://..../[app]/default/download/[filename]\n    """\n    return response.download(request,db)\n\n\ndef call():\n    """\n    exposes services. for example:\n    http://..../[app]/default/call/jsonrpc\n    decorate with @services.jsonrpc the functions to expose\n    supports xml, json, xmlrpc, jsonrpc, amfrpc, rss, csv\n    """\n    return service()\n\n\'\'\'\n@auth.requires_signature()\ndef data():\n    """\n    http://..../[app]/default/data/tables\n    http://..../[app]/default/data/create/[table]\n    http://..../[app]/default/data/read/[table]/[id]\n    http://..../[app]/default/data/update/[table]/[id]\n    http://..../[app]/default/data/delete/[table]/[id[\n    http://..../[app]/default/data/select/[table]\n    http://..../[app]/default/data/search/[table]\n    but URLs bust be signed, i.e. linked with\n      A(\'table\',_href=URL(\'data/tables\',user_signature=True))\n    or with the signed load operator\n      LOAD(\'default\',\'data.load\',args=\'tables\',ajax=True,user_signature=True)\n    """\n    return dict(form=crud())\n\'\'\'\n\nresponse._vars=response._caller(submit)\n'
p6
sS'snapshot'
p7
(dp8
S'exception'
p9
(dp10
S'__module__'
p11
S"'sqlite3'"
p12
sS'__getslice__'
p13
S"<method-wrapper '__getslice__' of OperationalError object>"
p14
sS'__str__'
p15
S"<method-wrapper '__str__' of OperationalError object>"
p16
sS'__reduce__'
p17
S'<built-in method __reduce__ of OperationalError object>'
p18
sS'__dict__'
p19
S'{}'
p20
sS'__sizeof__'
p21
S'<built-in method __sizeof__ of OperationalError object>'
p22
sS'__weakref__'
p23
S'None'
p24
sS'__init__'
p25
S"<method-wrapper '__init__' of OperationalError object>"
p26
sS'__setattr__'
p27
S"<method-wrapper '__setattr__' of OperationalError object>"
p28
sS'__reduce_ex__'
p29
S'<built-in method __reduce_ex__ of OperationalError object>'
p30
sS'__new__'
p31
S'<built-in method __new__ of type object>'
p32
sS'__format__'
p33
S'<built-in method __format__ of OperationalError object>'
p34
sS'__class__'
p35
S"<class 'sqlite3.OperationalError'>"
p36
sS'__doc__'
p37
S'None'
p38
sS'__getitem__'
p39
S"<method-wrapper '__getitem__' of OperationalError object>"
p40
sS'__setstate__'
p41
S'<built-in method __setstate__ of OperationalError object>'
p42
sS'__getattribute__'
p43
S"<method-wrapper '__getattribute__' of OperationalError object>"
p44
sS'args'
p45
S"('no such table: image',)"
p46
sS'__subclasshook__'
p47
S'<built-in method __subclasshook__ of type object>'
p48
sS'__unicode__'
p49
S'<built-in method __unicode__ of OperationalError object>'
p50
sS'__delattr__'
p51
S"<method-wrapper '__delattr__' of OperationalError object>"
p52
sS'__repr__'
p53
S"<method-wrapper '__repr__' of OperationalError object>"
p54
sS'__hash__'
p55
S"<method-wrapper '__hash__' of OperationalError object>"
p56
ssS'evalue'
p57
S'no such table: image'
p58
sS'request'
p59
ccopy_reg
_reconstructor
p60
(cgluon.html
BEAUTIFY
p61
c__builtin__
object
p62
NtRp63
(dp64
S'attributes'
p65
(dp66
sS'components'
p67
(lp68
g60
(cgluon.html
TABLE
p69
g62
NtRp70
(dp71
g65
(dp72
S'level'
p73
I5
ssS'parent'
p74
Nsg67
(lp75
g60
(cgluon.html
TR
p76
g62
NtRp77
(dp78
g65
(dp79
sg74
g70
sg67
(lp80
g60
(cgluon.html
TD
p81
g62
NtRp82
(dp83
g65
(dp84
S'_style'
p85
S'font-weight:bold;'
p86
ssg74
g77
sg67
(lp87
S'ajax'
p88
asbag60
(g81
g62
NtRp89
(dp90
g65
(dp91
S'_valign'
p92
S'top'
p93
ssg74
g77
sg67
(lp94
S':'
asbag60
(g81
g62
NtRp95
(dp96
g65
(dp97
sg74
g77
sg67
(lp98
g60
(g61
g62
NtRp99
(dp100
g65
(dp101
g73
I5
ssg74
g95
sg67
(lp102
S'False'
p103
asbasbasbag60
(g76
g62
NtRp104
(dp105
g65
(dp106
sg74
g70
sg67
(lp107
g60
(g81
g62
NtRp108
(dp109
g65
(dp110
g85
g86
ssg74
g104
sg67
(lp111
S'application'
p112
asbag60
(g81
g62
NtRp113
(dp114
g65
(dp115
g92
g93
ssg74
g104
sg67
(lp116
S':'
asbag60
(g81
g62
NtRp117
(dp118
g65
(dp119
sg74
g104
sg67
(lp120
g60
(g61
g62
NtRp121
(dp122
g65
(dp123
g73
I5
ssg74
g117
sg67
(lp124
S'wp'
p125
asbasbasbag60
(g76
g62
NtRp126
(dp127
g65
(dp128
sg74
g70
sg67
(lp129
g60
(g81
g62
NtRp130
(dp131
g65
(dp132
g85
g86
ssg74
g126
sg67
(lp133
g45
asbag60
(g81
g62
NtRp134
(dp135
g65
(dp136
g92
g93
ssg74
g126
sg67
(lp137
S':'
asbag60
(g81
g62
NtRp138
(dp139
g65
(dp140
sg74
g126
sg67
(lp141
g60
(g61
g62
NtRp142
(dp143
g65
(dp144
g73
I5
ssg74
g138
sg67
(lp145
g60
(g69
g62
NtRp146
(dp147
g65
(dp148
g73
I4
ssg74
Nsg67
(lp149
sbasbasbasbag60
(g76
g62
NtRp150
(dp151
g65
(dp152
sg74
g70
sg67
(lp153
g60
(g81
g62
NtRp154
(dp155
g65
(dp156
g85
g86
ssg74
g150
sg67
(lp157
S'body'
p158
asbag60
(g81
g62
NtRp159
(dp160
g65
(dp161
g92
g93
ssg74
g150
sg67
(lp162
S':'
asbag60
(g81
g62
NtRp163
(dp164
g65
(dp165
sg74
g150
sg67
(lp166
g60
(g61
g62
NtRp167
(dp168
g65
(dp169
g73
I5
ssg74
g163
sg67
(lp170
S"<open file '<fdopen>', mode 'w+b' at 0x101b770c0>"
p171
asbasbasbag60
(g76
g62
NtRp172
(dp173
g65
(dp174
sg74
g70
sg67
(lp175
g60
(g81
g62
NtRp176
(dp177
g65
(dp178
g85
g86
ssg74
g172
sg67
(lp179
S'client'
p180
asbag60
(g81
g62
NtRp181
(dp182
g65
(dp183
g92
g93
ssg74
g172
sg67
(lp184
S':'
asbag60
(g81
g62
NtRp185
(dp186
g65
(dp187
sg74
g172
sg67
(lp188
g60
(g61
g62
NtRp189
(dp190
g65
(dp191
g73
I5
ssg74
g185
sg67
(lp192
S'127.0.0.1'
p193
asbasbasbag60
(g76
g62
NtRp194
(dp195
g65
(dp196
sg74
g70
sg67
(lp197
g60
(g81
g62
NtRp198
(dp199
g65
(dp200
g85
g86
ssg74
g194
sg67
(lp201
S'controller'
p202
asbag60
(g81
g62
NtRp203
(dp204
g65
(dp205
g92
g93
ssg74
g194
sg67
(lp206
S':'
asbag60
(g81
g62
NtRp207
(dp208
g65
(dp209
sg74
g194
sg67
(lp210
g60
(g61
g62
NtRp211
(dp212
g65
(dp213
g73
I5
ssg74
g207
sg67
(lp214
S'default'
p215
asbasbasbag60
(g76
g62
NtRp216
(dp217
g65
(dp218
sg74
g70
sg67
(lp219
g60
(g81
g62
NtRp220
(dp221
g65
(dp222
g85
g86
ssg74
g216
sg67
(lp223
S'cookies'
p224
asbag60
(g81
g62
NtRp225
(dp226
g65
(dp227
g92
g93
ssg74
g216
sg67
(lp228
S':'
asbag60
(g81
g62
NtRp229
(dp230
g65
(dp231
sg74
g216
sg67
(lp232
g60
(g61
g62
NtRp233
(dp234
g65
(dp235
g73
I5
ssg74
g229
sg67
(lp236
g60
(g69
g62
NtRp237
(dp238
g65
(dp239
g73
I4
ssg74
Nsg67
(lp240
g60
(g76
g62
NtRp241
(dp242
g65
(dp243
sg74
g237
sg67
(lp244
g60
(g81
g62
NtRp245
(dp246
g65
(dp247
g85
g86
ssg74
g241
sg67
(lp248
S'session_id_admin'
p249
asbag60
(g81
g62
NtRp250
(dp251
g65
(dp252
g92
g93
ssg74
g241
sg67
(lp253
S':'
asbag60
(g81
g62
NtRp254
(dp255
g65
(dp256
sg74
g241
sg67
(lp257
g60
(g61
g62
NtRp258
(dp259
g65
(dp260
g73
I4
ssg74
g254
sg67
(lp261
g60
(g69
g62
NtRp262
(dp263
g65
(dp264
g73
I3
ssg74
Nsg67
(lp265
g60
(g76
g62
NtRp266
(dp267
g65
(dp268
sg74
g262
sg67
(lp269
g60
(g81
g62
NtRp270
(dp271
g65
(dp272
g85
g86
ssg74
g266
sg67
(lp273
S'comment'
p274
asbag60
(g81
g62
NtRp275
(dp276
g65
(dp277
g92
g93
ssg74
g266
sg67
(lp278
S':'
asbag60
(g81
g62
NtRp279
(dp280
g65
(dp281
sg74
g266
sg67
(lp282
g60
(g61
g62
NtRp283
(dp284
g65
(dp285
g73
I3
ssg74
g279
sg67
(lp286
S''
asbasbasbag60
(g76
g62
NtRp287
(dp288
g65
(dp289
sg74
g262
sg67
(lp290
g60
(g81
g62
NtRp291
(dp292
g65
(dp293
g85
g86
ssg74
g287
sg67
(lp294
S'domain'
p295
asbag60
(g81
g62
NtRp296
(dp297
g65
(dp298
g92
g93
ssg74
g287
sg67
(lp299
S':'
asbag60
(g81
g62
NtRp300
(dp301
g65
(dp302
sg74
g287
sg67
(lp303
g60
(g61
g62
NtRp304
(dp305
g65
(dp306
g73
I3
ssg74
g300
sg67
(lp307
S''
asbasbasbag60
(g76
g62
NtRp308
(dp309
g65
(dp310
sg74
g262
sg67
(lp311
g60
(g81
g62
NtRp312
(dp313
g65
(dp314
g85
g86
ssg74
g308
sg67
(lp315
S'expires'
p316
asbag60
(g81
g62
NtRp317
(dp318
g65
(dp319
g92
g93
ssg74
g308
sg67
(lp320
S':'
asbag60
(g81
g62
NtRp321
(dp322
g65
(dp323
sg74
g308
sg67
(lp324
g60
(g61
g62
NtRp325
(dp326
g65
(dp327
g73
I3
ssg74
g321
sg67
(lp328
S''
asbasbasbag60
(g76
g62
NtRp329
(dp330
g65
(dp331
sg74
g262
sg67
(lp332
g60
(g81
g62
NtRp333
(dp334
g65
(dp335
g85
g86
ssg74
g329
sg67
(lp336
S'httponly'
p337
asbag60
(g81
g62
NtRp338
(dp339
g65
(dp340
g92
g93
ssg74
g329
sg67
(lp341
S':'
asbag60
(g81
g62
NtRp342
(dp343
g65
(dp344
sg74
g329
sg67
(lp345
g60
(g61
g62
NtRp346
(dp347
g65
(dp348
g73
I3
ssg74
g342
sg67
(lp349
S''
asbasbasbag60
(g76
g62
NtRp350
(dp351
g65
(dp352
sg74
g262
sg67
(lp353
g60
(g81
g62
NtRp354
(dp355
g65
(dp356
g85
g86
ssg74
g350
sg67
(lp357
S'max-age'
p358
asbag60
(g81
g62
NtRp359
(dp360
g65
(dp361
g92
g93
ssg74
g350
sg67
(lp362
S':'
asbag60
(g81
g62
NtRp363
(dp364
g65
(dp365
sg74
g350
sg67
(lp366
g60
(g61
g62
NtRp367
(dp368
g65
(dp369
g73
I3
ssg74
g363
sg67
(lp370
S''
asbasbasbag60
(g76
g62
NtRp371
(dp372
g65
(dp373
sg74
g262
sg67
(lp374
g60
(g81
g62
NtRp375
(dp376
g65
(dp377
g85
g86
ssg74
g371
sg67
(lp378
S'path'
p379
asbag60
(g81
g62
NtRp380
(dp381
g65
(dp382
g92
g93
ssg74
g371
sg67
(lp383
S':'
asbag60
(g81
g62
NtRp384
(dp385
g65
(dp386
sg74
g371
sg67
(lp387
g60
(g61
g62
NtRp388
(dp389
g65
(dp390
g73
I3
ssg74
g384
sg67
(lp391
S''
asbasbasbag60
(g76
g62
NtRp392
(dp393
g65
(dp394
sg74
g262
sg67
(lp395
g60
(g81
g62
NtRp396
(dp397
g65
(dp398
g85
g86
ssg74
g392
sg67
(lp399
S'secure'
p400
asbag60
(g81
g62
NtRp401
(dp402
g65
(dp403
g92
g93
ssg74
g392
sg67
(lp404
S':'
asbag60
(g81
g62
NtRp405
(dp406
g65
(dp407
sg74
g392
sg67
(lp408
g60
(g61
g62
NtRp409
(dp410
g65
(dp411
g73
I3
ssg74
g405
sg67
(lp412
S''
asbasbasbag60
(g76
g62
NtRp413
(dp414
g65
(dp415
sg74
g262
sg67
(lp416
g60
(g81
g62
NtRp417
(dp418
g65
(dp419
g85
g86
ssg74
g413
sg67
(lp420
S'version'
p421
asbag60
(g81
g62
NtRp422
(dp423
g65
(dp424
g92
g93
ssg74
g413
sg67
(lp425
S':'
asbag60
(g81
g62
NtRp426
(dp427
g65
(dp428
sg74
g413
sg67
(lp429
g60
(g61
g62
NtRp430
(dp431
g65
(dp432
g73
I3
ssg74
g426
sg67
(lp433
S''
asbasbasbasbasbasbasbag60
(g76
g62
NtRp434
(dp435
g65
(dp436
sg74
g237
sg67
(lp437
g60
(g81
g62
NtRp438
(dp439
g65
(dp440
g85
g86
ssg74
g434
sg67
(lp441
S'session_id_imgblog'
p442
asbag60
(g81
g62
NtRp443
(dp444
g65
(dp445
g92
g93
ssg74
g434
sg67
(lp446
S':'
asbag60
(g81
g62
NtRp447
(dp448
g65
(dp449
sg74
g434
sg67
(lp450
g60
(g61
g62
NtRp451
(dp452
g65
(dp453
g73
I4
ssg74
g447
sg67
(lp454
g60
(g69
g62
NtRp455
(dp456
g65
(dp457
g73
I3
ssg74
Nsg67
(lp458
g60
(g76
g62
NtRp459
(dp460
g65
(dp461
sg74
g455
sg67
(lp462
g60
(g81
g62
NtRp463
(dp464
g65
(dp465
g85
g86
ssg74
g459
sg67
(lp466
g274
asbag60
(g81
g62
NtRp467
(dp468
g65
(dp469
g92
g93
ssg74
g459
sg67
(lp470
S':'
asbag60
(g81
g62
NtRp471
(dp472
g65
(dp473
sg74
g459
sg67
(lp474
g60
(g61
g62
NtRp475
(dp476
g65
(dp477
g73
I3
ssg74
g471
sg67
(lp478
S''
asbasbasbag60
(g76
g62
NtRp479
(dp480
g65
(dp481
sg74
g455
sg67
(lp482
g60
(g81
g62
NtRp483
(dp484
g65
(dp485
g85
g86
ssg74
g479
sg67
(lp486
g295
asbag60
(g81
g62
NtRp487
(dp488
g65
(dp489
g92
g93
ssg74
g479
sg67
(lp490
S':'
asbag60
(g81
g62
NtRp491
(dp492
g65
(dp493
sg74
g479
sg67
(lp494
g60
(g61
g62
NtRp495
(dp496
g65
(dp497
g73
I3
ssg74
g491
sg67
(lp498
S''
asbasbasbag60
(g76
g62
NtRp499
(dp500
g65
(dp501
sg74
g455
sg67
(lp502
g60
(g81
g62
NtRp503
(dp504
g65
(dp505
g85
g86
ssg74
g499
sg67
(lp506
g316
asbag60
(g81
g62
NtRp507
(dp508
g65
(dp509
g92
g93
ssg74
g499
sg67
(lp510
S':'
asbag60
(g81
g62
NtRp511
(dp512
g65
(dp513
sg74
g499
sg67
(lp514
g60
(g61
g62
NtRp515
(dp516
g65
(dp517
g73
I3
ssg74
g511
sg67
(lp518
S''
asbasbasbag60
(g76
g62
NtRp519
(dp520
g65
(dp521
sg74
g455
sg67
(lp522
g60
(g81
g62
NtRp523
(dp524
g65
(dp525
g85
g86
ssg74
g519
sg67
(lp526
g337
asbag60
(g81
g62
NtRp527
(dp528
g65
(dp529
g92
g93
ssg74
g519
sg67
(lp530
S':'
asbag60
(g81
g62
NtRp531
(dp532
g65
(dp533
sg74
g519
sg67
(lp534
g60
(g61
g62
NtRp535
(dp536
g65
(dp537
g73
I3
ssg74
g531
sg67
(lp538
S''
asbasbasbag60
(g76
g62
NtRp539
(dp540
g65
(dp541
sg74
g455
sg67
(lp542
g60
(g81
g62
NtRp543
(dp544
g65
(dp545
g85
g86
ssg74
g539
sg67
(lp546
g358
asbag60
(g81
g62
NtRp547
(dp548
g65
(dp549
g92
g93
ssg74
g539
sg67
(lp550
S':'
asbag60
(g81
g62
NtRp551
(dp552
g65
(dp553
sg74
g539
sg67
(lp554
g60
(g61
g62
NtRp555
(dp556
g65
(dp557
g73
I3
ssg74
g551
sg67
(lp558
S''
asbasbasbag60
(g76
g62
NtRp559
(dp560
g65
(dp561
sg74
g455
sg67
(lp562
g60
(g81
g62
NtRp563
(dp564
g65
(dp565
g85
g86
ssg74
g559
sg67
(lp566
g379
asbag60
(g81
g62
NtRp567
(dp568
g65
(dp569
g92
g93
ssg74
g559
sg67
(lp570
S':'
asbag60
(g81
g62
NtRp571
(dp572
g65
(dp573
sg74
g559
sg67
(lp574
g60
(g61
g62
NtRp575
(dp576
g65
(dp577
g73
I3
ssg74
g571
sg67
(lp578
S''
asbasbasbag60
(g76
g62
NtRp579
(dp580
g65
(dp581
sg74
g455
sg67
(lp582
g60
(g81
g62
NtRp583
(dp584
g65
(dp585
g85
g86
ssg74
g579
sg67
(lp586
g400
asbag60
(g81
g62
NtRp587
(dp588
g65
(dp589
g92
g93
ssg74
g579
sg67
(lp590
S':'
asbag60
(g81
g62
NtRp591
(dp592
g65
(dp593
sg74
g579
sg67
(lp594
g60
(g61
g62
NtRp595
(dp596
g65
(dp597
g73
I3
ssg74
g591
sg67
(lp598
S''
asbasbasbag60
(g76
g62
NtRp599
(dp600
g65
(dp601
sg74
g455
sg67
(lp602
g60
(g81
g62
NtRp603
(dp604
g65
(dp605
g85
g86
ssg74
g599
sg67
(lp606
g421
asbag60
(g81
g62
NtRp607
(dp608
g65
(dp609
g92
g93
ssg74
g599
sg67
(lp610
S':'
asbag60
(g81
g62
NtRp611
(dp612
g65
(dp613
sg74
g599
sg67
(lp614
g60
(g61
g62
NtRp615
(dp616
g65
(dp617
g73
I3
ssg74
g611
sg67
(lp618
S''
asbasbasbasbasbasbasbag60
(g76
g62
NtRp619
(dp620
g65
(dp621
sg74
g237
sg67
(lp622
g60
(g81
g62
NtRp623
(dp624
g65
(dp625
g85
g86
ssg74
g619
sg67
(lp626
S'session_id_wp'
p627
asbag60
(g81
g62
NtRp628
(dp629
g65
(dp630
g92
g93
ssg74
g619
sg67
(lp631
S':'
asbag60
(g81
g62
NtRp632
(dp633
g65
(dp634
sg74
g619
sg67
(lp635
g60
(g61
g62
NtRp636
(dp637
g65
(dp638
g73
I4
ssg74
g632
sg67
(lp639
g60
(g69
g62
NtRp640
(dp641
g65
(dp642
g73
I3
ssg74
Nsg67
(lp643
g60
(g76
g62
NtRp644
(dp645
g65
(dp646
sg74
g640
sg67
(lp647
g60
(g81
g62
NtRp648
(dp649
g65
(dp650
g85
g86
ssg74
g644
sg67
(lp651
g274
asbag60
(g81
g62
NtRp652
(dp653
g65
(dp654
g92
g93
ssg74
g644
sg67
(lp655
S':'
asbag60
(g81
g62
NtRp656
(dp657
g65
(dp658
sg74
g644
sg67
(lp659
g60
(g61
g62
NtRp660
(dp661
g65
(dp662
g73
I3
ssg74
g656
sg67
(lp663
S''
asbasbasbag60
(g76
g62
NtRp664
(dp665
g65
(dp666
sg74
g640
sg67
(lp667
g60
(g81
g62
NtRp668
(dp669
g65
(dp670
g85
g86
ssg74
g664
sg67
(lp671
g295
asbag60
(g81
g62
NtRp672
(dp673
g65
(dp674
g92
g93
ssg74
g664
sg67
(lp675
S':'
asbag60
(g81
g62
NtRp676
(dp677
g65
(dp678
sg74
g664
sg67
(lp679
g60
(g61
g62
NtRp680
(dp681
g65
(dp682
g73
I3
ssg74
g676
sg67
(lp683
S''
asbasbasbag60
(g76
g62
NtRp684
(dp685
g65
(dp686
sg74
g640
sg67
(lp687
g60
(g81
g62
NtRp688
(dp689
g65
(dp690
g85
g86
ssg74
g684
sg67
(lp691
g316
asbag60
(g81
g62
NtRp692
(dp693
g65
(dp694
g92
g93
ssg74
g684
sg67
(lp695
S':'
asbag60
(g81
g62
NtRp696
(dp697
g65
(dp698
sg74
g684
sg67
(lp699
g60
(g61
g62
NtRp700
(dp701
g65
(dp702
g73
I3
ssg74
g696
sg67
(lp703
S''
asbasbasbag60
(g76
g62
NtRp704
(dp705
g65
(dp706
sg74
g640
sg67
(lp707
g60
(g81
g62
NtRp708
(dp709
g65
(dp710
g85
g86
ssg74
g704
sg67
(lp711
g337
asbag60
(g81
g62
NtRp712
(dp713
g65
(dp714
g92
g93
ssg74
g704
sg67
(lp715
S':'
asbag60
(g81
g62
NtRp716
(dp717
g65
(dp718
sg74
g704
sg67
(lp719
g60
(g61
g62
NtRp720
(dp721
g65
(dp722
g73
I3
ssg74
g716
sg67
(lp723
S''
asbasbasbag60
(g76
g62
NtRp724
(dp725
g65
(dp726
sg74
g640
sg67
(lp727
g60
(g81
g62
NtRp728
(dp729
g65
(dp730
g85
g86
ssg74
g724
sg67
(lp731
g358
asbag60
(g81
g62
NtRp732
(dp733
g65
(dp734
g92
g93
ssg74
g724
sg67
(lp735
S':'
asbag60
(g81
g62
NtRp736
(dp737
g65
(dp738
sg74
g724
sg67
(lp739
g60
(g61
g62
NtRp740
(dp741
g65
(dp742
g73
I3
ssg74
g736
sg67
(lp743
S''
asbasbasbag60
(g76
g62
NtRp744
(dp745
g65
(dp746
sg74
g640
sg67
(lp747
g60
(g81
g62
NtRp748
(dp749
g65
(dp750
g85
g86
ssg74
g744
sg67
(lp751
g379
asbag60
(g81
g62
NtRp752
(dp753
g65
(dp754
g92
g93
ssg74
g744
sg67
(lp755
S':'
asbag60
(g81
g62
NtRp756
(dp757
g65
(dp758
sg74
g744
sg67
(lp759
g60
(g61
g62
NtRp760
(dp761
g65
(dp762
g73
I3
ssg74
g756
sg67
(lp763
S''
asbasbasbag60
(g76
g62
NtRp764
(dp765
g65
(dp766
sg74
g640
sg67
(lp767
g60
(g81
g62
NtRp768
(dp769
g65
(dp770
g85
g86
ssg74
g764
sg67
(lp771
g400
asbag60
(g81
g62
NtRp772
(dp773
g65
(dp774
g92
g93
ssg74
g764
sg67
(lp775
S':'
asbag60
(g81
g62
NtRp776
(dp777
g65
(dp778
sg74
g764
sg67
(lp779
g60
(g61
g62
NtRp780
(dp781
g65
(dp782
g73
I3
ssg74
g776
sg67
(lp783
S''
asbasbasbag60
(g76
g62
NtRp784
(dp785
g65
(dp786
sg74
g640
sg67
(lp787
g60
(g81
g62
NtRp788
(dp789
g65
(dp790
g85
g86
ssg74
g784
sg67
(lp791
g421
asbag60
(g81
g62
NtRp792
(dp793
g65
(dp794
g92
g93
ssg74
g784
sg67
(lp795
S':'
asbag60
(g81
g62
NtRp796
(dp797
g65
(dp798
sg74
g784
sg67
(lp799
g60
(g61
g62
NtRp800
(dp801
g65
(dp802
g73
I3
ssg74
g796
sg67
(lp803
S''
asbasbasbasbasbasbasbasbasbasbasbag60
(g76
g62
NtRp804
(dp805
g65
(dp806
sg74
g70
sg67
(lp807
g60
(g81
g62
NtRp808
(dp809
g65
(dp810
g85
g86
ssg74
g804
sg67
(lp811
S'env'
p812
asbag60
(g81
g62
NtRp813
(dp814
g65
(dp815
g92
g93
ssg74
g804
sg67
(lp816
S':'
asbag60
(g81
g62
NtRp817
(dp818
g65
(dp819
sg74
g804
sg67
(lp820
g60
(g61
g62
NtRp821
(dp822
g65
(dp823
g73
I5
ssg74
g817
sg67
(lp824
g60
(g69
g62
NtRp825
(dp826
g65
(dp827
g73
I4
ssg74
Nsg67
(lp828
g60
(g76
g62
NtRp829
(dp830
g65
(dp831
sg74
g825
sg67
(lp832
g60
(g81
g62
NtRp833
(dp834
g65
(dp835
g85
g86
ssg74
g829
sg67
(lp836
S'app_folders'
p837
asbag60
(g81
g62
NtRp838
(dp839
g65
(dp840
g92
g93
ssg74
g829
sg67
(lp841
S':'
asbag60
(g81
g62
NtRp842
(dp843
g65
(dp844
sg74
g829
sg67
(lp845
g60
(g61
g62
NtRp846
(dp847
g65
(dp848
g73
I4
ssg74
g842
sg67
(lp849
S"set(['/Users/schultzc/Downloads/web2py/applications/wp/'])"
p850
asbasbasbag60
(g76
g62
NtRp851
(dp852
g65
(dp853
sg74
g825
sg67
(lp854
g60
(g81
g62
NtRp855
(dp856
g65
(dp857
g85
g86
ssg74
g851
sg67
(lp858
S'applications_parent'
p859
asbag60
(g81
g62
NtRp860
(dp861
g65
(dp862
g92
g93
ssg74
g851
sg67
(lp863
S':'
asbag60
(g81
g62
NtRp864
(dp865
g65
(dp866
sg74
g851
sg67
(lp867
g60
(g61
g62
NtRp868
(dp869
g65
(dp870
g73
I4
ssg74
g864
sg67
(lp871
S'/Users/schultzc/Downloads/web2py'
p872
asbasbasbag60
(g76
g62
NtRp873
(dp874
g65
(dp875
sg74
g825
sg67
(lp876
g60
(g81
g62
NtRp877
(dp878
g65
(dp879
g85
g86
ssg74
g873
sg67
(lp880
S'cmd_args'
p881
asbag60
(g81
g62
NtRp882
(dp883
g65
(dp884
g92
g93
ssg74
g873
sg67
(lp885
S':'
asbag60
(g81
g62
NtRp886
(dp887
g65
(dp888
sg74
g873
sg67
(lp889
g60
(g61
g62
NtRp890
(dp891
g65
(dp892
g73
I4
ssg74
g886
sg67
(lp893
g60
(g69
g62
NtRp894
(dp895
g65
(dp896
g73
I3
ssg74
Nsg67
(lp897
sbasbasbasbag60
(g76
g62
NtRp898
(dp899
g65
(dp900
sg74
g825
sg67
(lp901
g60
(g81
g62
NtRp902
(dp903
g65
(dp904
g85
g86
ssg74
g898
sg67
(lp905
S'cmd_options'
p906
asbag60
(g81
g62
NtRp907
(dp908
g65
(dp909
g92
g93
ssg74
g898
sg67
(lp910
S':'
asbag60
(g81
g62
NtRp911
(dp912
g65
(dp913
sg74
g898
sg67
(lp914
g60
(g61
g62
NtRp915
(dp916
g65
(dp917
g73
I4
ssg74
g911
sg67
(lp918
S"<Values at 0x101b35dd0: {'verbose': False, 'ip': '127.0.0.1', 'shutdown_timeout': 5, 'taskbar': False, 'port': 8000, 'maxthreads': None, 'softcron': False, 'server_name': 'Magnus-Specialis.local', 'bpython': False, 'nogui': False, 'nocron': False, 'extcron': False, 'debuglevel': 30, 'test': None, 'folder': '/Users/schultzc/Downloads/web2py', 'config': '', 'import_models': False, 'winservice': '', 'shell': None, 'run': '', 'log_filename': 'httpserver.log', 'args': [''], 'profiler_filename': None, 'ssl_private_key': '', 'password': 'hello', 'request_queue_size': 5, 'ssl_certificate': '', 'cronjob': False, 'plain': False, 'quiet': False, 'interfaces': None, 'minthreads': None, 'timeout': 10, 'numthreads': None, 'nobanner': False, 'pid_filename': 'httpserver.pid'}>"
p919
asbasbasbag60
(g76
g62
NtRp920
(dp921
g65
(dp922
sg74
g825
sg67
(lp923
g60
(g81
g62
NtRp924
(dp925
g65
(dp926
g85
g86
ssg74
g920
sg67
(lp927
S'content_length'
p928
asbag60
(g81
g62
NtRp929
(dp930
g65
(dp931
g92
g93
ssg74
g920
sg67
(lp932
S':'
asbag60
(g81
g62
NtRp933
(dp934
g65
(dp935
sg74
g920
sg67
(lp936
g60
(g61
g62
NtRp937
(dp938
g65
(dp939
g73
I4
ssg74
g933
sg67
(lp940
S'36098'
p941
asbasbasbag60
(g76
g62
NtRp942
(dp943
g65
(dp944
sg74
g825
sg67
(lp945
g60
(g81
g62
NtRp946
(dp947
g65
(dp948
g85
g86
ssg74
g942
sg67
(lp949
S'content_type'
p950
asbag60
(g81
g62
NtRp951
(dp952
g65
(dp953
g92
g93
ssg74
g942
sg67
(lp954
S':'
asbag60
(g81
g62
NtRp955
(dp956
g65
(dp957
sg74
g942
sg67
(lp958
g60
(g61
g62
NtRp959
(dp960
g65
(dp961
g73
I4
ssg74
g955
sg67
(lp962
S'multipart/form-data; boundary=----WebKitFormBoundaryA0P2EKba1Yj9J2fA'
p963
asbasbasbag60
(g76
g62
NtRp964
(dp965
g65
(dp966
sg74
g825
sg67
(lp967
g60
(g81
g62
NtRp968
(dp969
g65
(dp970
g85
g86
ssg74
g964
sg67
(lp971
S'db_sessions'
p972
asbag60
(g81
g62
NtRp973
(dp974
g65
(dp975
g92
g93
ssg74
g964
sg67
(lp976
S':'
asbag60
(g81
g62
NtRp977
(dp978
g65
(dp979
sg74
g964
sg67
(lp980
g60
(g61
g62
NtRp981
(dp982
g65
(dp983
g73
I4
ssg74
g977
sg67
(lp984
S'set([])'
p985
asbasbasbag60
(g76
g62
NtRp986
(dp987
g65
(dp988
sg74
g825
sg67
(lp989
g60
(g81
g62
NtRp990
(dp991
g65
(dp992
g85
g86
ssg74
g986
sg67
(lp993
S'debugging'
p994
asbag60
(g81
g62
NtRp995
(dp996
g65
(dp997
g92
g93
ssg74
g986
sg67
(lp998
S':'
asbag60
(g81
g62
NtRp999
(dp1000
g65
(dp1001
sg74
g986
sg67
(lp1002
g60
(g61
g62
NtRp1003
(dp1004
g65
(dp1005
g73
I4
ssg74
g999
sg67
(lp1006
g103
asbasbasbag60
(g76
g62
NtRp1007
(dp1008
g65
(dp1009
sg74
g825
sg67
(lp1010
g60
(g81
g62
NtRp1011
(dp1012
g65
(dp1013
g85
g86
ssg74
g1007
sg67
(lp1014
S'gluon_parent'
p1015
asbag60
(g81
g62
NtRp1016
(dp1017
g65
(dp1018
g92
g93
ssg74
g1007
sg67
(lp1019
S':'
asbag60
(g81
g62
NtRp1020
(dp1021
g65
(dp1022
sg74
g1007
sg67
(lp1023
g60
(g61
g62
NtRp1024
(dp1025
g65
(dp1026
g73
I4
ssg74
g1020
sg67
(lp1027
S'/Users/schultzc/Downloads/web2py'
p1028
asbasbasbag60
(g76
g62
NtRp1029
(dp1030
g65
(dp1031
sg74
g825
sg67
(lp1032
g60
(g81
g62
NtRp1033
(dp1034
g65
(dp1035
g85
g86
ssg74
g1029
sg67
(lp1036
S'http_accept'
p1037
asbag60
(g81
g62
NtRp1038
(dp1039
g65
(dp1040
g92
g93
ssg74
g1029
sg67
(lp1041
S':'
asbag60
(g81
g62
NtRp1042
(dp1043
g65
(dp1044
sg74
g1029
sg67
(lp1045
g60
(g61
g62
NtRp1046
(dp1047
g65
(dp1048
g73
I4
ssg74
g1042
sg67
(lp1049
S'text/html,application/xhtml+xml,application/xml;q=0.9,*/*;q=0.8'
p1050
asbasbasbag60
(g76
g62
NtRp1051
(dp1052
g65
(dp1053
sg74
g825
sg67
(lp1054
g60
(g81
g62
NtRp1055
(dp1056
g65
(dp1057
g85
g86
ssg74
g1051
sg67
(lp1058
S'http_accept_charset'
p1059
asbag60
(g81
g62
NtRp1060
(dp1061
g65
(dp1062
g92
g93
ssg74
g1051
sg67
(lp1063
S':'
asbag60
(g81
g62
NtRp1064
(dp1065
g65
(dp1066
sg74
g1051
sg67
(lp1067
g60
(g61
g62
NtRp1068
(dp1069
g65
(dp1070
g73
I4
ssg74
g1064
sg67
(lp1071
S'ISO-8859-1,utf-8;q=0.7,*;q=0.3'
p1072
asbasbasbag60
(g76
g62
NtRp1073
(dp1074
g65
(dp1075
sg74
g825
sg67
(lp1076
g60
(g81
g62
NtRp1077
(dp1078
g65
(dp1079
g85
g86
ssg74
g1073
sg67
(lp1080
S'http_accept_encoding'
p1081
asbag60
(g81
g62
NtRp1082
(dp1083
g65
(dp1084
g92
g93
ssg74
g1073
sg67
(lp1085
S':'
asbag60
(g81
g62
NtRp1086
(dp1087
g65
(dp1088
sg74
g1073
sg67
(lp1089
g60
(g61
g62
NtRp1090
(dp1091
g65
(dp1092
g73
I4
ssg74
g1086
sg67
(lp1093
S'gzip,deflate,sdch'
p1094
asbasbasbag60
(g76
g62
NtRp1095
(dp1096
g65
(dp1097
sg74
g825
sg67
(lp1098
g60
(g81
g62
NtRp1099
(dp1100
g65
(dp1101
g85
g86
ssg74
g1095
sg67
(lp1102
S'http_accept_language'
p1103
asbag60
(g81
g62
NtRp1104
(dp1105
g65
(dp1106
g92
g93
ssg74
g1095
sg67
(lp1107
S':'
asbag60
(g81
g62
NtRp1108
(dp1109
g65
(dp1110
sg74
g1095
sg67
(lp1111
g60
(g61
g62
NtRp1112
(dp1113
g65
(dp1114
g73
I4
ssg74
g1108
sg67
(lp1115
S'en-US,en;q=0.8'
p1116
asbasbasbag60
(g76
g62
NtRp1117
(dp1118
g65
(dp1119
sg74
g825
sg67
(lp1120
g60
(g81
g62
NtRp1121
(dp1122
g65
(dp1123
g85
g86
ssg74
g1117
sg67
(lp1124
S'http_cache_control'
p1125
asbag60
(g81
g62
NtRp1126
(dp1127
g65
(dp1128
g92
g93
ssg74
g1117
sg67
(lp1129
S':'
asbag60
(g81
g62
NtRp1130
(dp1131
g65
(dp1132
sg74
g1117
sg67
(lp1133
g60
(g61
g62
NtRp1134
(dp1135
g65
(dp1136
g73
I4
ssg74
g1130
sg67
(lp1137
S'max-age=0'
p1138
asbasbasbag60
(g76
g62
NtRp1139
(dp1140
g65
(dp1141
sg74
g825
sg67
(lp1142
g60
(g81
g62
NtRp1143
(dp1144
g65
(dp1145
g85
g86
ssg74
g1139
sg67
(lp1146
S'http_connection'
p1147
asbag60
(g81
g62
NtRp1148
(dp1149
g65
(dp1150
g92
g93
ssg74
g1139
sg67
(lp1151
S':'
asbag60
(g81
g62
NtRp1152
(dp1153
g65
(dp1154
sg74
g1139
sg67
(lp1155
g60
(g61
g62
NtRp1156
(dp1157
g65
(dp1158
g73
I4
ssg74
g1152
sg67
(lp1159
S'keep-alive'
p1160
asbasbasbag60
(g76
g62
NtRp1161
(dp1162
g65
(dp1163
sg74
g825
sg67
(lp1164
g60
(g81
g62
NtRp1165
(dp1166
g65
(dp1167
g85
g86
ssg74
g1161
sg67
(lp1168
S'http_content_length'
p1169
asbag60
(g81
g62
NtRp1170
(dp1171
g65
(dp1172
g92
g93
ssg74
g1161
sg67
(lp1173
S':'
asbag60
(g81
g62
NtRp1174
(dp1175
g65
(dp1176
sg74
g1161
sg67
(lp1177
g60
(g61
g62
NtRp1178
(dp1179
g65
(dp1180
g73
I4
ssg74
g1174
sg67
(lp1181
g941
asbasbasbag60
(g76
g62
NtRp1182
(dp1183
g65
(dp1184
sg74
g825
sg67
(lp1185
g60
(g81
g62
NtRp1186
(dp1187
g65
(dp1188
g85
g86
ssg74
g1182
sg67
(lp1189
S'http_content_type'
p1190
asbag60
(g81
g62
NtRp1191
(dp1192
g65
(dp1193
g92
g93
ssg74
g1182
sg67
(lp1194
S':'
asbag60
(g81
g62
NtRp1195
(dp1196
g65
(dp1197
sg74
g1182
sg67
(lp1198
g60
(g61
g62
NtRp1199
(dp1200
g65
(dp1201
g73
I4
ssg74
g1195
sg67
(lp1202
g963
asbasbasbag60
(g76
g62
NtRp1203
(dp1204
g65
(dp1205
sg74
g825
sg67
(lp1206
g60
(g81
g62
NtRp1207
(dp1208
g65
(dp1209
g85
g86
ssg74
g1203
sg67
(lp1210
S'http_cookie'
p1211
asbag60
(g81
g62
NtRp1212
(dp1213
g65
(dp1214
g92
g93
ssg74
g1203
sg67
(lp1215
S':'
asbag60
(g81
g62
NtRp1216
(dp1217
g65
(dp1218
sg74
g1203
sg67
(lp1219
g60
(g61
g62
NtRp1220
(dp1221
g65
(dp1222
g73
I4
ssg74
g1216
sg67
(lp1223
S'session_id_imgblog=127.0.0.1-47eb0438-4550-4b28-adf1-4570dbd3e48c; session_id_wp=127.0.0.1-4ae5dea5-ff1f-4183-9dd8-91bc42c0702b; session_id_admin=127.0.0.1-d84d706a-6faf-4b19-be83-9afa4bfae8d8'
p1224
asbasbasbag60
(g76
g62
NtRp1225
(dp1226
g65
(dp1227
sg74
g825
sg67
(lp1228
g60
(g81
g62
NtRp1229
(dp1230
g65
(dp1231
g85
g86
ssg74
g1225
sg67
(lp1232
S'http_host'
p1233
asbag60
(g81
g62
NtRp1234
(dp1235
g65
(dp1236
g92
g93
ssg74
g1225
sg67
(lp1237
S':'
asbag60
(g81
g62
NtRp1238
(dp1239
g65
(dp1240
sg74
g1225
sg67
(lp1241
g60
(g61
g62
NtRp1242
(dp1243
g65
(dp1244
g73
I4
ssg74
g1238
sg67
(lp1245
S'localhost:8000'
p1246
asbasbasbag60
(g76
g62
NtRp1247
(dp1248
g65
(dp1249
sg74
g825
sg67
(lp1250
g60
(g81
g62
NtRp1251
(dp1252
g65
(dp1253
g85
g86
ssg74
g1247
sg67
(lp1254
S'http_origin'
p1255
asbag60
(g81
g62
NtRp1256
(dp1257
g65
(dp1258
g92
g93
ssg74
g1247
sg67
(lp1259
S':'
asbag60
(g81
g62
NtRp1260
(dp1261
g65
(dp1262
sg74
g1247
sg67
(lp1263
g60
(g61
g62
NtRp1264
(dp1265
g65
(dp1266
g73
I4
ssg74
g1260
sg67
(lp1267
S'http://localhost:8000'
p1268
asbasbasbag60
(g76
g62
NtRp1269
(dp1270
g65
(dp1271
sg74
g825
sg67
(lp1272
g60
(g81
g62
NtRp1273
(dp1274
g65
(dp1275
g85
g86
ssg74
g1269
sg67
(lp1276
S'http_referer'
p1277
asbag60
(g81
g62
NtRp1278
(dp1279
g65
(dp1280
g92
g93
ssg74
g1269
sg67
(lp1281
S':'
asbag60
(g81
g62
NtRp1282
(dp1283
g65
(dp1284
sg74
g1269
sg67
(lp1285
g60
(g61
g62
NtRp1286
(dp1287
g65
(dp1288
g73
I4
ssg74
g1282
sg67
(lp1289
S'http://localhost:8000/wp/default/submit'
p1290
asbasbasbag60
(g76
g62
NtRp1291
(dp1292
g65
(dp1293
sg74
g825
sg67
(lp1294
g60
(g81
g62
NtRp1295
(dp1296
g65
(dp1297
g85
g86
ssg74
g1291
sg67
(lp1298
S'http_user_agent'
p1299
asbag60
(g81
g62
NtRp1300
(dp1301
g65
(dp1302
g92
g93
ssg74
g1291
sg67
(lp1303
S':'
asbag60
(g81
g62
NtRp1304
(dp1305
g65
(dp1306
sg74
g1291
sg67
(lp1307
g60
(g61
g62
NtRp1308
(dp1309
g65
(dp1310
g73
I4
ssg74
g1304
sg67
(lp1311
S'Mozilla/5.0 (Macintosh; Intel Mac OS X 10_6_8) AppleWebKit/534.30 (KHTML, like Gecko) Chrome/12.0.742.122 Safari/534.30'
p1312
asbasbasbag60
(g76
g62
NtRp1313
(dp1314
g65
(dp1315
sg74
g825
sg67
(lp1316
g60
(g81
g62
NtRp1317
(dp1318
g65
(dp1319
g85
g86
ssg74
g1313
sg67
(lp1320
S'path_info'
p1321
asbag60
(g81
g62
NtRp1322
(dp1323
g65
(dp1324
g92
g93
ssg74
g1313
sg67
(lp1325
S':'
asbag60
(g81
g62
NtRp1326
(dp1327
g65
(dp1328
sg74
g1313
sg67
(lp1329
g60
(g61
g62
NtRp1330
(dp1331
g65
(dp1332
g73
I4
ssg74
g1326
sg67
(lp1333
S'/wp/default/submit'
p1334
asbasbasbag60
(g76
g62
NtRp1335
(dp1336
g65
(dp1337
sg74
g825
sg67
(lp1338
g60
(g81
g62
NtRp1339
(dp1340
g65
(dp1341
g85
g86
ssg74
g1335
sg67
(lp1342
S'query_string'
p1343
asbag60
(g81
g62
NtRp1344
(dp1345
g65
(dp1346
g92
g93
ssg74
g1335
sg67
(lp1347
S':'
asbag60
(g81
g62
NtRp1348
(dp1349
g65
(dp1350
sg74
g1335
sg67
(lp1351
g60
(g61
g62
NtRp1352
(dp1353
g65
(dp1354
g73
I4
ssg74
g1348
sg67
(lp1355
S''
asbasbasbag60
(g76
g62
NtRp1356
(dp1357
g65
(dp1358
sg74
g825
sg67
(lp1359
g60
(g81
g62
NtRp1360
(dp1361
g65
(dp1362
g85
g86
ssg74
g1356
sg67
(lp1363
S'remote_addr'
p1364
asbag60
(g81
g62
NtRp1365
(dp1366
g65
(dp1367
g92
g93
ssg74
g1356
sg67
(lp1368
S':'
asbag60
(g81
g62
NtRp1369
(dp1370
g65
(dp1371
sg74
g1356
sg67
(lp1372
g60
(g61
g62
NtRp1373
(dp1374
g65
(dp1375
g73
I4
ssg74
g1369
sg67
(lp1376
g193
asbasbasbag60
(g76
g62
NtRp1377
(dp1378
g65
(dp1379
sg74
g825
sg67
(lp1380
g60
(g81
g62
NtRp1381
(dp1382
g65
(dp1383
g85
g86
ssg74
g1377
sg67
(lp1384
S'remote_port'
p1385
asbag60
(g81
g62
NtRp1386
(dp1387
g65
(dp1388
g92
g93
ssg74
g1377
sg67
(lp1389
S':'
asbag60
(g81
g62
NtRp1390
(dp1391
g65
(dp1392
sg74
g1377
sg67
(lp1393
g60
(g61
g62
NtRp1394
(dp1395
g65
(dp1396
g73
I4
ssg74
g1390
sg67
(lp1397
S'50565'
p1398
asbasbasbag60
(g76
g62
NtRp1399
(dp1400
g65
(dp1401
sg74
g825
sg67
(lp1402
g60
(g81
g62
NtRp1403
(dp1404
g65
(dp1405
g85
g86
ssg74
g1399
sg67
(lp1406
S'request_method'
p1407
asbag60
(g81
g62
NtRp1408
(dp1409
g65
(dp1410
g92
g93
ssg74
g1399
sg67
(lp1411
S':'
asbag60
(g81
g62
NtRp1412
(dp1413
g65
(dp1414
sg74
g1399
sg67
(lp1415
g60
(g61
g62
NtRp1416
(dp1417
g65
(dp1418
g73
I4
ssg74
g1412
sg67
(lp1419
S'POST'
p1420
asbasbasbag60
(g76
g62
NtRp1421
(dp1422
g65
(dp1423
sg74
g825
sg67
(lp1424
g60
(g81
g62
NtRp1425
(dp1426
g65
(dp1427
g85
g86
ssg74
g1421
sg67
(lp1428
S'script_name'
p1429
asbag60
(g81
g62
NtRp1430
(dp1431
g65
(dp1432
g92
g93
ssg74
g1421
sg67
(lp1433
S':'
asbag60
(g81
g62
NtRp1434
(dp1435
g65
(dp1436
sg74
g1421
sg67
(lp1437
g60
(g61
g62
NtRp1438
(dp1439
g65
(dp1440
g73
I4
ssg74
g1434
sg67
(lp1441
S''
asbasbasbag60
(g76
g62
NtRp1442
(dp1443
g65
(dp1444
sg74
g825
sg67
(lp1445
g60
(g81
g62
NtRp1446
(dp1447
g65
(dp1448
g85
g86
ssg74
g1442
sg67
(lp1449
S'server_name'
p1450
asbag60
(g81
g62
NtRp1451
(dp1452
g65
(dp1453
g92
g93
ssg74
g1442
sg67
(lp1454
S':'
asbag60
(g81
g62
NtRp1455
(dp1456
g65
(dp1457
sg74
g1442
sg67
(lp1458
g60
(g61
g62
NtRp1459
(dp1460
g65
(dp1461
g73
I4
ssg74
g1455
sg67
(lp1462
S'Magnus-Specialis.local'
p1463
asbasbasbag60
(g76
g62
NtRp1464
(dp1465
g65
(dp1466
sg74
g825
sg67
(lp1467
g60
(g81
g62
NtRp1468
(dp1469
g65
(dp1470
g85
g86
ssg74
g1464
sg67
(lp1471
S'server_port'
p1472
asbag60
(g81
g62
NtRp1473
(dp1474
g65
(dp1475
g92
g93
ssg74
g1464
sg67
(lp1476
S':'
asbag60
(g81
g62
NtRp1477
(dp1478
g65
(dp1479
sg74
g1464
sg67
(lp1480
g60
(g61
g62
NtRp1481
(dp1482
g65
(dp1483
g73
I4
ssg74
g1477
sg67
(lp1484
S'8000'
p1485
asbasbasbag60
(g76
g62
NtRp1486
(dp1487
g65
(dp1488
sg74
g825
sg67
(lp1489
g60
(g81
g62
NtRp1490
(dp1491
g65
(dp1492
g85
g86
ssg74
g1486
sg67
(lp1493
S'server_protocol'
p1494
asbag60
(g81
g62
NtRp1495
(dp1496
g65
(dp1497
g92
g93
ssg74
g1486
sg67
(lp1498
S':'
asbag60
(g81
g62
NtRp1499
(dp1500
g65
(dp1501
sg74
g1486
sg67
(lp1502
g60
(g61
g62
NtRp1503
(dp1504
g65
(dp1505
g73
I4
ssg74
g1499
sg67
(lp1506
S'HTTP/1.1'
p1507
asbasbasbag60
(g76
g62
NtRp1508
(dp1509
g65
(dp1510
sg74
g825
sg67
(lp1511
g60
(g81
g62
NtRp1512
(dp1513
g65
(dp1514
g85
g86
ssg74
g1508
sg67
(lp1515
S'server_software'
p1516
asbag60
(g81
g62
NtRp1517
(dp1518
g65
(dp1519
g92
g93
ssg74
g1508
sg67
(lp1520
S':'
asbag60
(g81
g62
NtRp1521
(dp1522
g65
(dp1523
sg74
g1508
sg67
(lp1524
g60
(g61
g62
NtRp1525
(dp1526
g65
(dp1527
g73
I4
ssg74
g1521
sg67
(lp1528
S'Rocket 1.2.2'
p1529
asbasbasbag60
(g76
g62
NtRp1530
(dp1531
g65
(dp1532
sg74
g825
sg67
(lp1533
g60
(g81
g62
NtRp1534
(dp1535
g65
(dp1536
g85
g86
ssg74
g1530
sg67
(lp1537
S'web2py_crontype'
p1538
asbag60
(g81
g62
NtRp1539
(dp1540
g65
(dp1541
g92
g93
ssg74
g1530
sg67
(lp1542
S':'
asbag60
(g81
g62
NtRp1543
(dp1544
g65
(dp1545
sg74
g1530
sg67
(lp1546
g60
(g61
g62
NtRp1547
(dp1548
g65
(dp1549
g73
I4
ssg74
g1543
sg67
(lp1550
S'hard'
p1551
asbasbasbag60
(g76
g62
NtRp1552
(dp1553
g65
(dp1554
sg74
g825
sg67
(lp1555
g60
(g81
g62
NtRp1556
(dp1557
g65
(dp1558
g85
g86
ssg74
g1552
sg67
(lp1559
S'web2py_path'
p1560
asbag60
(g81
g62
NtRp1561
(dp1562
g65
(dp1563
g92
g93
ssg74
g1552
sg67
(lp1564
S':'
asbag60
(g81
g62
NtRp1565
(dp1566
g65
(dp1567
sg74
g1552
sg67
(lp1568
g60
(g61
g62
NtRp1569
(dp1570
g65
(dp1571
g73
I4
ssg74
g1565
sg67
(lp1572
g872
asbasbasbag60
(g76
g62
NtRp1573
(dp1574
g65
(dp1575
sg74
g825
sg67
(lp1576
g60
(g81
g62
NtRp1577
(dp1578
g65
(dp1579
g85
g86
ssg74
g1573
sg67
(lp1580
S'web2py_version'
p1581
asbag60
(g81
g62
NtRp1582
(dp1583
g65
(dp1584
g92
g93
ssg74
g1573
sg67
(lp1585
S':'
asbag60
(g81
g62
NtRp1586
(dp1587
g65
(dp1588
sg74
g1573
sg67
(lp1589
g60
(g61
g62
NtRp1590
(dp1591
g65
(dp1592
g73
I4
ssg74
g1586
sg67
(lp1593
S'Version 1.97.1 (2011-06-26 19:25:44)\n'
p1594
asbasbasbag60
(g76
g62
NtRp1595
(dp1596
g65
(dp1597
sg74
g825
sg67
(lp1598
g60
(g81
g62
NtRp1599
(dp1600
g65
(dp1601
g85
g86
ssg74
g1595
sg67
(lp1602
S'wsgi_errors'
p1603
asbag60
(g81
g62
NtRp1604
(dp1605
g65
(dp1606
g92
g93
ssg74
g1595
sg67
(lp1607
S':'
asbag60
(g81
g62
NtRp1608
(dp1609
g65
(dp1610
sg74
g1595
sg67
(lp1611
g60
(g61
g62
NtRp1612
(dp1613
g65
(dp1614
g73
I4
ssg74
g1608
sg67
(lp1615
S"<open file '<stderr>', mode 'w' at 0x100283270>"
p1616
asbasbasbag60
(g76
g62
NtRp1617
(dp1618
g65
(dp1619
sg74
g825
sg67
(lp1620
g60
(g81
g62
NtRp1621
(dp1622
g65
(dp1623
g85
g86
ssg74
g1617
sg67
(lp1624
S'wsgi_file_wrapper'
p1625
asbag60
(g81
g62
NtRp1626
(dp1627
g65
(dp1628
g92
g93
ssg74
g1617
sg67
(lp1629
S':'
asbag60
(g81
g62
NtRp1630
(dp1631
g65
(dp1632
sg74
g1617
sg67
(lp1633
g60
(g61
g62
NtRp1634
(dp1635
g65
(dp1636
g73
I4
ssg74
g1630
sg67
(lp1637
S'<class gluon.rocket.FileWrapper at 0x1019a02c0>'
p1638
asbasbasbag60
(g76
g62
NtRp1639
(dp1640
g65
(dp1641
sg74
g825
sg67
(lp1642
g60
(g81
g62
NtRp1643
(dp1644
g65
(dp1645
g85
g86
ssg74
g1639
sg67
(lp1646
S'wsgi_input'
p1647
asbag60
(g81
g62
NtRp1648
(dp1649
g65
(dp1650
g92
g93
ssg74
g1639
sg67
(lp1651
S':'
asbag60
(g81
g62
NtRp1652
(dp1653
g65
(dp1654
sg74
g1639
sg67
(lp1655
g60
(g61
g62
NtRp1656
(dp1657
g65
(dp1658
g73
I4
ssg74
g1652
sg67
(lp1659
S'<socket._fileobject object at 0x101b6d7d0>'
p1660
asbasbasbag60
(g76
g62
NtRp1661
(dp1662
g65
(dp1663
sg74
g825
sg67
(lp1664
g60
(g81
g62
NtRp1665
(dp1666
g65
(dp1667
g85
g86
ssg74
g1661
sg67
(lp1668
S'wsgi_multiprocess'
p1669
asbag60
(g81
g62
NtRp1670
(dp1671
g65
(dp1672
g92
g93
ssg74
g1661
sg67
(lp1673
S':'
asbag60
(g81
g62
NtRp1674
(dp1675
g65
(dp1676
sg74
g1661
sg67
(lp1677
g60
(g61
g62
NtRp1678
(dp1679
g65
(dp1680
g73
I4
ssg74
g1674
sg67
(lp1681
g103
asbasbasbag60
(g76
g62
NtRp1682
(dp1683
g65
(dp1684
sg74
g825
sg67
(lp1685
g60
(g81
g62
NtRp1686
(dp1687
g65
(dp1688
g85
g86
ssg74
g1682
sg67
(lp1689
S'wsgi_multithread'
p1690
asbag60
(g81
g62
NtRp1691
(dp1692
g65
(dp1693
g92
g93
ssg74
g1682
sg67
(lp1694
S':'
asbag60
(g81
g62
NtRp1695
(dp1696
g65
(dp1697
sg74
g1682
sg67
(lp1698
g60
(g61
g62
NtRp1699
(dp1700
g65
(dp1701
g73
I4
ssg74
g1695
sg67
(lp1702
S'True'
p1703
asbasbasbag60
(g76
g62
NtRp1704
(dp1705
g65
(dp1706
sg74
g825
sg67
(lp1707
g60
(g81
g62
NtRp1708
(dp1709
g65
(dp1710
g85
g86
ssg74
g1704
sg67
(lp1711
S'wsgi_run_once'
p1712
asbag60
(g81
g62
NtRp1713
(dp1714
g65
(dp1715
g92
g93
ssg74
g1704
sg67
(lp1716
S':'
asbag60
(g81
g62
NtRp1717
(dp1718
g65
(dp1719
sg74
g1704
sg67
(lp1720
g60
(g61
g62
NtRp1721
(dp1722
g65
(dp1723
g73
I4
ssg74
g1717
sg67
(lp1724
g103
asbasbasbag60
(g76
g62
NtRp1725
(dp1726
g65
(dp1727
sg74
g825
sg67
(lp1728
g60
(g81
g62
NtRp1729
(dp1730
g65
(dp1731
g85
g86
ssg74
g1725
sg67
(lp1732
S'wsgi_url_scheme'
p1733
asbag60
(g81
g62
NtRp1734
(dp1735
g65
(dp1736
g92
g93
ssg74
g1725
sg67
(lp1737
S':'
asbag60
(g81
g62
NtRp1738
(dp1739
g65
(dp1740
sg74
g1725
sg67
(lp1741
g60
(g61
g62
NtRp1742
(dp1743
g65
(dp1744
g73
I4
ssg74
g1738
sg67
(lp1745
S'http'
p1746
asbasbasbag60
(g76
g62
NtRp1747
(dp1748
g65
(dp1749
sg74
g825
sg67
(lp1750
g60
(g81
g62
NtRp1751
(dp1752
g65
(dp1753
g85
g86
ssg74
g1747
sg67
(lp1754
S'wsgi_version'
p1755
asbag60
(g81
g62
NtRp1756
(dp1757
g65
(dp1758
g92
g93
ssg74
g1747
sg67
(lp1759
S':'
asbag60
(g81
g62
NtRp1760
(dp1761
g65
(dp1762
sg74
g1747
sg67
(lp1763
g60
(g61
g62
NtRp1764
(dp1765
g65
(dp1766
g73
I4
ssg74
g1760
sg67
(lp1767
g60
(g69
g62
NtRp1768
(dp1769
g65
(dp1770
g73
I3
ssg74
Nsg67
(lp1771
g60
(g76
g62
NtRp1772
(dp1773
g65
(dp1774
sg74
g1768
sg67
(lp1775
g60
(g81
g62
NtRp1776
(dp1777
g65
(dp1778
sg74
g1772
sg67
(lp1779
g60
(g61
g62
NtRp1780
(dp1781
g65
(dp1782
g73
I3
ssg74
g1776
sg67
(lp1783
S'1'
asbasbasbag60
(g76
g62
NtRp1784
(dp1785
g65
(dp1786
sg74
g1768
sg67
(lp1787
g60
(g81
g62
NtRp1788
(dp1789
g65
(dp1790
sg74
g1784
sg67
(lp1791
g60
(g61
g62
NtRp1792
(dp1793
g65
(dp1794
g73
I3
ssg74
g1788
sg67
(lp1795
S'0'
asbasbasbasbasbasbasbasbasbasbasbag60
(g76
g62
NtRp1796
(dp1797
g65
(dp1798
sg74
g70
sg67
(lp1799
g60
(g81
g62
NtRp1800
(dp1801
g65
(dp1802
g85
g86
ssg74
g1796
sg67
(lp1803
S'extension'
p1804
asbag60
(g81
g62
NtRp1805
(dp1806
g65
(dp1807
g92
g93
ssg74
g1796
sg67
(lp1808
S':'
asbag60
(g81
g62
NtRp1809
(dp1810
g65
(dp1811
sg74
g1796
sg67
(lp1812
g60
(g61
g62
NtRp1813
(dp1814
g65
(dp1815
g73
I5
ssg74
g1809
sg67
(lp1816
S'html'
p1817
asbasbasbag60
(g76
g62
NtRp1818
(dp1819
g65
(dp1820
sg74
g70
sg67
(lp1821
g60
(g81
g62
NtRp1822
(dp1823
g65
(dp1824
g85
g86
ssg74
g1818
sg67
(lp1825
S'folder'
p1826
asbag60
(g81
g62
NtRp1827
(dp1828
g65
(dp1829
g92
g93
ssg74
g1818
sg67
(lp1830
S':'
asbag60
(g81
g62
NtRp1831
(dp1832
g65
(dp1833
sg74
g1818
sg67
(lp1834
g60
(g61
g62
NtRp1835
(dp1836
g65
(dp1837
g73
I5
ssg74
g1831
sg67
(lp1838
S'/Users/schultzc/Downloads/web2py/applications/wp/'
p1839
asbasbasbag60
(g76
g62
NtRp1840
(dp1841
g65
(dp1842
sg74
g70
sg67
(lp1843
g60
(g81
g62
NtRp1844
(dp1845
g65
(dp1846
g85
g86
ssg74
g1840
sg67
(lp1847
S'function'
p1848
asbag60
(g81
g62
NtRp1849
(dp1850
g65
(dp1851
g92
g93
ssg74
g1840
sg67
(lp1852
S':'
asbag60
(g81
g62
NtRp1853
(dp1854
g65
(dp1855
sg74
g1840
sg67
(lp1856
g60
(g61
g62
NtRp1857
(dp1858
g65
(dp1859
g73
I5
ssg74
g1853
sg67
(lp1860
S'submit'
p1861
asbasbasbag60
(g76
g62
NtRp1862
(dp1863
g65
(dp1864
sg74
g70
sg67
(lp1865
g60
(g81
g62
NtRp1866
(dp1867
g65
(dp1868
g85
g86
ssg74
g1862
sg67
(lp1869
S'get_vars'
p1870
asbag60
(g81
g62
NtRp1871
(dp1872
g65
(dp1873
g92
g93
ssg74
g1862
sg67
(lp1874
S':'
asbag60
(g81
g62
NtRp1875
(dp1876
g65
(dp1877
sg74
g1862
sg67
(lp1878
g60
(g61
g62
NtRp1879
(dp1880
g65
(dp1881
g73
I5
ssg74
g1875
sg67
(lp1882
g60
(g69
g62
NtRp1883
(dp1884
g65
(dp1885
g73
I4
ssg74
Nsg67
(lp1886
sbasbasbasbag60
(g76
g62
NtRp1887
(dp1888
g65
(dp1889
sg74
g70
sg67
(lp1890
g60
(g81
g62
NtRp1891
(dp1892
g65
(dp1893
g85
g86
ssg74
g1887
sg67
(lp1894
S'is_https'
p1895
asbag60
(g81
g62
NtRp1896
(dp1897
g65
(dp1898
g92
g93
ssg74
g1887
sg67
(lp1899
S':'
asbag60
(g81
g62
NtRp1900
(dp1901
g65
(dp1902
sg74
g1887
sg67
(lp1903
g60
(g61
g62
NtRp1904
(dp1905
g65
(dp1906
g73
I5
ssg74
g1900
sg67
(lp1907
g103
asbasbasbag60
(g76
g62
NtRp1908
(dp1909
g65
(dp1910
sg74
g70
sg67
(lp1911
g60
(g81
g62
NtRp1912
(dp1913
g65
(dp1914
g85
g86
ssg74
g1908
sg67
(lp1915
S'is_local'
p1916
asbag60
(g81
g62
NtRp1917
(dp1918
g65
(dp1919
g92
g93
ssg74
g1908
sg67
(lp1920
S':'
asbag60
(g81
g62
NtRp1921
(dp1922
g65
(dp1923
sg74
g1908
sg67
(lp1924
g60
(g61
g62
NtRp1925
(dp1926
g65
(dp1927
g73
I5
ssg74
g1921
sg67
(lp1928
g1703
asbasbasbag60
(g76
g62
NtRp1929
(dp1930
g65
(dp1931
sg74
g70
sg67
(lp1932
g60
(g81
g62
NtRp1933
(dp1934
g65
(dp1935
g85
g86
ssg74
g1929
sg67
(lp1936
S'is_restful'
p1937
asbag60
(g81
g62
NtRp1938
(dp1939
g65
(dp1940
g92
g93
ssg74
g1929
sg67
(lp1941
S':'
asbag60
(g81
g62
NtRp1942
(dp1943
g65
(dp1944
sg74
g1929
sg67
(lp1945
g60
(g61
g62
NtRp1946
(dp1947
g65
(dp1948
g73
I5
ssg74
g1942
sg67
(lp1949
g103
asbasbasbag60
(g76
g62
NtRp1950
(dp1951
g65
(dp1952
sg74
g70
sg67
(lp1953
g60
(g81
g62
NtRp1954
(dp1955
g65
(dp1956
g85
g86
ssg74
g1950
sg67
(lp1957
S'now'
p1958
asbag60
(g81
g62
NtRp1959
(dp1960
g65
(dp1961
g92
g93
ssg74
g1950
sg67
(lp1962
S':'
asbag60
(g81
g62
NtRp1963
(dp1964
g65
(dp1965
sg74
g1950
sg67
(lp1966
g60
(g61
g62
NtRp1967
(dp1968
g65
(dp1969
g73
I5
ssg74
g1963
sg67
(lp1970
S'datetime.datetime(2011, 7, 16, 3, 39, 45, 431340)'
p1971
asbasbasbag60
(g76
g62
NtRp1972
(dp1973
g65
(dp1974
sg74
g70
sg67
(lp1975
g60
(g81
g62
NtRp1976
(dp1977
g65
(dp1978
g85
g86
ssg74
g1972
sg67
(lp1979
S'post_vars'
p1980
asbag60
(g81
g62
NtRp1981
(dp1982
g65
(dp1983
g92
g93
ssg74
g1972
sg67
(lp1984
S':'
asbag60
(g81
g62
NtRp1985
(dp1986
g65
(dp1987
sg74
g1972
sg67
(lp1988
g60
(g61
g62
NtRp1989
(dp1990
g65
(dp1991
g73
I5
ssg74
g1985
sg67
(lp1992
g60
(g69
g62
NtRp1993
(dp1994
g65
(dp1995
g73
I4
ssg74
Nsg67
(lp1996
g60
(g76
g62
NtRp1997
(dp1998
g65
(dp1999
sg74
g1993
sg67
(lp2000
g60
(g81
g62
NtRp2001
(dp2002
g65
(dp2003
g85
g86
ssg74
g1997
sg67
(lp2004
S'file'
p2005
asbag60
(g81
g62
NtRp2006
(dp2007
g65
(dp2008
g92
g93
ssg74
g1997
sg67
(lp2009
S':'
asbag60
(g81
g62
NtRp2010
(dp2011
g65
(dp2012
sg74
g1997
sg67
(lp2013
g60
(g61
g62
NtRp2014
(dp2015
g65
(dp2016
g73
I4
ssg74
g2010
sg67
(lp2017
S'FieldStorage object'
p2018
asbasbasbag60
(g76
g62
NtRp2019
(dp2020
g65
(dp2021
sg74
g1993
sg67
(lp2022
g60
(g81
g62
NtRp2023
(dp2024
g65
(dp2025
g85
g86
ssg74
g2019
sg67
(lp2026
S'handle'
p2027
asbag60
(g81
g62
NtRp2028
(dp2029
g65
(dp2030
g92
g93
ssg74
g2019
sg67
(lp2031
S':'
asbag60
(g81
g62
NtRp2032
(dp2033
g65
(dp2034
sg74
g2019
sg67
(lp2035
g60
(g61
g62
NtRp2036
(dp2037
g65
(dp2038
g73
I4
ssg74
g2032
sg67
(lp2039
S'adsf'
p2040
asbasbasbag60
(g76
g62
NtRp2041
(dp2042
g65
(dp2043
sg74
g1993
sg67
(lp2044
g60
(g81
g62
NtRp2045
(dp2046
g65
(dp2047
g85
g86
ssg74
g2041
sg67
(lp2048
S'location'
p2049
asbag60
(g81
g62
NtRp2050
(dp2051
g65
(dp2052
g92
g93
ssg74
g2041
sg67
(lp2053
S':'
asbag60
(g81
g62
NtRp2054
(dp2055
g65
(dp2056
sg74
g2041
sg67
(lp2057
g60
(g61
g62
NtRp2058
(dp2059
g65
(dp2060
g73
I4
ssg74
g2054
sg67
(lp2061
S'asdf'
p2062
asbasbasbag60
(g76
g62
NtRp2063
(dp2064
g65
(dp2065
sg74
g1993
sg67
(lp2066
g60
(g81
g62
NtRp2067
(dp2068
g65
(dp2069
g85
g86
ssg74
g2063
sg67
(lp2070
S'title'
p2071
asbag60
(g81
g62
NtRp2072
(dp2073
g65
(dp2074
g92
g93
ssg74
g2063
sg67
(lp2075
S':'
asbag60
(g81
g62
NtRp2076
(dp2077
g65
(dp2078
sg74
g2063
sg67
(lp2079
g60
(g61
g62
NtRp2080
(dp2081
g65
(dp2082
g73
I4
ssg74
g2076
sg67
(lp2083
S'adsf'
p2084
asbasbasbasbasbasbasbag60
(g76
g62
NtRp2085
(dp2086
g65
(dp2087
sg74
g70
sg67
(lp2088
g60
(g81
g62
NtRp2089
(dp2090
g65
(dp2091
g85
g86
ssg74
g2085
sg67
(lp2092
S'url'
p2093
asbag60
(g81
g62
NtRp2094
(dp2095
g65
(dp2096
g92
g93
ssg74
g2085
sg67
(lp2097
S':'
asbag60
(g81
g62
NtRp2098
(dp2099
g65
(dp2100
sg74
g2085
sg67
(lp2101
g60
(g61
g62
NtRp2102
(dp2103
g65
(dp2104
g73
I5
ssg74
g2098
sg67
(lp2105
S'/wp/default/submit'
p2106
asbasbasbag60
(g76
g62
NtRp2107
(dp2108
g65
(dp2109
sg74
g70
sg67
(lp2110
g60
(g81
g62
NtRp2111
(dp2112
g65
(dp2113
g85
g86
ssg74
g2107
sg67
(lp2114
S'uuid'
p2115
asbag60
(g81
g62
NtRp2116
(dp2117
g65
(dp2118
g92
g93
ssg74
g2107
sg67
(lp2119
S':'
asbag60
(g81
g62
NtRp2120
(dp2121
g65
(dp2122
sg74
g2107
sg67
(lp2123
g60
(g61
g62
NtRp2124
(dp2125
g65
(dp2126
g73
I5
ssg74
g2120
sg67
(lp2127
S'wp/127.0.0.1.2011-07-16.03-39-45.d88e26d5-89da-4a7c-96f4-6e70614fa9d3'
p2128
asbasbasbag60
(g76
g62
NtRp2129
(dp2130
g65
(dp2131
sg74
g70
sg67
(lp2132
g60
(g81
g62
NtRp2133
(dp2134
g65
(dp2135
g85
g86
ssg74
g2129
sg67
(lp2136
S'vars'
p2137
asbag60
(g81
g62
NtRp2138
(dp2139
g65
(dp2140
g92
g93
ssg74
g2129
sg67
(lp2141
S':'
asbag60
(g81
g62
NtRp2142
(dp2143
g65
(dp2144
sg74
g2129
sg67
(lp2145
g60
(g61
g62
NtRp2146
(dp2147
g65
(dp2148
g73
I5
ssg74
g2142
sg67
(lp2149
g60
(g69
g62
NtRp2150
(dp2151
g65
(dp2152
g73
I4
ssg74
Nsg67
(lp2153
g60
(g76
g62
NtRp2154
(dp2155
g65
(dp2156
sg74
g2150
sg67
(lp2157
g60
(g81
g62
NtRp2158
(dp2159
g65
(dp2160
g85
g86
ssg74
g2154
sg67
(lp2161
g2005
asbag60
(g81
g62
NtRp2162
(dp2163
g65
(dp2164
g92
g93
ssg74
g2154
sg67
(lp2165
S':'
asbag60
(g81
g62
NtRp2166
(dp2167
g65
(dp2168
sg74
g2154
sg67
(lp2169
g60
(g61
g62
NtRp2170
(dp2171
g65
(dp2172
g73
I4
ssg74
g2166
sg67
(lp2173
g2018
asbasbasbag60
(g76
g62
NtRp2174
(dp2175
g65
(dp2176
sg74
g2150
sg67
(lp2177
g60
(g81
g62
NtRp2178
(dp2179
g65
(dp2180
g85
g86
ssg74
g2174
sg67
(lp2181
g2027
asbag60
(g81
g62
NtRp2182
(dp2183
g65
(dp2184
g92
g93
ssg74
g2174
sg67
(lp2185
S':'
asbag60
(g81
g62
NtRp2186
(dp2187
g65
(dp2188
sg74
g2174
sg67
(lp2189
g60
(g61
g62
NtRp2190
(dp2191
g65
(dp2192
g73
I4
ssg74
g2186
sg67
(lp2193
g2040
asbasbasbag60
(g76
g62
NtRp2194
(dp2195
g65
(dp2196
sg74
g2150
sg67
(lp2197
g60
(g81
g62
NtRp2198
(dp2199
g65
(dp2200
g85
g86
ssg74
g2194
sg67
(lp2201
g2049
asbag60
(g81
g62
NtRp2202
(dp2203
g65
(dp2204
g92
g93
ssg74
g2194
sg67
(lp2205
S':'
asbag60
(g81
g62
NtRp2206
(dp2207
g65
(dp2208
sg74
g2194
sg67
(lp2209
g60
(g61
g62
NtRp2210
(dp2211
g65
(dp2212
g73
I4
ssg74
g2206
sg67
(lp2213
g2062
asbasbasbag60
(g76
g62
NtRp2214
(dp2215
g65
(dp2216
sg74
g2150
sg67
(lp2217
g60
(g81
g62
NtRp2218
(dp2219
g65
(dp2220
g85
g86
ssg74
g2214
sg67
(lp2221
g2071
asbag60
(g81
g62
NtRp2222
(dp2223
g65
(dp2224
g92
g93
ssg74
g2214
sg67
(lp2225
S':'
asbag60
(g81
g62
NtRp2226
(dp2227
g65
(dp2228
sg74
g2214
sg67
(lp2229
g60
(g61
g62
NtRp2230
(dp2231
g65
(dp2232
g73
I4
ssg74
g2226
sg67
(lp2233
g2084
asbasbasbasbasbasbasbag60
(g76
g62
NtRp2234
(dp2235
g65
(dp2236
sg74
g70
sg67
(lp2237
g60
(g81
g62
NtRp2238
(dp2239
g65
(dp2240
g85
g86
ssg74
g2234
sg67
(lp2241
S'wsgi'
p2242
asbag60
(g81
g62
NtRp2243
(dp2244
g65
(dp2245
g92
g93
ssg74
g2234
sg67
(lp2246
S':'
asbag60
(g81
g62
NtRp2247
(dp2248
g65
(dp2249
sg74
g2234
sg67
(lp2250
g60
(g61
g62
NtRp2251
(dp2252
g65
(dp2253
g73
I5
ssg74
g2247
sg67
(lp2254
g60
(g69
g62
NtRp2255
(dp2256
g65
(dp2257
g73
I4
ssg74
Nsg67
(lp2258
g60
(g76
g62
NtRp2259
(dp2260
g65
(dp2261
sg74
g2255
sg67
(lp2262
g60
(g81
g62
NtRp2263
(dp2264
g65
(dp2265
g85
g86
ssg74
g2259
sg67
(lp2266
S'environ'
p2267
asbag60
(g81
g62
NtRp2268
(dp2269
g65
(dp2270
g92
g93
ssg74
g2259
sg67
(lp2271
S':'
asbag60
(g81
g62
NtRp2272
(dp2273
g65
(dp2274
sg74
g2259
sg67
(lp2275
g60
(g61
g62
NtRp2276
(dp2277
g65
(dp2278
g73
I4
ssg74
g2272
sg67
(lp2279
g60
(g69
g62
NtRp2280
(dp2281
g65
(dp2282
g73
I3
ssg74
Nsg67
(lp2283
g60
(g76
g62
NtRp2284
(dp2285
g65
(dp2286
sg74
g2280
sg67
(lp2287
g60
(g81
g62
NtRp2288
(dp2289
g65
(dp2290
g85
g86
ssg74
g2284
sg67
(lp2291
S'CONTENT_LENGTH'
p2292
asbag60
(g81
g62
NtRp2293
(dp2294
g65
(dp2295
g92
g93
ssg74
g2284
sg67
(lp2296
S':'
asbag60
(g81
g62
NtRp2297
(dp2298
g65
(dp2299
sg74
g2284
sg67
(lp2300
g60
(g61
g62
NtRp2301
(dp2302
g65
(dp2303
g73
I3
ssg74
g2297
sg67
(lp2304
g941
asbasbasbag60
(g76
g62
NtRp2305
(dp2306
g65
(dp2307
sg74
g2280
sg67
(lp2308
g60
(g81
g62
NtRp2309
(dp2310
g65
(dp2311
g85
g86
ssg74
g2305
sg67
(lp2312
S'CONTENT_TYPE'
p2313
asbag60
(g81
g62
NtRp2314
(dp2315
g65
(dp2316
g92
g93
ssg74
g2305
sg67
(lp2317
S':'
asbag60
(g81
g62
NtRp2318
(dp2319
g65
(dp2320
sg74
g2305
sg67
(lp2321
g60
(g61
g62
NtRp2322
(dp2323
g65
(dp2324
g73
I3
ssg74
g2318
sg67
(lp2325
g963
asbasbasbag60
(g76
g62
NtRp2326
(dp2327
g65
(dp2328
sg74
g2280
sg67
(lp2329
g60
(g81
g62
NtRp2330
(dp2331
g65
(dp2332
g85
g86
ssg74
g2326
sg67
(lp2333
S'HTTP_ACCEPT'
p2334
asbag60
(g81
g62
NtRp2335
(dp2336
g65
(dp2337
g92
g93
ssg74
g2326
sg67
(lp2338
S':'
asbag60
(g81
g62
NtRp2339
(dp2340
g65
(dp2341
sg74
g2326
sg67
(lp2342
g60
(g61
g62
NtRp2343
(dp2344
g65
(dp2345
g73
I3
ssg74
g2339
sg67
(lp2346
g1050
asbasbasbag60
(g76
g62
NtRp2347
(dp2348
g65
(dp2349
sg74
g2280
sg67
(lp2350
g60
(g81
g62
NtRp2351
(dp2352
g65
(dp2353
g85
g86
ssg74
g2347
sg67
(lp2354
S'HTTP_ACCEPT_CHARSET'
p2355
asbag60
(g81
g62
NtRp2356
(dp2357
g65
(dp2358
g92
g93
ssg74
g2347
sg67
(lp2359
S':'
asbag60
(g81
g62
NtRp2360
(dp2361
g65
(dp2362
sg74
g2347
sg67
(lp2363
g60
(g61
g62
NtRp2364
(dp2365
g65
(dp2366
g73
I3
ssg74
g2360
sg67
(lp2367
g1072
asbasbasbag60
(g76
g62
NtRp2368
(dp2369
g65
(dp2370
sg74
g2280
sg67
(lp2371
g60
(g81
g62
NtRp2372
(dp2373
g65
(dp2374
g85
g86
ssg74
g2368
sg67
(lp2375
S'HTTP_ACCEPT_ENCODING'
p2376
asbag60
(g81
g62
NtRp2377
(dp2378
g65
(dp2379
g92
g93
ssg74
g2368
sg67
(lp2380
S':'
asbag60
(g81
g62
NtRp2381
(dp2382
g65
(dp2383
sg74
g2368
sg67
(lp2384
g60
(g61
g62
NtRp2385
(dp2386
g65
(dp2387
g73
I3
ssg74
g2381
sg67
(lp2388
g1094
asbasbasbag60
(g76
g62
NtRp2389
(dp2390
g65
(dp2391
sg74
g2280
sg67
(lp2392
g60
(g81
g62
NtRp2393
(dp2394
g65
(dp2395
g85
g86
ssg74
g2389
sg67
(lp2396
S'HTTP_ACCEPT_LANGUAGE'
p2397
asbag60
(g81
g62
NtRp2398
(dp2399
g65
(dp2400
g92
g93
ssg74
g2389
sg67
(lp2401
S':'
asbag60
(g81
g62
NtRp2402
(dp2403
g65
(dp2404
sg74
g2389
sg67
(lp2405
g60
(g61
g62
NtRp2406
(dp2407
g65
(dp2408
g73
I3
ssg74
g2402
sg67
(lp2409
g1116
asbasbasbag60
(g76
g62
NtRp2410
(dp2411
g65
(dp2412
sg74
g2280
sg67
(lp2413
g60
(g81
g62
NtRp2414
(dp2415
g65
(dp2416
g85
g86
ssg74
g2410
sg67
(lp2417
S'HTTP_CACHE_CONTROL'
p2418
asbag60
(g81
g62
NtRp2419
(dp2420
g65
(dp2421
g92
g93
ssg74
g2410
sg67
(lp2422
S':'
asbag60
(g81
g62
NtRp2423
(dp2424
g65
(dp2425
sg74
g2410
sg67
(lp2426
g60
(g61
g62
NtRp2427
(dp2428
g65
(dp2429
g73
I3
ssg74
g2423
sg67
(lp2430
g1138
asbasbasbag60
(g76
g62
NtRp2431
(dp2432
g65
(dp2433
sg74
g2280
sg67
(lp2434
g60
(g81
g62
NtRp2435
(dp2436
g65
(dp2437
g85
g86
ssg74
g2431
sg67
(lp2438
S'HTTP_CONNECTION'
p2439
asbag60
(g81
g62
NtRp2440
(dp2441
g65
(dp2442
g92
g93
ssg74
g2431
sg67
(lp2443
S':'
asbag60
(g81
g62
NtRp2444
(dp2445
g65
(dp2446
sg74
g2431
sg67
(lp2447
g60
(g61
g62
NtRp2448
(dp2449
g65
(dp2450
g73
I3
ssg74
g2444
sg67
(lp2451
g1160
asbasbasbag60
(g76
g62
NtRp2452
(dp2453
g65
(dp2454
sg74
g2280
sg67
(lp2455
g60
(g81
g62
NtRp2456
(dp2457
g65
(dp2458
g85
g86
ssg74
g2452
sg67
(lp2459
S'HTTP_CONTENT_LENGTH'
p2460
asbag60
(g81
g62
NtRp2461
(dp2462
g65
(dp2463
g92
g93
ssg74
g2452
sg67
(lp2464
S':'
asbag60
(g81
g62
NtRp2465
(dp2466
g65
(dp2467
sg74
g2452
sg67
(lp2468
g60
(g61
g62
NtRp2469
(dp2470
g65
(dp2471
g73
I3
ssg74
g2465
sg67
(lp2472
g941
asbasbasbag60
(g76
g62
NtRp2473
(dp2474
g65
(dp2475
sg74
g2280
sg67
(lp2476
g60
(g81
g62
NtRp2477
(dp2478
g65
(dp2479
g85
g86
ssg74
g2473
sg67
(lp2480
S'HTTP_CONTENT_TYPE'
p2481
asbag60
(g81
g62
NtRp2482
(dp2483
g65
(dp2484
g92
g93
ssg74
g2473
sg67
(lp2485
S':'
asbag60
(g81
g62
NtRp2486
(dp2487
g65
(dp2488
sg74
g2473
sg67
(lp2489
g60
(g61
g62
NtRp2490
(dp2491
g65
(dp2492
g73
I3
ssg74
g2486
sg67
(lp2493
g963
asbasbasbag60
(g76
g62
NtRp2494
(dp2495
g65
(dp2496
sg74
g2280
sg67
(lp2497
g60
(g81
g62
NtRp2498
(dp2499
g65
(dp2500
g85
g86
ssg74
g2494
sg67
(lp2501
S'HTTP_COOKIE'
p2502
asbag60
(g81
g62
NtRp2503
(dp2504
g65
(dp2505
g92
g93
ssg74
g2494
sg67
(lp2506
S':'
asbag60
(g81
g62
NtRp2507
(dp2508
g65
(dp2509
sg74
g2494
sg67
(lp2510
g60
(g61
g62
NtRp2511
(dp2512
g65
(dp2513
g73
I3
ssg74
g2507
sg67
(lp2514
g1224
asbasbasbag60
(g76
g62
NtRp2515
(dp2516
g65
(dp2517
sg74
g2280
sg67
(lp2518
g60
(g81
g62
NtRp2519
(dp2520
g65
(dp2521
g85
g86
ssg74
g2515
sg67
(lp2522
S'HTTP_HOST'
p2523
asbag60
(g81
g62
NtRp2524
(dp2525
g65
(dp2526
g92
g93
ssg74
g2515
sg67
(lp2527
S':'
asbag60
(g81
g62
NtRp2528
(dp2529
g65
(dp2530
sg74
g2515
sg67
(lp2531
g60
(g61
g62
NtRp2532
(dp2533
g65
(dp2534
g73
I3
ssg74
g2528
sg67
(lp2535
g1246
asbasbasbag60
(g76
g62
NtRp2536
(dp2537
g65
(dp2538
sg74
g2280
sg67
(lp2539
g60
(g81
g62
NtRp2540
(dp2541
g65
(dp2542
g85
g86
ssg74
g2536
sg67
(lp2543
S'HTTP_ORIGIN'
p2544
asbag60
(g81
g62
NtRp2545
(dp2546
g65
(dp2547
g92
g93
ssg74
g2536
sg67
(lp2548
S':'
asbag60
(g81
g62
NtRp2549
(dp2550
g65
(dp2551
sg74
g2536
sg67
(lp2552
g60
(g61
g62
NtRp2553
(dp2554
g65
(dp2555
g73
I3
ssg74
g2549
sg67
(lp2556
g1268
asbasbasbag60
(g76
g62
NtRp2557
(dp2558
g65
(dp2559
sg74
g2280
sg67
(lp2560
g60
(g81
g62
NtRp2561
(dp2562
g65
(dp2563
g85
g86
ssg74
g2557
sg67
(lp2564
S'HTTP_REFERER'
p2565
asbag60
(g81
g62
NtRp2566
(dp2567
g65
(dp2568
g92
g93
ssg74
g2557
sg67
(lp2569
S':'
asbag60
(g81
g62
NtRp2570
(dp2571
g65
(dp2572
sg74
g2557
sg67
(lp2573
g60
(g61
g62
NtRp2574
(dp2575
g65
(dp2576
g73
I3
ssg74
g2570
sg67
(lp2577
g1290
asbasbasbag60
(g76
g62
NtRp2578
(dp2579
g65
(dp2580
sg74
g2280
sg67
(lp2581
g60
(g81
g62
NtRp2582
(dp2583
g65
(dp2584
g85
g86
ssg74
g2578
sg67
(lp2585
S'HTTP_USER_AGENT'
p2586
asbag60
(g81
g62
NtRp2587
(dp2588
g65
(dp2589
g92
g93
ssg74
g2578
sg67
(lp2590
S':'
asbag60
(g81
g62
NtRp2591
(dp2592
g65
(dp2593
sg74
g2578
sg67
(lp2594
g60
(g61
g62
NtRp2595
(dp2596
g65
(dp2597
g73
I3
ssg74
g2591
sg67
(lp2598
g1312
asbasbasbag60
(g76
g62
NtRp2599
(dp2600
g65
(dp2601
sg74
g2280
sg67
(lp2602
g60
(g81
g62
NtRp2603
(dp2604
g65
(dp2605
g85
g86
ssg74
g2599
sg67
(lp2606
S'PATH_INFO'
p2607
asbag60
(g81
g62
NtRp2608
(dp2609
g65
(dp2610
g92
g93
ssg74
g2599
sg67
(lp2611
S':'
asbag60
(g81
g62
NtRp2612
(dp2613
g65
(dp2614
sg74
g2599
sg67
(lp2615
g60
(g61
g62
NtRp2616
(dp2617
g65
(dp2618
g73
I3
ssg74
g2612
sg67
(lp2619
g1334
asbasbasbag60
(g76
g62
NtRp2620
(dp2621
g65
(dp2622
sg74
g2280
sg67
(lp2623
g60
(g81
g62
NtRp2624
(dp2625
g65
(dp2626
g85
g86
ssg74
g2620
sg67
(lp2627
S'QUERY_STRING'
p2628
asbag60
(g81
g62
NtRp2629
(dp2630
g65
(dp2631
g92
g93
ssg74
g2620
sg67
(lp2632
S':'
asbag60
(g81
g62
NtRp2633
(dp2634
g65
(dp2635
sg74
g2620
sg67
(lp2636
g60
(g61
g62
NtRp2637
(dp2638
g65
(dp2639
g73
I3
ssg74
g2633
sg67
(lp2640
S''
asbasbasbag60
(g76
g62
NtRp2641
(dp2642
g65
(dp2643
sg74
g2280
sg67
(lp2644
g60
(g81
g62
NtRp2645
(dp2646
g65
(dp2647
g85
g86
ssg74
g2641
sg67
(lp2648
S'REMOTE_ADDR'
p2649
asbag60
(g81
g62
NtRp2650
(dp2651
g65
(dp2652
g92
g93
ssg74
g2641
sg67
(lp2653
S':'
asbag60
(g81
g62
NtRp2654
(dp2655
g65
(dp2656
sg74
g2641
sg67
(lp2657
g60
(g61
g62
NtRp2658
(dp2659
g65
(dp2660
g73
I3
ssg74
g2654
sg67
(lp2661
g193
asbasbasbag60
(g76
g62
NtRp2662
(dp2663
g65
(dp2664
sg74
g2280
sg67
(lp2665
g60
(g81
g62
NtRp2666
(dp2667
g65
(dp2668
g85
g86
ssg74
g2662
sg67
(lp2669
S'REMOTE_PORT'
p2670
asbag60
(g81
g62
NtRp2671
(dp2672
g65
(dp2673
g92
g93
ssg74
g2662
sg67
(lp2674
S':'
asbag60
(g81
g62
NtRp2675
(dp2676
g65
(dp2677
sg74
g2662
sg67
(lp2678
g60
(g61
g62
NtRp2679
(dp2680
g65
(dp2681
g73
I3
ssg74
g2675
sg67
(lp2682
g1398
asbasbasbag60
(g76
g62
NtRp2683
(dp2684
g65
(dp2685
sg74
g2280
sg67
(lp2686
g60
(g81
g62
NtRp2687
(dp2688
g65
(dp2689
g85
g86
ssg74
g2683
sg67
(lp2690
S'REQUEST_METHOD'
p2691
asbag60
(g81
g62
NtRp2692
(dp2693
g65
(dp2694
g92
g93
ssg74
g2683
sg67
(lp2695
S':'
asbag60
(g81
g62
NtRp2696
(dp2697
g65
(dp2698
sg74
g2683
sg67
(lp2699
g60
(g61
g62
NtRp2700
(dp2701
g65
(dp2702
g73
I3
ssg74
g2696
sg67
(lp2703
g1420
asbasbasbag60
(g76
g62
NtRp2704
(dp2705
g65
(dp2706
sg74
g2280
sg67
(lp2707
g60
(g81
g62
NtRp2708
(dp2709
g65
(dp2710
g85
g86
ssg74
g2704
sg67
(lp2711
S'SCRIPT_NAME'
p2712
asbag60
(g81
g62
NtRp2713
(dp2714
g65
(dp2715
g92
g93
ssg74
g2704
sg67
(lp2716
S':'
asbag60
(g81
g62
NtRp2717
(dp2718
g65
(dp2719
sg74
g2704
sg67
(lp2720
g60
(g61
g62
NtRp2721
(dp2722
g65
(dp2723
g73
I3
ssg74
g2717
sg67
(lp2724
S''
asbasbasbag60
(g76
g62
NtRp2725
(dp2726
g65
(dp2727
sg74
g2280
sg67
(lp2728
g60
(g81
g62
NtRp2729
(dp2730
g65
(dp2731
g85
g86
ssg74
g2725
sg67
(lp2732
S'SERVER_NAME'
p2733
asbag60
(g81
g62
NtRp2734
(dp2735
g65
(dp2736
g92
g93
ssg74
g2725
sg67
(lp2737
S':'
asbag60
(g81
g62
NtRp2738
(dp2739
g65
(dp2740
sg74
g2725
sg67
(lp2741
g60
(g61
g62
NtRp2742
(dp2743
g65
(dp2744
g73
I3
ssg74
g2738
sg67
(lp2745
g1463
asbasbasbag60
(g76
g62
NtRp2746
(dp2747
g65
(dp2748
sg74
g2280
sg67
(lp2749
g60
(g81
g62
NtRp2750
(dp2751
g65
(dp2752
g85
g86
ssg74
g2746
sg67
(lp2753
S'SERVER_PORT'
p2754
asbag60
(g81
g62
NtRp2755
(dp2756
g65
(dp2757
g92
g93
ssg74
g2746
sg67
(lp2758
S':'
asbag60
(g81
g62
NtRp2759
(dp2760
g65
(dp2761
sg74
g2746
sg67
(lp2762
g60
(g61
g62
NtRp2763
(dp2764
g65
(dp2765
g73
I3
ssg74
g2759
sg67
(lp2766
g1485
asbasbasbag60
(g76
g62
NtRp2767
(dp2768
g65
(dp2769
sg74
g2280
sg67
(lp2770
g60
(g81
g62
NtRp2771
(dp2772
g65
(dp2773
g85
g86
ssg74
g2767
sg67
(lp2774
S'SERVER_PROTOCOL'
p2775
asbag60
(g81
g62
NtRp2776
(dp2777
g65
(dp2778
g92
g93
ssg74
g2767
sg67
(lp2779
S':'
asbag60
(g81
g62
NtRp2780
(dp2781
g65
(dp2782
sg74
g2767
sg67
(lp2783
g60
(g61
g62
NtRp2784
(dp2785
g65
(dp2786
g73
I3
ssg74
g2780
sg67
(lp2787
g1507
asbasbasbag60
(g76
g62
NtRp2788
(dp2789
g65
(dp2790
sg74
g2280
sg67
(lp2791
g60
(g81
g62
NtRp2792
(dp2793
g65
(dp2794
g85
g86
ssg74
g2788
sg67
(lp2795
S'SERVER_SOFTWARE'
p2796
asbag60
(g81
g62
NtRp2797
(dp2798
g65
(dp2799
g92
g93
ssg74
g2788
sg67
(lp2800
S':'
asbag60
(g81
g62
NtRp2801
(dp2802
g65
(dp2803
sg74
g2788
sg67
(lp2804
g60
(g61
g62
NtRp2805
(dp2806
g65
(dp2807
g73
I3
ssg74
g2801
sg67
(lp2808
g1529
asbasbasbag60
(g76
g62
NtRp2809
(dp2810
g65
(dp2811
sg74
g2280
sg67
(lp2812
g60
(g81
g62
NtRp2813
(dp2814
g65
(dp2815
g85
g86
ssg74
g2809
sg67
(lp2816
S'wsgi.errors'
p2817
asbag60
(g81
g62
NtRp2818
(dp2819
g65
(dp2820
g92
g93
ssg74
g2809
sg67
(lp2821
S':'
asbag60
(g81
g62
NtRp2822
(dp2823
g65
(dp2824
sg74
g2809
sg67
(lp2825
g60
(g61
g62
NtRp2826
(dp2827
g65
(dp2828
g73
I3
ssg74
g2822
sg67
(lp2829
S"<open file '<stderr>', mode 'w' at 0x100283270>"
p2830
asbasbasbag60
(g76
g62
NtRp2831
(dp2832
g65
(dp2833
sg74
g2280
sg67
(lp2834
g60
(g81
g62
NtRp2835
(dp2836
g65
(dp2837
g85
g86
ssg74
g2831
sg67
(lp2838
S'wsgi.file_wrapper'
p2839
asbag60
(g81
g62
NtRp2840
(dp2841
g65
(dp2842
g92
g93
ssg74
g2831
sg67
(lp2843
S':'
asbag60
(g81
g62
NtRp2844
(dp2845
g65
(dp2846
sg74
g2831
sg67
(lp2847
g60
(g61
g62
NtRp2848
(dp2849
g65
(dp2850
g73
I3
ssg74
g2844
sg67
(lp2851
S'<class gluon.rocket.FileWrapper at 0x1019a02c0>'
p2852
asbasbasbag60
(g76
g62
NtRp2853
(dp2854
g65
(dp2855
sg74
g2280
sg67
(lp2856
g60
(g81
g62
NtRp2857
(dp2858
g65
(dp2859
g85
g86
ssg74
g2853
sg67
(lp2860
S'wsgi.input'
p2861
asbag60
(g81
g62
NtRp2862
(dp2863
g65
(dp2864
g92
g93
ssg74
g2853
sg67
(lp2865
S':'
asbag60
(g81
g62
NtRp2866
(dp2867
g65
(dp2868
sg74
g2853
sg67
(lp2869
g60
(g61
g62
NtRp2870
(dp2871
g65
(dp2872
g73
I3
ssg74
g2866
sg67
(lp2873
S"<open file '<fdopen>', mode 'w+b' at 0x101b770c0>"
p2874
asbasbasbag60
(g76
g62
NtRp2875
(dp2876
g65
(dp2877
sg74
g2280
sg67
(lp2878
g60
(g81
g62
NtRp2879
(dp2880
g65
(dp2881
g85
g86
ssg74
g2875
sg67
(lp2882
S'wsgi.multiprocess'
p2883
asbag60
(g81
g62
NtRp2884
(dp2885
g65
(dp2886
g92
g93
ssg74
g2875
sg67
(lp2887
S':'
asbag60
(g81
g62
NtRp2888
(dp2889
g65
(dp2890
sg74
g2875
sg67
(lp2891
g60
(g61
g62
NtRp2892
(dp2893
g65
(dp2894
g73
I3
ssg74
g2888
sg67
(lp2895
g103
asbasbasbag60
(g76
g62
NtRp2896
(dp2897
g65
(dp2898
sg74
g2280
sg67
(lp2899
g60
(g81
g62
NtRp2900
(dp2901
g65
(dp2902
g85
g86
ssg74
g2896
sg67
(lp2903
S'wsgi.multithread'
p2904
asbag60
(g81
g62
NtRp2905
(dp2906
g65
(dp2907
g92
g93
ssg74
g2896
sg67
(lp2908
S':'
asbag60
(g81
g62
NtRp2909
(dp2910
g65
(dp2911
sg74
g2896
sg67
(lp2912
g60
(g61
g62
NtRp2913
(dp2914
g65
(dp2915
g73
I3
ssg74
g2909
sg67
(lp2916
g1703
asbasbasbag60
(g76
g62
NtRp2917
(dp2918
g65
(dp2919
sg74
g2280
sg67
(lp2920
g60
(g81
g62
NtRp2921
(dp2922
g65
(dp2923
g85
g86
ssg74
g2917
sg67
(lp2924
S'wsgi.run_once'
p2925
asbag60
(g81
g62
NtRp2926
(dp2927
g65
(dp2928
g92
g93
ssg74
g2917
sg67
(lp2929
S':'
asbag60
(g81
g62
NtRp2930
(dp2931
g65
(dp2932
sg74
g2917
sg67
(lp2933
g60
(g61
g62
NtRp2934
(dp2935
g65
(dp2936
g73
I3
ssg74
g2930
sg67
(lp2937
g103
asbasbasbag60
(g76
g62
NtRp2938
(dp2939
g65
(dp2940
sg74
g2280
sg67
(lp2941
g60
(g81
g62
NtRp2942
(dp2943
g65
(dp2944
g85
g86
ssg74
g2938
sg67
(lp2945
S'wsgi.url_scheme'
p2946
asbag60
(g81
g62
NtRp2947
(dp2948
g65
(dp2949
g92
g93
ssg74
g2938
sg67
(lp2950
S':'
asbag60
(g81
g62
NtRp2951
(dp2952
g65
(dp2953
sg74
g2938
sg67
(lp2954
g60
(g61
g62
NtRp2955
(dp2956
g65
(dp2957
g73
I3
ssg74
g2951
sg67
(lp2958
g1746
asbasbasbag60
(g76
g62
NtRp2959
(dp2960
g65
(dp2961
sg74
g2280
sg67
(lp2962
g60
(g81
g62
NtRp2963
(dp2964
g65
(dp2965
g85
g86
ssg74
g2959
sg67
(lp2966
S'wsgi.version'
p2967
asbag60
(g81
g62
NtRp2968
(dp2969
g65
(dp2970
g92
g93
ssg74
g2959
sg67
(lp2971
S':'
asbag60
(g81
g62
NtRp2972
(dp2973
g65
(dp2974
sg74
g2959
sg67
(lp2975
g60
(g61
g62
NtRp2976
(dp2977
g65
(dp2978
g73
I3
ssg74
g2972
sg67
(lp2979
S'1'
asbasbasbasbasbasbasbasbasbasbasbasbasbsS'frames'
p2980
(lp2981
(dp2982
S'file'
p2983
S'/Users/schultzc/Downloads/web2py/gluon/restricted.py'
p2984
sS'dump'
p2985
(dp2986
S'environment'
p2987
S"{'A': <class 'gluon.html.A'>, 'B': <class 'gluon.html.B'>, 'BEAUTIFY': <class 'gluon.html.BEAUTIFY'>, 'BODY': <class 'gluon.html.BODY'>, 'BR': <class 'gluon.html.BR'>, 'BUTTON': <class 'gluon.html.BUTTON'>, 'CENTER': <class 'gluon.html.CENTER'>, 'CLEANUP': <class 'gluon.validators.CLEANUP'>, 'CODE': <class 'gluon.html.CODE'>, 'CRYPT': <class 'gluon.validators.CRYPT'>, ...}"
p2988
sS'ccode'
p2989
S'<code object <module> at 0x101f95cb0, file "/Use...applications/wp/controllers/default.py", line 11>'
p2990
ssS'lnum'
p2991
I192
sS'lines'
p2992
(dp2993
I192
S'        exec ccode in environment'
p2994
sI193
S'    except HTTP:'
p2995
sI194
S'        raise'
p2996
sI195
S'    except Exception:'
p2997
sI196
S'        # XXX Show exception in Wing IDE if running in debugger'
p2998
sI187
S'    try:'
p2999
sI188
S'        if type(code) == types.CodeType:'
p3000
sI189
S'            ccode = code'
p3001
sI190
S'        else:'
p3002
sI191
S'            ccode = compile2(code,layer)'
p3003
ssS'call'
p3004
S'(code="# -*- coding: utf-8 -*-\\n# this file is released ...())\\n\'\'\'\\n\\nresponse._vars=response._caller(submit)\\n", environment={\'A\': <class \'gluon.html.A\'>, \'B\': <class \'gluon.html.B\'>, \'BEAUTIFY\': <class \'gluon.html.BEAUTIFY\'>, \'BODY\': <class \'gluon.html.BODY\'>, \'BR\': <class \'gluon.html.BR\'>, \'BUTTON\': <class \'gluon.html.BUTTON\'>, \'CENTER\': <class \'gluon.html.CENTER\'>, \'CLEANUP\': <class \'gluon.validators.CLEANUP\'>, \'CODE\': <class \'gluon.html.CODE\'>, \'CRYPT\': <class \'gluon.validators.CRYPT\'>, ...}, layer=\'/Users/schultzc/Downloads/web2py/applications/wp/controllers/default.py\')'
p3005
sS'func'
p3006
S'restricted'
p3007
sa(dp3008
g2983
S'/Users/schultzc/Downloads/web2py/applications/wp/controllers/default.py'
p3009
sg2985
(dp3010
sg2991
I90
sg2992
(dp3011
I79
S'    http://..../[app]/default/data/delete/[table]/[id['
p3012
sI80
S'    http://..../[app]/default/data/select/[table]'
p3013
sI81
S'    http://..../[app]/default/data/search/[table]'
p3014
sI82
S'    but URLs bust be signed, i.e. linked with'
p3015
sI83
S"      A('table',_href=URL('data/tables',user_signature=True))"
p3016
sI84
S'    or with the signed load operator'
p3017
sI85
S"      LOAD('default','data.load',args='tables',ajax=True,user_signature=True)"
p3018
sI86
S'    """'
p3019
sI87
S'    return dict(form=crud())'
p3020
sI88
S"'''"
p3021
ssg3004
S'()'
p3022
sg3006
S'<module>'
p3023
sa(dp3024
g2983
S'/Users/schultzc/Downloads/web2py/gluon/globals.py'
p3025
sg2985
(dp3026
S'self'
p3027
S'undefined'
p3028
sS'f'
S'<function submit>'
p3029
ssg2991
I137
sg2992
(dp3030
I132
S"        self.flash = ''           # used by the default view layout"
p3031
sI133
S'        self.meta = Storage()     # used by web2py_ajax.html'
p3032
sI134
S'        self.menu = []            # used by the default view layout'
p3033
sI135
S'        self.files = []           # used by web2py_ajax.html'
p3034
sI136
S'        self._vars = None'
p3035
sI137
S'        self._caller = lambda f: f()'
p3036
sI138
S'        self._view_environment = None'
p3037
sI139
S'        self._custom_commit = None'
p3038
sI140
S'        self._custom_rollback = None'
p3039
sI141
S''
ssg3004
S'(f=<function submit>)'
p3040
sg3006
S'<lambda>'
p3041
sa(dp3042
g2983
S'/Users/schultzc/Downloads/web2py/applications/wp/controllers/default.py'
p3043
sg2985
(dp3044
S'global request'
p3045
S"<Storage {'is_local': True, 'function': 'submit'....03-39-45.d88e26d5-89da-4a7c-96f4-6e70614fa9d3'}>"
p3046
sS'request.vars'
p3047
S"<Storage {'handle': 'adsf', 'title': 'adsf', 'lo...878f-201b4e966fbf', '_formname': 'image/create'}>"
p3048
sS'global session'
p3049
S"<Storage {'_formkey[comment/create]': '73fa8e88-...c\\xaa\\xb2\\xbb\\xcb\\x8e\\xff]qc\\xfdv?\\xd0\\xf0\\xc2'}>"
p3050
sS'form'
p3051
S'<gluon.sqlhtml.SQLFORM object>'
p3052
sS'form.accepts'
p3053
S'<bound method SQLFORM.accepts of <gluon.sqlhtml.SQLFORM object>>'
p3054
ssg2991
I20
sg2992
(dp3055
I15
S'    images = db().select(db.image.ALL, orderby=db.image.title)'
p3056
sI16
S'    return dict(images=images)'
p3057
sI17
S''
sI18
S'def submit():'
p3058
sI19
S'    form = SQLFORM(db.image, formstyle="divs")'
p3059
sI20
S'    if form.accepts(request.vars, session):'
p3060
sI21
S"        response.flash = 'form accepted'"
p3061
sI22
S'    elif form.errors:'
p3062
sI23
S"        response.flash = 'form has errors'"
p3063
sI24
S'    else:'
p3064
ssg3004
S'()'
p3065
sg3006
S'submit'
p3066
sa(dp3067
g2983
S'/Users/schultzc/Downloads/web2py/gluon/sqlhtml.py'
p3068
sg2985
(dp3069
S'self.vars.id'
p3070
S'None'
p3071
sS'fields'
p3072
S"{'file': 'image.file.b678c582c8c79d82.4d6163537465656c2e706e67.png', 'handle': 'adsf', 'location': 'asdf', 'title': 'adsf'}"
p3073
sS'self'
p3074
S'<gluon.sqlhtml.SQLFORM object>'
p3075
sS'self.vars'
p3076
S"<Storage {'file_newfilename': 'image.file.b678c5....4d6163537465656c2e706e67.png', 'title': 'adsf'}>"
p3077
sS'self.table.insert'
p3078
S"<bound method Table.insert of <Table {'ALL': <gl... 'id': <gluon.dal.Field object at 0x101fa62d0>}>>"
p3079
sS'self.table'
p3080
S"<Table {'ALL': <gluon.dal.SQLALL object at 0x101..., 'id': <gluon.dal.Field object at 0x101fa62d0>}>"
p3081
ssg2991
I1205
sg2992
(dp3082
I1200
S'                if record_id:'
p3083
sI1201
S'                    self.vars.id = self.record.id'
p3084
sI1202
S'                    if fields:'
p3085
sI1203
S'                        self.table._db(self.table._id == self.record.id).update(**fields)'
p3086
sI1204
S'                else:'
p3087
sI1205
S'                    self.vars.id = self.table.insert(**fields)'
p3088
sI1206
S'        return ret'
p3089
sI1207
S''
sI1208
S'    @staticmethod'
p3090
sI1209
S'    def factory(*fields, **attributes):'
p3091
ssg3004
S"(self=<gluon.sqlhtml.SQLFORM object>, request_vars=<Storage {'handle': 'adsf', 'title': 'adsf', 'lo...878f-201b4e966fbf', '_formname': 'image/create'}>, session=<Storage {'_formkey[comment/create]': '73fa8e88-...c\\xaa\\xb2\\xbb\\xcb\\x8e\\xff]qc\\xfdv?\\xd0\\xf0\\xc2'}>, formname='image/create', keepvalues=False, onvalidation=None, dbio=True, hideerror=False, detect_record_change=False)"
p3092
sg3006
S'accepts'
p3093
sa(dp3094
g2983
S'/Users/schultzc/Downloads/web2py/gluon/dal.py'
p3095
sg2985
(dp3096
S'self._listify'
p3097
S"<bound method Table._listify of <Table {'ALL': <... 'id': <gluon.dal.Field object at 0x101fa62d0>}>>"
p3098
sS'fields'
p3099
S"{'file': 'image.file.b678c582c8c79d82.4d6163537465656c2e706e67.png', 'handle': 'adsf', 'location': 'asdf', 'title': 'adsf'}"
p3100
sS'self'
p3101
S"<Table {'ALL': <gluon.dal.SQLALL object at 0x101..., 'id': <gluon.dal.Field object at 0x101fa62d0>}>"
p3102
sS'self._db._adapter'
p3103
S'<gluon.dal.SQLiteAdapter object>'
p3104
sS'self._db._adapter.insert'
p3105
S'<bound method SQLiteAdapter.insert of <gluon.dal.SQLiteAdapter object>>'
p3106
sS'self._db'
p3107
S'<DAL {\'_migrate_enabled\': True, \'_lastsql\': "INS...\'_uri_hash\': \'fb87181b96a99be45f5a23f4277867ce\'}>'
p3108
ssg2991
I4703
sg2992
(dp3109
I4704
S''
sI4705
S'    def validate_and_insert(self,**fields):'
p3110
sI4706
S'        response = Row()'
p3111
sI4707
S'        response.errors = self._validate(**fields)'
p3112
sI4698
S''
sI4699
S'    def _insert(self, **fields):'
p3113
sI4700
S'        return self._db._adapter._insert(self,self._listify(fields))'
p3114
sI4701
S''
sI4702
S'    def insert(self, **fields):'
p3115
sI4703
S'        return self._db._adapter.insert(self,self._listify(fields))'
p3116
ssg3004
S"(self=<Table {'ALL': <gluon.dal.SQLALL object at 0x101..., 'id': <gluon.dal.Field object at 0x101fa62d0>}>, **fields={'file': 'image.file.b678c582c8c79d82.4d6163537465656c2e706e67.png', 'handle': 'adsf', 'location': 'asdf', 'title': 'adsf'})"
p3117
sg3006
S'insert'
p3118
sa(dp3119
g2983
S'/Users/schultzc/Downloads/web2py/gluon/dal.py'
p3120
sg2985
(dp3121
S'e'
S"OperationalError('no such table: image',)"
p3122
ssg2991
I838
sg2992
(dp3123
I833
S'        try:'
p3124
sI834
S'            self.execute(query)'
p3125
sI835
S'        except Exception, e:'
p3126
sI836
S'            if isinstance(e,self.integrity_error_class()):'
p3127
sI837
S'                return None'
p3128
sI838
S'            raise e'
p3129
sI839
S"        if hasattr(table,'_primarykey'):"
p3130
sI840
S'            return dict([(k[0].name, k[1]) for k in fields \\'
p3131
sI841
S'                             if k[0].name in table._primarykey])'
p3132
sI842
S'        id = self.lastrowid(table)'
p3133
ssg3004
S"(self=<gluon.dal.SQLiteAdapter object>, table=<Table {'ALL': <gluon.dal.SQLALL object at 0x101..., 'id': <gluon.dal.Field object at 0x101fa62d0>}>, fields=[(<gluon.dal.Field object>, 'adsf'), (<gluon.dal.Field object>, 'asdf'), (<gluon.dal.Field object>, 'image.file.b678c582c8c79d82.4d6163537465656c2e706e67.png'), (<gluon.dal.Field object>, 'adsf'), (<gluon.dal.Field object>, datetime.datetime(2011, 7, 16, 3, 39, 45, 431340))])"
p3134
sg3006
g3118
sasS'pyver'
p3135
S'Python 2.7.2: /opt/local/Library/Frameworks/Python.framework/Versions/2.7/Resources/Python.app/Contents/MacOS/Python'
p3136
sS'session'
p3137
g60
(g61
g62
NtRp3138
(dp3139
g65
(dp3140
sg67
(lp3141
g60
(g69
g62
NtRp3142
(dp3143
g65
(dp3144
g73
I5
ssg74
Nsg67
(lp3145
g60
(g76
g62
NtRp3146
(dp3147
g65
(dp3148
sg74
g3142
sg67
(lp3149
g60
(g81
g62
NtRp3150
(dp3151
g65
(dp3152
g85
g86
ssg74
g3146
sg67
(lp3153
S'last_query'
p3154
asbag60
(g81
g62
NtRp3155
(dp3156
g65
(dp3157
g92
g93
ssg74
g3146
sg67
(lp3158
S':'
asbag60
(g81
g62
NtRp3159
(dp3160
g65
(dp3161
sg74
g3146
sg67
(lp3162
g60
(g61
g62
NtRp3163
(dp3164
g65
(dp3165
g73
I5
ssg74
g3159
sg67
(lp3166
S'db.image.id>0'
p3167
asbasbasbasbasbsS'etype'
p3168
S"<class 'sqlite3.OperationalError'>"
p3169
sS'date'
p3170
S'Sat Jul 16 03:39:45 2011'
p3171
sS'response'
p3172
g60
(g61
g62
NtRp3173
(dp3174
g65
(dp3175
sg67
(lp3176
g60
(g69
g62
NtRp3177
(dp3178
g65
(dp3179
g73
I5
ssg74
Nsg67
(lp3180
g60
(g76
g62
NtRp3181
(dp3182
g65
(dp3183
sg74
g3177
sg67
(lp3184
g60
(g81
g62
NtRp3185
(dp3186
g65
(dp3187
g85
g86
ssg74
g3181
sg67
(lp3188
g158
asbag60
(g81
g62
NtRp3189
(dp3190
g65
(dp3191
g92
g93
ssg74
g3181
sg67
(lp3192
S':'
asbag60
(g81
g62
NtRp3193
(dp3194
g65
(dp3195
sg74
g3181
sg67
(lp3196
g60
(g61
g62
NtRp3197
(dp3198
g65
(dp3199
g73
I5
ssg74
g3193
sg67
(lp3200
S'<cStringIO.StringO object at 0x101b58a40>'
p3201
asbasbasbag60
(g76
g62
NtRp3202
(dp3203
g65
(dp3204
sg74
g3177
sg67
(lp3205
g60
(g81
g62
NtRp3206
(dp3207
g65
(dp3208
g85
g86
ssg74
g3202
sg67
(lp3209
g224
asbag60
(g81
g62
NtRp3210
(dp3211
g65
(dp3212
g92
g93
ssg74
g3202
sg67
(lp3213
S':'
asbag60
(g81
g62
NtRp3214
(dp3215
g65
(dp3216
sg74
g3202
sg67
(lp3217
g60
(g61
g62
NtRp3218
(dp3219
g65
(dp3220
g73
I5
ssg74
g3214
sg67
(lp3221
g60
(g69
g62
NtRp3222
(dp3223
g65
(dp3224
g73
I4
ssg74
Nsg67
(lp3225
g60
(g76
g62
NtRp3226
(dp3227
g65
(dp3228
sg74
g3222
sg67
(lp3229
g60
(g81
g62
NtRp3230
(dp3231
g65
(dp3232
g85
g86
ssg74
g3226
sg67
(lp3233
S'session_id_wp'
p3234
asbag60
(g81
g62
NtRp3235
(dp3236
g65
(dp3237
g92
g93
ssg74
g3226
sg67
(lp3238
S':'
asbag60
(g81
g62
NtRp3239
(dp3240
g65
(dp3241
sg74
g3226
sg67
(lp3242
g60
(g61
g62
NtRp3243
(dp3244
g65
(dp3245
g73
I4
ssg74
g3239
sg67
(lp3246
g60
(g69
g62
NtRp3247
(dp3248
g65
(dp3249
g73
I3
ssg74
Nsg67
(lp3250
g60
(g76
g62
NtRp3251
(dp3252
g65
(dp3253
sg74
g3247
sg67
(lp3254
g60
(g81
g62
NtRp3255
(dp3256
g65
(dp3257
g85
g86
ssg74
g3251
sg67
(lp3258
g274
asbag60
(g81
g62
NtRp3259
(dp3260
g65
(dp3261
g92
g93
ssg74
g3251
sg67
(lp3262
S':'
asbag60
(g81
g62
NtRp3263
(dp3264
g65
(dp3265
sg74
g3251
sg67
(lp3266
g60
(g61
g62
NtRp3267
(dp3268
g65
(dp3269
g73
I3
ssg74
g3263
sg67
(lp3270
S''
asbasbasbag60
(g76
g62
NtRp3271
(dp3272
g65
(dp3273
sg74
g3247
sg67
(lp3274
g60
(g81
g62
NtRp3275
(dp3276
g65
(dp3277
g85
g86
ssg74
g3271
sg67
(lp3278
g295
asbag60
(g81
g62
NtRp3279
(dp3280
g65
(dp3281
g92
g93
ssg74
g3271
sg67
(lp3282
S':'
asbag60
(g81
g62
NtRp3283
(dp3284
g65
(dp3285
sg74
g3271
sg67
(lp3286
g60
(g61
g62
NtRp3287
(dp3288
g65
(dp3289
g73
I3
ssg74
g3283
sg67
(lp3290
S''
asbasbasbag60
(g76
g62
NtRp3291
(dp3292
g65
(dp3293
sg74
g3247
sg67
(lp3294
g60
(g81
g62
NtRp3295
(dp3296
g65
(dp3297
g85
g86
ssg74
g3291
sg67
(lp3298
g316
asbag60
(g81
g62
NtRp3299
(dp3300
g65
(dp3301
g92
g93
ssg74
g3291
sg67
(lp3302
S':'
asbag60
(g81
g62
NtRp3303
(dp3304
g65
(dp3305
sg74
g3291
sg67
(lp3306
g60
(g61
g62
NtRp3307
(dp3308
g65
(dp3309
g73
I3
ssg74
g3303
sg67
(lp3310
S''
asbasbasbag60
(g76
g62
NtRp3311
(dp3312
g65
(dp3313
sg74
g3247
sg67
(lp3314
g60
(g81
g62
NtRp3315
(dp3316
g65
(dp3317
g85
g86
ssg74
g3311
sg67
(lp3318
g337
asbag60
(g81
g62
NtRp3319
(dp3320
g65
(dp3321
g92
g93
ssg74
g3311
sg67
(lp3322
S':'
asbag60
(g81
g62
NtRp3323
(dp3324
g65
(dp3325
sg74
g3311
sg67
(lp3326
g60
(g61
g62
NtRp3327
(dp3328
g65
(dp3329
g73
I3
ssg74
g3323
sg67
(lp3330
S''
asbasbasbag60
(g76
g62
NtRp3331
(dp3332
g65
(dp3333
sg74
g3247
sg67
(lp3334
g60
(g81
g62
NtRp3335
(dp3336
g65
(dp3337
g85
g86
ssg74
g3331
sg67
(lp3338
g358
asbag60
(g81
g62
NtRp3339
(dp3340
g65
(dp3341
g92
g93
ssg74
g3331
sg67
(lp3342
S':'
asbag60
(g81
g62
NtRp3343
(dp3344
g65
(dp3345
sg74
g3331
sg67
(lp3346
g60
(g61
g62
NtRp3347
(dp3348
g65
(dp3349
g73
I3
ssg74
g3343
sg67
(lp3350
S''
asbasbasbag60
(g76
g62
NtRp3351
(dp3352
g65
(dp3353
sg74
g3247
sg67
(lp3354
g60
(g81
g62
NtRp3355
(dp3356
g65
(dp3357
g85
g86
ssg74
g3351
sg67
(lp3358
g379
asbag60
(g81
g62
NtRp3359
(dp3360
g65
(dp3361
g92
g93
ssg74
g3351
sg67
(lp3362
S':'
asbag60
(g81
g62
NtRp3363
(dp3364
g65
(dp3365
sg74
g3351
sg67
(lp3366
g60
(g61
g62
NtRp3367
(dp3368
g65
(dp3369
g73
I3
ssg74
g3363
sg67
(lp3370
S'/'
asbasbasbag60
(g76
g62
NtRp3371
(dp3372
g65
(dp3373
sg74
g3247
sg67
(lp3374
g60
(g81
g62
NtRp3375
(dp3376
g65
(dp3377
g85
g86
ssg74
g3371
sg67
(lp3378
g400
asbag60
(g81
g62
NtRp3379
(dp3380
g65
(dp3381
g92
g93
ssg74
g3371
sg67
(lp3382
S':'
asbag60
(g81
g62
NtRp3383
(dp3384
g65
(dp3385
sg74
g3371
sg67
(lp3386
g60
(g61
g62
NtRp3387
(dp3388
g65
(dp3389
g73
I3
ssg74
g3383
sg67
(lp3390
S''
asbasbasbag60
(g76
g62
NtRp3391
(dp3392
g65
(dp3393
sg74
g3247
sg67
(lp3394
g60
(g81
g62
NtRp3395
(dp3396
g65
(dp3397
g85
g86
ssg74
g3391
sg67
(lp3398
g421
asbag60
(g81
g62
NtRp3399
(dp3400
g65
(dp3401
g92
g93
ssg74
g3391
sg67
(lp3402
S':'
asbag60
(g81
g62
NtRp3403
(dp3404
g65
(dp3405
sg74
g3391
sg67
(lp3406
g60
(g61
g62
NtRp3407
(dp3408
g65
(dp3409
g73
I3
ssg74
g3403
sg67
(lp3410
S''
asbasbasbasbasbasbasbasbasbasbasbag60
(g76
g62
NtRp3411
(dp3412
g65
(dp3413
sg74
g3177
sg67
(lp3414
g60
(g81
g62
NtRp3415
(dp3416
g65
(dp3417
g85
g86
ssg74
g3411
sg67
(lp3418
S'files'
p3419
asbag60
(g81
g62
NtRp3420
(dp3421
g65
(dp3422
g92
g93
ssg74
g3411
sg67
(lp3423
S':'
asbag60
(g81
g62
NtRp3424
(dp3425
g65
(dp3426
sg74
g3411
sg67
(lp3427
g60
(g61
g62
NtRp3428
(dp3429
g65
(dp3430
g73
I5
ssg74
g3424
sg67
(lp3431
g60
(g69
g62
NtRp3432
(dp3433
g65
(dp3434
g73
I4
ssg74
Nsg67
(lp3435
sbasbasbasbag60
(g76
g62
NtRp3436
(dp3437
g65
(dp3438
sg74
g3177
sg67
(lp3439
g60
(g81
g62
NtRp3440
(dp3441
g65
(dp3442
g85
g86
ssg74
g3436
sg67
(lp3443
S'flash'
p3444
asbag60
(g81
g62
NtRp3445
(dp3446
g65
(dp3447
g92
g93
ssg74
g3436
sg67
(lp3448
S':'
asbag60
(g81
g62
NtRp3449
(dp3450
g65
(dp3451
sg74
g3436
sg67
(lp3452
g60
(g61
g62
NtRp3453
(dp3454
g65
(dp3455
g73
I5
ssg74
g3449
sg67
(lp3456
S''
asbasbasbag60
(g76
g62
NtRp3457
(dp3458
g65
(dp3459
sg74
g3177
sg67
(lp3460
g60
(g81
g62
NtRp3461
(dp3462
g65
(dp3463
g85
g86
ssg74
g3457
sg67
(lp3464
S'headers'
p3465
asbag60
(g81
g62
NtRp3466
(dp3467
g65
(dp3468
g92
g93
ssg74
g3457
sg67
(lp3469
S':'
asbag60
(g81
g62
NtRp3470
(dp3471
g65
(dp3472
sg74
g3457
sg67
(lp3473
g60
(g61
g62
NtRp3474
(dp3475
g65
(dp3476
g73
I5
ssg74
g3470
sg67
(lp3477
g60
(g69
g62
NtRp3478
(dp3479
g65
(dp3480
g73
I4
ssg74
Nsg67
(lp3481
g60
(g76
g62
NtRp3482
(dp3483
g65
(dp3484
sg74
g3478
sg67
(lp3485
g60
(g81
g62
NtRp3486
(dp3487
g65
(dp3488
g85
g86
ssg74
g3482
sg67
(lp3489
S'Cache-Control'
p3490
asbag60
(g81
g62
NtRp3491
(dp3492
g65
(dp3493
g92
g93
ssg74
g3482
sg67
(lp3494
S':'
asbag60
(g81
g62
NtRp3495
(dp3496
g65
(dp3497
sg74
g3482
sg67
(lp3498
g60
(g61
g62
NtRp3499
(dp3500
g65
(dp3501
g73
I4
ssg74
g3495
sg67
(lp3502
S'no-store, no-cache, must-revalidate, post-check=0, pre-check=0'
p3503
asbasbasbag60
(g76
g62
NtRp3504
(dp3505
g65
(dp3506
sg74
g3478
sg67
(lp3507
g60
(g81
g62
NtRp3508
(dp3509
g65
(dp3510
g85
g86
ssg74
g3504
sg67
(lp3511
S'Content-Type'
p3512
asbag60
(g81
g62
NtRp3513
(dp3514
g65
(dp3515
g92
g93
ssg74
g3504
sg67
(lp3516
S':'
asbag60
(g81
g62
NtRp3517
(dp3518
g65
(dp3519
sg74
g3504
sg67
(lp3520
g60
(g61
g62
NtRp3521
(dp3522
g65
(dp3523
g73
I4
ssg74
g3517
sg67
(lp3524
S'text/html; charset=utf-8'
p3525
asbasbasbag60
(g76
g62
NtRp3526
(dp3527
g65
(dp3528
sg74
g3478
sg67
(lp3529
g60
(g81
g62
NtRp3530
(dp3531
g65
(dp3532
g85
g86
ssg74
g3526
sg67
(lp3533
S'Expires'
p3534
asbag60
(g81
g62
NtRp3535
(dp3536
g65
(dp3537
g92
g93
ssg74
g3526
sg67
(lp3538
S':'
asbag60
(g81
g62
NtRp3539
(dp3540
g65
(dp3541
sg74
g3526
sg67
(lp3542
g60
(g61
g62
NtRp3543
(dp3544
g65
(dp3545
g73
I4
ssg74
g3539
sg67
(lp3546
S'Sat, 16 Jul 2011 10:39:45 GMT'
p3547
asbasbasbag60
(g76
g62
NtRp3548
(dp3549
g65
(dp3550
sg74
g3478
sg67
(lp3551
g60
(g81
g62
NtRp3552
(dp3553
g65
(dp3554
g85
g86
ssg74
g3548
sg67
(lp3555
S'Pragma'
p3556
asbag60
(g81
g62
NtRp3557
(dp3558
g65
(dp3559
g92
g93
ssg74
g3548
sg67
(lp3560
S':'
asbag60
(g81
g62
NtRp3561
(dp3562
g65
(dp3563
sg74
g3548
sg67
(lp3564
g60
(g61
g62
NtRp3565
(dp3566
g65
(dp3567
g73
I4
ssg74
g3561
sg67
(lp3568
S'no-cache'
p3569
asbasbasbag60
(g76
g62
NtRp3570
(dp3571
g65
(dp3572
sg74
g3478
sg67
(lp3573
g60
(g81
g62
NtRp3574
(dp3575
g65
(dp3576
g85
g86
ssg74
g3570
sg67
(lp3577
S'X-Powered-By'
p3578
asbag60
(g81
g62
NtRp3579
(dp3580
g65
(dp3581
g92
g93
ssg74
g3570
sg67
(lp3582
S':'
asbag60
(g81
g62
NtRp3583
(dp3584
g65
(dp3585
sg74
g3570
sg67
(lp3586
g60
(g61
g62
NtRp3587
(dp3588
g65
(dp3589
g73
I4
ssg74
g3583
sg67
(lp3590
S'web2py'
p3591
asbasbasbasbasbasbasbag60
(g76
g62
NtRp3592
(dp3593
g65
(dp3594
sg74
g3177
sg67
(lp3595
g60
(g81
g62
NtRp3596
(dp3597
g65
(dp3598
g85
g86
ssg74
g3592
sg67
(lp3599
S'menu'
p3600
asbag60
(g81
g62
NtRp3601
(dp3602
g65
(dp3603
g92
g93
ssg74
g3592
sg67
(lp3604
S':'
asbag60
(g81
g62
NtRp3605
(dp3606
g65
(dp3607
sg74
g3592
sg67
(lp3608
g60
(g61
g62
NtRp3609
(dp3610
g65
(dp3611
g73
I5
ssg74
g3605
sg67
(lp3612
g60
(g69
g62
NtRp3613
(dp3614
g65
(dp3615
g73
I4
ssg74
Nsg67
(lp3616
g60
(g76
g62
NtRp3617
(dp3618
g65
(dp3619
sg74
g3613
sg67
(lp3620
g60
(g81
g62
NtRp3621
(dp3622
g65
(dp3623
sg74
g3617
sg67
(lp3624
g60
(g61
g62
NtRp3625
(dp3626
g65
(dp3627
g73
I4
ssg74
g3621
sg67
(lp3628
g60
(g69
g62
NtRp3629
(dp3630
g65
(dp3631
g73
I3
ssg74
Nsg67
(lp3632
g60
(g76
g62
NtRp3633
(dp3634
g65
(dp3635
sg74
g3629
sg67
(lp3636
g60
(g81
g62
NtRp3637
(dp3638
g65
(dp3639
sg74
g3633
sg67
(lp3640
g60
(g61
g62
NtRp3641
(dp3642
g65
(dp3643
g73
I3
ssg74
g3637
sg67
(lp3644
cgluon.languages
lazyT_unpickle
p3645
(S't\x04\x00\x00\x00Home'
tRp3646
asbasbasbag60
(g76
g62
NtRp3647
(dp3648
g65
(dp3649
sg74
g3629
sg67
(lp3650
g60
(g81
g62
NtRp3651
(dp3652
g65
(dp3653
sg74
g3647
sg67
(lp3654
g60
(g61
g62
NtRp3655
(dp3656
g65
(dp3657
g73
I3
ssg74
g3651
sg67
(lp3658
g103
asbasbasbag60
(g76
g62
NtRp3659
(dp3660
g65
(dp3661
sg74
g3629
sg67
(lp3662
g60
(g81
g62
NtRp3663
(dp3664
g65
(dp3665
sg74
g3659
sg67
(lp3666
g60
(g61
g62
NtRp3667
(dp3668
g65
(dp3669
g73
I3
ssg74
g3663
sg67
(lp3670
S'/wp/default/index'
p3671
asbasbasbag60
(g76
g62
NtRp3672
(dp3673
g65
(dp3674
sg74
g3629
sg67
(lp3675
g60
(g81
g62
NtRp3676
(dp3677
g65
(dp3678
sg74
g3672
sg67
(lp3679
g60
(g61
g62
NtRp3680
(dp3681
g65
(dp3682
g73
I3
ssg74
g3676
sg67
(lp3683
g60
(g69
g62
NtRp3684
(dp3685
g65
(dp3686
g73
I2
ssg74
Nsg67
(lp3687
sbasbasbasbasbasbasbasbag60
(g76
g62
NtRp3688
(dp3689
g65
(dp3690
sg74
g3613
sg67
(lp3691
g60
(g81
g62
NtRp3692
(dp3693
g65
(dp3694
sg74
g3688
sg67
(lp3695
g60
(g61
g62
NtRp3696
(dp3697
g65
(dp3698
g73
I4
ssg74
g3692
sg67
(lp3699
g60
(g69
g62
NtRp3700
(dp3701
g65
(dp3702
g73
I3
ssg74
Nsg67
(lp3703
g60
(g76
g62
NtRp3704
(dp3705
g65
(dp3706
sg74
g3700
sg67
(lp3707
g60
(g81
g62
NtRp3708
(dp3709
g65
(dp3710
sg74
g3704
sg67
(lp3711
g60
(g61
g62
NtRp3712
(dp3713
g65
(dp3714
g73
I3
ssg74
g3708
sg67
(lp3715
g3645
(S's\x08\x00\x00\x00This App'
tRp3716
asbasbasbag60
(g76
g62
NtRp3717
(dp3718
g65
(dp3719
sg74
g3700
sg67
(lp3720
g60
(g81
g62
NtRp3721
(dp3722
g65
(dp3723
sg74
g3717
sg67
(lp3724
g60
(g61
g62
NtRp3725
(dp3726
g65
(dp3727
g73
I3
ssg74
g3721
sg67
(lp3728
g103
asbasbasbag60
(g76
g62
NtRp3729
(dp3730
g65
(dp3731
sg74
g3700
sg67
(lp3732
g60
(g81
g62
NtRp3733
(dp3734
g65
(dp3735
sg74
g3729
sg67
(lp3736
g60
(g61
g62
NtRp3737
(dp3738
g65
(dp3739
g73
I3
ssg74
g3733
sg67
(lp3740
S'/admin/default/design/wp'
p3741
asbasbasbag60
(g76
g62
NtRp3742
(dp3743
g65
(dp3744
sg74
g3700
sg67
(lp3745
g60
(g81
g62
NtRp3746
(dp3747
g65
(dp3748
sg74
g3742
sg67
(lp3749
g60
(g61
g62
NtRp3750
(dp3751
g65
(dp3752
g73
I3
ssg74
g3746
sg67
(lp3753
g60
(g69
g62
NtRp3754
(dp3755
g65
(dp3756
g73
I2
ssg74
Nsg67
(lp3757
g60
(g76
g62
NtRp3758
(dp3759
g65
(dp3760
sg74
g3754
sg67
(lp3761
g60
(g81
g62
NtRp3762
(dp3763
g65
(dp3764
sg74
g3758
sg67
(lp3765
g60
(g61
g62
NtRp3766
(dp3767
g65
(dp3768
g73
I2
ssg74
g3762
sg67
(lp3769
g60
(g69
g62
NtRp3770
(dp3771
g65
(dp3772
g73
I1
ssg74
Nsg67
(lp3773
g60
(g76
g62
NtRp3774
(dp3775
g65
(dp3776
sg74
g3770
sg67
(lp3777
g60
(g81
g62
NtRp3778
(dp3779
g65
(dp3780
sg74
g3774
sg67
(lp3781
g60
(g61
g62
NtRp3782
(dp3783
g65
(dp3784
g73
I1
ssg74
g3778
sg67
(lp3785
g3645
(S't\n\x00\x00\x00Controller'
tRp3786
asbasbasbag60
(g76
g62
NtRp3787
(dp3788
g65
(dp3789
sg74
g3770
sg67
(lp3790
g60
(g81
g62
NtRp3791
(dp3792
g65
(dp3793
sg74
g3787
sg67
(lp3794
g60
(g61
g62
NtRp3795
(dp3796
g65
(dp3797
g73
I1
ssg74
g3791
sg67
(lp3798
I00
asbasbasbag60
(g76
g62
NtRp3799
(dp3800
g65
(dp3801
sg74
g3770
sg67
(lp3802
g60
(g81
g62
NtRp3803
(dp3804
g65
(dp3805
sg74
g3799
sg67
(lp3806
g60
(g61
g62
NtRp3807
(dp3808
g65
(dp3809
g73
I1
ssg74
g3803
sg67
(lp3810
S'/admin/default/edit/wp/controllers/default.py'
p3811
asbasbasbasbasbasbasbag60
(g76
g62
NtRp3812
(dp3813
g65
(dp3814
sg74
g3754
sg67
(lp3815
g60
(g81
g62
NtRp3816
(dp3817
g65
(dp3818
sg74
g3812
sg67
(lp3819
g60
(g61
g62
NtRp3820
(dp3821
g65
(dp3822
g73
I2
ssg74
g3816
sg67
(lp3823
g60
(g69
g62
NtRp3824
(dp3825
g65
(dp3826
g73
I1
ssg74
Nsg67
(lp3827
g60
(g76
g62
NtRp3828
(dp3829
g65
(dp3830
sg74
g3824
sg67
(lp3831
g60
(g81
g62
NtRp3832
(dp3833
g65
(dp3834
sg74
g3828
sg67
(lp3835
g60
(g61
g62
NtRp3836
(dp3837
g65
(dp3838
g73
I1
ssg74
g3832
sg67
(lp3839
g3645
(S't\x04\x00\x00\x00View'
tRp3840
asbasbasbag60
(g76
g62
NtRp3841
(dp3842
g65
(dp3843
sg74
g3824
sg67
(lp3844
g60
(g81
g62
NtRp3845
(dp3846
g65
(dp3847
sg74
g3841
sg67
(lp3848
g60
(g61
g62
NtRp3849
(dp3850
g65
(dp3851
g73
I1
ssg74
g3845
sg67
(lp3852
I00
asbasbasbag60
(g76
g62
NtRp3853
(dp3854
g65
(dp3855
sg74
g3824
sg67
(lp3856
g60
(g81
g62
NtRp3857
(dp3858
g65
(dp3859
sg74
g3853
sg67
(lp3860
g60
(g61
g62
NtRp3861
(dp3862
g65
(dp3863
g73
I1
ssg74
g3857
sg67
(lp3864
S'/admin/default/edit/wp/views/default/submit.html'
p3865
asbasbasbasbasbasbasbag60
(g76
g62
NtRp3866
(dp3867
g65
(dp3868
sg74
g3754
sg67
(lp3869
g60
(g81
g62
NtRp3870
(dp3871
g65
(dp3872
sg74
g3866
sg67
(lp3873
g60
(g61
g62
NtRp3874
(dp3875
g65
(dp3876
g73
I2
ssg74
g3870
sg67
(lp3877
g60
(g69
g62
NtRp3878
(dp3879
g65
(dp3880
g73
I1
ssg74
Nsg67
(lp3881
g60
(g76
g62
NtRp3882
(dp3883
g65
(dp3884
sg74
g3878
sg67
(lp3885
g60
(g81
g62
NtRp3886
(dp3887
g65
(dp3888
sg74
g3882
sg67
(lp3889
g60
(g61
g62
NtRp3890
(dp3891
g65
(dp3892
g73
I1
ssg74
g3886
sg67
(lp3893
g3645
(S't\x06\x00\x00\x00Layout'
tRp3894
asbasbasbag60
(g76
g62
NtRp3895
(dp3896
g65
(dp3897
sg74
g3878
sg67
(lp3898
g60
(g81
g62
NtRp3899
(dp3900
g65
(dp3901
sg74
g3895
sg67
(lp3902
g60
(g61
g62
NtRp3903
(dp3904
g65
(dp3905
g73
I1
ssg74
g3899
sg67
(lp3906
I00
asbasbasbag60
(g76
g62
NtRp3907
(dp3908
g65
(dp3909
sg74
g3878
sg67
(lp3910
g60
(g81
g62
NtRp3911
(dp3912
g65
(dp3913
sg74
g3907
sg67
(lp3914
g60
(g61
g62
NtRp3915
(dp3916
g65
(dp3917
g73
I1
ssg74
g3911
sg67
(lp3918
S'/admin/default/edit/wp/views/layout.html'
p3919
asbasbasbasbasbasbasbag60
(g76
g62
NtRp3920
(dp3921
g65
(dp3922
sg74
g3754
sg67
(lp3923
g60
(g81
g62
NtRp3924
(dp3925
g65
(dp3926
sg74
g3920
sg67
(lp3927
g60
(g61
g62
NtRp3928
(dp3929
g65
(dp3930
g73
I2
ssg74
g3924
sg67
(lp3931
g60
(g69
g62
NtRp3932
(dp3933
g65
(dp3934
g73
I1
ssg74
Nsg67
(lp3935
g60
(g76
g62
NtRp3936
(dp3937
g65
(dp3938
sg74
g3932
sg67
(lp3939
g60
(g81
g62
NtRp3940
(dp3941
g65
(dp3942
sg74
g3936
sg67
(lp3943
g60
(g61
g62
NtRp3944
(dp3945
g65
(dp3946
g73
I1
ssg74
g3940
sg67
(lp3947
g3645
(S't\n\x00\x00\x00Stylesheet'
tRp3948
asbasbasbag60
(g76
g62
NtRp3949
(dp3950
g65
(dp3951
sg74
g3932
sg67
(lp3952
g60
(g81
g62
NtRp3953
(dp3954
g65
(dp3955
sg74
g3949
sg67
(lp3956
g60
(g61
g62
NtRp3957
(dp3958
g65
(dp3959
g73
I1
ssg74
g3953
sg67
(lp3960
I00
asbasbasbag60
(g76
g62
NtRp3961
(dp3962
g65
(dp3963
sg74
g3932
sg67
(lp3964
g60
(g81
g62
NtRp3965
(dp3966
g65
(dp3967
sg74
g3961
sg67
(lp3968
g60
(g61
g62
NtRp3969
(dp3970
g65
(dp3971
g73
I1
ssg74
g3965
sg67
(lp3972
S'/admin/default/edit/wp/static/base.css'
p3973
asbasbasbasbasbasbasbag60
(g76
g62
NtRp3974
(dp3975
g65
(dp3976
sg74
g3754
sg67
(lp3977
g60
(g81
g62
NtRp3978
(dp3979
g65
(dp3980
sg74
g3974
sg67
(lp3981
g60
(g61
g62
NtRp3982
(dp3983
g65
(dp3984
g73
I2
ssg74
g3978
sg67
(lp3985
g60
(g69
g62
NtRp3986
(dp3987
g65
(dp3988
g73
I1
ssg74
Nsg67
(lp3989
g60
(g76
g62
NtRp3990
(dp3991
g65
(dp3992
sg74
g3986
sg67
(lp3993
g60
(g81
g62
NtRp3994
(dp3995
g65
(dp3996
sg74
g3990
sg67
(lp3997
g60
(g61
g62
NtRp3998
(dp3999
g65
(dp4000
g73
I1
ssg74
g3994
sg67
(lp4001
g3645
(S's\x08\x00\x00\x00DB Model'
tRp4002
asbasbasbag60
(g76
g62
NtRp4003
(dp4004
g65
(dp4005
sg74
g3986
sg67
(lp4006
g60
(g81
g62
NtRp4007
(dp4008
g65
(dp4009
sg74
g4003
sg67
(lp4010
g60
(g61
g62
NtRp4011
(dp4012
g65
(dp4013
g73
I1
ssg74
g4007
sg67
(lp4014
I00
asbasbasbag60
(g76
g62
NtRp4015
(dp4016
g65
(dp4017
sg74
g3986
sg67
(lp4018
g60
(g81
g62
NtRp4019
(dp4020
g65
(dp4021
sg74
g4015
sg67
(lp4022
g60
(g61
g62
NtRp4023
(dp4024
g65
(dp4025
g73
I1
ssg74
g4019
sg67
(lp4026
S'/admin/default/edit/wp/models/db.py'
p4027
asbasbasbasbasbasbasbag60
(g76
g62
NtRp4028
(dp4029
g65
(dp4030
sg74
g3754
sg67
(lp4031
g60
(g81
g62
NtRp4032
(dp4033
g65
(dp4034
sg74
g4028
sg67
(lp4035
g60
(g61
g62
NtRp4036
(dp4037
g65
(dp4038
g73
I2
ssg74
g4032
sg67
(lp4039
g60
(g69
g62
NtRp4040
(dp4041
g65
(dp4042
g73
I1
ssg74
Nsg67
(lp4043
g60
(g76
g62
NtRp4044
(dp4045
g65
(dp4046
sg74
g4040
sg67
(lp4047
g60
(g81
g62
NtRp4048
(dp4049
g65
(dp4050
sg74
g4044
sg67
(lp4051
g60
(g61
g62
NtRp4052
(dp4053
g65
(dp4054
g73
I1
ssg74
g4048
sg67
(lp4055
g3645
(S's\n\x00\x00\x00Menu Model'
tRp4056
asbasbasbag60
(g76
g62
NtRp4057
(dp4058
g65
(dp4059
sg74
g4040
sg67
(lp4060
g60
(g81
g62
NtRp4061
(dp4062
g65
(dp4063
sg74
g4057
sg67
(lp4064
g60
(g61
g62
NtRp4065
(dp4066
g65
(dp4067
g73
I1
ssg74
g4061
sg67
(lp4068
I00
asbasbasbag60
(g76
g62
NtRp4069
(dp4070
g65
(dp4071
sg74
g4040
sg67
(lp4072
g60
(g81
g62
NtRp4073
(dp4074
g65
(dp4075
sg74
g4069
sg67
(lp4076
g60
(g61
g62
NtRp4077
(dp4078
g65
(dp4079
g73
I1
ssg74
g4073
sg67
(lp4080
S'/admin/default/edit/wp/models/menu.py'
p4081
asbasbasbasbasbasbasbag60
(g76
g62
NtRp4082
(dp4083
g65
(dp4084
sg74
g3754
sg67
(lp4085
g60
(g81
g62
NtRp4086
(dp4087
g65
(dp4088
sg74
g4082
sg67
(lp4089
g60
(g61
g62
NtRp4090
(dp4091
g65
(dp4092
g73
I2
ssg74
g4086
sg67
(lp4093
g60
(g69
g62
NtRp4094
(dp4095
g65
(dp4096
g73
I1
ssg74
Nsg67
(lp4097
g60
(g76
g62
NtRp4098
(dp4099
g65
(dp4100
sg74
g4094
sg67
(lp4101
g60
(g81
g62
NtRp4102
(dp4103
g65
(dp4104
sg74
g4098
sg67
(lp4105
g60
(g61
g62
NtRp4106
(dp4107
g65
(dp4108
g73
I1
ssg74
g4102
sg67
(lp4109
g3645
(S't\x08\x00\x00\x00Database'
tRp4110
asbasbasbag60
(g76
g62
NtRp4111
(dp4112
g65
(dp4113
sg74
g4094
sg67
(lp4114
g60
(g81
g62
NtRp4115
(dp4116
g65
(dp4117
sg74
g4111
sg67
(lp4118
g60
(g61
g62
NtRp4119
(dp4120
g65
(dp4121
g73
I1
ssg74
g4115
sg67
(lp4122
I00
asbasbasbag60
(g76
g62
NtRp4123
(dp4124
g65
(dp4125
sg74
g4094
sg67
(lp4126
g60
(g81
g62
NtRp4127
(dp4128
g65
(dp4129
sg74
g4123
sg67
(lp4130
g60
(g61
g62
NtRp4131
(dp4132
g65
(dp4133
g73
I1
ssg74
g4127
sg67
(lp4134
S'/wp/appadmin/index'
p4135
asbasbasbasbasbasbasbag60
(g76
g62
NtRp4136
(dp4137
g65
(dp4138
sg74
g3754
sg67
(lp4139
g60
(g81
g62
NtRp4140
(dp4141
g65
(dp4142
sg74
g4136
sg67
(lp4143
g60
(g61
g62
NtRp4144
(dp4145
g65
(dp4146
g73
I2
ssg74
g4140
sg67
(lp4147
g60
(g69
g62
NtRp4148
(dp4149
g65
(dp4150
g73
I1
ssg74
Nsg67
(lp4151
g60
(g76
g62
NtRp4152
(dp4153
g65
(dp4154
sg74
g4148
sg67
(lp4155
g60
(g81
g62
NtRp4156
(dp4157
g65
(dp4158
sg74
g4152
sg67
(lp4159
g60
(g61
g62
NtRp4160
(dp4161
g65
(dp4162
g73
I1
ssg74
g4156
sg67
(lp4163
g3645
(S't\x06\x00\x00\x00Errors'
tRp4164
asbasbasbag60
(g76
g62
NtRp4165
(dp4166
g65
(dp4167
sg74
g4148
sg67
(lp4168
g60
(g81
g62
NtRp4169
(dp4170
g65
(dp4171
sg74
g4165
sg67
(lp4172
g60
(g61
g62
NtRp4173
(dp4174
g65
(dp4175
g73
I1
ssg74
g4169
sg67
(lp4176
I00
asbasbasbag60
(g76
g62
NtRp4177
(dp4178
g65
(dp4179
sg74
g4148
sg67
(lp4180
g60
(g81
g62
NtRp4181
(dp4182
g65
(dp4183
sg74
g4177
sg67
(lp4184
g60
(g61
g62
NtRp4185
(dp4186
g65
(dp4187
g73
I1
ssg74
g4181
sg67
(lp4188
S'/admin/default/errors/wp'
p4189
asbasbasbasbasbasbasbag60
(g76
g62
NtRp4190
(dp4191
g65
(dp4192
sg74
g3754
sg67
(lp4193
g60
(g81
g62
NtRp4194
(dp4195
g65
(dp4196
sg74
g4190
sg67
(lp4197
g60
(g61
g62
NtRp4198
(dp4199
g65
(dp4200
g73
I2
ssg74
g4194
sg67
(lp4201
g60
(g69
g62
NtRp4202
(dp4203
g65
(dp4204
g73
I1
ssg74
Nsg67
(lp4205
g60
(g76
g62
NtRp4206
(dp4207
g65
(dp4208
sg74
g4202
sg67
(lp4209
g60
(g81
g62
NtRp4210
(dp4211
g65
(dp4212
sg74
g4206
sg67
(lp4213
g60
(g61
g62
NtRp4214
(dp4215
g65
(dp4216
g73
I1
ssg74
g4210
sg67
(lp4217
g3645
(S't\x05\x00\x00\x00About'
tRp4218
asbasbasbag60
(g76
g62
NtRp4219
(dp4220
g65
(dp4221
sg74
g4202
sg67
(lp4222
g60
(g81
g62
NtRp4223
(dp4224
g65
(dp4225
sg74
g4219
sg67
(lp4226
g60
(g61
g62
NtRp4227
(dp4228
g65
(dp4229
g73
I1
ssg74
g4223
sg67
(lp4230
I00
asbasbasbag60
(g76
g62
NtRp4231
(dp4232
g65
(dp4233
sg74
g4202
sg67
(lp4234
g60
(g81
g62
NtRp4235
(dp4236
g65
(dp4237
sg74
g4231
sg67
(lp4238
g60
(g61
g62
NtRp4239
(dp4240
g65
(dp4241
g73
I1
ssg74
g4235
sg67
(lp4242
S'/admin/default/about/wp'
p4243
asbasbasbasbasbasbasbasbasbasbasbasbasbasbasbag60
(g76
g62
NtRp4244
(dp4245
g65
(dp4246
sg74
g3613
sg67
(lp4247
g60
(g81
g62
NtRp4248
(dp4249
g65
(dp4250
sg74
g4244
sg67
(lp4251
g60
(g61
g62
NtRp4252
(dp4253
g65
(dp4254
g73
I4
ssg74
g4248
sg67
(lp4255
g60
(g69
g62
NtRp4256
(dp4257
g65
(dp4258
g73
I3
ssg74
Nsg67
(lp4259
g60
(g76
g62
NtRp4260
(dp4261
g65
(dp4262
sg74
g4256
sg67
(lp4263
g60
(g81
g62
NtRp4264
(dp4265
g65
(dp4266
sg74
g4260
sg67
(lp4267
g60
(g61
g62
NtRp4268
(dp4269
g65
(dp4270
g73
I3
ssg74
g4264
sg67
(lp4271
g3645
(S't\t\x00\x00\x00Resources'
tRp4272
asbasbasbag60
(g76
g62
NtRp4273
(dp4274
g65
(dp4275
sg74
g4256
sg67
(lp4276
g60
(g81
g62
NtRp4277
(dp4278
g65
(dp4279
sg74
g4273
sg67
(lp4280
g60
(g61
g62
NtRp4281
(dp4282
g65
(dp4283
g73
I3
ssg74
g4277
sg67
(lp4284
g103
asbasbasbag60
(g76
g62
NtRp4285
(dp4286
g65
(dp4287
sg74
g4256
sg67
(lp4288
g60
(g81
g62
NtRp4289
(dp4290
g65
(dp4291
sg74
g4285
sg67
(lp4292
g60
(g61
g62
NtRp4293
(dp4294
g65
(dp4295
g73
I3
ssg74
g4289
sg67
(lp4296
S'None'
p4297
asbasbasbag60
(g76
g62
NtRp4298
(dp4299
g65
(dp4300
sg74
g4256
sg67
(lp4301
g60
(g81
g62
NtRp4302
(dp4303
g65
(dp4304
sg74
g4298
sg67
(lp4305
g60
(g61
g62
NtRp4306
(dp4307
g65
(dp4308
g73
I3
ssg74
g4302
sg67
(lp4309
g60
(g69
g62
NtRp4310
(dp4311
g65
(dp4312
g73
I2
ssg74
Nsg67
(lp4313
g60
(g76
g62
NtRp4314
(dp4315
g65
(dp4316
sg74
g4310
sg67
(lp4317
g60
(g81
g62
NtRp4318
(dp4319
g65
(dp4320
sg74
g4314
sg67
(lp4321
g60
(g61
g62
NtRp4322
(dp4323
g65
(dp4324
g73
I2
ssg74
g4318
sg67
(lp4325
g60
(g69
g62
NtRp4326
(dp4327
g65
(dp4328
g73
I1
ssg74
Nsg67
(lp4329
g60
(g76
g62
NtRp4330
(dp4331
g65
(dp4332
sg74
g4326
sg67
(lp4333
g60
(g81
g62
NtRp4334
(dp4335
g65
(dp4336
sg74
g4330
sg67
(lp4337
g60
(g61
g62
NtRp4338
(dp4339
g65
(dp4340
g73
I1
ssg74
g4334
sg67
(lp4341
g3645
(S't\r\x00\x00\x00Documentation'
tRp4342
asbasbasbag60
(g76
g62
NtRp4343
(dp4344
g65
(dp4345
sg74
g4326
sg67
(lp4346
g60
(g81
g62
NtRp4347
(dp4348
g65
(dp4349
sg74
g4343
sg67
(lp4350
g60
(g61
g62
NtRp4351
(dp4352
g65
(dp4353
g73
I1
ssg74
g4347
sg67
(lp4354
I00
asbasbasbag60
(g76
g62
NtRp4355
(dp4356
g65
(dp4357
sg74
g4326
sg67
(lp4358
g60
(g81
g62
NtRp4359
(dp4360
g65
(dp4361
sg74
g4355
sg67
(lp4362
g60
(g61
g62
NtRp4363
(dp4364
g65
(dp4365
g73
I1
ssg74
g4359
sg67
(lp4366
S'http://www.web2py.com/book'
p4367
asbasbasbag60
(g76
g62
NtRp4368
(dp4369
g65
(dp4370
sg74
g4326
sg67
(lp4371
g60
(g81
g62
NtRp4372
(dp4373
g65
(dp4374
sg74
g4368
sg67
(lp4375
g60
(g61
g62
NtRp4376
(dp4377
g65
(dp4378
g73
I1
ssg74
g4372
sg67
(lp4379
(lp4380
(g3645
(S't\x07\x00\x00\x00Preface'
tRp4381
I00
S'http://www.web2py.com/book/default/chapter/00'
tp4382
a(g3645
(S't\x0c\x00\x00\x00Introduction'
tRp4383
I00
S'http://www.web2py.com/book/default/chapter/01'
tp4384
a(g3645
(S't\x06\x00\x00\x00Python'
tRp4385
I00
S'http://www.web2py.com/book/default/chapter/02'
tp4386
a(g3645
(S't\x08\x00\x00\x00Overview'
tRp4387
I00
S'http://www.web2py.com/book/default/chapter/03'
tp4388
a(g3645
(S's\x08\x00\x00\x00The Core'
tRp4389
I00
S'http://www.web2py.com/book/default/chapter/04'
tp4390
a(g3645
(S's\t\x00\x00\x00The Views'
tRp4391
I00
S'http://www.web2py.com/book/default/chapter/05'
tp4392
a(g3645
(S't\x08\x00\x00\x00Database'
tRp4393
I00
S'http://www.web2py.com/book/default/chapter/06'
tp4394
a(g3645
(S's\x14\x00\x00\x00Forms and Validators'
tRp4395
I00
S'http://www.web2py.com/book/default/chapter/07'
tp4396
a(g3645
(S's\x0e\x00\x00\x00Access Control'
tRp4397
I00
S'http://www.web2py.com/book/default/chapter/08'
tp4398
a(g3645
(S't\x08\x00\x00\x00Services'
tRp4399
I00
S'http://www.web2py.com/book/default/chapter/09'
tp4400
a(g3645
(S's\x0c\x00\x00\x00Ajax Recipes'
tRp4401
I00
S'http://www.web2py.com/book/default/chapter/10'
tp4402
a(g3645
(S's\x12\x00\x00\x00Deployment Recipes'
tRp4403
I00
S'http://www.web2py.com/book/default/chapter/11'
tp4404
a(g3645
(S's\r\x00\x00\x00Other Recipes'
tRp4405
I00
S'http://www.web2py.com/book/default/chapter/12'
tp4406
a(g3645
(S's\r\x00\x00\x00Buy this book'
tRp4407
I00
S'http://stores.lulu.com/web2py'
tp4408
aasbasbasbasbasbasbasbag60
(g76
g62
NtRp4409
(dp4410
g65
(dp4411
sg74
g4310
sg67
(lp4412
g60
(g81
g62
NtRp4413
(dp4414
g65
(dp4415
sg74
g4409
sg67
(lp4416
g60
(g61
g62
NtRp4417
(dp4418
g65
(dp4419
g73
I2
ssg74
g4413
sg67
(lp4420
g60
(g69
g62
NtRp4421
(dp4422
g65
(dp4423
g73
I1
ssg74
Nsg67
(lp4424
g60
(g76
g62
NtRp4425
(dp4426
g65
(dp4427
sg74
g4421
sg67
(lp4428
g60
(g81
g62
NtRp4429
(dp4430
g65
(dp4431
sg74
g4425
sg67
(lp4432
g60
(g61
g62
NtRp4433
(dp4434
g65
(dp4435
g73
I1
ssg74
g4429
sg67
(lp4436
g3645
(S't\t\x00\x00\x00Community'
tRp4437
asbasbasbag60
(g76
g62
NtRp4438
(dp4439
g65
(dp4440
sg74
g4421
sg67
(lp4441
g60
(g81
g62
NtRp4442
(dp4443
g65
(dp4444
sg74
g4438
sg67
(lp4445
g60
(g61
g62
NtRp4446
(dp4447
g65
(dp4448
g73
I1
ssg74
g4442
sg67
(lp4449
I00
asbasbasbag60
(g76
g62
NtRp4450
(dp4451
g65
(dp4452
sg74
g4421
sg67
(lp4453
g60
(g81
g62
NtRp4454
(dp4455
g65
(dp4456
sg74
g4450
sg67
(lp4457
g60
(g61
g62
NtRp4458
(dp4459
g65
(dp4460
g73
I1
ssg74
g4454
sg67
(lp4461
Nasbasbasbag60
(g76
g62
NtRp4462
(dp4463
g65
(dp4464
sg74
g4421
sg67
(lp4465
g60
(g81
g62
NtRp4466
(dp4467
g65
(dp4468
sg74
g4462
sg67
(lp4469
g60
(g61
g62
NtRp4470
(dp4471
g65
(dp4472
g73
I1
ssg74
g4466
sg67
(lp4473
(lp4474
(g3645
(S't\x06\x00\x00\x00Groups'
tRp4475
I00
S'http://www.web2py.com/examples/default/usergroups'
tp4476
a(g3645
(S't\x07\x00\x00\x00Twitter'
tRp4477
I00
S'http://twitter.com/web2py'
tp4478
a(g3645
(S's\t\x00\x00\x00Live chat'
tRp4479
I00
S'http://mibbit.com/?channel=%23web2py&server=irc.mibbit.net'
tp4480
a(g3645
(S's\n\x00\x00\x00User Voice'
tRp4481
I00
S'http://web2py.uservoice.com/'
tp4482
aasbasbasbasbasbasbasbag60
(g76
g62
NtRp4483
(dp4484
g65
(dp4485
sg74
g4310
sg67
(lp4486
g60
(g81
g62
NtRp4487
(dp4488
g65
(dp4489
sg74
g4483
sg67
(lp4490
g60
(g61
g62
NtRp4491
(dp4492
g65
(dp4493
g73
I2
ssg74
g4487
sg67
(lp4494
g60
(g69
g62
NtRp4495
(dp4496
g65
(dp4497
g73
I1
ssg74
Nsg67
(lp4498
g60
(g76
g62
NtRp4499
(dp4500
g65
(dp4501
sg74
g4495
sg67
(lp4502
g60
(g81
g62
NtRp4503
(dp4504
g65
(dp4505
sg74
g4499
sg67
(lp4506
g60
(g61
g62
NtRp4507
(dp4508
g65
(dp4509
g73
I1
ssg74
g4503
sg67
(lp4510
g3645
(S't\x06\x00\x00\x00Web2py'
tRp4511
asbasbasbag60
(g76
g62
NtRp4512
(dp4513
g65
(dp4514
sg74
g4495
sg67
(lp4515
g60
(g81
g62
NtRp4516
(dp4517
g65
(dp4518
sg74
g4512
sg67
(lp4519
g60
(g61
g62
NtRp4520
(dp4521
g65
(dp4522
g73
I1
ssg74
g4516
sg67
(lp4523
I00
asbasbasbag60
(g76
g62
NtRp4524
(dp4525
g65
(dp4526
sg74
g4495
sg67
(lp4527
g60
(g81
g62
NtRp4528
(dp4529
g65
(dp4530
sg74
g4524
sg67
(lp4531
g60
(g61
g62
NtRp4532
(dp4533
g65
(dp4534
g73
I1
ssg74
g4528
sg67
(lp4535
S'http://www.web2py.com'
p4536
asbasbasbag60
(g76
g62
NtRp4537
(dp4538
g65
(dp4539
sg74
g4495
sg67
(lp4540
g60
(g81
g62
NtRp4541
(dp4542
g65
(dp4543
sg74
g4537
sg67
(lp4544
g60
(g61
g62
NtRp4545
(dp4546
g65
(dp4547
g73
I1
ssg74
g4541
sg67
(lp4548
(lp4549
(g3645
(S't\x08\x00\x00\x00Download'
tRp4550
I00
S'http://www.web2py.com/examples/default/download'
tp4551
a(g3645
(S't\x07\x00\x00\x00Support'
tRp4552
I00
S'http://www.web2py.com/examples/default/support'
tp4553
a(g3645
(S's\x0e\x00\x00\x00Quick Examples'
tRp4554
I00
S'http://web2py.com/examples/default/examples'
tp4555
a(g3645
(S't\x03\x00\x00\x00FAQ'
tRp4556
I00
S'http://web2py.com/AlterEgo'
tp4557
a(g3645
(S's\x11\x00\x00\x00Free Applications'
tRp4558
I00
S'http://web2py.com/appliances'
tp4559
a(g3645
(S't\x07\x00\x00\x00Plugins'
tRp4560
I00
S'http://web2py.com/plugins'
tp4561
a(g3645
(S't\x07\x00\x00\x00Recipes'
tRp4562
I00
S'http://web2pyslices.com/'
tp4563
a(g3645
(S't\x04\x00\x00\x00Demo'
tRp4564
I00
S'http://web2py.com/demo_admin'
tp4565
a(g3645
(S't\x08\x00\x00\x00Semantic'
tRp4566
I00
S'http://web2py.com/semantic'
tp4567
a(g3645
(S't\x07\x00\x00\x00Layouts'
tRp4568
I00
S'http://web2py.com/layouts'
tp4569
a(g3645
(S't\x06\x00\x00\x00Videos'
tRp4570
I00
S'http://www.web2py.com/examples/default/videos/'
tp4571
aasbasbasbasbasbasbasbasbasbasbasbasbasbasbasbasbasbasbasbag60
(g76
g62
NtRp4572
(dp4573
g65
(dp4574
sg74
g3177
sg67
(lp4575
g60
(g81
g62
NtRp4576
(dp4577
g65
(dp4578
g85
g86
ssg74
g4572
sg67
(lp4579
S'meta'
p4580
asbag60
(g81
g62
NtRp4581
(dp4582
g65
(dp4583
g92
g93
ssg74
g4572
sg67
(lp4584
S':'
asbag60
(g81
g62
NtRp4585
(dp4586
g65
(dp4587
sg74
g4572
sg67
(lp4588
g60
(g61
g62
NtRp4589
(dp4590
g65
(dp4591
g73
I5
ssg74
g4585
sg67
(lp4592
g60
(g69
g62
NtRp4593
(dp4594
g65
(dp4595
g73
I4
ssg74
Nsg67
(lp4596
g60
(g76
g62
NtRp4597
(dp4598
g65
(dp4599
sg74
g4593
sg67
(lp4600
g60
(g81
g62
NtRp4601
(dp4602
g65
(dp4603
g85
g86
ssg74
g4597
sg67
(lp4604
S'author'
p4605
asbag60
(g81
g62
NtRp4606
(dp4607
g65
(dp4608
g92
g93
ssg74
g4597
sg67
(lp4609
S':'
asbag60
(g81
g62
NtRp4610
(dp4611
g65
(dp4612
sg74
g4597
sg67
(lp4613
g60
(g61
g62
NtRp4614
(dp4615
g65
(dp4616
g73
I4
ssg74
g4610
sg67
(lp4617
S'you'
p4618
asbasbasbag60
(g76
g62
NtRp4619
(dp4620
g65
(dp4621
sg74
g4593
sg67
(lp4622
g60
(g81
g62
NtRp4623
(dp4624
g65
(dp4625
g85
g86
ssg74
g4619
sg67
(lp4626
S'copyright'
p4627
asbag60
(g81
g62
NtRp4628
(dp4629
g65
(dp4630
g92
g93
ssg74
g4619
sg67
(lp4631
S':'
asbag60
(g81
g62
NtRp4632
(dp4633
g65
(dp4634
sg74
g4619
sg67
(lp4635
g60
(g61
g62
NtRp4636
(dp4637
g65
(dp4638
g73
I4
ssg74
g4632
sg67
(lp4639
S'Copyright 2007-2010'
p4640
asbasbasbag60
(g76
g62
NtRp4641
(dp4642
g65
(dp4643
sg74
g4593
sg67
(lp4644
g60
(g81
g62
NtRp4645
(dp4646
g65
(dp4647
g85
g86
ssg74
g4641
sg67
(lp4648
S'description'
p4649
asbag60
(g81
g62
NtRp4650
(dp4651
g65
(dp4652
g92
g93
ssg74
g4641
sg67
(lp4653
S':'
asbag60
(g81
g62
NtRp4654
(dp4655
g65
(dp4656
sg74
g4641
sg67
(lp4657
g60
(g61
g62
NtRp4658
(dp4659
g65
(dp4660
g73
I4
ssg74
g4654
sg67
(lp4661
S'Free and open source full-stack enterprise framework for agile development of fast, scalable, secure and portable database-driven web-based applications. Written and programmable in Python'
p4662
asbasbasbag60
(g76
g62
NtRp4663
(dp4664
g65
(dp4665
sg74
g4593
sg67
(lp4666
g60
(g81
g62
NtRp4667
(dp4668
g65
(dp4669
g85
g86
ssg74
g4663
sg67
(lp4670
S'generator'
p4671
asbag60
(g81
g62
NtRp4672
(dp4673
g65
(dp4674
g92
g93
ssg74
g4663
sg67
(lp4675
S':'
asbag60
(g81
g62
NtRp4676
(dp4677
g65
(dp4678
sg74
g4663
sg67
(lp4679
g60
(g61
g62
NtRp4680
(dp4681
g65
(dp4682
g73
I4
ssg74
g4676
sg67
(lp4683
S'Web2py Enterprise Framework'
p4684
asbasbasbag60
(g76
g62
NtRp4685
(dp4686
g65
(dp4687
sg74
g4593
sg67
(lp4688
g60
(g81
g62
NtRp4689
(dp4690
g65
(dp4691
g85
g86
ssg74
g4685
sg67
(lp4692
S'keywords'
p4693
asbag60
(g81
g62
NtRp4694
(dp4695
g65
(dp4696
g92
g93
ssg74
g4685
sg67
(lp4697
S':'
asbag60
(g81
g62
NtRp4698
(dp4699
g65
(dp4700
sg74
g4685
sg67
(lp4701
g60
(g61
g62
NtRp4702
(dp4703
g65
(dp4704
g73
I4
ssg74
g4698
sg67
(lp4705
S'web2py, python, framework'
p4706
asbasbasbasbasbasbasbag60
(g76
g62
NtRp4707
(dp4708
g65
(dp4709
sg74
g3177
sg67
(lp4710
g60
(g81
g62
NtRp4711
(dp4712
g65
(dp4713
g85
g86
ssg74
g4707
sg67
(lp4714
S'postprocessing'
p4715
asbag60
(g81
g62
NtRp4716
(dp4717
g65
(dp4718
g92
g93
ssg74
g4707
sg67
(lp4719
S':'
asbag60
(g81
g62
NtRp4720
(dp4721
g65
(dp4722
sg74
g4707
sg67
(lp4723
g60
(g61
g62
NtRp4724
(dp4725
g65
(dp4726
g73
I5
ssg74
g4720
sg67
(lp4727
g60
(g69
g62
NtRp4728
(dp4729
g65
(dp4730
g73
I4
ssg74
Nsg67
(lp4731
sbasbasbasbag60
(g76
g62
NtRp4732
(dp4733
g65
(dp4734
sg74
g3177
sg67
(lp4735
g60
(g81
g62
NtRp4736
(dp4737
g65
(dp4738
g85
g86
ssg74
g4732
sg67
(lp4739
S'session_file'
p4740
asbag60
(g81
g62
NtRp4741
(dp4742
g65
(dp4743
g92
g93
ssg74
g4732
sg67
(lp4744
S':'
asbag60
(g81
g62
NtRp4745
(dp4746
g65
(dp4747
sg74
g4732
sg67
(lp4748
g60
(g61
g62
NtRp4749
(dp4750
g65
(dp4751
g73
I5
ssg74
g4745
sg67
(lp4752
S"<open file '/Users/schultzc/Downloads/web2py/applications/wp/sessions/127.0.0.1-4ae5dea5-ff1f-4183-9dd8-91bc42c0702b', mode 'rb+' at 0x101b77300>"
p4753
asbasbasbag60
(g76
g62
NtRp4754
(dp4755
g65
(dp4756
sg74
g3177
sg67
(lp4757
g60
(g81
g62
NtRp4758
(dp4759
g65
(dp4760
g85
g86
ssg74
g4754
sg67
(lp4761
S'session_filename'
p4762
asbag60
(g81
g62
NtRp4763
(dp4764
g65
(dp4765
g92
g93
ssg74
g4754
sg67
(lp4766
S':'
asbag60
(g81
g62
NtRp4767
(dp4768
g65
(dp4769
sg74
g4754
sg67
(lp4770
g60
(g61
g62
NtRp4771
(dp4772
g65
(dp4773
g73
I5
ssg74
g4767
sg67
(lp4774
S'/Users/schultzc/Downloads/web2py/applications/wp/sessions/127.0.0.1-4ae5dea5-ff1f-4183-9dd8-91bc42c0702b'
p4775
asbasbasbag60
(g76
g62
NtRp4776
(dp4777
g65
(dp4778
sg74
g3177
sg67
(lp4779
g60
(g81
g62
NtRp4780
(dp4781
g65
(dp4782
g85
g86
ssg74
g4776
sg67
(lp4783
S'session_id'
p4784
asbag60
(g81
g62
NtRp4785
(dp4786
g65
(dp4787
g92
g93
ssg74
g4776
sg67
(lp4788
S':'
asbag60
(g81
g62
NtRp4789
(dp4790
g65
(dp4791
sg74
g4776
sg67
(lp4792
g60
(g61
g62
NtRp4793
(dp4794
g65
(dp4795
g73
I5
ssg74
g4789
sg67
(lp4796
S'127.0.0.1-4ae5dea5-ff1f-4183-9dd8-91bc42c0702b'
p4797
asbasbasbag60
(g76
g62
NtRp4798
(dp4799
g65
(dp4800
sg74
g3177
sg67
(lp4801
g60
(g81
g62
NtRp4802
(dp4803
g65
(dp4804
g85
g86
ssg74
g4798
sg67
(lp4805
S'session_id_name'
p4806
asbag60
(g81
g62
NtRp4807
(dp4808
g65
(dp4809
g92
g93
ssg74
g4798
sg67
(lp4810
S':'
asbag60
(g81
g62
NtRp4811
(dp4812
g65
(dp4813
sg74
g4798
sg67
(lp4814
g60
(g61
g62
NtRp4815
(dp4816
g65
(dp4817
g73
I5
ssg74
g4811
sg67
(lp4818
g3234
asbasbasbag60
(g76
g62
NtRp4819
(dp4820
g65
(dp4821
sg74
g3177
sg67
(lp4822
g60
(g81
g62
NtRp4823
(dp4824
g65
(dp4825
g85
g86
ssg74
g4819
sg67
(lp4826
S'session_locked'
p4827
asbag60
(g81
g62
NtRp4828
(dp4829
g65
(dp4830
g92
g93
ssg74
g4819
sg67
(lp4831
S':'
asbag60
(g81
g62
NtRp4832
(dp4833
g65
(dp4834
sg74
g4819
sg67
(lp4835
g60
(g61
g62
NtRp4836
(dp4837
g65
(dp4838
g73
I5
ssg74
g4832
sg67
(lp4839
g1703
asbasbasbag60
(g76
g62
NtRp4840
(dp4841
g65
(dp4842
sg74
g3177
sg67
(lp4843
g60
(g81
g62
NtRp4844
(dp4845
g65
(dp4846
g85
g86
ssg74
g4840
sg67
(lp4847
S'session_new'
p4848
asbag60
(g81
g62
NtRp4849
(dp4850
g65
(dp4851
g92
g93
ssg74
g4840
sg67
(lp4852
S':'
asbag60
(g81
g62
NtRp4853
(dp4854
g65
(dp4855
sg74
g4840
sg67
(lp4856
g60
(g61
g62
NtRp4857
(dp4858
g65
(dp4859
g73
I5
ssg74
g4853
sg67
(lp4860
g103
asbasbasbag60
(g76
g62
NtRp4861
(dp4862
g65
(dp4863
sg74
g3177
sg67
(lp4864
g60
(g81
g62
NtRp4865
(dp4866
g65
(dp4867
g85
g86
ssg74
g4861
sg67
(lp4868
S'status'
p4869
asbag60
(g81
g62
NtRp4870
(dp4871
g65
(dp4872
g92
g93
ssg74
g4861
sg67
(lp4873
S':'
asbag60
(g81
g62
NtRp4874
(dp4875
g65
(dp4876
sg74
g4861
sg67
(lp4877
g60
(g61
g62
NtRp4878
(dp4879
g65
(dp4880
g73
I5
ssg74
g4874
sg67
(lp4881
S'200'
p4882
asbasbasbag60
(g76
g62
NtRp4883
(dp4884
g65
(dp4885
sg74
g3177
sg67
(lp4886
g60
(g81
g62
NtRp4887
(dp4888
g65
(dp4889
g85
g86
ssg74
g4883
sg67
(lp4890
S'subtitle'
p4891
asbag60
(g81
g62
NtRp4892
(dp4893
g65
(dp4894
g92
g93
ssg74
g4883
sg67
(lp4895
S':'
asbag60
(g81
g62
NtRp4896
(dp4897
g65
(dp4898
sg74
g4883
sg67
(lp4899
g60
(g61
g62
NtRp4900
(dp4901
g65
(dp4902
g73
I5
ssg74
g4896
sg67
(lp4903
g3645
(S's\r\x00\x00\x00customize me!'
tRp4904
asbasbasbag60
(g76
g62
NtRp4905
(dp4906
g65
(dp4907
sg74
g3177
sg67
(lp4908
g60
(g81
g62
NtRp4909
(dp4910
g65
(dp4911
g85
g86
ssg74
g4905
sg67
(lp4912
S'title'
p4913
asbag60
(g81
g62
NtRp4914
(dp4915
g65
(dp4916
g92
g93
ssg74
g4905
sg67
(lp4917
S':'
asbag60
(g81
g62
NtRp4918
(dp4919
g65
(dp4920
sg74
g4905
sg67
(lp4921
g60
(g61
g62
NtRp4922
(dp4923
g65
(dp4924
g73
I5
ssg74
g4918
sg67
(lp4925
g125
asbasbasbag60
(g76
g62
NtRp4926
(dp4927
g65
(dp4928
sg74
g3177
sg67
(lp4929
g60
(g81
g62
NtRp4930
(dp4931
g65
(dp4932
g85
g86
ssg74
g4926
sg67
(lp4933
g2115
asbag60
(g81
g62
NtRp4934
(dp4935
g65
(dp4936
g92
g93
ssg74
g4926
sg67
(lp4937
S':'
asbag60
(g81
g62
NtRp4938
(dp4939
g65
(dp4940
sg74
g4926
sg67
(lp4941
g60
(g61
g62
NtRp4942
(dp4943
g65
(dp4944
g73
I5
ssg74
g4938
sg67
(lp4945
g2128
asbasbasbag60
(g76
g62
NtRp4946
(dp4947
g65
(dp4948
sg74
g3177
sg67
(lp4949
g60
(g81
g62
NtRp4950
(dp4951
g65
(dp4952
g85
g86
ssg74
g4946
sg67
(lp4953
S'view'
p4954
asbag60
(g81
g62
NtRp4955
(dp4956
g65
(dp4957
g92
g93
ssg74
g4946
sg67
(lp4958
S':'
asbag60
(g81
g62
NtRp4959
(dp4960
g65
(dp4961
sg74
g4946
sg67
(lp4962
g60
(g61
g62
NtRp4963
(dp4964
g65
(dp4965
g73
I5
ssg74
g4959
sg67
(lp4966
S'default/submit.html'
p4967
asbasbasbasbasbsS'locals'
p4968
(dp4969
S'query'
p4970
S'"INSERT INTO image(handle,location,file,title,pub...5656c2e706e67.png\',\'adsf\',\'2011-07-16 03:39:45\');"'
p4971
sS'self'
p4972
S'<gluon.dal.SQLiteAdapter object>'
p4973
sS'e'
S"OperationalError('no such table: image',)"
p4974
sS'fields'
p4975
S"[(<gluon.dal.Field object>, 'adsf'), (<gluon.dal.Field object>, 'asdf'), (<gluon.dal.Field object>, 'image.file.b678c582c8c79d82.4d6163537465656c2e706e67.png'), (<gluon.dal.Field object>, 'adsf'), (<gluon.dal.Field object>, datetime.datetime(2011, 7, 16, 3, 39, 45, 431340))]"
p4976
sS'table'
p4977
S"<Table {'ALL': <gluon.dal.SQLALL object at 0x101..., 'id': <gluon.dal.Field object at 0x101fa62d0>}>"
p4978
sssS'traceback'
p4979
S'Traceback (most recent call last):\n  File "/Users/schultzc/Downloads/web2py/gluon/restricted.py", line 192, in restricted\n    exec ccode in environment\n  File "/Users/schultzc/Downloads/web2py/applications/wp/controllers/default.py", line 90, in <module>\n  File "/Users/schultzc/Downloads/web2py/gluon/globals.py", line 137, in <lambda>\n    self._caller = lambda f: f()\n  File "/Users/schultzc/Downloads/web2py/applications/wp/controllers/default.py", line 20, in submit\n    if form.accepts(request.vars, session):\n  File "/Users/schultzc/Downloads/web2py/gluon/sqlhtml.py", line 1205, in accepts\n    self.vars.id = self.table.insert(**fields)\n  File "/Users/schultzc/Downloads/web2py/gluon/dal.py", line 4703, in insert\n    return self._db._adapter.insert(self,self._listify(fields))\n  File "/Users/schultzc/Downloads/web2py/gluon/dal.py", line 838, in insert\n    raise e\nOperationalError: no such table: image\n'
p4980
s.